ccopy_reg
_reconstructor
p0
(ccompas_fea.structure.structure
Structure
p1
c__builtin__
object
p2
Ntp3
Rp4
(dp5
S'constraints'
p6
(dp7
sS'displacements'
p8
(dp9
S'nset_pinned_set_disp_1'
p10
g0
(ccompas_fea.structure.displacement
GeneralDisplacement
p11
g2
Ntp12
Rp13
(dp14
S'index'
p15
I0
sS'__name__'
p16
S'GeneralDisplacement'
p17
sS'name'
p18
g10
sS'nodes'
p19
S'nset_support_wall1'
p20
sS'components'
p21
(dp22
S'z'
p23
I0
sS'xx'
p24
I0
sS'zz'
p25
I0
sS'yy'
p26
I0
sS'y'
p27
I0
sS'x'
p28
I0
ssS'axes'
p29
S'global'
p30
sbsS'nset_pinned_set_disp_2'
p31
g0
(g11
g2
Ntp32
Rp33
(dp34
g15
I1
sg16
g17
sg18
g31
sg19
S'nset_support_wall2'
p35
sg21
(dp36
g23
I0
sg24
I0
sg25
I0
sg26
I0
sg27
I0
sg28
I0
ssg29
g30
sbssS'elements'
p37
(dp38
I0
g0
(ccompas_fea.structure.element
ShellElement
p39
g2
Ntp40
Rp41
(dp42
S'mass'
p43
NsS'__name__'
p44
S'ShellElement'
p45
sS'nodes'
p46
(lp47
I0
aI1
aI3
aI2
asS'number'
p48
I0
sS'thermal'
p49
I00
sS'axes'
p50
(dp51
S'ey'
p52
NsS'ez'
p53
NsS'ex'
p54
NssS'element_property'
p55
S'elset_plate_1_element_prop'
p56
sbsI1
g0
(g39
g2
Ntp57
Rp58
(dp59
g43
Nsg44
g45
sg46
(lp60
I2
aI3
aI5
aI4
asg48
I1
sg49
I00
sg50
g51
sg55
g56
sbsI2
g0
(g39
g2
Ntp61
Rp62
(dp63
g43
Nsg44
g45
sg46
(lp64
I6
aI7
aI9
aI8
asg48
I2
sg49
I00
sg50
(dp65
g52
Nsg53
Nsg54
Nssg55
S'elset_plate_2_element_prop'
p66
sbsI3
g0
(g39
g2
Ntp67
Rp68
(dp69
g43
Nsg44
g45
sg46
(lp70
I8
aI9
aI11
aI10
asg48
I3
sg49
I00
sg50
g65
sg55
g66
sbsI4
g0
(g39
g2
Ntp71
Rp72
(dp73
g43
Nsg44
g45
sg46
(lp74
I1
aI12
aI13
aI3
asg48
I4
sg49
I00
sg50
(dp75
g52
Nsg53
Nsg54
Nssg55
S'elset_plate_3_element_prop'
p76
sbsI5
g0
(g39
g2
Ntp77
Rp78
(dp79
g43
Nsg44
g45
sg46
(lp80
I3
aI13
aI14
aI5
asg48
I5
sg49
I00
sg50
g75
sg55
g76
sbsI6
g0
(g39
g2
Ntp81
Rp82
(dp83
g43
Nsg44
g45
sg46
(lp84
I7
aI15
aI16
aI9
asg48
I6
sg49
I00
sg50
(dp85
g52
Nsg53
Nsg54
Nssg55
S'elset_plate_4_element_prop'
p86
sbsI7
g0
(g39
g2
Ntp87
Rp88
(dp89
g43
Nsg44
g45
sg46
(lp90
I9
aI16
aI17
aI11
asg48
I7
sg49
I00
sg50
g85
sg55
g86
sbsI8
g0
(g39
g2
Ntp91
Rp92
(dp93
g43
Nsg44
g45
sg46
(lp94
I12
aI18
aI19
aI13
asg48
I8
sg49
I00
sg50
(dp95
g52
Nsg53
Nsg54
Nssg55
S'elset_plate_5_element_prop'
p96
sbsI9
g0
(g39
g2
Ntp97
Rp98
(dp99
g43
Nsg44
g45
sg46
(lp100
I13
aI19
aI20
aI14
asg48
I9
sg49
I00
sg50
g95
sg55
g96
sbsI10
g0
(g39
g2
Ntp101
Rp102
(dp103
g43
Nsg44
g45
sg46
(lp104
I15
aI21
aI22
aI16
asg48
I10
sg49
I00
sg50
(dp105
g52
Nsg53
Nsg54
Nssg55
S'elset_plate_6_element_prop'
p106
sbsI11
g0
(g39
g2
Ntp107
Rp108
(dp109
g43
Nsg44
g45
sg46
(lp110
I16
aI22
aI23
aI17
asg48
I11
sg49
I00
sg50
g105
sg55
g106
sbsI12
g0
(g39
g2
Ntp111
Rp112
(dp113
g43
Nsg44
g45
sg46
(lp114
I4
aI5
aI25
aI24
asg48
I12
sg49
I00
sg50
(dp115
g52
Nsg53
Nsg54
Nssg55
S'elset_plate_7_element_prop'
p116
sbsI13
g0
(g39
g2
Ntp117
Rp118
(dp119
g43
Nsg44
g45
sg46
(lp120
I24
aI25
aI7
aI6
asg48
I13
sg49
I00
sg50
g115
sg55
g116
sbsI14
g0
(g39
g2
Ntp121
Rp122
(dp123
g43
Nsg44
g45
sg46
(lp124
I5
aI14
aI26
aI25
asg48
I14
sg49
I00
sg50
(dp125
g52
Nsg53
Nsg54
Nssg55
S'elset_plate_8_element_prop'
p126
sbsI15
g0
(g39
g2
Ntp127
Rp128
(dp129
g43
Nsg44
g45
sg46
(lp130
I25
aI26
aI15
aI7
asg48
I15
sg49
I00
sg50
g125
sg55
g126
sbsI16
g0
(g39
g2
Ntp131
Rp132
(dp133
g43
Nsg44
g45
sg46
(lp134
I14
aI20
aI27
aI26
asg48
I16
sg49
I00
sg50
(dp135
g52
Nsg53
Nsg54
Nssg55
S'elset_plate_9_element_prop'
p136
sbsI17
g0
(g39
g2
Ntp137
Rp138
(dp139
g43
Nsg44
g45
sg46
(lp140
I26
aI27
aI21
aI15
asg48
I17
sg49
I00
sg50
g135
sg55
g136
sbsI18
g0
(g39
g2
Ntp141
Rp142
(dp143
g43
Nsg44
g45
sg46
(lp144
I28
aI29
aI31
aI30
asg48
I18
sg49
I00
sg50
(dp145
g52
Nsg53
Nsg54
Nssg55
S'elset_wall_1_1_element_prop'
p146
sbsI19
g0
(g39
g2
Ntp147
Rp148
(dp149
g43
Nsg44
g45
sg46
(lp150
I30
aI31
aI33
aI32
asg48
I19
sg49
I00
sg50
g145
sg55
g146
sbsI20
g0
(g39
g2
Ntp151
Rp152
(dp153
g43
Nsg44
g45
sg46
(lp154
I29
aI34
aI35
aI31
asg48
I20
sg49
I00
sg50
(dp155
g52
Nsg53
Nsg54
Nssg55
S'elset_wall_1_2_element_prop'
p156
sbsI21
g0
(g39
g2
Ntp157
Rp158
(dp159
g43
Nsg44
g45
sg46
(lp160
I31
aI35
aI36
aI33
asg48
I21
sg49
I00
sg50
g155
sg55
g156
sbsI22
g0
(g39
g2
Ntp161
Rp162
(dp163
g43
Nsg44
g45
sg46
(lp164
I34
aI37
aI38
aI35
asg48
I22
sg49
I00
sg50
(dp165
g52
Nsg53
Nsg54
Nssg55
S'elset_wall_1_3_element_prop'
p166
sbsI23
g0
(g39
g2
Ntp167
Rp168
(dp169
g43
Nsg44
g45
sg46
(lp170
I35
aI38
aI39
aI36
asg48
I23
sg49
I00
sg50
g165
sg55
g166
sbsI24
g0
(g39
g2
Ntp171
Rp172
(dp173
g43
Nsg44
g45
sg46
(lp174
I40
aI41
aI43
aI42
asg48
I24
sg49
I00
sg50
(dp175
g52
Nsg53
Nsg54
Nssg55
S'elset_wall_1_4_element_prop'
p176
sbsI25
g0
(g39
g2
Ntp177
Rp178
(dp179
g43
Nsg44
g45
sg46
(lp180
I42
aI43
aI29
aI28
asg48
I25
sg49
I00
sg50
g175
sg55
g176
sbsI26
g0
(g39
g2
Ntp181
Rp182
(dp183
g43
Nsg44
g45
sg46
(lp184
I41
aI44
aI45
aI43
asg48
I26
sg49
I00
sg50
(dp185
g52
Nsg53
Nsg54
Nssg55
S'elset_wall_1_5_element_prop'
p186
sbsI27
g0
(g39
g2
Ntp187
Rp188
(dp189
g43
Nsg44
g45
sg46
(lp190
I43
aI45
aI34
aI29
asg48
I27
sg49
I00
sg50
g185
sg55
g186
sbsI28
g0
(g39
g2
Ntp191
Rp192
(dp193
g43
Nsg44
g45
sg46
(lp194
I44
aI46
aI47
aI45
asg48
I28
sg49
I00
sg50
(dp195
g52
Nsg53
Nsg54
Nssg55
S'elset_wall_1_6_element_prop'
p196
sbsI29
g0
(g39
g2
Ntp197
Rp198
(dp199
g43
Nsg44
g45
sg46
(lp200
I45
aI47
aI37
aI34
asg48
I29
sg49
I00
sg50
g195
sg55
g196
sbsI30
g0
(g39
g2
Ntp201
Rp202
(dp203
g43
Nsg44
g45
sg46
(lp204
I48
aI49
aI51
aI50
asg48
I30
sg49
I00
sg50
(dp205
g52
Nsg53
Nsg54
Nssg55
S'elset_wall_1_7_element_prop'
p206
sbsI31
g0
(g39
g2
Ntp207
Rp208
(dp209
g43
Nsg44
g45
sg46
(lp210
I50
aI51
aI41
aI40
asg48
I31
sg49
I00
sg50
g205
sg55
g206
sbsI32
g0
(g39
g2
Ntp211
Rp212
(dp213
g43
Nsg44
g45
sg46
(lp214
I49
aI52
aI53
aI51
asg48
I32
sg49
I00
sg50
(dp215
g52
Nsg53
Nsg54
Nssg55
S'elset_wall_1_8_element_prop'
p216
sbsI33
g0
(g39
g2
Ntp217
Rp218
(dp219
g43
Nsg44
g45
sg46
(lp220
I51
aI53
aI44
aI41
asg48
I33
sg49
I00
sg50
g215
sg55
g216
sbsI34
g0
(g39
g2
Ntp221
Rp222
(dp223
g43
Nsg44
g45
sg46
(lp224
I52
aI54
aI55
aI53
asg48
I34
sg49
I00
sg50
(dp225
g52
Nsg53
Nsg54
Nssg55
S'elset_wall_1_9_element_prop'
p226
sbsI35
g0
(g39
g2
Ntp227
Rp228
(dp229
g43
Nsg44
g45
sg46
(lp230
I53
aI55
aI46
aI44
asg48
I35
sg49
I00
sg50
g225
sg55
g226
sbsI36
g0
(g39
g2
Ntp231
Rp232
(dp233
g43
Nsg44
g45
sg46
(lp234
I56
aI58
aI59
aI57
asg48
I36
sg49
I00
sg50
(dp235
g52
Nsg53
Nsg54
Nssg55
S'elset_wall_2_1_element_prop'
p236
sbsI37
g0
(g39
g2
Ntp237
Rp238
(dp239
g43
Nsg44
g45
sg46
(lp240
I58
aI60
aI61
aI59
asg48
I37
sg49
I00
sg50
g235
sg55
g236
sbsI38
g0
(g39
g2
Ntp241
Rp242
(dp243
g43
Nsg44
g45
sg46
(lp244
I57
aI59
aI63
aI62
asg48
I38
sg49
I00
sg50
(dp245
g52
Nsg53
Nsg54
Nssg55
S'elset_wall_2_2_element_prop'
p246
sbsI39
g0
(g39
g2
Ntp247
Rp248
(dp249
g43
Nsg44
g45
sg46
(lp250
I59
aI61
aI64
aI63
asg48
I39
sg49
I00
sg50
g245
sg55
g246
sbsI40
g0
(g39
g2
Ntp251
Rp252
(dp253
g43
Nsg44
g45
sg46
(lp254
I62
aI63
aI66
aI65
asg48
I40
sg49
I00
sg50
(dp255
g52
Nsg53
Nsg54
Nssg55
S'elset_wall_2_3_element_prop'
p256
sbsI41
g0
(g39
g2
Ntp257
Rp258
(dp259
g43
Nsg44
g45
sg46
(lp260
I63
aI64
aI67
aI66
asg48
I41
sg49
I00
sg50
g255
sg55
g256
sbsI42
g0
(g39
g2
Ntp261
Rp262
(dp263
g43
Nsg44
g45
sg46
(lp264
I68
aI70
aI71
aI69
asg48
I42
sg49
I00
sg50
(dp265
g52
Nsg53
Nsg54
Nssg55
S'elset_wall_2_4_element_prop'
p266
sbsI43
g0
(g39
g2
Ntp267
Rp268
(dp269
g43
Nsg44
g45
sg46
(lp270
I70
aI56
aI57
aI71
asg48
I43
sg49
I00
sg50
g265
sg55
g266
sbsI44
g0
(g39
g2
Ntp271
Rp272
(dp273
g43
Nsg44
g45
sg46
(lp274
I69
aI71
aI73
aI72
asg48
I44
sg49
I00
sg50
(dp275
g52
Nsg53
Nsg54
Nssg55
S'elset_wall_2_5_element_prop'
p276
sbsI45
g0
(g39
g2
Ntp277
Rp278
(dp279
g43
Nsg44
g45
sg46
(lp280
I71
aI57
aI62
aI73
asg48
I45
sg49
I00
sg50
g275
sg55
g276
sbsI46
g0
(g39
g2
Ntp281
Rp282
(dp283
g43
Nsg44
g45
sg46
(lp284
I72
aI73
aI75
aI74
asg48
I46
sg49
I00
sg50
(dp285
g52
Nsg53
Nsg54
Nssg55
S'elset_wall_2_6_element_prop'
p286
sbsI47
g0
(g39
g2
Ntp287
Rp288
(dp289
g43
Nsg44
g45
sg46
(lp290
I73
aI62
aI65
aI75
asg48
I47
sg49
I00
sg50
g285
sg55
g286
sbsI48
g0
(g39
g2
Ntp291
Rp292
(dp293
g43
Nsg44
g45
sg46
(lp294
I76
aI78
aI79
aI77
asg48
I48
sg49
I00
sg50
(dp295
g52
Nsg53
Nsg54
Nssg55
S'elset_wall_2_7_element_prop'
p296
sbsI49
g0
(g39
g2
Ntp297
Rp298
(dp299
g43
Nsg44
g45
sg46
(lp300
I78
aI68
aI69
aI79
asg48
I49
sg49
I00
sg50
g295
sg55
g296
sbsI50
g0
(g39
g2
Ntp301
Rp302
(dp303
g43
Nsg44
g45
sg46
(lp304
I77
aI79
aI81
aI80
asg48
I50
sg49
I00
sg50
(dp305
g52
Nsg53
Nsg54
Nssg55
S'elset_wall_2_8_element_prop'
p306
sbsI51
g0
(g39
g2
Ntp307
Rp308
(dp309
g43
Nsg44
g45
sg46
(lp310
I79
aI69
aI72
aI81
asg48
I51
sg49
I00
sg50
g305
sg55
g306
sbsI52
g0
(g39
g2
Ntp311
Rp312
(dp313
g43
Nsg44
g45
sg46
(lp314
I80
aI81
aI83
aI82
asg48
I52
sg49
I00
sg50
(dp315
g52
Nsg53
Nsg54
Nssg55
S'elset_wall_2_9_element_prop'
p316
sbsI53
g0
(g39
g2
Ntp317
Rp318
(dp319
g43
Nsg44
g45
sg46
(lp320
I81
aI72
aI74
aI83
asg48
I53
sg49
I00
sg50
g315
sg55
g316
sbsI54
g0
(ccompas_fea.structure.element
MPCElement
p321
g2
Ntp322
Rp323
(dp324
g43
Nsg44
S'MPCElement'
p325
sg46
(lp326
I67
aI23
asg48
I54
sg49
I00
sg50
(dp327
g52
Nsg53
(lp328
F-3.637978807091713e-12
aF0.0
aF889.92215392835874
asg54
Nssg55
S'elset_mpc_element_prop'
p329
sbsI55
g0
(g321
g2
Ntp330
Rp331
(dp332
g43
Nsg44
g325
sg46
(lp333
I64
aI17
asg48
I55
sg49
I00
sg50
(dp334
g52
Nsg53
(lp335
F-3.637978807091713e-12
aF0.0
aF889.92215392835874
asg54
Nssg55
g329
sbsI56
g0
(g321
g2
Ntp336
Rp337
(dp338
g43
Nsg44
g325
sg46
(lp339
I61
aI11
asg48
I56
sg49
I00
sg50
(dp340
g52
Nsg53
(lp341
F3.1832314562052488e-12
aF0.0
aF889.92215392835874
asg54
Nssg55
g329
sbsI57
g0
(g321
g2
Ntp342
Rp343
(dp344
g43
Nsg44
g325
sg46
(lp345
I60
aI10
asg48
I57
sg49
I00
sg50
(dp346
g52
Nsg53
(lp347
F0.0
aF0.0
aF889.92215392835874
asg54
Nssg55
g329
sbsI58
g0
(g321
g2
Ntp348
Rp349
(dp350
g43
Nsg44
g325
sg46
(lp351
I39
aI18
asg48
I58
sg49
I00
sg50
(dp352
g52
Nsg53
(lp353
F-3.637978807091713e-12
aF0.0
aF889.92215392835874
asg54
Nssg55
g329
sbsI59
g0
(g321
g2
Ntp354
Rp355
(dp356
g43
Nsg44
g325
sg46
(lp357
I36
aI12
asg48
I59
sg49
I00
sg50
(dp358
g52
Nsg53
(lp359
F-3.637978807091713e-12
aF0.0
aF889.92215392835874
asg54
Nssg55
g329
sbsI60
g0
(g321
g2
Ntp360
Rp361
(dp362
g43
Nsg44
g325
sg46
(lp363
I33
aI1
asg48
I60
sg49
I00
sg50
(dp364
g52
Nsg53
(lp365
F3.1832314562052488e-12
aF0.0
aF889.92215392835874
asg54
Nssg55
g329
sbsI61
g0
(g321
g2
Ntp366
Rp367
(dp368
g43
Nsg44
g325
sg46
(lp369
I32
aI0
asg48
I61
sg49
I00
sg50
(dp370
g52
Nsg53
(lp371
F0.0
aF0.0
aF889.92215392835874
asg54
Nssg55
g329
sbssS'element_index'
p372
(dp373
S'542.111,5929.793,-1265.357'
p374
I37
sS'542.111,5440.585,0.000'
p375
I3
sS'542.111,5929.793,-3552.094'
p376
I42
sS'0.000,5929.793,-444.961'
p377
I57
sS'1626.333,5929.793,-2778.471'
p378
I45
sS'1626.333,5929.793,-5065.208'
p379
I50
sS'2726.982,3468.929,0.000'
p380
I17
sS'1626.333,4462.169,0.000'
p381
I6
sS'542.111,0.000,-1265.357'
p382
I19
sS'2726.982,0.000,-5065.208'
p383
I34
sS'542.111,0.000,-4314.339'
p384
I31
sS'3285.521,5929.793,-444.961'
p385
I54
sS'542.111,4462.169,0.000'
p386
I2
sS'2726.982,489.208,0.000'
p387
I8
sS'1626.333,5929.793,-4314.339'
p388
I51
sS'542.111,489.208,0.000'
p389
I0
sS'2726.982,5929.793,-4314.339'
p390
I53
sS'2726.982,5929.793,-2778.471'
p391
I47
sS'3285.521,0.000,-444.961'
p392
I58
sS'2726.982,0.000,-2778.471'
p393
I29
sS'2726.982,5929.793,-2016.225'
p394
I40
sS'1626.333,3468.929,0.000'
p395
I15
sS'1626.333,5929.793,-3552.094'
p396
I44
sS'1626.333,0.000,-5065.208'
p397
I32
sS'1626.333,1467.624,0.000'
p398
I5
sS'2726.982,2460.864,0.000'
p399
I16
sS'2726.982,0.000,-1265.357'
p400
I23
sS'1626.333,5929.793,-1265.357'
p401
I39
sS'1626.333,0.000,-1265.357'
p402
I21
sS'542.111,5929.793,-4314.339'
p403
I49
sS'2726.982,5929.793,-5065.208'
p404
I52
sS'2168.444,0.000,-444.961'
p405
I59
sS'1626.333,0.000,-3552.094'
p406
I26
sS'2726.982,5929.793,-1265.357'
p407
I41
sS'542.111,5929.793,-2778.471'
p408
I43
sS'1626.333,2460.864,0.000'
p409
I14
sS'2726.982,5440.585,0.000'
p410
I11
sS'542.111,0.000,-3552.094'
p411
I24
sS'1626.333,0.000,-2778.471'
p412
I27
sS'2168.444,5929.793,-444.961'
p413
I55
sS'1626.333,5440.585,0.000'
p414
I7
sS'1626.333,0.000,-4314.339'
p415
I33
sS'1626.333,0.000,-2016.225'
p416
I20
sS'542.111,5929.793,-5065.208'
p417
I48
sS'542.111,0.000,-2778.471'
p418
I25
sS'2726.982,4462.169,0.000'
p419
I10
sS'542.111,0.000,-5065.208'
p420
I30
sS'542.111,0.000,-2016.225'
p421
I18
sS'542.111,2460.864,0.000'
p422
I12
sS'2726.982,0.000,-4314.339'
p423
I35
sS'1626.333,489.208,0.000'
p424
I4
sS'2726.982,0.000,-3552.094'
p425
I28
sS'542.111,1467.624,0.000'
p426
I1
sS'542.111,5929.793,-2016.225'
p427
I36
sS'2726.982,5929.793,-3552.094'
p428
I46
sS'542.111,3468.929,0.000'
p429
I13
sS'0.000,0.000,-444.961'
p430
I61
sS'1626.333,5929.793,-2016.225'
p431
I38
sS'2726.982,0.000,-2016.225'
p432
I22
sS'1084.222,5929.793,-444.961'
p433
I56
sS'1084.222,0.000,-444.961'
p434
I60
sS'2726.982,1467.624,0.000'
p435
I9
ssS'element_properties'
p436
(dp437
g266
g0
(ccompas_fea.structure.element_properties
ElementProperties
p438
g2
Ntp439
Rp440
(dp441
g15
I21
sS'__name__'
p442
S'ElementProperties'
p443
sS'name'
p444
g266
sS'material'
p445
S'wall_element_mat'
p446
sS'section'
p447
S'wall2_element_sec'
p448
sS'elset'
p449
S'elset_wall_2_4'
p450
sS'elements'
p451
NsS'rebar'
p452
(dp453
sbsg156
g0
(g438
g2
Ntp454
Rp455
(dp456
g15
I10
sg442
g443
sg444
g156
sg445
g446
sg447
S'wall1_element_sec'
p457
sg449
S'elset_wall_1_2'
p458
sg451
Nsg452
g453
sbsg216
g0
(g438
g2
Ntp459
Rp460
(dp461
g15
I16
sg442
g443
sg444
g216
sg445
g446
sg447
g457
sg449
S'elset_wall_1_8'
p462
sg451
Nsg452
g453
sbsg246
g0
(g438
g2
Ntp463
Rp464
(dp465
g15
I19
sg442
g443
sg444
g246
sg445
g446
sg447
g448
sg449
S'elset_wall_2_2'
p466
sg451
Nsg452
g453
sbsg56
g0
(g438
g2
Ntp467
Rp468
(dp469
g15
I0
sg442
g443
sg444
g56
sg445
S'plate_element_mat'
p470
sg447
S'plate_element_sec'
p471
sg449
S'elset_plate_1'
p472
sg451
Nsg452
g453
sbsg276
g0
(g438
g2
Ntp473
Rp474
(dp475
g15
I22
sg442
g443
sg444
g276
sg445
g446
sg447
g448
sg449
S'elset_wall_2_5'
p476
sg451
Nsg452
g453
sbsg136
g0
(g438
g2
Ntp477
Rp478
(dp479
g15
I8
sg442
g443
sg444
g136
sg445
g470
sg447
g471
sg449
S'elset_plate_9'
p480
sg451
Nsg452
g453
sbsg196
g0
(g438
g2
Ntp481
Rp482
(dp483
g15
I14
sg442
g443
sg444
g196
sg445
g446
sg447
g457
sg449
S'elset_wall_1_6'
p484
sg451
Nsg452
g453
sbsg96
g0
(g438
g2
Ntp485
Rp486
(dp487
g15
I4
sg442
g443
sg444
g96
sg445
g470
sg447
g471
sg449
S'elset_plate_5'
p488
sg451
Nsg452
g453
sbsg166
g0
(g438
g2
Ntp489
Rp490
(dp491
g15
I11
sg442
g443
sg444
g166
sg445
g446
sg447
g457
sg449
S'elset_wall_1_3'
p492
sg451
Nsg452
g453
sbsg76
g0
(g438
g2
Ntp493
Rp494
(dp495
g15
I2
sg442
g443
sg444
g76
sg445
g470
sg447
g471
sg449
S'elset_plate_3'
p496
sg451
Nsg452
g453
sbsg256
g0
(g438
g2
Ntp497
Rp498
(dp499
g15
I20
sg442
g443
sg444
g256
sg445
g446
sg447
g448
sg449
S'elset_wall_2_3'
p500
sg451
Nsg452
g453
sbsg286
g0
(g438
g2
Ntp501
Rp502
(dp503
g15
I23
sg442
g443
sg444
g286
sg445
g446
sg447
g448
sg449
S'elset_wall_2_6'
p504
sg451
Nsg452
g453
sbsg176
g0
(g438
g2
Ntp505
Rp506
(dp507
g15
I12
sg442
g443
sg444
g176
sg445
g446
sg447
g457
sg449
S'elset_wall_1_4'
p508
sg451
Nsg452
g453
sbsg226
g0
(g438
g2
Ntp509
Rp510
(dp511
g15
I17
sg442
g443
sg444
g226
sg445
g446
sg447
g457
sg449
S'elset_wall_1_9'
p512
sg451
Nsg452
g453
sbsg126
g0
(g438
g2
Ntp513
Rp514
(dp515
g15
I7
sg442
g443
sg444
g126
sg445
g470
sg447
g471
sg449
S'elset_plate_8'
p516
sg451
Nsg452
g453
sbsg146
g0
(g438
g2
Ntp517
Rp518
(dp519
g15
I9
sg442
g443
sg444
g146
sg445
g446
sg447
g457
sg449
S'elset_wall_1_1'
p520
sg451
Nsg452
g453
sbsg116
g0
(g438
g2
Ntp521
Rp522
(dp523
g15
I6
sg442
g443
sg444
g116
sg445
g470
sg447
g471
sg449
S'elset_plate_7'
p524
sg451
Nsg452
g453
sbsg306
g0
(g438
g2
Ntp525
Rp526
(dp527
g15
I25
sg442
g443
sg444
g306
sg445
g446
sg447
g448
sg449
S'elset_wall_2_8'
p528
sg451
Nsg452
g453
sbsg86
g0
(g438
g2
Ntp529
Rp530
(dp531
g15
I3
sg442
g443
sg444
g86
sg445
g470
sg447
g471
sg449
S'elset_plate_4'
p532
sg451
Nsg452
g453
sbsg66
g0
(g438
g2
Ntp533
Rp534
(dp535
g15
I1
sg442
g443
sg444
g66
sg445
g470
sg447
g471
sg449
S'elset_plate_2'
p536
sg451
Nsg452
g453
sbsg329
g0
(g438
g2
Ntp537
Rp538
(dp539
g15
I27
sg442
g443
sg444
g329
sg445
S'elset_mpc_element_mat'
p540
sg447
S'sec_mpc'
p541
sg449
S'elset_mpcs'
p542
sg451
Nsg452
g453
sbsg206
g0
(g438
g2
Ntp543
Rp544
(dp545
g15
I15
sg442
g443
sg444
g206
sg445
g446
sg447
g457
sg449
S'elset_wall_1_7'
p546
sg451
Nsg452
g453
sbsg296
g0
(g438
g2
Ntp547
Rp548
(dp549
g15
I24
sg442
g443
sg444
g296
sg445
g446
sg447
g448
sg449
S'elset_wall_2_7'
p550
sg451
Nsg452
g453
sbsg316
g0
(g438
g2
Ntp551
Rp552
(dp553
g15
I26
sg442
g443
sg444
g316
sg445
g446
sg447
g448
sg449
S'elset_wall_2_9'
p554
sg451
Nsg452
g453
sbsg236
g0
(g438
g2
Ntp555
Rp556
(dp557
g15
I18
sg442
g443
sg444
g236
sg445
g446
sg447
g448
sg449
S'elset_wall_2_1'
p558
sg451
Nsg452
g453
sbsg106
g0
(g438
g2
Ntp559
Rp560
(dp561
g15
I5
sg442
g443
sg444
g106
sg445
g470
sg447
g471
sg449
S'elset_plate_6'
p562
sg451
Nsg452
g453
sbsg186
g0
(g438
g2
Ntp563
Rp564
(dp565
g15
I13
sg442
g443
sg444
g186
sg445
g446
sg447
g457
sg449
S'elset_wall_1_5'
p566
sg451
Nsg452
g453
sbssS'interactions'
p567
(dp568
sS'loads'
p569
(dp570
S'earthPressure_liveLoad'
p571
g0
(ccompas_fea.structure.load
AreaLoad
p572
g2
Ntp573
Rp574
(dp575
g15
I5
sS'__name__'
p576
S'AreaLoad'
p577
sS'name'
p578
g571
sS'axes'
p579
S'local'
p580
sS'components'
p581
(dp582
g23
F0.037699999999999997
sg27
I0
sg28
I0
ssS'nodes'
p583
(lp584
sS'elements'
p585
(lp586
I19
aI20
aI21
aI22
aI23
aI24
aI25
aI26
aI27
aI28
aI29
aI30
aI31
aI32
aI33
aI34
aI35
aI36
asS'attr_list'
p587
(lp588
S'name'
p589
aS'axes'
p590
aS'components'
p591
aS'nodes'
p592
aS'elements'
p593
asbsS'Gleis1_EIGENGEWICHTE_SCHIENE_Lasteinzugsflache'
p594
g0
(g572
g2
Ntp595
Rp596
(dp597
g15
I3
sg576
g577
sg578
g594
sg579
S'global'
p598
sg581
(dp599
g23
F0.0022558292049979184
sg27
I0
sg28
I0
ssg583
g584
sg585
(lp600
I1
aI2
aI5
aI6
aI9
aI13
asg587
(lp601
g589
ag590
ag591
ag592
ag593
asbsS'earthPressure_backfill'
p602
g0
(g572
g2
Ntp603
Rp604
(dp605
g15
I2
sg576
g577
sg578
g602
sg579
g580
sg581
(dp606
g23
F0.060046023850003905
sg27
I0
sg28
I0
ssg583
g584
sg585
(lp607
g520
ag458
ag492
ag508
ag566
ag484
ag546
ag462
ag512
ag558
ag466
ag500
ag450
ag476
ag504
ag550
ag528
ag554
asg587
(lp608
g589
ag590
ag591
ag592
ag593
asbsS'earthPressure_gravel'
p609
g0
(g572
g2
Ntp610
Rp611
(dp612
g15
I1
sg576
g577
sg578
g609
sg579
g598
sg581
(dp613
g23
F0.013500000000000002
sg27
I0
sg28
I0
ssg583
g584
sg585
(lp614
g472
ag536
ag496
ag532
ag488
ag562
ag524
ag516
ag480
asg587
(lp615
g589
ag590
ag591
ag592
ag593
asbsS'Gleis1_BAHNLASTEN_Lasteinzugsflache_Lastblock_-1'
p616
g0
(g572
g2
Ntp617
Rp618
(dp619
g15
I4
sg576
g577
sg578
g616
sg579
g598
sg581
(dp620
g23
F0.069991231140453941
sg27
I0
sg28
I0
ssg583
g584
sg585
(lp621
I2
aI13
asg587
(lp622
g589
ag590
ag591
ag592
ag593
asbsS'load_gravity'
p623
g0
(ccompas_fea.structure.load
GravityLoad
p624
g2
Ntp625
Rp626
(dp627
g15
I0
sg576
S'GravityLoad'
p628
sg578
g623
sg579
g598
sg581
(dp629
g23
F1.3500000000000001
sg27
F0.0
sg28
F0.0
ssg583
g584
sg585
(lp630
g472
ag536
ag496
ag532
ag488
ag562
ag524
ag516
ag480
ag520
ag458
ag492
ag508
ag566
ag484
ag546
ag462
ag512
ag558
ag466
ag500
ag450
ag476
ag504
ag550
ag528
ag554
asg587
(lp631
g589
ag590
ag591
ag592
ag593
aS'g'
p632
asS'g'
p633
F-9.8100000000000005
sbssS'materials'
p634
(dp635
g540
g0
(ccompas_fea.structure.material
MPCStiff
p636
g2
Ntp637
Rp638
(dp639
g15
I2
sS'__name__'
p640
S'MPCStiff'
p641
sS'name'
p642
g540
sS'attr_list'
p643
(lp644
g589
aS'E'
p645
aS'v'
p646
aS'G'
p647
aS'p'
p648
aS'tension'
p649
aS'compression'
p650
asS'E'
p651
(dp652
g645
L10000000000000L
ssS'v'
p653
(dp654
g646
F0.29999999999999999
ssS'G'
p655
(dp656
g647
F3846153846153.8462
ssS'p'
p657
F0.10000000000000001
sS'tension'
p658
I01
sS'compression'
p659
I01
sbsg446
g0
(ccompas_fea.structure.material
CMMUsermat
p660
g2
Ntp661
Rp662
(dp663
g15
I1
sg640
S'CMMUsermat'
p664
sg642
g446
sg643
(lp665
g589
ag645
ag646
ag647
ag648
aS'R_Rohr'
p666
aS'rho'
p667
aS'oo'
p668
aS'uu'
p669
aS'beton'
p670
aS'fcc'
p671
aS'vc'
p672
aS'ecu'
p673
aS'k_E'
p674
aS'theta_b0'
p675
aS'theta_b1'
p676
aS'k_riss'
p677
aS'Entfestigung'
p678
aS'lambdaTS'
p679
aS'srmx'
p680
aS'srmy'
p681
aS'Begrenzung'
p682
aS'KritQ'
p683
aS'winkelD'
p684
aS'k_vr'
p685
aS'fswy'
p686
aS'stahl1'
p687
aS'zm1'
p688
aS'fsy1'
p689
aS'fsu1'
p690
aS'esu1'
p691
aS'esv1'
p692
aS'Es1'
p693
aS'ka1'
p694
aS'kb1'
p695
aS'kc1'
p696
aS'as1'
p697
aS'dm1'
p698
aS'psi1'
p699
aS'stahl2'
p700
aS'zm2'
p701
aS'fsy2'
p702
aS'fsu2'
p703
aS'esu2'
p704
aS'esv2'
p705
aS'Es2'
p706
aS'ka2'
p707
aS'kb2'
p708
aS'kc2'
p709
aS'as2'
p710
aS'dm2'
p711
aS'psi2'
p712
aS'stahl3'
p713
aS'zm3'
p714
aS'fsy3'
p715
aS'fsu3'
p716
aS'esu3'
p717
aS'esv3'
p718
aS'Es3'
p719
aS'ka3'
p720
aS'kb3'
p721
aS'kc3'
p722
aS'as3'
p723
aS'dm3'
p724
aS'psi3'
p725
aS'stahl4'
p726
aS'zm4'
p727
aS'fsy4'
p728
aS'fsu4'
p729
aS'esu4'
p730
aS'esv4'
p731
aS'Es4'
p732
aS'ka4'
p733
aS'kb4'
p734
aS'kc4'
p735
aS'as4'
p736
aS'dm4'
p737
aS'psi4'
p738
asS'E'
p739
(dp740
S'E'
p741
I200000
ssS'v'
p742
(dp743
S'v'
p744
F0.10000000000000001
ssS'G'
p745
(dp746
g647
F90909.090909090897
ssS'p'
p747
F2.5000000000000002e-06
sS'R_Rohr'
p748
(dp749
g666
I-1
ssS'rho'
p750
(dp751
g667
F2.5000000000000002e-06
ssS'oo'
p752
(dp753
g668
I30
ssS'uu'
p754
(dp755
g669
I30
ssS'beton'
p756
(dp757
g670
I2
ssS'fcc'
p758
(dp759
g671
I37
ssS'vc'
p760
(dp761
g672
I0
ssS'ecu'
p762
(dp763
g673
F-0.002
ssS'k_E'
p764
(dp765
g674
I10000
ssS'theta_b0'
p766
(dp767
g675
I2
ssS'theta_b1'
p768
(dp769
g676
I1
ssS'k_riss'
p770
(dp771
g677
I0
ssS'Entfestigung'
p772
(dp773
g678
I0
ssS'lambdaTS'
p774
(dp775
g679
F0.67000000000000004
ssS'srmx'
p776
(dp777
g680
I1
ssS'srmy'
p778
(dp779
g681
I1
ssS'Begrenzung'
p780
(dp781
g682
I2
ssS'KritQ'
p782
(dp783
g683
I0
ssS'winkelD'
p784
(dp785
g684
I45
ssS'k_vr'
p786
(dp787
g685
I1
ssS'fswy'
p788
(dp789
g686
I500
ssS'stahl1'
p790
(dp791
g687
I1
ssS'zm1'
p792
(dp793
g688
I2
ssS'fsy1'
p794
(dp795
g689
I439
ssS'fsu1'
p796
(dp797
g690
I474
ssS'esu1'
p798
(dp799
g691
F0.044999999999999998
ssS'esv1'
p800
(dp801
g692
F0.02
ssS'Es1'
p802
(dp803
g693
I200000
ssS'ka1'
p804
(dp805
g694
I-1
ssS'kb1'
p806
(dp807
g695
I-1
ssS'kc1'
p808
(dp809
g696
I-1
ssS'as1'
p810
(dp811
g697
F0.38568519056999434
ssS'dm1'
p812
(dp813
g698
F15.170515688819989
ssS'psi1'
p814
(dp815
g699
I90
ssS'stahl2'
p816
(dp817
g700
I1
ssS'zm2'
p818
(dp819
g701
I2
ssS'fsy2'
p820
(dp821
g702
I439
ssS'fsu2'
p822
(dp823
g703
I474
ssS'esu2'
p824
(dp825
g704
F0.044999999999999998
ssS'esv2'
p826
(dp827
g705
F0.02
ssS'Es2'
p828
(dp829
g706
I200000
ssS'ka2'
p830
(dp831
g707
I-1
ssS'kb2'
p832
(dp833
g708
I-1
ssS'kc2'
p834
(dp835
g709
I-1
ssS'as2'
p836
(dp837
g710
F0.24132080617801607
ssS'dm2'
p838
(dp839
g711
F12.0
ssS'psi2'
p840
(dp841
g712
I0
ssS'stahl3'
p842
(dp843
g713
I1
ssS'zm3'
p844
(dp845
g714
I2
ssS'fsy3'
p846
(dp847
g715
I439
ssS'fsu3'
p848
(dp849
g716
I474
ssS'esu3'
p850
(dp851
g717
F0.044999999999999998
ssS'esv3'
p852
(dp853
g718
F0.02
ssS'Es3'
p854
(dp855
g719
I200000
ssS'ka3'
p856
(dp857
g720
I-1
ssS'kb3'
p858
(dp859
g721
I-1
ssS'kc3'
p860
(dp861
g722
I-1
ssS'as3'
p862
(dp863
g723
F0.24132080617801607
ssS'dm3'
p864
(dp865
g724
F12.0
ssS'psi3'
p866
(dp867
g725
I0
ssS'stahl4'
p868
(dp869
g726
I1
ssS'zm4'
p870
(dp871
g727
I2
ssS'fsy4'
p872
(dp873
g728
I439
ssS'fsu4'
p874
(dp875
g729
I474
ssS'esu4'
p876
(dp877
g730
F0.044999999999999998
ssS'esv4'
p878
(dp879
g731
F0.02
ssS'Es4'
p880
(dp881
g732
I200000
ssS'ka4'
p882
(dp883
g733
I-1
ssS'kb4'
p884
(dp885
g734
I-1
ssS'kc4'
p886
(dp887
g735
I-1
ssS'as4'
p888
(dp889
g736
F0.21203727022472343
ssS'dm4'
p890
(dp891
g737
F11.248379611437295
ssS'psi4'
p892
(dp893
g738
I90
ssbsg470
g0
(g660
g2
Ntp894
Rp895
(dp896
g15
I0
sg640
g664
sg642
g470
sg643
(lp897
g589
ag645
ag646
ag647
ag648
ag666
ag667
ag668
ag669
ag670
ag671
ag672
ag673
ag674
ag675
ag676
ag677
ag678
ag679
ag680
ag681
ag682
ag683
ag684
ag685
ag686
ag687
ag688
ag689
ag690
ag691
ag692
ag693
ag694
ag695
ag696
ag697
ag698
ag699
ag700
ag701
ag702
ag703
ag704
ag705
ag706
ag707
ag708
ag709
ag710
ag711
ag712
ag713
ag714
ag715
ag716
ag717
ag718
ag719
ag720
ag721
ag722
ag723
ag724
ag725
ag726
ag727
ag728
ag729
ag730
ag731
ag732
ag733
ag734
ag735
ag736
ag737
ag738
asg739
(dp898
g741
I200000
ssg742
(dp899
g744
F0.10000000000000001
ssg745
(dp900
g647
F90909.090909090897
ssg747
F2.5000000000000002e-06
sg748
(dp901
g666
I-1
ssg750
(dp902
g667
F2.5000000000000002e-06
ssg752
(dp903
g668
I30
ssg754
(dp904
g669
I30
ssg756
(dp905
g670
I2
ssg758
(dp906
g671
I37
ssg760
(dp907
g672
I0
ssg762
(dp908
g673
F-0.002
ssg764
(dp909
g674
I10000
ssg766
(dp910
g675
I2
ssg768
(dp911
g676
I1
ssg770
(dp912
g677
I0
ssg772
(dp913
g678
I0
ssg774
(dp914
g679
F0.67000000000000004
ssg776
(dp915
g680
I1
ssg778
(dp916
g681
I1
ssg780
(dp917
g682
I2
ssg782
(dp918
g683
I0
ssg784
(dp919
g684
I45
ssg786
(dp920
g685
I1
ssg788
(dp921
g686
I500
ssg790
(dp922
g687
I1
ssg792
(dp923
g688
I2
ssg794
(dp924
g689
I439
ssg796
(dp925
g690
I474
ssg798
(dp926
g691
F0.044999999999999998
ssg800
(dp927
g692
F0.02
ssg802
(dp928
g693
I200000
ssg804
(dp929
g694
I-1
ssg806
(dp930
g695
I-1
ssg808
(dp931
g696
I-1
ssg810
(dp932
g697
F1.3149136535855768
ssg812
(dp933
g698
F26.117258763987405
ssg814
(dp934
g699
I90
ssg816
(dp935
g700
I1
ssg818
(dp936
g701
I2
ssg820
(dp937
g702
I439
ssg822
(dp938
g703
I474
ssg824
(dp939
g704
F0.044999999999999998
ssg826
(dp940
g705
F0.02
ssg828
(dp941
g706
I200000
ssg830
(dp942
g707
I-1
ssg832
(dp943
g708
I-1
ssg834
(dp944
g709
I-1
ssg836
(dp945
g710
F0.34104515500016308
ssg838
(dp946
g711
F13.301019084209781
ssg840
(dp947
g712
I0
ssg842
(dp948
g713
I1
ssg844
(dp949
g714
I2
ssg846
(dp950
g715
I439
ssg848
(dp951
g716
I474
ssg850
(dp952
g717
F0.044999999999999998
ssg852
(dp953
g718
F0.02
ssg854
(dp954
g719
I200000
ssg856
(dp955
g720
I-1
ssg858
(dp956
g721
I-1
ssg860
(dp957
g722
I-1
ssg862
(dp958
g723
F0.27759046418323091
ssg864
(dp959
g724
F12.0
ssg866
(dp960
g725
I0
ssg868
(dp961
g726
I1
ssg870
(dp962
g727
I2
ssg872
(dp963
g728
I439
ssg874
(dp964
g729
I474
ssg876
(dp965
g730
F0.044999999999999998
ssg878
(dp966
g731
F0.02
ssg880
(dp967
g732
I200000
ssg882
(dp968
g733
I-1
ssg884
(dp969
g734
I-1
ssg886
(dp970
g735
I-1
ssg888
(dp971
g736
F0.35621925477701372
ssg890
(dp972
g737
F13.593699644484339
ssg892
(dp973
g738
I90
ssbssS'misc'
p974
(dp975
sS'name'
p976
S'NLFE_CFB8'
p977
sS'nodes'
p978
(dp979
I0
g0
(ccompas_fea.structure.node
Node
p980
g2
Ntp981
Rp982
(dp983
S'__name__'
p984
S'Node'
p985
sS'key'
p986
I0
sS'x'
p987
F0.0
sS'y'
p988
F0.0
sS'z'
p989
F0.0
sS'ex'
p990
(lp991
I1
aI0
aI0
asS'ey'
p992
(lp993
I0
aI1
aI0
asS'ez'
p994
(lp995
I0
aI0
aI1
asS'mass'
p996
NsbsI1
g0
(g980
g2
Ntp997
Rp998
(dp999
g984
g985
sg986
I1
sg987
F1084.2218154988132
sg988
F0.0
sg989
F0.0
sg990
g991
sg992
g993
sg994
g995
sg996
NsbsI2
g0
(g980
g2
Ntp1000
Rp1001
(dp1002
g984
g985
sg986
I2
sg987
F0.0
sg988
F978.41577641517267
sg989
F0.0
sg990
g991
sg992
g993
sg994
g995
sg996
NsbsI3
g0
(g980
g2
Ntp1003
Rp1004
(dp1005
g984
g985
sg986
I3
sg987
F1084.2218154988129
sg988
F978.41577641517267
sg989
F0.0
sg990
g991
sg992
g993
sg994
g995
sg996
NsbsI4
g0
(g980
g2
Ntp1006
Rp1007
(dp1008
g984
g985
sg986
I4
sg987
F0.0
sg988
F1956.8315528303456
sg989
F0.0
sg990
g991
sg992
g993
sg994
g995
sg996
NsbsI5
g0
(g980
g2
Ntp1009
Rp1010
(dp1011
g984
g985
sg986
I5
sg987
F1084.2218154988132
sg988
F1956.8315528303456
sg989
F0.0
sg990
g991
sg992
g993
sg994
g995
sg996
NsbsI6
g0
(g980
g2
Ntp1012
Rp1013
(dp1014
g984
g985
sg986
I6
sg987
F0.0
sg988
F3972.9610315040345
sg989
F0.0
sg990
g991
sg992
g993
sg994
g995
sg996
NsbsI7
g0
(g980
g2
Ntp1015
Rp1016
(dp1017
g984
g985
sg986
I7
sg987
F1084.2218154988132
sg988
F3972.9610315040345
sg989
F0.0
sg990
g991
sg992
g993
sg994
g995
sg996
NsbsI8
g0
(g980
g2
Ntp1018
Rp1019
(dp1020
g984
g985
sg986
I8
sg987
F0.0
sg988
F4951.3768079192068
sg989
F0.0
sg990
g991
sg992
g993
sg994
g995
sg996
NsbsI9
g0
(g980
g2
Ntp1021
Rp1022
(dp1023
g984
g985
sg986
I9
sg987
F1084.2218154988129
sg988
F4951.3768079192068
sg989
F0.0
sg990
g991
sg992
g993
sg994
g995
sg996
NsbsI10
g0
(g980
g2
Ntp1024
Rp1025
(dp1026
g984
g985
sg986
I10
sg987
F0.0
sg988
F5929.7925843343801
sg989
F0.0
sg990
g991
sg992
g993
sg994
g995
sg996
NsbsI11
g0
(g980
g2
Ntp1027
Rp1028
(dp1029
g984
g985
sg986
I11
sg987
F1084.2218154988132
sg988
F5929.7925843343801
sg989
F0.0
sg990
g991
sg992
g993
sg994
g995
sg996
NsbsI12
g0
(g980
g2
Ntp1030
Rp1031
(dp1032
g984
g985
sg986
I12
sg987
F2168.4436309976263
sg988
F0.0
sg989
F0.0
sg990
g991
sg992
g993
sg994
g995
sg996
NsbsI13
g0
(g980
g2
Ntp1033
Rp1034
(dp1035
g984
g985
sg986
I13
sg987
F2168.4436309976259
sg988
F978.41577641517267
sg989
F0.0
sg990
g991
sg992
g993
sg994
g995
sg996
NsbsI14
g0
(g980
g2
Ntp1036
Rp1037
(dp1038
g984
g985
sg986
I14
sg987
F2168.4436309976263
sg988
F1956.8315528303456
sg989
F0.0
sg990
g991
sg992
g993
sg994
g995
sg996
NsbsI15
g0
(g980
g2
Ntp1039
Rp1040
(dp1041
g984
g985
sg986
I15
sg987
F2168.4436309976263
sg988
F3972.9610315040345
sg989
F0.0
sg990
g991
sg992
g993
sg994
g995
sg996
NsbsI16
g0
(g980
g2
Ntp1042
Rp1043
(dp1044
g984
g985
sg986
I16
sg987
F2168.4436309976259
sg988
F4951.3768079192068
sg989
F0.0
sg990
g991
sg992
g993
sg994
g995
sg996
NsbsI17
g0
(g980
g2
Ntp1045
Rp1046
(dp1047
g984
g985
sg986
I17
sg987
F2168.4436309976263
sg988
F5929.7925843343801
sg989
F0.0
sg990
g991
sg992
g993
sg994
g995
sg996
NsbsI18
g0
(g980
g2
Ntp1048
Rp1049
(dp1050
g984
g985
sg986
I18
sg987
F3285.5206530267064
sg988
F0.0
sg989
F0.0
sg990
g991
sg992
g993
sg994
g995
sg996
NsbsI19
g0
(g980
g2
Ntp1051
Rp1052
(dp1053
g984
g985
sg986
I19
sg987
F3285.520653026706
sg988
F978.41577641517267
sg989
F0.0
sg990
g991
sg992
g993
sg994
g995
sg996
NsbsI20
g0
(g980
g2
Ntp1054
Rp1055
(dp1056
g984
g985
sg986
I20
sg987
F3285.5206530267064
sg988
F1956.8315528303456
sg989
F0.0
sg990
g991
sg992
g993
sg994
g995
sg996
NsbsI21
g0
(g980
g2
Ntp1057
Rp1058
(dp1059
g984
g985
sg986
I21
sg987
F3285.5206530267064
sg988
F3972.9610315040345
sg989
F0.0
sg990
g991
sg992
g993
sg994
g995
sg996
NsbsI22
g0
(g980
g2
Ntp1060
Rp1061
(dp1062
g984
g985
sg986
I22
sg987
F3285.520653026706
sg988
F4951.3768079192068
sg989
F0.0
sg990
g991
sg992
g993
sg994
g995
sg996
NsbsI23
g0
(g980
g2
Ntp1063
Rp1064
(dp1065
g984
g985
sg986
I23
sg987
F3285.5206530267064
sg988
F5929.7925843343801
sg989
F0.0
sg990
g991
sg992
g993
sg994
g995
sg996
NsbsI24
g0
(g980
g2
Ntp1066
Rp1067
(dp1068
g984
g985
sg986
I24
sg987
F0.0
sg988
F2964.89629216719
sg989
F0.0
sg990
g991
sg992
g993
sg994
g995
sg996
NsbsI25
g0
(g980
g2
Ntp1069
Rp1070
(dp1071
g984
g985
sg986
I25
sg987
F1084.2218154988132
sg988
F2964.89629216719
sg989
F0.0
sg990
g991
sg992
g993
sg994
g995
sg996
NsbsI26
g0
(g980
g2
Ntp1072
Rp1073
(dp1074
g984
g985
sg986
I26
sg987
F2168.4436309976263
sg988
F2964.89629216719
sg989
F0.0
sg990
g991
sg992
g993
sg994
g995
sg996
NsbsI27
g0
(g980
g2
Ntp1075
Rp1076
(dp1077
g984
g985
sg986
I27
sg987
F3285.5206530267064
sg988
F2964.89629216719
sg989
F0.0
sg990
g991
sg992
g993
sg994
g995
sg996
NsbsI28
g0
(g980
g2
Ntp1078
Rp1079
(dp1080
g984
g985
sg986
I28
sg987
F0.0
sg988
F0.0
sg989
F-2391.6598766997913
sg990
g991
sg992
g993
sg994
g995
sg996
NsbsI29
g0
(g980
g2
Ntp1081
Rp1082
(dp1083
g984
g985
sg986
I29
sg987
F1084.22181549881
sg988
F0.0
sg989
F-2391.6598766997913
sg990
g991
sg992
g993
sg994
g995
sg996
NsbsI30
g0
(g980
g2
Ntp1084
Rp1085
(dp1086
g984
g985
sg986
I30
sg987
F0.0
sg988
F0.0
sg989
F-1640.7910153140747
sg990
g991
sg992
g993
sg994
g995
sg996
NsbsI31
g0
(g980
g2
Ntp1087
Rp1088
(dp1089
g984
g985
sg986
I31
sg987
F1084.2218154988097
sg988
F0.0
sg989
F-1640.7910153140747
sg990
g991
sg992
g993
sg994
g995
sg996
NsbsI32
g0
(g980
g2
Ntp1090
Rp1091
(dp1092
g984
g985
sg986
I32
sg987
F0.0
sg988
F0.0
sg989
F-889.92215392835874
sg990
g991
sg992
g993
sg994
g995
sg996
NsbsI33
g0
(g980
g2
Ntp1093
Rp1094
(dp1095
g984
g985
sg986
I33
sg987
F1084.22181549881
sg988
F0.0
sg989
F-889.92215392835874
sg990
g991
sg992
g993
sg994
g995
sg996
NsbsI34
g0
(g980
g2
Ntp1096
Rp1097
(dp1098
g984
g985
sg986
I34
sg987
F2168.44363099763
sg988
F0.0
sg989
F-2391.6598766997913
sg990
g991
sg992
g993
sg994
g995
sg996
NsbsI35
g0
(g980
g2
Ntp1099
Rp1100
(dp1101
g984
g985
sg986
I35
sg987
F2168.4436309976295
sg988
F0.0
sg989
F-1640.7910153140747
sg990
g991
sg992
g993
sg994
g995
sg996
NsbsI36
g0
(g980
g2
Ntp1102
Rp1103
(dp1104
g984
g985
sg986
I36
sg987
F2168.44363099763
sg988
F0.0
sg989
F-889.92215392835874
sg990
g991
sg992
g993
sg994
g995
sg996
NsbsI37
g0
(g980
g2
Ntp1105
Rp1106
(dp1107
g984
g985
sg986
I37
sg987
F3285.5206530267101
sg988
F0.0
sg989
F-2391.6598766997913
sg990
g991
sg992
g993
sg994
g995
sg996
NsbsI38
g0
(g980
g2
Ntp1108
Rp1109
(dp1110
g984
g985
sg986
I38
sg987
F3285.5206530267096
sg988
F0.0
sg989
F-1640.7910153140747
sg990
g991
sg992
g993
sg994
g995
sg996
NsbsI39
g0
(g980
g2
Ntp1111
Rp1112
(dp1113
g984
g985
sg986
I39
sg987
F3285.5206530267101
sg988
F0.0
sg989
F-889.92215392835874
sg990
g991
sg992
g993
sg994
g995
sg996
NsbsI40
g0
(g980
g2
Ntp1114
Rp1115
(dp1116
g984
g985
sg986
I40
sg987
F0.0
sg988
F0.0
sg989
F-3938.90480319157
sg990
g991
sg992
g993
sg994
g995
sg996
NsbsI41
g0
(g980
g2
Ntp1117
Rp1118
(dp1119
g984
g985
sg986
I41
sg987
F1084.22181549881
sg988
F0.0
sg989
F-3938.90480319157
sg990
g991
sg992
g993
sg994
g995
sg996
NsbsI42
g0
(g980
g2
Ntp1120
Rp1121
(dp1122
g984
g985
sg986
I42
sg987
F0.0
sg988
F0.0
sg989
F-3165.2823399456806
sg990
g991
sg992
g993
sg994
g995
sg996
NsbsI43
g0
(g980
g2
Ntp1123
Rp1124
(dp1125
g984
g985
sg986
I43
sg987
F1084.22181549881
sg988
F0.0
sg989
F-3165.2823399456806
sg990
g991
sg992
g993
sg994
g995
sg996
NsbsI44
g0
(g980
g2
Ntp1126
Rp1127
(dp1128
g984
g985
sg986
I44
sg987
F2168.44363099763
sg988
F0.0
sg989
F-3938.90480319157
sg990
g991
sg992
g993
sg994
g995
sg996
NsbsI45
g0
(g980
g2
Ntp1129
Rp1130
(dp1131
g984
g985
sg986
I45
sg987
F2168.44363099763
sg988
F0.0
sg989
F-3165.2823399456806
sg990
g991
sg992
g993
sg994
g995
sg996
NsbsI46
g0
(g980
g2
Ntp1132
Rp1133
(dp1134
g984
g985
sg986
I46
sg987
F3285.5206530267101
sg988
F0.0
sg989
F-3938.90480319157
sg990
g991
sg992
g993
sg994
g995
sg996
NsbsI47
g0
(g980
g2
Ntp1135
Rp1136
(dp1137
g984
g985
sg986
I47
sg987
F3285.5206530267101
sg988
F0.0
sg989
F-3165.2823399456806
sg990
g991
sg992
g993
sg994
g995
sg996
NsbsI48
g0
(g980
g2
Ntp1138
Rp1139
(dp1140
g984
g985
sg986
I48
sg987
F0.0
sg988
F0.0
sg989
F-5440.6425259630023
sg990
g991
sg992
g993
sg994
g995
sg996
NsbsI49
g0
(g980
g2
Ntp1141
Rp1142
(dp1143
g984
g985
sg986
I49
sg987
F1084.22181549881
sg988
F0.0
sg989
F-5440.6425259630023
sg990
g991
sg992
g993
sg994
g995
sg996
NsbsI50
g0
(g980
g2
Ntp1144
Rp1145
(dp1146
g984
g985
sg986
I50
sg987
F0.0
sg988
F0.0
sg989
F-4689.7736645772857
sg990
g991
sg992
g993
sg994
g995
sg996
NsbsI51
g0
(g980
g2
Ntp1147
Rp1148
(dp1149
g984
g985
sg986
I51
sg987
F1084.2218154988097
sg988
F0.0
sg989
F-4689.7736645772857
sg990
g991
sg992
g993
sg994
g995
sg996
NsbsI52
g0
(g980
g2
Ntp1150
Rp1151
(dp1152
g984
g985
sg986
I52
sg987
F2168.44363099763
sg988
F0.0
sg989
F-5440.6425259630023
sg990
g991
sg992
g993
sg994
g995
sg996
NsbsI53
g0
(g980
g2
Ntp1153
Rp1154
(dp1155
g984
g985
sg986
I53
sg987
F2168.4436309976295
sg988
F0.0
sg989
F-4689.7736645772857
sg990
g991
sg992
g993
sg994
g995
sg996
NsbsI54
g0
(g980
g2
Ntp1156
Rp1157
(dp1158
g984
g985
sg986
I54
sg987
F3285.5206530267101
sg988
F0.0
sg989
F-5440.6425259630023
sg990
g991
sg992
g993
sg994
g995
sg996
NsbsI55
g0
(g980
g2
Ntp1159
Rp1160
(dp1161
g984
g985
sg986
I55
sg987
F3285.5206530267096
sg988
F0.0
sg989
F-4689.7736645772857
sg990
g991
sg992
g993
sg994
g995
sg996
NsbsI56
g0
(g980
g2
Ntp1162
Rp1163
(dp1164
g984
g985
sg986
I56
sg987
F0.0
sg988
F5929.7925843343801
sg989
F-2391.6598766997913
sg990
g991
sg992
g993
sg994
g995
sg996
NsbsI57
g0
(g980
g2
Ntp1165
Rp1166
(dp1167
g984
g985
sg986
I57
sg987
F1084.22181549881
sg988
F5929.7925843343801
sg989
F-2391.6598766997913
sg990
g991
sg992
g993
sg994
g995
sg996
NsbsI58
g0
(g980
g2
Ntp1168
Rp1169
(dp1170
g984
g985
sg986
I58
sg987
F0.0
sg988
F5929.7925843343801
sg989
F-1640.7910153140747
sg990
g991
sg992
g993
sg994
g995
sg996
NsbsI59
g0
(g980
g2
Ntp1171
Rp1172
(dp1173
g984
g985
sg986
I59
sg987
F1084.2218154988097
sg988
F5929.7925843343801
sg989
F-1640.7910153140747
sg990
g991
sg992
g993
sg994
g995
sg996
NsbsI60
g0
(g980
g2
Ntp1174
Rp1175
(dp1176
g984
g985
sg986
I60
sg987
F0.0
sg988
F5929.7925843343801
sg989
F-889.92215392835874
sg990
g991
sg992
g993
sg994
g995
sg996
NsbsI61
g0
(g980
g2
Ntp1177
Rp1178
(dp1179
g984
g985
sg986
I61
sg987
F1084.22181549881
sg988
F5929.7925843343801
sg989
F-889.92215392835874
sg990
g991
sg992
g993
sg994
g995
sg996
NsbsI62
g0
(g980
g2
Ntp1180
Rp1181
(dp1182
g984
g985
sg986
I62
sg987
F2168.44363099763
sg988
F5929.7925843343801
sg989
F-2391.6598766997913
sg990
g991
sg992
g993
sg994
g995
sg996
NsbsI63
g0
(g980
g2
Ntp1183
Rp1184
(dp1185
g984
g985
sg986
I63
sg987
F2168.4436309976295
sg988
F5929.7925843343801
sg989
F-1640.7910153140747
sg990
g991
sg992
g993
sg994
g995
sg996
NsbsI64
g0
(g980
g2
Ntp1186
Rp1187
(dp1188
g984
g985
sg986
I64
sg987
F2168.44363099763
sg988
F5929.7925843343801
sg989
F-889.92215392835874
sg990
g991
sg992
g993
sg994
g995
sg996
NsbsI65
g0
(g980
g2
Ntp1189
Rp1190
(dp1191
g984
g985
sg986
I65
sg987
F3285.5206530267101
sg988
F5929.7925843343801
sg989
F-2391.6598766997913
sg990
g991
sg992
g993
sg994
g995
sg996
NsbsI66
g0
(g980
g2
Ntp1192
Rp1193
(dp1194
g984
g985
sg986
I66
sg987
F3285.5206530267096
sg988
F5929.7925843343801
sg989
F-1640.7910153140747
sg990
g991
sg992
g993
sg994
g995
sg996
NsbsI67
g0
(g980
g2
Ntp1195
Rp1196
(dp1197
g984
g985
sg986
I67
sg987
F3285.5206530267101
sg988
F5929.7925843343801
sg989
F-889.92215392835874
sg990
g991
sg992
g993
sg994
g995
sg996
NsbsI68
g0
(g980
g2
Ntp1198
Rp1199
(dp1200
g984
g985
sg986
I68
sg987
F0.0
sg988
F5929.7925843343801
sg989
F-3938.90480319157
sg990
g991
sg992
g993
sg994
g995
sg996
NsbsI69
g0
(g980
g2
Ntp1201
Rp1202
(dp1203
g984
g985
sg986
I69
sg987
F1084.22181549881
sg988
F5929.7925843343801
sg989
F-3938.90480319157
sg990
g991
sg992
g993
sg994
g995
sg996
NsbsI70
g0
(g980
g2
Ntp1204
Rp1205
(dp1206
g984
g985
sg986
I70
sg987
F0.0
sg988
F5929.7925843343801
sg989
F-3165.2823399456806
sg990
g991
sg992
g993
sg994
g995
sg996
NsbsI71
g0
(g980
g2
Ntp1207
Rp1208
(dp1209
g984
g985
sg986
I71
sg987
F1084.22181549881
sg988
F5929.7925843343801
sg989
F-3165.2823399456806
sg990
g991
sg992
g993
sg994
g995
sg996
NsbsI72
g0
(g980
g2
Ntp1210
Rp1211
(dp1212
g984
g985
sg986
I72
sg987
F2168.44363099763
sg988
F5929.7925843343801
sg989
F-3938.90480319157
sg990
g991
sg992
g993
sg994
g995
sg996
NsbsI73
g0
(g980
g2
Ntp1213
Rp1214
(dp1215
g984
g985
sg986
I73
sg987
F2168.44363099763
sg988
F5929.7925843343801
sg989
F-3165.2823399456806
sg990
g991
sg992
g993
sg994
g995
sg996
NsbsI74
g0
(g980
g2
Ntp1216
Rp1217
(dp1218
g984
g985
sg986
I74
sg987
F3285.5206530267101
sg988
F5929.7925843343801
sg989
F-3938.90480319157
sg990
g991
sg992
g993
sg994
g995
sg996
NsbsI75
g0
(g980
g2
Ntp1219
Rp1220
(dp1221
g984
g985
sg986
I75
sg987
F3285.5206530267101
sg988
F5929.7925843343801
sg989
F-3165.2823399456806
sg990
g991
sg992
g993
sg994
g995
sg996
NsbsI76
g0
(g980
g2
Ntp1222
Rp1223
(dp1224
g984
g985
sg986
I76
sg987
F0.0
sg988
F5929.7925843343801
sg989
F-5440.6425259630023
sg990
g991
sg992
g993
sg994
g995
sg996
NsbsI77
g0
(g980
g2
Ntp1225
Rp1226
(dp1227
g984
g985
sg986
I77
sg987
F1084.22181549881
sg988
F5929.7925843343801
sg989
F-5440.6425259630023
sg990
g991
sg992
g993
sg994
g995
sg996
NsbsI78
g0
(g980
g2
Ntp1228
Rp1229
(dp1230
g984
g985
sg986
I78
sg987
F0.0
sg988
F5929.7925843343801
sg989
F-4689.7736645772857
sg990
g991
sg992
g993
sg994
g995
sg996
NsbsI79
g0
(g980
g2
Ntp1231
Rp1232
(dp1233
g984
g985
sg986
I79
sg987
F1084.2218154988097
sg988
F5929.7925843343801
sg989
F-4689.7736645772857
sg990
g991
sg992
g993
sg994
g995
sg996
NsbsI80
g0
(g980
g2
Ntp1234
Rp1235
(dp1236
g984
g985
sg986
I80
sg987
F2168.44363099763
sg988
F5929.7925843343801
sg989
F-5440.6425259630023
sg990
g991
sg992
g993
sg994
g995
sg996
NsbsI81
g0
(g980
g2
Ntp1237
Rp1238
(dp1239
g984
g985
sg986
I81
sg987
F2168.4436309976295
sg988
F5929.7925843343801
sg989
F-4689.7736645772857
sg990
g991
sg992
g993
sg994
g995
sg996
NsbsI82
g0
(g980
g2
Ntp1240
Rp1241
(dp1242
g984
g985
sg986
I82
sg987
F3285.5206530267101
sg988
F5929.7925843343801
sg989
F-5440.6425259630023
sg990
g991
sg992
g993
sg994
g995
sg996
NsbsI83
g0
(g980
g2
Ntp1243
Rp1244
(dp1245
g984
g985
sg986
I83
sg987
F3285.5206530267096
sg988
F5929.7925843343801
sg989
F-4689.7736645772857
sg990
g991
sg992
g993
sg994
g995
sg996
NsbssS'node_index'
p1246
(dp1247
S'3285.521,5929.793,-5440.643'
p1248
I82
sS'0.000,5929.793,-2391.660'
p1249
I56
sS'3285.521,978.416,0.000'
p1250
I19
sS'1084.222,0.000,-3938.905'
p1251
I41
sS'2168.444,0.000,0.000'
p1252
I12
sS'3285.521,0.000,-3938.905'
p1253
I46
sS'1084.222,5929.793,-3938.905'
p1254
I69
sS'0.000,3972.961,0.000'
p1255
I6
sS'1084.222,5929.793,0.000'
p1256
I11
sS'3285.521,3972.961,0.000'
p1257
I21
sS'0.000,5929.793,-3165.282'
p1258
I70
sS'1084.222,5929.793,-2391.660'
p1259
I57
sS'1084.222,5929.793,-1640.791'
p1260
I59
sS'2168.444,0.000,-5440.643'
p1261
I52
sS'0.000,4951.377,0.000'
p1262
I8
sS'0.000,1956.832,0.000'
p1263
I4
sS'2168.444,5929.793,-889.922'
p1264
I64
sS'2168.444,4951.377,0.000'
p1265
I16
sS'1084.222,978.416,0.000'
p1266
I3
sS'1084.222,4951.377,0.000'
p1267
I9
sS'3285.521,5929.793,0.000'
p1268
I23
sS'0.000,0.000,-889.922'
p1269
I32
sS'1084.222,0.000,-3165.282'
p1270
I43
sS'3285.521,0.000,-3165.282'
p1271
I47
sS'3285.521,5929.793,-889.922'
p1272
I67
sS'1084.222,0.000,-4689.774'
p1273
I51
sS'2168.444,0.000,-1640.791'
p1274
I35
sS'2168.444,0.000,-2391.660'
p1275
I34
sS'2168.444,5929.793,-2391.660'
p1276
I62
sS'3285.521,0.000,-1640.791'
p1277
I38
sS'2168.444,5929.793,-3165.282'
p1278
I73
sS'3285.521,5929.793,-3938.905'
p1279
I74
sS'3285.521,5929.793,-3165.282'
p1280
I75
sS'0.000,5929.793,-4689.774'
p1281
I78
sS'0.000,0.000,0.000'
p1282
I0
sS'2168.444,5929.793,-5440.643'
p1283
I80
sS'2168.444,978.416,0.000'
p1284
I13
sS'1084.222,1956.832,0.000'
p1285
I5
sS'3285.521,0.000,0.000'
p1286
I18
sS'1084.222,0.000,-5440.643'
p1287
I49
sS'2168.444,0.000,-3165.282'
p1288
I45
sS'3285.521,0.000,-2391.660'
p1289
I37
sS'0.000,5929.793,-889.922'
p1290
I60
sS'0.000,5929.793,-3938.905'
p1291
I68
sS'2168.444,5929.793,-3938.905'
p1292
I72
sS'3285.521,5929.793,-4689.774'
p1293
I83
sS'2168.444,0.000,-4689.774'
p1294
I53
sS'0.000,0.000,-4689.774'
p1295
I50
sS'0.000,5929.793,-1640.791'
p1296
I58
sS'3285.521,0.000,-4689.774'
p1297
I55
sS'3285.521,1956.832,0.000'
p1298
I20
sS'1084.222,3972.961,0.000'
p1299
I7
sS'1084.222,0.000,0.000'
p1300
I1
sS'1084.222,2964.896,0.000'
p1301
I25
sS'0.000,0.000,-5440.643'
p1302
I48
sS'1084.222,0.000,-1640.791'
p1303
I31
sS'2168.444,5929.793,0.000'
p1304
I17
sS'3285.521,0.000,-889.922'
p1305
I39
sS'2168.444,2964.896,0.000'
p1306
I26
sS'3285.521,4951.377,0.000'
p1307
I22
sS'1084.222,0.000,-2391.660'
p1308
I29
sS'3285.521,2964.896,0.000'
p1309
I27
sS'0.000,0.000,-2391.660'
p1310
I28
sS'1084.222,0.000,-889.922'
p1311
I33
sS'2168.444,0.000,-889.922'
p1312
I36
sS'0.000,0.000,-3165.282'
p1313
I42
sS'1084.222,5929.793,-889.922'
p1314
I61
sS'1084.222,5929.793,-3165.282'
p1315
I71
sS'0.000,5929.793,-5440.643'
p1316
I76
sS'2168.444,3972.961,0.000'
p1317
I15
sS'0.000,0.000,-1640.791'
p1318
I30
sS'0.000,0.000,-3938.905'
p1319
I40
sS'1084.222,5929.793,-5440.643'
p1320
I77
sS'2168.444,5929.793,-1640.791'
p1321
I63
sS'0.000,5929.793,0.000'
p1322
I10
sS'0.000,2964.896,0.000'
p1323
I24
sS'3285.521,5929.793,-1640.791'
p1324
I66
sS'3285.521,0.000,-5440.643'
p1325
I54
sS'3285.521,5929.793,-2391.660'
p1326
I65
sS'2168.444,1956.832,0.000'
p1327
I14
sS'2168.444,5929.793,-4689.774'
p1328
I81
sS'1084.222,5929.793,-4689.774'
p1329
I79
sS'0.000,978.416,0.000'
p1330
I2
sS'2168.444,0.000,-3938.905'
p1331
I44
ssS'path'
p1332
S'C:\\Temp\\'
p1333
sS'results'
p1334
(dp1335
S'step_2'
p1336
S'ERROR'
p1337
sS'step_3'
p1338
g1337
sS'step_4'
p1339
g1337
sS'step_1'
p1340
g1337
ssS'sections'
p1341
(dp1342
g457
g0
(ccompas_fea.structure.section
ShellSection
p1343
g2
Ntp1344
Rp1345
(dp1346
g15
I1
sS'__name__'
p1347
S'ShellSection'
p1348
sS'name'
p1349
g457
sS'geometry'
p1350
(dp1351
S't'
p1352
F437.38219489140056
ssS'loc_coords_OR'
p1353
(dp1354
S'ORxyz'
p1355
(lp1356
I0
aI0
aF-4550.7203720300004
assS'loc_coords_XA'
p1357
(dp1358
S'XAxyz'
p1359
(lp1360
I1
aI0
aF-4550.7203720300004
assS'loc_coords_YA'
p1361
(dp1362
S'YAxyz'
p1363
(lp1364
F4550.7203720300004
aF-4550.7203720300004
aF-4549.7203720300004
assS'loc_coords_EV_XA'
p1365
(dp1366
S'EV_XA'
p1367
(lp1368
F1.0
aF0.0
aF0.0
assS'loc_coords_EV_YA'
p1369
(dp1370
S'EV_YA'
p1371
(lp1372
F0.70710677265034516
aF-0.70710677265034516
aF0.00015538348104102837
assS'loc_coords_EV_ZA'
p1373
(dp1374
S'EV_ZA'
p1375
(lp1376
F0.0
aF-1.0
aF0.0
assS'nr_layers'
p1377
(dp1378
S'nn'
p1379
F39.0
ssS'offset'
p1380
(dp1381
S'mode'
p1382
S'mid'
p1383
ssbsg471
g0
(g1343
g2
Ntp1384
Rp1385
(dp1386
g15
I0
sg1347
g1348
sg1349
g471
sg1350
(dp1387
g1352
F889.92215392835874
ssg1353
(dp1388
g1355
(lp1389
I0
aI0
aI0
assg1357
(dp1390
g1359
(lp1391
I1
aI0
aI0
assg1361
(dp1392
g1363
(lp1393
F0.0
aF1.0
aF0.0
assg1365
(dp1394
g1367
(lp1395
F1.0
aF0.0
aF0.0
assg1369
(dp1396
g1371
(lp1397
F0.0
aF1.0
aF0.0
assg1373
(dp1398
g1375
(lp1399
F0.0
aF0.0
aF1.0
assg1377
(dp1400
g1379
F37.0
ssg1380
(dp1401
g1382
S'top'
p1402
ssbsg448
g0
(g1343
g2
Ntp1403
Rp1404
(dp1405
g15
I2
sg1347
g1348
sg1349
g448
sg1350
(dp1406
g1352
F437.38219489140056
ssg1353
(dp1407
g1355
(lp1408
I0
aF5929.79258433
aF-4550.7203720300004
assg1357
(dp1409
g1359
(lp1410
I1
aF5929.79258433
aF-4550.7203720300004
assg1361
(dp1411
g1363
(lp1412
F-4550.7203720323741
aF1379.0722122999996
aF-10481.51295636
assg1365
(dp1413
g1367
(lp1414
F1.0
aF0.0
aF0.0
assg1369
(dp1415
g1371
(lp1416
F-0.51998076154520267
aF-0.51998076154493145
aF-0.6776724985168161
assg1373
(dp1417
g1375
(lp1418
F0.0
aF1.0
aF0.0
assg1377
(dp1419
g1379
F39.0
ssg1380
(dp1420
g1382
g1383
ssbsg541
g0
(ccompas_fea.structure.section
MPCSection
p1421
g2
Ntp1422
Rp1423
(dp1424
g15
I3
sg1347
S'MPCSection'
p1425
sg1349
g541
sg1350
NsS'nr_layers'
p1426
NsbssS'sets'
p1427
(dp1428
g566
g0
(ccompas_fea.structure.set
Set
p1429
g2
Ntp1430
Rp1431
(dp1432
S'__name__'
p1433
S'Set'
p1434
sS'name'
p1435
g566
sS'type'
p1436
S'element'
p1437
sS'selection'
p1438
(lp1439
I26
aI27
asS'index'
p1440
I13
sbsg542
g0
(g1429
g2
Ntp1441
Rp1442
(dp1443
g1433
g1434
sg1435
g542
sg1436
g1437
sg1438
(lp1444
I54
aI55
aI56
aI57
aI58
aI59
aI60
aI61
asg1440
I27
sbsg450
g0
(g1429
g2
Ntp1445
Rp1446
(dp1447
g1433
g1434
sg1435
g450
sg1436
g1437
sg1438
(lp1448
I42
aI43
asg1440
I21
sbsg496
g0
(g1429
g2
Ntp1449
Rp1450
(dp1451
g1433
g1434
sg1435
g496
sg1436
g1437
sg1438
(lp1452
I4
aI5
asg1440
I2
sbsg462
g0
(g1429
g2
Ntp1453
Rp1454
(dp1455
g1433
g1434
sg1435
g462
sg1436
g1437
sg1438
(lp1456
I32
aI33
asg1440
I16
sbsg558
g0
(g1429
g2
Ntp1457
Rp1458
(dp1459
g1433
g1434
sg1435
g558
sg1436
g1437
sg1438
(lp1460
I36
aI37
asg1440
I18
sbsg536
g0
(g1429
g2
Ntp1461
Rp1462
(dp1463
g1433
g1434
sg1435
g536
sg1436
g1437
sg1438
(lp1464
I2
aI3
asg1440
I1
sbsg472
g0
(g1429
g2
Ntp1465
Rp1466
(dp1467
g1433
g1434
sg1435
g472
sg1436
g1437
sg1438
(lp1468
I0
aI1
asg1440
I0
sbsg524
g0
(g1429
g2
Ntp1469
Rp1470
(dp1471
g1433
g1434
sg1435
g524
sg1436
g1437
sg1438
(lp1472
I12
aI13
asg1440
I6
sbsg562
g0
(g1429
g2
Ntp1473
Rp1474
(dp1475
g1433
g1434
sg1435
g562
sg1436
g1437
sg1438
(lp1476
I10
aI11
asg1440
I5
sbsg488
g0
(g1429
g2
Ntp1477
Rp1478
(dp1479
g1433
g1434
sg1435
g488
sg1436
g1437
sg1438
(lp1480
I8
aI9
asg1440
I4
sbsg532
g0
(g1429
g2
Ntp1481
Rp1482
(dp1483
g1433
g1434
sg1435
g532
sg1436
g1437
sg1438
(lp1484
I6
aI7
asg1440
I3
sbsg480
g0
(g1429
g2
Ntp1485
Rp1486
(dp1487
g1433
g1434
sg1435
g480
sg1436
g1437
sg1438
(lp1488
I16
aI17
asg1440
I8
sbsg516
g0
(g1429
g2
Ntp1489
Rp1490
(dp1491
g1433
g1434
sg1435
g516
sg1436
g1437
sg1438
(lp1492
I14
aI15
asg1440
I7
sbsg492
g0
(g1429
g2
Ntp1493
Rp1494
(dp1495
g1433
g1434
sg1435
g492
sg1436
g1437
sg1438
(lp1496
I22
aI23
asg1440
I11
sbsg554
g0
(g1429
g2
Ntp1497
Rp1498
(dp1499
g1433
g1434
sg1435
g554
sg1436
g1437
sg1438
(lp1500
I52
aI53
asg1440
I26
sbsg504
g0
(g1429
g2
Ntp1501
Rp1502
(dp1503
g1433
g1434
sg1435
g504
sg1436
g1437
sg1438
(lp1504
I46
aI47
asg1440
I23
sbsg484
g0
(g1429
g2
Ntp1505
Rp1506
(dp1507
g1433
g1434
sg1435
g484
sg1436
g1437
sg1438
(lp1508
I28
aI29
asg1440
I14
sbsg500
g0
(g1429
g2
Ntp1509
Rp1510
(dp1511
g1433
g1434
sg1435
g500
sg1436
g1437
sg1438
(lp1512
I40
aI41
asg1440
I20
sbsg520
g0
(g1429
g2
Ntp1513
Rp1514
(dp1515
g1433
g1434
sg1435
g520
sg1436
g1437
sg1438
(lp1516
I18
aI19
asg1440
I9
sbsg512
g0
(g1429
g2
Ntp1517
Rp1518
(dp1519
g1433
g1434
sg1435
g512
sg1436
g1437
sg1438
(lp1520
I34
aI35
asg1440
I17
sbsg35
g0
(g1429
g2
Ntp1521
Rp1522
(dp1523
g1433
g1434
sg1435
g35
sg1436
S'node'
p1524
sg1438
(lp1525
I82
aI80
aI77
aI76
asg1440
I29
sbsg508
g0
(g1429
g2
Ntp1526
Rp1527
(dp1528
g1433
g1434
sg1435
g508
sg1436
g1437
sg1438
(lp1529
I24
aI25
asg1440
I12
sbsg528
g0
(g1429
g2
Ntp1530
Rp1531
(dp1532
g1433
g1434
sg1435
g528
sg1436
g1437
sg1438
(lp1533
I50
aI51
asg1440
I25
sbsg476
g0
(g1429
g2
Ntp1534
Rp1535
(dp1536
g1433
g1434
sg1435
g476
sg1436
g1437
sg1438
(lp1537
I44
aI45
asg1440
I22
sbsg20
g0
(g1429
g2
Ntp1538
Rp1539
(dp1540
g1433
g1434
sg1435
g20
sg1436
g1524
sg1438
(lp1541
I54
aI52
aI49
aI48
asg1440
I28
sbsg546
g0
(g1429
g2
Ntp1542
Rp1543
(dp1544
g1433
g1434
sg1435
g546
sg1436
g1437
sg1438
(lp1545
I30
aI31
asg1440
I15
sbsg466
g0
(g1429
g2
Ntp1546
Rp1547
(dp1548
g1433
g1434
sg1435
g466
sg1436
g1437
sg1438
(lp1549
I38
aI39
asg1440
I19
sbsg458
g0
(g1429
g2
Ntp1550
Rp1551
(dp1552
g1433
g1434
sg1435
g458
sg1436
g1437
sg1438
(lp1553
I20
aI21
asg1440
I10
sbsg550
g0
(g1429
g2
Ntp1554
Rp1555
(dp1556
g1433
g1434
sg1435
g550
sg1436
g1437
sg1438
(lp1557
I48
aI49
asg1440
I24
sbssS'steps'
p1558
(dp1559
g1336
g0
(ccompas_fea.structure.step
GeneralStep
p1560
g2
Ntp1561
Rp1562
(dp1563
g15
I1
sS'__name__'
p1564
S'GeneralStep'
p1565
sS'name'
p1566
g1336
sS'attr_list'
p1567
(lp1568
g589
aS'increments'
p1569
aS'iterations'
p1570
aS'factor'
p1571
aS'nlgeom'
p1572
aS'nlmat'
p1573
aS'displacements'
p1574
aS'loads'
p1575
aS'type'
p1576
aS'tolerance'
p1577
aS'modify'
p1578
asS'increments'
p1579
I1
sS'iterations'
p1580
I100
sS'tolerance'
p1581
F0.01
sS'factor'
p1582
F1.0
sS'nlgeom'
p1583
I00
sS'nlmat'
p1584
I01
sS'displacements'
p1585
(lp1586
sS'loads'
p1587
(lp1588
g623
asS'modify'
p1589
I01
sS'type'
p1590
S'static'
p1591
sbsg1338
g0
(g1560
g2
Ntp1592
Rp1593
(dp1594
g15
I2
sg1564
g1565
sg1566
g1338
sg1567
(lp1595
g589
ag1569
ag1570
ag1571
ag1572
ag1573
ag1574
ag1575
ag1576
ag1577
ag1578
asg1579
I1
sg1580
I100
sg1581
F0.01
sg1582
F1.0
sg1583
I00
sg1584
I01
sg1585
(lp1596
sg1587
(lp1597
g609
ag602
ag594
asg1589
I01
sg1590
g1591
sbsg1339
g0
(g1560
g2
Ntp1598
Rp1599
(dp1600
g15
I3
sg1564
g1565
sg1566
g1339
sg1567
(lp1601
g589
ag1569
ag1570
ag1571
ag1572
ag1573
ag1574
ag1575
ag1576
ag1577
ag1578
asg1579
I1
sg1580
I100
sg1581
F0.01
sg1582
F1.0
sg1583
I00
sg1584
I01
sg1585
(lp1602
sg1587
(lp1603
g616
ag571
asg1589
I01
sg1590
g1591
sbsg1340
g0
(g1560
g2
Ntp1604
Rp1605
(dp1606
g15
I0
sg1564
g1565
sg1566
g1340
sg1567
(lp1607
g589
ag1569
ag1570
ag1571
ag1572
ag1573
ag1574
ag1575
ag1576
ag1577
ag1578
asg1579
I1
sg1580
I100
sg1581
F0.01
sg1582
F1.0
sg1583
I00
sg1584
I01
sg1585
(lp1608
g10
ag31
asg1587
(lp1609
sg1589
I01
sg1590
g1591
sbssS'loc_coor'
p1610
(dp1611
sS'steps_order'
p1612
(lp1613
g1340
ag1336
ag1338
ag1339
asS'tol'
p1614
S'3'
p1615
sS'virtual_nodes'
p1616
(dp1617
sS'virtual_node_index'
p1618
(dp1619
sS'virtual_elements'
p1620
(dp1621
sS'virtual_element_index'
p1622
(dp1623
sb.