ccopy_reg
_reconstructor
p0
(ccompas_fea.structure.structure
Structure
p1
c__builtin__
object
p2
Ntp3
Rp4
(dp5
S'constraints'
p6
(dp7
sS'displacements'
p8
(dp9
S'nset_pinned_set_disp_1'
p10
g0
(ccompas_fea.structure.displacement
GeneralDisplacement
p11
g2
Ntp12
Rp13
(dp14
S'index'
p15
I0
sS'__name__'
p16
S'GeneralDisplacement'
p17
sS'name'
p18
g10
sS'nodes'
p19
S'nset_support_wall1'
p20
sS'components'
p21
(dp22
S'z'
p23
I0
sS'xx'
p24
I0
sS'zz'
p25
I0
sS'yy'
p26
I0
sS'y'
p27
I0
sS'x'
p28
I0
ssS'axes'
p29
S'global'
p30
sbsS'nset_pinned_set_disp_2'
p31
g0
(g11
g2
Ntp32
Rp33
(dp34
g15
I1
sg16
g17
sg18
g31
sg19
S'nset_support_wall2'
p35
sg21
(dp36
g23
I0
sg24
I0
sg25
I0
sg26
I0
sg27
I0
sg28
I0
ssg29
g30
sbssS'elements'
p37
(dp38
I0
g0
(ccompas_fea.structure.element
ShellElement
p39
g2
Ntp40
Rp41
(dp42
S'mass'
p43
NsS'__name__'
p44
S'ShellElement'
p45
sS'nodes'
p46
(lp47
I0
aI1
aI3
aI2
asS'number'
p48
I0
sS'thermal'
p49
I00
sS'axes'
p50
(dp51
S'ey'
p52
NsS'ez'
p53
NsS'ex'
p54
NssS'element_property'
p55
S'elset_plate_1_element_prop'
p56
sbsI1
g0
(g39
g2
Ntp57
Rp58
(dp59
g43
Nsg44
g45
sg46
(lp60
I2
aI3
aI5
aI4
asg48
I1
sg49
I00
sg50
g51
sg55
g56
sbsI2
g0
(g39
g2
Ntp61
Rp62
(dp63
g43
Nsg44
g45
sg46
(lp64
I4
aI5
aI7
aI6
asg48
I2
sg49
I00
sg50
g51
sg55
g56
sbsI3
g0
(g39
g2
Ntp65
Rp66
(dp67
g43
Nsg44
g45
sg46
(lp68
I8
aI9
aI11
aI10
asg48
I3
sg49
I00
sg50
(dp69
g52
Nsg53
Nsg54
Nssg55
S'elset_plate_2_element_prop'
p70
sbsI4
g0
(g39
g2
Ntp71
Rp72
(dp73
g43
Nsg44
g45
sg46
(lp74
I10
aI11
aI13
aI12
asg48
I4
sg49
I00
sg50
g69
sg55
g70
sbsI5
g0
(g39
g2
Ntp75
Rp76
(dp77
g43
Nsg44
g45
sg46
(lp78
I12
aI13
aI15
aI14
asg48
I5
sg49
I00
sg50
g69
sg55
g70
sbsI6
g0
(g39
g2
Ntp79
Rp80
(dp81
g43
Nsg44
g45
sg46
(lp82
I1
aI16
aI17
aI3
asg48
I6
sg49
I00
sg50
(dp83
g52
Nsg53
Nsg54
Nssg55
S'elset_plate_3_element_prop'
p84
sbsI7
g0
(g39
g2
Ntp85
Rp86
(dp87
g43
Nsg44
g45
sg46
(lp88
I3
aI17
aI18
aI5
asg48
I7
sg49
I00
sg50
g83
sg55
g84
sbsI8
g0
(g39
g2
Ntp89
Rp90
(dp91
g43
Nsg44
g45
sg46
(lp92
I5
aI18
aI19
aI7
asg48
I8
sg49
I00
sg50
g83
sg55
g84
sbsI9
g0
(g39
g2
Ntp93
Rp94
(dp95
g43
Nsg44
g45
sg46
(lp96
I9
aI20
aI21
aI11
asg48
I9
sg49
I00
sg50
(dp97
g52
Nsg53
Nsg54
Nssg55
S'elset_plate_4_element_prop'
p98
sbsI10
g0
(g39
g2
Ntp99
Rp100
(dp101
g43
Nsg44
g45
sg46
(lp102
I11
aI21
aI22
aI13
asg48
I10
sg49
I00
sg50
g97
sg55
g98
sbsI11
g0
(g39
g2
Ntp103
Rp104
(dp105
g43
Nsg44
g45
sg46
(lp106
I13
aI22
aI23
aI15
asg48
I11
sg49
I00
sg50
g97
sg55
g98
sbsI12
g0
(g39
g2
Ntp107
Rp108
(dp109
g43
Nsg44
g45
sg46
(lp110
I16
aI24
aI25
aI17
asg48
I12
sg49
I00
sg50
(dp111
g52
Nsg53
Nsg54
Nssg55
S'elset_plate_5_element_prop'
p112
sbsI13
g0
(g39
g2
Ntp113
Rp114
(dp115
g43
Nsg44
g45
sg46
(lp116
I17
aI25
aI26
aI18
asg48
I13
sg49
I00
sg50
g111
sg55
g112
sbsI14
g0
(g39
g2
Ntp117
Rp118
(dp119
g43
Nsg44
g45
sg46
(lp120
I18
aI26
aI27
aI19
asg48
I14
sg49
I00
sg50
g111
sg55
g112
sbsI15
g0
(g39
g2
Ntp121
Rp122
(dp123
g43
Nsg44
g45
sg46
(lp124
I20
aI28
aI29
aI21
asg48
I15
sg49
I00
sg50
(dp125
g52
Nsg53
Nsg54
Nssg55
S'elset_plate_6_element_prop'
p126
sbsI16
g0
(g39
g2
Ntp127
Rp128
(dp129
g43
Nsg44
g45
sg46
(lp130
I21
aI29
aI30
aI22
asg48
I16
sg49
I00
sg50
g125
sg55
g126
sbsI17
g0
(g39
g2
Ntp131
Rp132
(dp133
g43
Nsg44
g45
sg46
(lp134
I22
aI30
aI31
aI23
asg48
I17
sg49
I00
sg50
g125
sg55
g126
sbsI18
g0
(g39
g2
Ntp135
Rp136
(dp137
g43
Nsg44
g45
sg46
(lp138
I6
aI7
aI33
aI32
asg48
I18
sg49
I00
sg50
(dp139
g52
Nsg53
Nsg54
Nssg55
S'elset_plate_7_element_prop'
p140
sbsI19
g0
(g39
g2
Ntp141
Rp142
(dp143
g43
Nsg44
g45
sg46
(lp144
I32
aI33
aI35
aI34
asg48
I19
sg49
I00
sg50
g139
sg55
g140
sbsI20
g0
(g39
g2
Ntp145
Rp146
(dp147
g43
Nsg44
g45
sg46
(lp148
I34
aI35
aI9
aI8
asg48
I20
sg49
I00
sg50
g139
sg55
g140
sbsI21
g0
(g39
g2
Ntp149
Rp150
(dp151
g43
Nsg44
g45
sg46
(lp152
I7
aI19
aI36
aI33
asg48
I21
sg49
I00
sg50
(dp153
g52
Nsg53
Nsg54
Nssg55
S'elset_plate_8_element_prop'
p154
sbsI22
g0
(g39
g2
Ntp155
Rp156
(dp157
g43
Nsg44
g45
sg46
(lp158
I33
aI36
aI37
aI35
asg48
I22
sg49
I00
sg50
g153
sg55
g154
sbsI23
g0
(g39
g2
Ntp159
Rp160
(dp161
g43
Nsg44
g45
sg46
(lp162
I35
aI37
aI20
aI9
asg48
I23
sg49
I00
sg50
g153
sg55
g154
sbsI24
g0
(g39
g2
Ntp163
Rp164
(dp165
g43
Nsg44
g45
sg46
(lp166
I19
aI27
aI38
aI36
asg48
I24
sg49
I00
sg50
(dp167
g52
Nsg53
Nsg54
Nssg55
S'elset_plate_9_element_prop'
p168
sbsI25
g0
(g39
g2
Ntp169
Rp170
(dp171
g43
Nsg44
g45
sg46
(lp172
I36
aI38
aI39
aI37
asg48
I25
sg49
I00
sg50
g167
sg55
g168
sbsI26
g0
(g39
g2
Ntp173
Rp174
(dp175
g43
Nsg44
g45
sg46
(lp176
I37
aI39
aI28
aI20
asg48
I26
sg49
I00
sg50
g167
sg55
g168
sbsI27
g0
(g39
g2
Ntp177
Rp178
(dp179
g43
Nsg44
g45
sg46
(lp180
I40
aI41
aI43
aI42
asg48
I27
sg49
I00
sg50
(dp181
g52
Nsg53
Nsg54
Nssg55
S'elset_wall_1_1_element_prop'
p182
sbsI28
g0
(g39
g2
Ntp183
Rp184
(dp185
g43
Nsg44
g45
sg46
(lp186
I41
aI44
aI45
aI43
asg48
I28
sg49
I00
sg50
(dp187
g52
Nsg53
Nsg54
Nssg55
S'elset_wall_1_2_element_prop'
p188
sbsI29
g0
(g39
g2
Ntp189
Rp190
(dp191
g43
Nsg44
g45
sg46
(lp192
I44
aI46
aI47
aI45
asg48
I29
sg49
I00
sg50
(dp193
g52
Nsg53
Nsg54
Nssg55
S'elset_wall_1_3_element_prop'
p194
sbsI30
g0
(g39
g2
Ntp195
Rp196
(dp197
g43
Nsg44
g45
sg46
(lp198
I48
aI49
aI41
aI40
asg48
I30
sg49
I00
sg50
(dp199
g52
Nsg53
Nsg54
Nssg55
S'elset_wall_1_4_element_prop'
p200
sbsI31
g0
(g39
g2
Ntp201
Rp202
(dp203
g43
Nsg44
g45
sg46
(lp204
I49
aI50
aI44
aI41
asg48
I31
sg49
I00
sg50
(dp205
g52
Nsg53
Nsg54
Nssg55
S'elset_wall_1_5_element_prop'
p206
sbsI32
g0
(g39
g2
Ntp207
Rp208
(dp209
g43
Nsg44
g45
sg46
(lp210
I50
aI51
aI46
aI44
asg48
I32
sg49
I00
sg50
(dp211
g52
Nsg53
Nsg54
Nssg55
S'elset_wall_1_6_element_prop'
p212
sbsI33
g0
(g39
g2
Ntp213
Rp214
(dp215
g43
Nsg44
g45
sg46
(lp216
I52
aI53
aI49
aI48
asg48
I33
sg49
I00
sg50
(dp217
g52
Nsg53
Nsg54
Nssg55
S'elset_wall_1_7_element_prop'
p218
sbsI34
g0
(g39
g2
Ntp219
Rp220
(dp221
g43
Nsg44
g45
sg46
(lp222
I53
aI54
aI50
aI49
asg48
I34
sg49
I00
sg50
(dp223
g52
Nsg53
Nsg54
Nssg55
S'elset_wall_1_8_element_prop'
p224
sbsI35
g0
(g39
g2
Ntp225
Rp226
(dp227
g43
Nsg44
g45
sg46
(lp228
I54
aI55
aI51
aI50
asg48
I35
sg49
I00
sg50
(dp229
g52
Nsg53
Nsg54
Nssg55
S'elset_wall_1_9_element_prop'
p230
sbsI36
g0
(g39
g2
Ntp231
Rp232
(dp233
g43
Nsg44
g45
sg46
(lp234
I56
aI58
aI59
aI57
asg48
I36
sg49
I00
sg50
(dp235
g52
Nsg53
Nsg54
Nssg55
S'elset_wall_2_1_element_prop'
p236
sbsI37
g0
(g39
g2
Ntp237
Rp238
(dp239
g43
Nsg44
g45
sg46
(lp240
I57
aI59
aI61
aI60
asg48
I37
sg49
I00
sg50
(dp241
g52
Nsg53
Nsg54
Nssg55
S'elset_wall_2_2_element_prop'
p242
sbsI38
g0
(g39
g2
Ntp243
Rp244
(dp245
g43
Nsg44
g45
sg46
(lp246
I60
aI61
aI63
aI62
asg48
I38
sg49
I00
sg50
(dp247
g52
Nsg53
Nsg54
Nssg55
S'elset_wall_2_3_element_prop'
p248
sbsI39
g0
(g39
g2
Ntp249
Rp250
(dp251
g43
Nsg44
g45
sg46
(lp252
I64
aI56
aI57
aI65
asg48
I39
sg49
I00
sg50
(dp253
g52
Nsg53
Nsg54
Nssg55
S'elset_wall_2_4_element_prop'
p254
sbsI40
g0
(g39
g2
Ntp255
Rp256
(dp257
g43
Nsg44
g45
sg46
(lp258
I65
aI57
aI60
aI66
asg48
I40
sg49
I00
sg50
(dp259
g52
Nsg53
Nsg54
Nssg55
S'elset_wall_2_5_element_prop'
p260
sbsI41
g0
(g39
g2
Ntp261
Rp262
(dp263
g43
Nsg44
g45
sg46
(lp264
I66
aI60
aI62
aI67
asg48
I41
sg49
I00
sg50
(dp265
g52
Nsg53
Nsg54
Nssg55
S'elset_wall_2_6_element_prop'
p266
sbsI42
g0
(g39
g2
Ntp267
Rp268
(dp269
g43
Nsg44
g45
sg46
(lp270
I68
aI64
aI65
aI69
asg48
I42
sg49
I00
sg50
(dp271
g52
Nsg53
Nsg54
Nssg55
S'elset_wall_2_7_element_prop'
p272
sbsI43
g0
(g39
g2
Ntp273
Rp274
(dp275
g43
Nsg44
g45
sg46
(lp276
I69
aI65
aI66
aI70
asg48
I43
sg49
I00
sg50
(dp277
g52
Nsg53
Nsg54
Nssg55
S'elset_wall_2_8_element_prop'
p278
sbsI44
g0
(g39
g2
Ntp279
Rp280
(dp281
g43
Nsg44
g45
sg46
(lp282
I70
aI66
aI67
aI71
asg48
I44
sg49
I00
sg50
(dp283
g52
Nsg53
Nsg54
Nssg55
S'elset_wall_2_9_element_prop'
p284
sbsI45
g0
(ccompas_fea.structure.element
MPCElement
p285
g2
Ntp286
Rp287
(dp288
g43
Nsg44
S'MPCElement'
p289
sg46
(lp290
I63
aI31
asg48
I45
sg49
I00
sg50
(dp291
g52
Nsg53
(lp292
F-3.637978807091713e-12
aF0.0
aF734.64811515049439
asg54
Nssg55
S'elset_mpc_element_prop'
p293
sbsI46
g0
(g285
g2
Ntp294
Rp295
(dp296
g43
Nsg44
g289
sg46
(lp297
I61
aI23
asg48
I46
sg49
I00
sg50
(dp298
g52
Nsg53
(lp299
F-1.8189894035458565e-12
aF0.0
aF734.64811515049439
asg54
Nssg55
g293
sbsI47
g0
(g285
g2
Ntp300
Rp301
(dp302
g43
Nsg44
g289
sg46
(lp303
I59
aI15
asg48
I47
sg49
I00
sg50
(dp304
g52
Nsg53
(lp305
F-9.0949470177292824e-13
aF0.0
aF734.64811515049439
asg54
Nssg55
g293
sbsI48
g0
(g285
g2
Ntp306
Rp307
(dp308
g43
Nsg44
g289
sg46
(lp309
I58
aI14
asg48
I48
sg49
I00
sg50
(dp310
g52
Nsg53
(lp311
F0.0
aF0.0
aF734.64811515049439
asg54
Nssg55
g293
sbsI49
g0
(g285
g2
Ntp312
Rp313
(dp314
g43
Nsg44
g289
sg46
(lp315
I47
aI24
asg48
I49
sg49
I00
sg50
(dp316
g52
Nsg53
(lp317
F-3.637978807091713e-12
aF0.0
aF734.64811515049439
asg54
Nssg55
g293
sbsI50
g0
(g285
g2
Ntp318
Rp319
(dp320
g43
Nsg44
g289
sg46
(lp321
I45
aI16
asg48
I50
sg49
I00
sg50
(dp322
g52
Nsg53
(lp323
F-1.8189894035458565e-12
aF0.0
aF734.64811515049439
asg54
Nssg55
g293
sbsI51
g0
(g285
g2
Ntp324
Rp325
(dp326
g43
Nsg44
g289
sg46
(lp327
I43
aI1
asg48
I51
sg49
I00
sg50
(dp328
g52
Nsg53
(lp329
F-9.0949470177292824e-13
aF0.0
aF734.64811515049439
asg54
Nssg55
g293
sbsI52
g0
(g285
g2
Ntp330
Rp331
(dp332
g43
Nsg44
g289
sg46
(lp333
I42
aI0
asg48
I52
sg49
I00
sg50
(dp334
g52
Nsg53
(lp335
F0.0
aF0.0
aF734.64811515049439
asg54
Nssg55
g293
sbssS'element_index'
p336
(dp337
S'1981.823,14119.496,0.000'
p338
I11
sS'1321.216,14941.266,-367.324'
p339
I47
sS'0.000,0.000,-367.324'
p340
I52
sS'660.608,5777.289,0.000'
p341
I18
sS'660.608,7470.633,0.000'
p342
I19
sS'3323.057,14941.266,-1333.366'
p343
I38
sS'660.608,14941.266,-2548.946'
p344
I39
sS'660.608,14941.266,-3764.526'
p345
I42
sS'1321.216,0.000,-367.324'
p346
I51
sS'1981.823,14941.266,-2548.946'
p347
I40
sS'1981.823,5777.289,0.000'
p348
I21
sS'660.608,4108.848,0.000'
p349
I2
sS'3323.057,0.000,-3764.526'
p350
I35
sS'1981.823,12475.957,0.000'
p351
I10
sS'660.608,14941.266,-1333.366'
p352
I36
sS'3323.057,14941.266,-3764.526'
p353
I44
sS'660.608,14119.496,0.000'
p354
I5
sS'3323.057,7470.633,0.000'
p355
I25
sS'0.000,14941.266,-367.324'
p356
I48
sS'3323.057,0.000,-2548.946'
p357
I32
sS'660.608,0.000,-3764.526'
p358
I33
sS'2642.431,14941.266,-367.324'
p359
I46
sS'3323.057,821.770,0.000'
p360
I12
sS'4003.684,14941.266,-367.324'
p361
I45
sS'1981.823,4108.848,0.000'
p362
I8
sS'660.608,2465.309,0.000'
p363
I1
sS'1981.823,9163.976,0.000'
p364
I23
sS'3323.057,10832.417,0.000'
p365
I15
sS'3323.057,12475.957,0.000'
p366
I16
sS'1981.823,0.000,-1333.366'
p367
I28
sS'1981.823,14941.266,-1333.366'
p368
I37
sS'1981.823,14941.266,-3764.526'
p369
I43
sS'660.608,0.000,-1333.366'
p370
I27
sS'2642.431,0.000,-367.324'
p371
I50
sS'1981.823,821.770,0.000'
p372
I6
sS'3323.057,0.000,-1333.366'
p373
I29
sS'4003.684,0.000,-367.324'
p374
I49
sS'660.608,9163.976,0.000'
p375
I20
sS'660.608,0.000,-2548.946'
p376
I30
sS'1981.823,10832.417,0.000'
p377
I9
sS'3323.057,14941.266,-2548.946'
p378
I41
sS'3323.057,14119.496,0.000'
p379
I17
sS'660.608,821.770,0.000'
p380
I0
sS'1981.823,0.000,-3764.526'
p381
I34
sS'1981.823,7470.633,0.000'
p382
I22
sS'1981.823,0.000,-2548.946'
p383
I31
sS'3323.057,5777.289,0.000'
p384
I24
sS'3323.057,2465.309,0.000'
p385
I13
sS'3323.057,4108.848,0.000'
p386
I14
sS'1981.823,2465.309,0.000'
p387
I7
sS'660.608,10832.417,0.000'
p388
I3
sS'3323.057,9163.976,0.000'
p389
I26
sS'660.608,12475.957,0.000'
p390
I4
ssS'element_properties'
p391
(dp392
g254
g0
(ccompas_fea.structure.element_properties
ElementProperties
p393
g2
Ntp394
Rp395
(dp396
S'index'
p397
I21
sS'__name__'
p398
S'ElementProperties'
p399
sS'name'
p400
g254
sS'material'
p401
S'wall_element_mat'
p402
sS'section'
p403
S'wall2_element_sec'
p404
sS'elset'
p405
S'elset_wall_2_4'
p406
sS'elements'
p407
NsS'rebar'
p408
(dp409
sbsg188
g0
(g393
g2
Ntp410
Rp411
(dp412
g397
I10
sg398
g399
sg400
g188
sg401
g402
sg403
S'wall1_element_sec'
p413
sg405
S'elset_wall_1_2'
p414
sg407
Nsg408
g409
sbsg224
g0
(g393
g2
Ntp415
Rp416
(dp417
g397
I16
sg398
g399
sg400
g224
sg401
g402
sg403
g413
sg405
S'elset_wall_1_8'
p418
sg407
Nsg408
g409
sbsg242
g0
(g393
g2
Ntp419
Rp420
(dp421
g397
I19
sg398
g399
sg400
g242
sg401
g402
sg403
g404
sg405
S'elset_wall_2_2'
p422
sg407
Nsg408
g409
sbsg56
g0
(g393
g2
Ntp423
Rp424
(dp425
g397
I0
sg398
g399
sg400
g56
sg401
S'plate_element_mat'
p426
sg403
S'plate_element_sec'
p427
sg405
S'elset_plate_1'
p428
sg407
Nsg408
g409
sbsg260
g0
(g393
g2
Ntp429
Rp430
(dp431
g397
I22
sg398
g399
sg400
g260
sg401
g402
sg403
g404
sg405
S'elset_wall_2_5'
p432
sg407
Nsg408
g409
sbsg168
g0
(g393
g2
Ntp433
Rp434
(dp435
g397
I8
sg398
g399
sg400
g168
sg401
g426
sg403
g427
sg405
S'elset_plate_9'
p436
sg407
Nsg408
g409
sbsg212
g0
(g393
g2
Ntp437
Rp438
(dp439
g397
I14
sg398
g399
sg400
g212
sg401
g402
sg403
g413
sg405
S'elset_wall_1_6'
p440
sg407
Nsg408
g409
sbsg112
g0
(g393
g2
Ntp441
Rp442
(dp443
g397
I4
sg398
g399
sg400
g112
sg401
g426
sg403
g427
sg405
S'elset_plate_5'
p444
sg407
Nsg408
g409
sbsg194
g0
(g393
g2
Ntp445
Rp446
(dp447
g397
I11
sg398
g399
sg400
g194
sg401
g402
sg403
g413
sg405
S'elset_wall_1_3'
p448
sg407
Nsg408
g409
sbsg84
g0
(g393
g2
Ntp449
Rp450
(dp451
g397
I2
sg398
g399
sg400
g84
sg401
g426
sg403
g427
sg405
S'elset_plate_3'
p452
sg407
Nsg408
g409
sbsg248
g0
(g393
g2
Ntp453
Rp454
(dp455
g397
I20
sg398
g399
sg400
g248
sg401
g402
sg403
g404
sg405
S'elset_wall_2_3'
p456
sg407
Nsg408
g409
sbsg266
g0
(g393
g2
Ntp457
Rp458
(dp459
g397
I23
sg398
g399
sg400
g266
sg401
g402
sg403
g404
sg405
S'elset_wall_2_6'
p460
sg407
Nsg408
g409
sbsg200
g0
(g393
g2
Ntp461
Rp462
(dp463
g397
I12
sg398
g399
sg400
g200
sg401
g402
sg403
g413
sg405
S'elset_wall_1_4'
p464
sg407
Nsg408
g409
sbsg230
g0
(g393
g2
Ntp465
Rp466
(dp467
g397
I17
sg398
g399
sg400
g230
sg401
g402
sg403
g413
sg405
S'elset_wall_1_9'
p468
sg407
Nsg408
g409
sbsg154
g0
(g393
g2
Ntp469
Rp470
(dp471
g397
I7
sg398
g399
sg400
g154
sg401
g426
sg403
g427
sg405
S'elset_plate_8'
p472
sg407
Nsg408
g409
sbsg182
g0
(g393
g2
Ntp473
Rp474
(dp475
g397
I9
sg398
g399
sg400
g182
sg401
g402
sg403
g413
sg405
S'elset_wall_1_1'
p476
sg407
Nsg408
g409
sbsg140
g0
(g393
g2
Ntp477
Rp478
(dp479
g397
I6
sg398
g399
sg400
g140
sg401
g426
sg403
g427
sg405
S'elset_plate_7'
p480
sg407
Nsg408
g409
sbsg278
g0
(g393
g2
Ntp481
Rp482
(dp483
g397
I25
sg398
g399
sg400
g278
sg401
g402
sg403
g404
sg405
S'elset_wall_2_8'
p484
sg407
Nsg408
g409
sbsg98
g0
(g393
g2
Ntp485
Rp486
(dp487
g397
I3
sg398
g399
sg400
g98
sg401
g426
sg403
g427
sg405
S'elset_plate_4'
p488
sg407
Nsg408
g409
sbsg70
g0
(g393
g2
Ntp489
Rp490
(dp491
g397
I1
sg398
g399
sg400
g70
sg401
g426
sg403
g427
sg405
S'elset_plate_2'
p492
sg407
Nsg408
g409
sbsg293
g0
(g393
g2
Ntp493
Rp494
(dp495
g397
I27
sg398
g399
sg400
g293
sg401
S'elset_mpc_element_mat'
p496
sg403
S'sec_mpc'
p497
sg405
S'elset_mpcs'
p498
sg407
Nsg408
g409
sbsg218
g0
(g393
g2
Ntp499
Rp500
(dp501
g397
I15
sg398
g399
sg400
g218
sg401
g402
sg403
g413
sg405
S'elset_wall_1_7'
p502
sg407
Nsg408
g409
sbsg272
g0
(g393
g2
Ntp503
Rp504
(dp505
g397
I24
sg398
g399
sg400
g272
sg401
g402
sg403
g404
sg405
S'elset_wall_2_7'
p506
sg407
Nsg408
g409
sbsg284
g0
(g393
g2
Ntp507
Rp508
(dp509
g397
I26
sg398
g399
sg400
g284
sg401
g402
sg403
g404
sg405
S'elset_wall_2_9'
p510
sg407
Nsg408
g409
sbsg236
g0
(g393
g2
Ntp511
Rp512
(dp513
g397
I18
sg398
g399
sg400
g236
sg401
g402
sg403
g404
sg405
S'elset_wall_2_1'
p514
sg407
Nsg408
g409
sbsg126
g0
(g393
g2
Ntp515
Rp516
(dp517
g397
I5
sg398
g399
sg400
g126
sg401
g426
sg403
g427
sg405
S'elset_plate_6'
p518
sg407
Nsg408
g409
sbsg206
g0
(g393
g2
Ntp519
Rp520
(dp521
g397
I13
sg398
g399
sg400
g206
sg401
g402
sg403
g413
sg405
S'elset_wall_1_5'
p522
sg407
Nsg408
g409
sbssS'interactions'
p523
(dp524
sS'loads'
p525
(dp526
S'Gleis1_BAHNLASTEN_Lasteinzugsflache_Lastblock_-3'
p527
g0
(ccompas_fea.structure.load
AreaLoad
p528
g2
Ntp529
Rp530
(dp531
g15
I5
sS'__name__'
p532
S'AreaLoad'
p533
sS'name'
p534
g527
sS'axes'
p535
S'global'
p536
sS'components'
p537
(dp538
S'z'
p539
F0.076889142395242818
sS'y'
p540
I0
sS'x'
p541
I0
ssS'nodes'
p542
(lp543
sS'elements'
p544
(lp545
I1
aI7
aI8
asS'attr_list'
p546
(lp547
S'name'
p548
aS'axes'
p549
aS'components'
p550
aS'nodes'
p551
aS'elements'
p552
asbsS'earthPressure_liveLoad'
p553
g0
(g528
g2
Ntp554
Rp555
(dp556
g15
I6
sg532
g533
sg534
g553
sg535
S'local'
p557
sg537
(dp558
g539
F0.037699999999999997
sg540
I0
sg541
I0
ssg542
g543
sg544
(lp559
I28
aI29
aI30
aI31
aI32
aI33
aI34
aI35
aI36
asg546
(lp560
g548
ag549
ag550
ag551
ag552
asbsS'Gleis1_BAHNLASTEN_Lasteinzugsflache_Lastblock_-2'
p561
g0
(g528
g2
Ntp562
Rp563
(dp564
g15
I4
sg532
g533
sg534
g561
sg535
g536
sg537
(dp565
g539
F0.076889142395242818
sg540
I0
sg541
I0
ssg542
g543
sg544
(lp566
I2
aI3
asg546
(lp567
g548
ag549
ag550
ag551
ag552
asbsS'Gleis1_EIGENGEWICHTE_SCHIENE_Lasteinzugsflache'
p568
g0
(g528
g2
Ntp569
Rp570
(dp571
g15
I3
sg532
g533
sg534
g568
sg535
S'global'
p572
sg537
(dp573
g539
F0.0023496189545681992
sg540
I0
sg541
I0
ssg542
g543
sg544
(lp574
I1
aI2
aI3
aI7
aI8
aI13
asg546
(lp575
g548
ag549
ag550
ag551
ag552
asbsS'earthPressure_backfill'
p576
g0
(g528
g2
Ntp577
Rp578
(dp579
g15
I2
sg532
g533
sg534
g576
sg535
S'local'
p580
sg537
(dp581
g539
F0.051647970720795841
sg540
I0
sg541
I0
ssg542
g543
sg544
(lp582
g476
ag414
ag448
ag464
ag522
ag440
ag502
ag418
ag468
ag514
ag422
ag456
ag406
ag432
ag460
ag506
ag484
ag510
asg546
(lp583
g548
ag549
ag550
ag551
ag552
asbsS'earthPressure_gravel'
p584
g0
(g528
g2
Ntp585
Rp586
(dp587
g15
I1
sg532
g533
sg534
g584
sg535
S'global'
p588
sg537
(dp589
g539
F0.013500000000000002
sg540
I0
sg541
I0
ssg542
g543
sg544
(lp590
g428
ag492
ag452
ag488
ag444
ag518
ag480
ag472
ag436
asg546
(lp591
g548
ag549
ag550
ag551
ag552
asbsS'load_gravity'
p592
g0
(ccompas_fea.structure.load
GravityLoad
p593
g2
Ntp594
Rp595
(dp596
g15
I0
sg532
S'GravityLoad'
p597
sg534
g592
sg535
S'global'
p598
sg537
(dp599
S'z'
p600
F1.3500000000000001
sS'y'
p601
F0.0
sS'x'
p602
F0.0
ssg542
g543
sg544
(lp603
g428
ag492
ag452
ag488
ag444
ag518
ag480
ag472
ag436
ag476
ag414
ag448
ag464
ag522
ag440
ag502
ag418
ag468
ag514
ag422
ag456
ag406
ag432
ag460
ag506
ag484
ag510
asg546
(lp604
g548
ag549
ag550
ag551
ag552
aS'g'
p605
asS'g'
p606
F-9.8100000000000005
sbssS'materials'
p607
(dp608
S'elset_mpc_element_mat'
p609
g0
(ccompas_fea.structure.material
MPCStiff
p610
g2
Ntp611
Rp612
(dp613
g15
I2
sS'__name__'
p614
S'MPCStiff'
p615
sS'name'
p616
g609
sS'attr_list'
p617
(lp618
S'name'
p619
aS'E'
p620
aS'v'
p621
aS'G'
p622
aS'p'
p623
aS'tension'
p624
aS'compression'
p625
asS'E'
p626
(dp627
S'E'
p628
L10000000000000L
ssS'v'
p629
(dp630
S'v'
p631
F0.29999999999999999
ssS'G'
p632
(dp633
S'G'
p634
F3846153846153.8462
ssS'p'
p635
F0.10000000000000001
sS'tension'
p636
I01
sS'compression'
p637
I01
sbsg402
g0
(ccompas_fea.structure.material
CMMUsermat
p638
g2
Ntp639
Rp640
(dp641
g15
I1
sg614
S'CMMUsermat'
p642
sg616
g402
sg617
(lp643
g619
aS'E'
p644
aS'v'
p645
aS'G'
p646
aS'p'
p647
aS'R_Rohr'
p648
aS'rho'
p649
aS'oo'
p650
aS'uu'
p651
aS'beton'
p652
aS'fcc'
p653
aS'vc'
p654
aS'ecu'
p655
aS'k_E'
p656
aS'theta_b0'
p657
aS'theta_b1'
p658
aS'k_riss'
p659
aS'Entfestigung'
p660
aS'lambdaTS'
p661
aS'srmx'
p662
aS'srmy'
p663
aS'Begrenzung'
p664
aS'KritQ'
p665
aS'winkelD'
p666
aS'k_vr'
p667
aS'fswy'
p668
aS'stahl1'
p669
aS'zm1'
p670
aS'fsy1'
p671
aS'fsu1'
p672
aS'esu1'
p673
aS'esv1'
p674
aS'Es1'
p675
aS'ka1'
p676
aS'kb1'
p677
aS'kc1'
p678
aS'as1'
p679
aS'dm1'
p680
aS'psi1'
p681
aS'stahl2'
p682
aS'zm2'
p683
aS'fsy2'
p684
aS'fsu2'
p685
aS'esu2'
p686
aS'esv2'
p687
aS'Es2'
p688
aS'ka2'
p689
aS'kb2'
p690
aS'kc2'
p691
aS'as2'
p692
aS'dm2'
p693
aS'psi2'
p694
aS'stahl3'
p695
aS'zm3'
p696
aS'fsy3'
p697
aS'fsu3'
p698
aS'esu3'
p699
aS'esv3'
p700
aS'Es3'
p701
aS'ka3'
p702
aS'kb3'
p703
aS'kc3'
p704
aS'as3'
p705
aS'dm3'
p706
aS'psi3'
p707
aS'stahl4'
p708
aS'zm4'
p709
aS'fsy4'
p710
aS'fsu4'
p711
aS'esu4'
p712
aS'esv4'
p713
aS'Es4'
p714
aS'ka4'
p715
aS'kb4'
p716
aS'kc4'
p717
aS'as4'
p718
aS'dm4'
p719
aS'psi4'
p720
asS'E'
p721
(dp722
S'E'
p723
I200000
ssS'v'
p724
(dp725
S'v'
p726
F0.10000000000000001
ssS'G'
p727
(dp728
S'G'
p729
F90909.090909090897
ssS'p'
p730
F2.5000000000000002e-06
sS'R_Rohr'
p731
(dp732
S'R_Rohr'
p733
I-1
ssS'rho'
p734
(dp735
S'rho'
p736
F2.5000000000000002e-06
ssS'oo'
p737
(dp738
S'oo'
p739
I30
ssS'uu'
p740
(dp741
S'uu'
p742
I30
ssS'beton'
p743
(dp744
S'beton'
p745
I2
ssS'fcc'
p746
(dp747
S'fcc'
p748
I31
ssS'vc'
p749
(dp750
S'vc'
p751
I0
ssS'ecu'
p752
(dp753
S'ecu'
p754
F-0.002
ssS'k_E'
p755
(dp756
S'k_E'
p757
I10000
ssS'theta_b0'
p758
(dp759
S'theta_b0'
p760
I2
ssS'theta_b1'
p761
(dp762
S'theta_b1'
p763
I1
ssS'k_riss'
p764
(dp765
S'k_riss'
p766
I0
ssS'Entfestigung'
p767
(dp768
S'Entfestigung'
p769
I0
ssS'lambdaTS'
p770
(dp771
S'lambdaTS'
p772
F0.67000000000000004
ssS'srmx'
p773
(dp774
S'srmx'
p775
I1
ssS'srmy'
p776
(dp777
S'srmy'
p778
I1
ssS'Begrenzung'
p779
(dp780
S'Begrenzung'
p781
I2
ssS'KritQ'
p782
(dp783
S'KritQ'
p784
I0
ssS'winkelD'
p785
(dp786
S'winkelD'
p787
I45
ssS'k_vr'
p788
(dp789
S'k_vr'
p790
I1
ssS'fswy'
p791
(dp792
S'fswy'
p793
I500
ssS'stahl1'
p794
(dp795
S'stahl1'
p796
I1
ssS'zm1'
p797
(dp798
S'zm1'
p799
I2
ssS'fsy1'
p800
(dp801
S'fsy1'
p802
I337
ssS'fsu1'
p803
(dp804
S'fsu1'
p805
I364
ssS'esu1'
p806
(dp807
S'esu1'
p808
F0.044999999999999998
ssS'esv1'
p809
(dp810
S'esv1'
p811
F0.02
ssS'Es1'
p812
(dp813
S'Es1'
p814
I200000
ssS'ka1'
p815
(dp816
S'ka1'
p817
I-1
ssS'kb1'
p818
(dp819
S'kb1'
p820
I-1
ssS'kc1'
p821
(dp822
S'kc1'
p823
I-1
ssS'as1'
p824
(dp825
S'as1'
p826
F0.41805149529249713
ssS'dm1'
p827
(dp828
S'dm1'
p829
F14.56486856766838
ssS'psi1'
p830
(dp831
S'psi1'
p832
I90
ssS'stahl2'
p833
(dp834
S'stahl2'
p835
I1
ssS'zm2'
p836
(dp837
S'zm2'
p838
I2
ssS'fsy2'
p839
(dp840
S'fsy2'
p841
I337
ssS'fsu2'
p842
(dp843
S'fsu2'
p844
I364
ssS'esu2'
p845
(dp846
S'esu2'
p847
F0.044999999999999998
ssS'esv2'
p848
(dp849
S'esv2'
p850
F0.02
ssS'Es2'
p851
(dp852
S'Es2'
p853
I200000
ssS'ka2'
p854
(dp855
S'ka2'
p856
I-1
ssS'kb2'
p857
(dp858
S'kb2'
p859
I-1
ssS'kc2'
p860
(dp861
S'kc2'
p862
I-1
ssS'as2'
p863
(dp864
S'as2'
p865
F0.28377826777416149
ssS'dm2'
p866
(dp867
S'dm2'
p868
F12.0
ssS'psi2'
p869
(dp870
S'psi2'
p871
I0
ssS'stahl3'
p872
(dp873
S'stahl3'
p874
I1
ssS'zm3'
p875
(dp876
S'zm3'
p877
I2
ssS'fsy3'
p878
(dp879
S'fsy3'
p880
I337
ssS'fsu3'
p881
(dp882
S'fsu3'
p883
I364
ssS'esu3'
p884
(dp885
S'esu3'
p886
F0.044999999999999998
ssS'esv3'
p887
(dp888
S'esv3'
p889
F0.02
ssS'Es3'
p890
(dp891
S'Es3'
p892
I200000
ssS'ka3'
p893
(dp894
S'ka3'
p895
I-1
ssS'kb3'
p896
(dp897
S'kb3'
p898
I-1
ssS'kc3'
p899
(dp900
S'kc3'
p901
I-1
ssS'as3'
p902
(dp903
S'as3'
p904
F0.28377826777416149
ssS'dm3'
p905
(dp906
S'dm3'
p907
F12.0
ssS'psi3'
p908
(dp909
S'psi3'
p910
I0
ssS'stahl4'
p911
(dp912
S'stahl4'
p913
I1
ssS'zm4'
p914
(dp915
S'zm4'
p916
I2
ssS'fsy4'
p917
(dp918
S'fsy4'
p919
I337
ssS'fsu4'
p920
(dp921
S'fsu4'
p922
I364
ssS'esu4'
p923
(dp924
S'esu4'
p925
F0.044999999999999998
ssS'esv4'
p926
(dp927
S'esv4'
p928
F0.02
ssS'Es4'
p929
(dp930
S'Es4'
p931
I200000
ssS'ka4'
p932
(dp933
S'ka4'
p934
I-1
ssS'kb4'
p935
(dp936
S'kb4'
p937
I-1
ssS'kc4'
p938
(dp939
S'kc4'
p940
I-1
ssS'as4'
p941
(dp942
S'as4'
p943
F0.56048277601622265
ssS'dm4'
p944
(dp945
S'dm4'
p946
F16.864474570398471
ssS'psi4'
p947
(dp948
S'psi4'
p949
I90
ssbsg426
g0
(g638
g2
Ntp950
Rp951
(dp952
g15
I0
sg614
g642
sg616
g426
sg617
(lp953
g619
ag644
ag645
ag646
ag647
ag648
ag649
ag650
ag651
ag652
ag653
ag654
ag655
ag656
ag657
ag658
ag659
ag660
ag661
ag662
ag663
ag664
ag665
ag666
ag667
ag668
ag669
ag670
ag671
ag672
ag673
ag674
ag675
ag676
ag677
ag678
ag679
ag680
ag681
ag682
ag683
ag684
ag685
ag686
ag687
ag688
ag689
ag690
ag691
ag692
ag693
ag694
ag695
ag696
ag697
ag698
ag699
ag700
ag701
ag702
ag703
ag704
ag705
ag706
ag707
ag708
ag709
ag710
ag711
ag712
ag713
ag714
ag715
ag716
ag717
ag718
ag719
ag720
asg721
(dp954
g723
I200000
ssg724
(dp955
g726
F0.10000000000000001
ssg727
(dp956
g729
F90909.090909090897
ssg730
F2.5000000000000002e-06
sg731
(dp957
g733
I-1
ssg734
(dp958
g736
F2.5000000000000002e-06
ssg737
(dp959
g739
I30
ssg740
(dp960
g742
I30
ssg743
(dp961
g745
I2
ssg746
(dp962
g748
I31
ssg749
(dp963
g751
I0
ssg752
(dp964
g754
F-0.002
ssg755
(dp965
g757
I10000
ssg758
(dp966
g760
I2
ssg761
(dp967
g763
I1
ssg764
(dp968
g766
I0
ssg767
(dp969
g769
I0
ssg770
(dp970
g772
F0.67000000000000004
ssg773
(dp971
g775
I1
ssg776
(dp972
g778
I1
ssg779
(dp973
g781
I2
ssg782
(dp974
g784
I0
ssg785
(dp975
g787
I45
ssg788
(dp976
g790
I1
ssg791
(dp977
g793
I500
ssg794
(dp978
g796
I1
ssg797
(dp979
g799
I2
ssg800
(dp980
g802
I337
ssg803
(dp981
g805
I364
ssg806
(dp982
g808
F0.044999999999999998
ssg809
(dp983
g811
F0.02
ssg812
(dp984
g814
I200000
ssg815
(dp985
g817
I-1
ssg818
(dp986
g820
I-1
ssg821
(dp987
g823
I-1
ssg824
(dp988
g826
F0.21933678516092664
ssg827
(dp989
g829
F10.683201774154533
ssg830
(dp990
g832
I90
ssg833
(dp991
g835
I1
ssg836
(dp992
g838
I2
ssg839
(dp993
g841
I337
ssg842
(dp994
g844
I364
ssg845
(dp995
g847
F0.044999999999999998
ssg848
(dp996
g850
F0.02
ssg851
(dp997
g853
I200000
ssg854
(dp998
g856
I-1
ssg857
(dp999
g859
I-1
ssg860
(dp1000
g862
I-1
ssg863
(dp1001
g865
F0.5490215680695012
ssg866
(dp1002
g868
F16.902089501628179
ssg869
(dp1003
g871
I0
ssg872
(dp1004
g874
I1
ssg875
(dp1005
g877
I2
ssg878
(dp1006
g880
I337
ssg881
(dp1007
g883
I364
ssg884
(dp1008
g886
F0.044999999999999998
ssg887
(dp1009
g889
F0.02
ssg890
(dp1010
g892
I200000
ssg893
(dp1011
g895
I-1
ssg896
(dp1012
g898
I-1
ssg899
(dp1013
g901
I-1
ssg902
(dp1014
g904
F0.27673946929672016
ssg905
(dp1015
g907
F12.0
ssg908
(dp1016
g910
I0
ssg911
(dp1017
g913
I1
ssg914
(dp1018
g916
I2
ssg917
(dp1019
g919
I337
ssg920
(dp1020
g922
I364
ssg923
(dp1021
g925
F0.044999999999999998
ssg926
(dp1022
g928
F0.02
ssg929
(dp1023
g931
I200000
ssg932
(dp1024
g934
I-1
ssg935
(dp1025
g937
I-1
ssg938
(dp1026
g940
I-1
ssg941
(dp1027
g943
F1.0099097233163163
ssg944
(dp1028
g946
F22.923819011599292
ssg947
(dp1029
g949
I90
ssbssS'misc'
p1030
(dp1031
sS'name'
p1032
S'NLFE_CFB6'
p1033
sS'nodes'
p1034
(dp1035
I0
g0
(ccompas_fea.structure.node
Node
p1036
g2
Ntp1037
Rp1038
(dp1039
S'__name__'
p1040
S'Node'
p1041
sS'key'
p1042
I0
sS'x'
p1043
F0.0
sS'y'
p1044
F0.0
sS'z'
p1045
F0.0
sS'ex'
p1046
(lp1047
I1
aI0
aI0
asS'ey'
p1048
(lp1049
I0
aI1
aI0
asS'ez'
p1050
(lp1051
I0
aI0
aI1
asS'mass'
p1052
NsbsI1
g0
(g1036
g2
Ntp1053
Rp1054
(dp1055
g1040
g1041
sg1042
I1
sg1043
F1321.215597936289
sg1044
F0.0
sg1045
F0.0
sg1046
g1047
sg1048
g1049
sg1050
g1051
sg1052
NsbsI2
g0
(g1036
g2
Ntp1056
Rp1057
(dp1058
g1040
g1041
sg1042
I2
sg1043
F0.0
sg1044
F1643.5392054905669
sg1045
F0.0
sg1046
g1047
sg1048
g1049
sg1050
g1051
sg1052
NsbsI3
g0
(g1036
g2
Ntp1059
Rp1060
(dp1061
g1040
g1041
sg1042
I3
sg1043
F1321.215597936289
sg1044
F1643.5392054905669
sg1045
F0.0
sg1046
g1047
sg1048
g1049
sg1050
g1051
sg1052
NsbsI4
g0
(g1036
g2
Ntp1062
Rp1063
(dp1064
g1040
g1041
sg1042
I4
sg1043
F0.0
sg1044
F3287.0784109811339
sg1045
F0.0
sg1046
g1047
sg1048
g1049
sg1050
g1051
sg1052
NsbsI5
g0
(g1036
g2
Ntp1065
Rp1066
(dp1067
g1040
g1041
sg1042
I5
sg1043
F1321.215597936289
sg1044
F3287.0784109811339
sg1045
F0.0
sg1046
g1047
sg1048
g1049
sg1050
g1051
sg1052
NsbsI6
g0
(g1036
g2
Ntp1068
Rp1069
(dp1070
g1040
g1041
sg1042
I6
sg1043
F0.0
sg1044
F4930.6176164717008
sg1045
F0.0
sg1046
g1047
sg1048
g1049
sg1050
g1051
sg1052
NsbsI7
g0
(g1036
g2
Ntp1071
Rp1072
(dp1073
g1040
g1041
sg1042
I7
sg1043
F1321.215597936289
sg1044
F4930.6176164717008
sg1045
F0.0
sg1046
g1047
sg1048
g1049
sg1050
g1051
sg1052
NsbsI8
g0
(g1036
g2
Ntp1074
Rp1075
(dp1076
g1040
g1041
sg1042
I8
sg1043
F0.0
sg1044
F10010.647887987998
sg1045
F0.0
sg1046
g1047
sg1048
g1049
sg1050
g1051
sg1052
NsbsI9
g0
(g1036
g2
Ntp1077
Rp1078
(dp1079
g1040
g1041
sg1042
I9
sg1043
F1321.215597936289
sg1044
F10010.647887987998
sg1045
F0.0
sg1046
g1047
sg1048
g1049
sg1050
g1051
sg1052
NsbsI10
g0
(g1036
g2
Ntp1080
Rp1081
(dp1082
g1040
g1041
sg1042
I10
sg1043
F0.0
sg1044
F11654.187093478566
sg1045
F0.0
sg1046
g1047
sg1048
g1049
sg1050
g1051
sg1052
NsbsI11
g0
(g1036
g2
Ntp1083
Rp1084
(dp1085
g1040
g1041
sg1042
I11
sg1043
F1321.2155979362892
sg1044
F11654.187093478566
sg1045
F0.0
sg1046
g1047
sg1048
g1049
sg1050
g1051
sg1052
NsbsI12
g0
(g1036
g2
Ntp1086
Rp1087
(dp1088
g1040
g1041
sg1042
I12
sg1043
F0.0
sg1044
F13297.726298969132
sg1045
F0.0
sg1046
g1047
sg1048
g1049
sg1050
g1051
sg1052
NsbsI13
g0
(g1036
g2
Ntp1089
Rp1090
(dp1091
g1040
g1041
sg1042
I13
sg1043
F1321.215597936289
sg1044
F13297.726298969132
sg1045
F0.0
sg1046
g1047
sg1048
g1049
sg1050
g1051
sg1052
NsbsI14
g0
(g1036
g2
Ntp1092
Rp1093
(dp1094
g1040
g1041
sg1042
I14
sg1043
F0.0
sg1044
F14941.2655044597
sg1045
F0.0
sg1046
g1047
sg1048
g1049
sg1050
g1051
sg1052
NsbsI15
g0
(g1036
g2
Ntp1095
Rp1096
(dp1097
g1040
g1041
sg1042
I15
sg1043
F1321.215597936289
sg1044
F14941.2655044597
sg1045
F0.0
sg1046
g1047
sg1048
g1049
sg1050
g1051
sg1052
NsbsI16
g0
(g1036
g2
Ntp1098
Rp1099
(dp1100
g1040
g1041
sg1042
I16
sg1043
F2642.431195872578
sg1044
F0.0
sg1045
F0.0
sg1046
g1047
sg1048
g1049
sg1050
g1051
sg1052
NsbsI17
g0
(g1036
g2
Ntp1101
Rp1102
(dp1103
g1040
g1041
sg1042
I17
sg1043
F2642.431195872578
sg1044
F1643.5392054905669
sg1045
F0.0
sg1046
g1047
sg1048
g1049
sg1050
g1051
sg1052
NsbsI18
g0
(g1036
g2
Ntp1104
Rp1105
(dp1106
g1040
g1041
sg1042
I18
sg1043
F2642.431195872578
sg1044
F3287.0784109811339
sg1045
F0.0
sg1046
g1047
sg1048
g1049
sg1050
g1051
sg1052
NsbsI19
g0
(g1036
g2
Ntp1107
Rp1108
(dp1109
g1040
g1041
sg1042
I19
sg1043
F2642.431195872578
sg1044
F4930.6176164717008
sg1045
F0.0
sg1046
g1047
sg1048
g1049
sg1050
g1051
sg1052
NsbsI20
g0
(g1036
g2
Ntp1110
Rp1111
(dp1112
g1040
g1041
sg1042
I20
sg1043
F2642.431195872578
sg1044
F10010.647887987998
sg1045
F0.0
sg1046
g1047
sg1048
g1049
sg1050
g1051
sg1052
NsbsI21
g0
(g1036
g2
Ntp1113
Rp1114
(dp1115
g1040
g1041
sg1042
I21
sg1043
F2642.4311958725784
sg1044
F11654.187093478566
sg1045
F0.0
sg1046
g1047
sg1048
g1049
sg1050
g1051
sg1052
NsbsI22
g0
(g1036
g2
Ntp1116
Rp1117
(dp1118
g1040
g1041
sg1042
I22
sg1043
F2642.431195872578
sg1044
F13297.726298969132
sg1045
F0.0
sg1046
g1047
sg1048
g1049
sg1050
g1051
sg1052
NsbsI23
g0
(g1036
g2
Ntp1119
Rp1120
(dp1121
g1040
g1041
sg1042
I23
sg1043
F2642.431195872578
sg1044
F14941.2655044597
sg1045
F0.0
sg1046
g1047
sg1048
g1049
sg1050
g1051
sg1052
NsbsI24
g0
(g1036
g2
Ntp1122
Rp1123
(dp1124
g1040
g1041
sg1042
I24
sg1043
F4003.6836301099665
sg1044
F0.0
sg1045
F0.0
sg1046
g1047
sg1048
g1049
sg1050
g1051
sg1052
NsbsI25
g0
(g1036
g2
Ntp1125
Rp1126
(dp1127
g1040
g1041
sg1042
I25
sg1043
F4003.6836301099665
sg1044
F1643.5392054905669
sg1045
F0.0
sg1046
g1047
sg1048
g1049
sg1050
g1051
sg1052
NsbsI26
g0
(g1036
g2
Ntp1128
Rp1129
(dp1130
g1040
g1041
sg1042
I26
sg1043
F4003.6836301099665
sg1044
F3287.0784109811339
sg1045
F0.0
sg1046
g1047
sg1048
g1049
sg1050
g1051
sg1052
NsbsI27
g0
(g1036
g2
Ntp1131
Rp1132
(dp1133
g1040
g1041
sg1042
I27
sg1043
F4003.6836301099665
sg1044
F4930.6176164717008
sg1045
F0.0
sg1046
g1047
sg1048
g1049
sg1050
g1051
sg1052
NsbsI28
g0
(g1036
g2
Ntp1134
Rp1135
(dp1136
g1040
g1041
sg1042
I28
sg1043
F4003.6836301099665
sg1044
F10010.647887987998
sg1045
F0.0
sg1046
g1047
sg1048
g1049
sg1050
g1051
sg1052
NsbsI29
g0
(g1036
g2
Ntp1137
Rp1138
(dp1139
g1040
g1041
sg1042
I29
sg1043
F4003.6836301099665
sg1044
F11654.187093478566
sg1045
F0.0
sg1046
g1047
sg1048
g1049
sg1050
g1051
sg1052
NsbsI30
g0
(g1036
g2
Ntp1140
Rp1141
(dp1142
g1040
g1041
sg1042
I30
sg1043
F4003.6836301099665
sg1044
F13297.726298969132
sg1045
F0.0
sg1046
g1047
sg1048
g1049
sg1050
g1051
sg1052
NsbsI31
g0
(g1036
g2
Ntp1143
Rp1144
(dp1145
g1040
g1041
sg1042
I31
sg1043
F4003.6836301099665
sg1044
F14941.2655044597
sg1045
F0.0
sg1046
g1047
sg1048
g1049
sg1050
g1051
sg1052
NsbsI32
g0
(g1036
g2
Ntp1146
Rp1147
(dp1148
g1040
g1041
sg1042
I32
sg1043
F0.0
sg1044
F6623.9610403104662
sg1045
F0.0
sg1046
g1047
sg1048
g1049
sg1050
g1051
sg1052
NsbsI33
g0
(g1036
g2
Ntp1149
Rp1150
(dp1151
g1040
g1041
sg1042
I33
sg1043
F1321.215597936289
sg1044
F6623.9610403104662
sg1045
F0.0
sg1046
g1047
sg1048
g1049
sg1050
g1051
sg1052
NsbsI34
g0
(g1036
g2
Ntp1152
Rp1153
(dp1154
g1040
g1041
sg1042
I34
sg1043
F0.0
sg1044
F8317.3044641492306
sg1045
F0.0
sg1046
g1047
sg1048
g1049
sg1050
g1051
sg1052
NsbsI35
g0
(g1036
g2
Ntp1155
Rp1156
(dp1157
g1040
g1041
sg1042
I35
sg1043
F1321.215597936289
sg1044
F8317.3044641492306
sg1045
F0.0
sg1046
g1047
sg1048
g1049
sg1050
g1051
sg1052
NsbsI36
g0
(g1036
g2
Ntp1158
Rp1159
(dp1160
g1040
g1041
sg1042
I36
sg1043
F2642.431195872578
sg1044
F6623.9610403104662
sg1045
F0.0
sg1046
g1047
sg1048
g1049
sg1050
g1051
sg1052
NsbsI37
g0
(g1036
g2
Ntp1161
Rp1162
(dp1163
g1040
g1041
sg1042
I37
sg1043
F2642.431195872578
sg1044
F8317.3044641492306
sg1045
F0.0
sg1046
g1047
sg1048
g1049
sg1050
g1051
sg1052
NsbsI38
g0
(g1036
g2
Ntp1164
Rp1165
(dp1166
g1040
g1041
sg1042
I38
sg1043
F4003.6836301099665
sg1044
F6623.9610403104662
sg1045
F0.0
sg1046
g1047
sg1048
g1049
sg1050
g1051
sg1052
NsbsI39
g0
(g1036
g2
Ntp1167
Rp1168
(dp1169
g1040
g1041
sg1042
I39
sg1043
F4003.6836301099665
sg1044
F8317.3044641492306
sg1045
F0.0
sg1046
g1047
sg1048
g1049
sg1050
g1051
sg1052
NsbsI40
g0
(g1036
g2
Ntp1170
Rp1171
(dp1172
g1040
g1041
sg1042
I40
sg1043
F0.0
sg1044
F0.0
sg1045
F-1932.0848707413525
sg1046
g1047
sg1048
g1049
sg1050
g1051
sg1052
NsbsI41
g0
(g1036
g2
Ntp1173
Rp1174
(dp1175
g1040
g1041
sg1042
I41
sg1043
F1321.2155979362899
sg1044
F0.0
sg1045
F-1932.0848707413525
sg1046
g1047
sg1048
g1049
sg1050
g1051
sg1052
NsbsI42
g0
(g1036
g2
Ntp1176
Rp1177
(dp1178
g1040
g1041
sg1042
I42
sg1043
F0.0
sg1044
F0.0
sg1045
F-734.64811515049439
sg1046
g1047
sg1048
g1049
sg1050
g1051
sg1052
NsbsI43
g0
(g1036
g2
Ntp1179
Rp1180
(dp1181
g1040
g1041
sg1042
I43
sg1043
F1321.2155979362899
sg1044
F0.0
sg1045
F-734.64811515049439
sg1046
g1047
sg1048
g1049
sg1050
g1051
sg1052
NsbsI44
g0
(g1036
g2
Ntp1182
Rp1183
(dp1184
g1040
g1041
sg1042
I44
sg1043
F2642.4311958725798
sg1044
F0.0
sg1045
F-1932.0848707413525
sg1046
g1047
sg1048
g1049
sg1050
g1051
sg1052
NsbsI45
g0
(g1036
g2
Ntp1185
Rp1186
(dp1187
g1040
g1041
sg1042
I45
sg1043
F2642.4311958725798
sg1044
F0.0
sg1045
F-734.64811515049439
sg1046
g1047
sg1048
g1049
sg1050
g1051
sg1052
NsbsI46
g0
(g1036
g2
Ntp1188
Rp1189
(dp1190
g1040
g1041
sg1042
I46
sg1043
F4003.6836301099702
sg1044
F0.0
sg1045
F-1932.0848707413525
sg1046
g1047
sg1048
g1049
sg1050
g1051
sg1052
NsbsI47
g0
(g1036
g2
Ntp1191
Rp1192
(dp1193
g1040
g1041
sg1042
I47
sg1043
F4003.6836301099702
sg1044
F0.0
sg1045
F-734.64811515049439
sg1046
g1047
sg1048
g1049
sg1050
g1051
sg1052
NsbsI48
g0
(g1036
g2
Ntp1194
Rp1195
(dp1196
g1040
g1041
sg1042
I48
sg1043
F0.0
sg1044
F0.0
sg1045
F-3165.8075886228421
sg1046
g1047
sg1048
g1049
sg1050
g1051
sg1052
NsbsI49
g0
(g1036
g2
Ntp1197
Rp1198
(dp1199
g1040
g1041
sg1042
I49
sg1043
F1321.2155979362899
sg1044
F0.0
sg1045
F-3165.8075886228421
sg1046
g1047
sg1048
g1049
sg1050
g1051
sg1052
NsbsI50
g0
(g1036
g2
Ntp1200
Rp1201
(dp1202
g1040
g1041
sg1042
I50
sg1043
F2642.4311958725798
sg1044
F0.0
sg1045
F-3165.8075886228421
sg1046
g1047
sg1048
g1049
sg1050
g1051
sg1052
NsbsI51
g0
(g1036
g2
Ntp1203
Rp1204
(dp1205
g1040
g1041
sg1042
I51
sg1043
F4003.6836301099702
sg1044
F0.0
sg1045
F-3165.8075886228421
sg1046
g1047
sg1048
g1049
sg1050
g1051
sg1052
NsbsI52
g0
(g1036
g2
Ntp1206
Rp1207
(dp1208
g1040
g1041
sg1042
I52
sg1043
F0.0
sg1044
F0.0
sg1045
F-4363.2443442137001
sg1046
g1047
sg1048
g1049
sg1050
g1051
sg1052
NsbsI53
g0
(g1036
g2
Ntp1209
Rp1210
(dp1211
g1040
g1041
sg1042
I53
sg1043
F1321.2155979362899
sg1044
F0.0
sg1045
F-4363.2443442137001
sg1046
g1047
sg1048
g1049
sg1050
g1051
sg1052
NsbsI54
g0
(g1036
g2
Ntp1212
Rp1213
(dp1214
g1040
g1041
sg1042
I54
sg1043
F2642.4311958725798
sg1044
F0.0
sg1045
F-4363.2443442137001
sg1046
g1047
sg1048
g1049
sg1050
g1051
sg1052
NsbsI55
g0
(g1036
g2
Ntp1215
Rp1216
(dp1217
g1040
g1041
sg1042
I55
sg1043
F4003.6836301099702
sg1044
F0.0
sg1045
F-4363.2443442137001
sg1046
g1047
sg1048
g1049
sg1050
g1051
sg1052
NsbsI56
g0
(g1036
g2
Ntp1218
Rp1219
(dp1220
g1040
g1041
sg1042
I56
sg1043
F0.0
sg1044
F14941.2655044597
sg1045
F-1932.0848707413525
sg1046
g1047
sg1048
g1049
sg1050
g1051
sg1052
NsbsI57
g0
(g1036
g2
Ntp1221
Rp1222
(dp1223
g1040
g1041
sg1042
I57
sg1043
F1321.2155979362899
sg1044
F14941.2655044597
sg1045
F-1932.0848707413525
sg1046
g1047
sg1048
g1049
sg1050
g1051
sg1052
NsbsI58
g0
(g1036
g2
Ntp1224
Rp1225
(dp1226
g1040
g1041
sg1042
I58
sg1043
F0.0
sg1044
F14941.2655044597
sg1045
F-734.64811515049439
sg1046
g1047
sg1048
g1049
sg1050
g1051
sg1052
NsbsI59
g0
(g1036
g2
Ntp1227
Rp1228
(dp1229
g1040
g1041
sg1042
I59
sg1043
F1321.2155979362899
sg1044
F14941.2655044597
sg1045
F-734.64811515049439
sg1046
g1047
sg1048
g1049
sg1050
g1051
sg1052
NsbsI60
g0
(g1036
g2
Ntp1230
Rp1231
(dp1232
g1040
g1041
sg1042
I60
sg1043
F2642.4311958725798
sg1044
F14941.2655044597
sg1045
F-1932.0848707413525
sg1046
g1047
sg1048
g1049
sg1050
g1051
sg1052
NsbsI61
g0
(g1036
g2
Ntp1233
Rp1234
(dp1235
g1040
g1041
sg1042
I61
sg1043
F2642.4311958725798
sg1044
F14941.2655044597
sg1045
F-734.64811515049439
sg1046
g1047
sg1048
g1049
sg1050
g1051
sg1052
NsbsI62
g0
(g1036
g2
Ntp1236
Rp1237
(dp1238
g1040
g1041
sg1042
I62
sg1043
F4003.6836301099702
sg1044
F14941.2655044597
sg1045
F-1932.0848707413525
sg1046
g1047
sg1048
g1049
sg1050
g1051
sg1052
NsbsI63
g0
(g1036
g2
Ntp1239
Rp1240
(dp1241
g1040
g1041
sg1042
I63
sg1043
F4003.6836301099702
sg1044
F14941.2655044597
sg1045
F-734.64811515049439
sg1046
g1047
sg1048
g1049
sg1050
g1051
sg1052
NsbsI64
g0
(g1036
g2
Ntp1242
Rp1243
(dp1244
g1040
g1041
sg1042
I64
sg1043
F0.0
sg1044
F14941.2655044597
sg1045
F-3165.8075886228421
sg1046
g1047
sg1048
g1049
sg1050
g1051
sg1052
NsbsI65
g0
(g1036
g2
Ntp1245
Rp1246
(dp1247
g1040
g1041
sg1042
I65
sg1043
F1321.2155979362899
sg1044
F14941.2655044597
sg1045
F-3165.8075886228421
sg1046
g1047
sg1048
g1049
sg1050
g1051
sg1052
NsbsI66
g0
(g1036
g2
Ntp1248
Rp1249
(dp1250
g1040
g1041
sg1042
I66
sg1043
F2642.4311958725798
sg1044
F14941.2655044597
sg1045
F-3165.8075886228421
sg1046
g1047
sg1048
g1049
sg1050
g1051
sg1052
NsbsI67
g0
(g1036
g2
Ntp1251
Rp1252
(dp1253
g1040
g1041
sg1042
I67
sg1043
F4003.6836301099702
sg1044
F14941.2655044597
sg1045
F-3165.8075886228421
sg1046
g1047
sg1048
g1049
sg1050
g1051
sg1052
NsbsI68
g0
(g1036
g2
Ntp1254
Rp1255
(dp1256
g1040
g1041
sg1042
I68
sg1043
F0.0
sg1044
F14941.2655044597
sg1045
F-4363.2443442137001
sg1046
g1047
sg1048
g1049
sg1050
g1051
sg1052
NsbsI69
g0
(g1036
g2
Ntp1257
Rp1258
(dp1259
g1040
g1041
sg1042
I69
sg1043
F1321.2155979362899
sg1044
F14941.2655044597
sg1045
F-4363.2443442137001
sg1046
g1047
sg1048
g1049
sg1050
g1051
sg1052
NsbsI70
g0
(g1036
g2
Ntp1260
Rp1261
(dp1262
g1040
g1041
sg1042
I70
sg1043
F2642.4311958725798
sg1044
F14941.2655044597
sg1045
F-4363.2443442137001
sg1046
g1047
sg1048
g1049
sg1050
g1051
sg1052
NsbsI71
g0
(g1036
g2
Ntp1263
Rp1264
(dp1265
g1040
g1041
sg1042
I71
sg1043
F4003.6836301099702
sg1044
F14941.2655044597
sg1045
F-4363.2443442137001
sg1046
g1047
sg1048
g1049
sg1050
g1051
sg1052
NsbssS'node_index'
p1266
(dp1267
S'2642.431,14941.266,-1932.085'
p1268
I60
sS'1321.216,14941.266,-4363.244'
p1269
I69
sS'1321.216,3287.078,0.000'
p1270
I5
sS'4003.684,14941.266,-4363.244'
p1271
I71
sS'2642.431,11654.187,0.000'
p1272
I21
sS'4003.684,14941.266,-734.648'
p1273
I63
sS'0.000,10010.648,0.000'
p1274
I8
sS'1321.216,14941.266,-1932.085'
p1275
I57
sS'0.000,0.000,-3165.808'
p1276
I48
sS'0.000,14941.266,-4363.244'
p1277
I68
sS'0.000,13297.726,0.000'
p1278
I12
sS'1321.216,14941.266,-3165.808'
p1279
I65
sS'4003.684,14941.266,-1932.085'
p1280
I62
sS'2642.431,14941.266,-3165.808'
p1281
I66
sS'0.000,14941.266,-3165.808'
p1282
I64
sS'0.000,3287.078,0.000'
p1283
I4
sS'1321.216,13297.726,0.000'
p1284
I13
sS'1321.216,1643.539,0.000'
p1285
I3
sS'2642.431,13297.726,0.000'
p1286
I22
sS'0.000,6623.961,0.000'
p1287
I32
sS'2642.431,14941.266,-4363.244'
p1288
I70
sS'4003.684,4930.618,0.000'
p1289
I27
sS'0.000,4930.618,0.000'
p1290
I6
sS'0.000,1643.539,0.000'
p1291
I2
sS'1321.216,4930.618,0.000'
p1292
I7
sS'2642.431,3287.078,0.000'
p1293
I18
sS'2642.431,1643.539,0.000'
p1294
I17
sS'0.000,0.000,0.000'
p1295
I0
sS'4003.684,1643.539,0.000'
p1296
I25
sS'4003.684,11654.187,0.000'
p1297
I29
sS'2642.431,6623.961,0.000'
p1298
I36
sS'1321.216,0.000,-734.648'
p1299
I43
sS'0.000,0.000,-1932.085'
p1300
I40
sS'2642.431,0.000,-1932.085'
p1301
I44
sS'2642.431,0.000,-3165.808'
p1302
I50
sS'0.000,8317.304,0.000'
p1303
I34
sS'1321.216,0.000,-4363.244'
p1304
I53
sS'0.000,14941.266,-1932.085'
p1305
I56
sS'4003.684,10010.648,0.000'
p1306
I28
sS'0.000,14941.266,-734.648'
p1307
I58
sS'1321.216,14941.266,0.000'
p1308
I15
sS'2642.431,14941.266,-734.648'
p1309
I61
sS'2642.431,14941.266,0.000'
p1310
I23
sS'4003.684,14941.266,-3165.808'
p1311
I67
sS'4003.684,0.000,-734.648'
p1312
I47
sS'1321.216,14941.266,-734.648'
p1313
I59
sS'0.000,11654.187,0.000'
p1314
I10
sS'2642.431,0.000,0.000'
p1315
I16
sS'0.000,0.000,-4363.244'
p1316
I52
sS'1321.216,11654.187,0.000'
p1317
I11
sS'4003.684,3287.078,0.000'
p1318
I26
sS'4003.684,6623.961,0.000'
p1319
I38
sS'4003.684,0.000,0.000'
p1320
I24
sS'4003.684,0.000,-4363.244'
p1321
I55
sS'1321.216,0.000,-1932.085'
p1322
I41
sS'2642.431,8317.304,0.000'
p1323
I37
sS'1321.216,6623.961,0.000'
p1324
I33
sS'0.000,0.000,-734.648'
p1325
I42
sS'1321.216,0.000,-3165.808'
p1326
I49
sS'1321.216,8317.304,0.000'
p1327
I35
sS'2642.431,0.000,-4363.244'
p1328
I54
sS'1321.216,0.000,0.000'
p1329
I1
sS'2642.431,4930.618,0.000'
p1330
I19
sS'0.000,14941.266,0.000'
p1331
I14
sS'4003.684,13297.726,0.000'
p1332
I30
sS'4003.684,0.000,-1932.085'
p1333
I46
sS'1321.216,10010.648,0.000'
p1334
I9
sS'4003.684,14941.266,0.000'
p1335
I31
sS'2642.431,10010.648,0.000'
p1336
I20
sS'4003.684,8317.304,0.000'
p1337
I39
sS'4003.684,0.000,-3165.808'
p1338
I51
sS'2642.431,0.000,-734.648'
p1339
I45
ssS'path'
p1340
S'C:\\Temp\\'
p1341
sS'results'
p1342
(dp1343
S'step_2'
p1344
S'ERROR'
p1345
sS'step_3'
p1346
g1345
sS'step_4'
p1347
g1345
sS'step_1'
p1348
g1345
ssS'sections'
p1349
(dp1350
g413
g0
(ccompas_fea.structure.section
ShellSection
p1351
g2
Ntp1352
Rp1353
(dp1354
g15
I1
sS'__name__'
p1355
S'ShellSection'
p1356
sS'name'
p1357
g413
sS'geometry'
p1358
(dp1359
S't'
p1360
F616.25315818993545
ssS'loc_coords_OR'
p1361
(dp1362
S'ORxyz'
p1363
(lp1364
I0
aI0
aF-3628.59622906
assS'loc_coords_XA'
p1365
(dp1366
S'XAxyz'
p1367
(lp1368
I1
aI0
aF-3628.59622906
assS'loc_coords_YA'
p1369
(dp1370
S'YAxyz'
p1371
(lp1372
F3628.59622906
aF-3628.59622906
aF-3627.59622906
assS'loc_coords_EV_XA'
p1373
(dp1374
S'EV_XA'
p1375
(lp1376
F1.0
aF0.0
aF0.0
assS'loc_coords_EV_YA'
p1377
(dp1378
S'EV_YA'
p1379
(lp1380
F0.70710676776051462
aF-0.70710676776051462
aF0.0001948706119731853
assS'loc_coords_EV_ZA'
p1381
(dp1382
S'EV_ZA'
p1383
(lp1384
F0.0
aF-1.0
aF0.0
assS'nr_layers'
p1385
(dp1386
S'nn'
p1387
F52.0
ssS'offset'
p1388
(dp1389
S'mode'
p1390
S'mid'
p1391
ssbsg427
g0
(g1351
g2
Ntp1392
Rp1393
(dp1394
g15
I0
sg1355
g1356
sg1357
g427
sg1358
(dp1395
g1360
F734.64811515049439
ssg1361
(dp1396
g1363
(lp1397
I0
aI0
aI0
assg1365
(dp1398
g1367
(lp1399
I1
aI0
aI0
assg1369
(dp1400
g1371
(lp1401
F0.0
aF1.0
aF0.0
assg1373
(dp1402
g1375
(lp1403
F1.0
aF0.0
aF0.0
assg1377
(dp1404
g1379
(lp1405
F0.0
aF1.0
aF0.0
assg1381
(dp1406
g1383
(lp1407
F0.0
aF0.0
aF1.0
assg1385
(dp1408
g1387
F58.0
ssg1388
(dp1409
g1390
S'top'
p1410
ssbsg404
g0
(g1351
g2
Ntp1411
Rp1412
(dp1413
g15
I2
sg1355
g1356
sg1357
g404
sg1358
(dp1414
g1360
F616.25315818993545
ssg1361
(dp1415
g1363
(lp1416
I0
aF14941.265504499999
aF-3628.59622906
assg1365
(dp1417
g1367
(lp1418
I1
aF14941.265504499999
aF-3628.59622906
assg1369
(dp1419
g1371
(lp1420
F-3628.5962290540338
aF11312.669275439999
aF-18570.861733559999
assg1373
(dp1421
g1375
(lp1422
F1.0
aF0.0
aF0.0
assg1377
(dp1423
g1379
(lp1424
F-0.22967421912375804
aF-0.22967421912413569
aF-0.94577984020574801
assg1381
(dp1425
g1383
(lp1426
F0.0
aF1.0
aF0.0
assg1385
(dp1427
g1387
F52.0
ssg1388
(dp1428
g1390
S'mid'
p1429
ssbsS'sec_mpc'
p1430
g0
(ccompas_fea.structure.section
MPCSection
p1431
g2
Ntp1432
Rp1433
(dp1434
g15
I3
sg1355
S'MPCSection'
p1435
sg1357
g1430
sg1358
NsS'nr_layers'
p1436
NsbssS'sets'
p1437
(dp1438
g522
g0
(ccompas_fea.structure.set
Set
p1439
g2
Ntp1440
Rp1441
(dp1442
S'__name__'
p1443
S'Set'
p1444
sS'name'
p1445
g522
sS'type'
p1446
S'element'
p1447
sS'selection'
p1448
(lp1449
I31
asS'index'
p1450
I13
sbsS'elset_mpcs'
p1451
g0
(g1439
g2
Ntp1452
Rp1453
(dp1454
g1443
g1444
sg1445
g1451
sg1446
g1447
sg1448
(lp1455
I48
aI49
aI50
aI51
aI52
aI45
aI46
aI47
asg1450
I27
sbsg406
g0
(g1439
g2
Ntp1456
Rp1457
(dp1458
g1443
g1444
sg1445
g406
sg1446
g1447
sg1448
(lp1459
I39
asg1450
I21
sbsg452
g0
(g1439
g2
Ntp1460
Rp1461
(dp1462
g1443
g1444
sg1445
g452
sg1446
g1447
sg1448
(lp1463
I8
aI6
aI7
asg1450
I2
sbsg418
g0
(g1439
g2
Ntp1464
Rp1465
(dp1466
g1443
g1444
sg1445
g418
sg1446
g1447
sg1448
(lp1467
I34
asg1450
I16
sbsg514
g0
(g1439
g2
Ntp1468
Rp1469
(dp1470
g1443
g1444
sg1445
g514
sg1446
g1447
sg1448
(lp1471
I36
asg1450
I18
sbsg492
g0
(g1439
g2
Ntp1472
Rp1473
(dp1474
g1443
g1444
sg1445
g492
sg1446
g1447
sg1448
(lp1475
I3
aI4
aI5
asg1450
I1
sbsg428
g0
(g1439
g2
Ntp1476
Rp1477
(dp1478
g1443
g1444
sg1445
g428
sg1446
g1447
sg1448
(lp1479
I0
aI1
aI2
asg1450
I0
sbsg480
g0
(g1439
g2
Ntp1480
Rp1481
(dp1482
g1443
g1444
sg1445
g480
sg1446
g1447
sg1448
(lp1483
I18
aI19
aI20
asg1450
I6
sbsg518
g0
(g1439
g2
Ntp1484
Rp1485
(dp1486
g1443
g1444
sg1445
g518
sg1446
g1447
sg1448
(lp1487
I16
aI17
aI15
asg1450
I5
sbsg444
g0
(g1439
g2
Ntp1488
Rp1489
(dp1490
g1443
g1444
sg1445
g444
sg1446
g1447
sg1448
(lp1491
I12
aI13
aI14
asg1450
I4
sbsg488
g0
(g1439
g2
Ntp1492
Rp1493
(dp1494
g1443
g1444
sg1445
g488
sg1446
g1447
sg1448
(lp1495
I9
aI10
aI11
asg1450
I3
sbsg436
g0
(g1439
g2
Ntp1496
Rp1497
(dp1498
g1443
g1444
sg1445
g436
sg1446
g1447
sg1448
(lp1499
I24
aI25
aI26
asg1450
I8
sbsg472
g0
(g1439
g2
Ntp1500
Rp1501
(dp1502
g1443
g1444
sg1445
g472
sg1446
g1447
sg1448
(lp1503
I21
aI22
aI23
asg1450
I7
sbsg448
g0
(g1439
g2
Ntp1504
Rp1505
(dp1506
g1443
g1444
sg1445
g448
sg1446
g1447
sg1448
(lp1507
I29
asg1450
I11
sbsg510
g0
(g1439
g2
Ntp1508
Rp1509
(dp1510
g1443
g1444
sg1445
g510
sg1446
g1447
sg1448
(lp1511
I44
asg1450
I26
sbsg460
g0
(g1439
g2
Ntp1512
Rp1513
(dp1514
g1443
g1444
sg1445
g460
sg1446
g1447
sg1448
(lp1515
I41
asg1450
I23
sbsg440
g0
(g1439
g2
Ntp1516
Rp1517
(dp1518
g1443
g1444
sg1445
g440
sg1446
g1447
sg1448
(lp1519
I32
asg1450
I14
sbsg456
g0
(g1439
g2
Ntp1520
Rp1521
(dp1522
g1443
g1444
sg1445
g456
sg1446
g1447
sg1448
(lp1523
I38
asg1450
I20
sbsg476
g0
(g1439
g2
Ntp1524
Rp1525
(dp1526
g1443
g1444
sg1445
g476
sg1446
g1447
sg1448
(lp1527
I27
asg1450
I9
sbsg468
g0
(g1439
g2
Ntp1528
Rp1529
(dp1530
g1443
g1444
sg1445
g468
sg1446
g1447
sg1448
(lp1531
I35
asg1450
I17
sbsS'nset_support_wall2'
p1532
g0
(g1439
g2
Ntp1533
Rp1534
(dp1535
g1443
g1444
sg1445
g1532
sg1446
S'node'
p1536
sg1448
(lp1537
I71
aI70
aI69
aI68
asg1450
I29
sbsg464
g0
(g1439
g2
Ntp1538
Rp1539
(dp1540
g1443
g1444
sg1445
g464
sg1446
g1447
sg1448
(lp1541
I30
asg1450
I12
sbsg484
g0
(g1439
g2
Ntp1542
Rp1543
(dp1544
g1443
g1444
sg1445
g484
sg1446
g1447
sg1448
(lp1545
I43
asg1450
I25
sbsg432
g0
(g1439
g2
Ntp1546
Rp1547
(dp1548
g1443
g1444
sg1445
g432
sg1446
g1447
sg1448
(lp1549
I40
asg1450
I22
sbsS'nset_support_wall1'
p1550
g0
(g1439
g2
Ntp1551
Rp1552
(dp1553
g1443
g1444
sg1445
g1550
sg1446
g1536
sg1448
(lp1554
I55
aI54
aI53
aI52
asg1450
I28
sbsg502
g0
(g1439
g2
Ntp1555
Rp1556
(dp1557
g1443
g1444
sg1445
g502
sg1446
g1447
sg1448
(lp1558
I33
asg1450
I15
sbsg422
g0
(g1439
g2
Ntp1559
Rp1560
(dp1561
g1443
g1444
sg1445
g422
sg1446
g1447
sg1448
(lp1562
I37
asg1450
I19
sbsg414
g0
(g1439
g2
Ntp1563
Rp1564
(dp1565
g1443
g1444
sg1445
g414
sg1446
g1447
sg1448
(lp1566
I28
asg1450
I10
sbsg506
g0
(g1439
g2
Ntp1567
Rp1568
(dp1569
g1443
g1444
sg1445
g506
sg1446
g1447
sg1448
(lp1570
I42
asg1450
I24
sbssS'steps'
p1571
(dp1572
g1344
g0
(ccompas_fea.structure.step
GeneralStep
p1573
g2
Ntp1574
Rp1575
(dp1576
g15
I1
sS'__name__'
p1577
S'GeneralStep'
p1578
sS'name'
p1579
g1344
sS'attr_list'
p1580
(lp1581
S'name'
p1582
aS'increments'
p1583
aS'iterations'
p1584
aS'factor'
p1585
aS'nlgeom'
p1586
aS'nlmat'
p1587
aS'displacements'
p1588
aS'loads'
p1589
aS'type'
p1590
aS'tolerance'
p1591
aS'modify'
p1592
asS'increments'
p1593
I1
sS'iterations'
p1594
I100
sS'tolerance'
p1595
F0.01
sS'factor'
p1596
F1.0
sS'nlgeom'
p1597
I00
sS'nlmat'
p1598
I01
sS'displacements'
p1599
(lp1600
sS'loads'
p1601
(lp1602
S'load_gravity'
p1603
asS'modify'
p1604
I01
sS'type'
p1605
S'static'
p1606
sbsg1346
g0
(g1573
g2
Ntp1607
Rp1608
(dp1609
g15
I2
sg1577
g1578
sg1579
g1346
sg1580
(lp1610
g1582
ag1583
ag1584
ag1585
ag1586
ag1587
ag1588
ag1589
ag1590
ag1591
ag1592
asg1593
I1
sg1594
I100
sg1595
F0.01
sg1596
F1.0
sg1597
I00
sg1598
I01
sg1599
(lp1611
sg1601
(lp1612
S'earthPressure_gravel'
p1613
aS'earthPressure_backfill'
p1614
ag568
asg1604
I01
sg1605
g1606
sbsg1347
g0
(g1573
g2
Ntp1615
Rp1616
(dp1617
g15
I3
sg1577
g1578
sg1579
g1347
sg1580
(lp1618
g1582
ag1583
ag1584
ag1585
ag1586
ag1587
ag1588
ag1589
ag1590
ag1591
ag1592
asg1593
I1
sg1594
I100
sg1595
F0.01
sg1596
F1.0
sg1597
I00
sg1598
I01
sg1599
(lp1619
sg1601
(lp1620
g561
ag527
ag553
asg1604
I01
sg1605
g1606
sbsg1348
g0
(g1573
g2
Ntp1621
Rp1622
(dp1623
g15
I0
sg1577
g1578
sg1579
g1348
sg1580
(lp1624
g1582
ag1583
ag1584
ag1585
ag1586
ag1587
ag1588
ag1589
ag1590
ag1591
ag1592
asg1593
I1
sg1594
I100
sg1595
F0.01
sg1596
F1.0
sg1597
I00
sg1598
I01
sg1599
(lp1625
S'nset_pinned_set_disp_1'
p1626
aS'nset_pinned_set_disp_2'
p1627
asg1601
(lp1628
sg1604
I01
sg1605
g1606
sbssS'loc_coor'
p1629
(dp1630
sS'steps_order'
p1631
(lp1632
S'step_1'
p1633
aS'step_2'
p1634
aS'step_3'
p1635
aS'step_4'
p1636
asS'tol'
p1637
S'3'
p1638
sS'virtual_nodes'
p1639
(dp1640
sS'virtual_node_index'
p1641
(dp1642
sS'virtual_elements'
p1643
(dp1644
sS'virtual_element_index'
p1645
(dp1646
sb.