ccopy_reg
_reconstructor
p0
(ccompas_fea.structure.structure
Structure
p1
c__builtin__
object
p2
Ntp3
Rp4
(dp5
S'constraints'
p6
(dp7
sS'displacements'
p8
(dp9
S'nset_pinned_set_disp_1'
p10
g0
(ccompas_fea.structure.displacement
GeneralDisplacement
p11
g2
Ntp12
Rp13
(dp14
S'index'
p15
I0
sS'__name__'
p16
S'GeneralDisplacement'
p17
sS'name'
p18
g10
sS'nodes'
p19
S'nset_support_wall1'
p20
sS'components'
p21
(dp22
S'z'
p23
I0
sS'xx'
p24
I0
sS'zz'
p25
I0
sS'yy'
p26
I0
sS'y'
p27
I0
sS'x'
p28
I0
ssS'axes'
p29
S'global'
p30
sbsS'nset_pinned_set_disp_2'
p31
g0
(g11
g2
Ntp32
Rp33
(dp34
g15
I1
sg16
g17
sg18
g31
sg19
S'nset_support_wall2'
p35
sg21
(dp36
g23
I0
sg24
I0
sg25
I0
sg26
I0
sg27
I0
sg28
I0
ssg29
g30
sbssS'elements'
p37
(dp38
I0
g0
(ccompas_fea.structure.element
ShellElement
p39
g2
Ntp40
Rp41
(dp42
S'mass'
p43
NsS'__name__'
p44
S'ShellElement'
p45
sS'nodes'
p46
(lp47
I0
aI1
aI3
aI2
asS'number'
p48
I0
sS'thermal'
p49
I00
sS'axes'
p50
(dp51
S'ey'
p52
NsS'ez'
p53
NsS'ex'
p54
NssS'element_property'
p55
S'elset_plate_1_element_prop'
p56
sbsI1
g0
(g39
g2
Ntp57
Rp58
(dp59
g43
Nsg44
g45
sg46
(lp60
I2
aI3
aI5
aI4
asg48
I1
sg49
I00
sg50
g51
sg55
g56
sbsI2
g0
(g39
g2
Ntp61
Rp62
(dp63
g43
Nsg44
g45
sg46
(lp64
I4
aI5
aI7
aI6
asg48
I2
sg49
I00
sg50
g51
sg55
g56
sbsI3
g0
(g39
g2
Ntp65
Rp66
(dp67
g43
Nsg44
g45
sg46
(lp68
I8
aI9
aI11
aI10
asg48
I3
sg49
I00
sg50
(dp69
g52
Nsg53
Nsg54
Nssg55
S'elset_plate_2_element_prop'
p70
sbsI4
g0
(g39
g2
Ntp71
Rp72
(dp73
g43
Nsg44
g45
sg46
(lp74
I10
aI11
aI13
aI12
asg48
I4
sg49
I00
sg50
g69
sg55
g70
sbsI5
g0
(g39
g2
Ntp75
Rp76
(dp77
g43
Nsg44
g45
sg46
(lp78
I12
aI13
aI15
aI14
asg48
I5
sg49
I00
sg50
g69
sg55
g70
sbsI6
g0
(g39
g2
Ntp79
Rp80
(dp81
g43
Nsg44
g45
sg46
(lp82
I1
aI16
aI17
aI3
asg48
I6
sg49
I00
sg50
(dp83
g52
Nsg53
Nsg54
Nssg55
S'elset_plate_3_element_prop'
p84
sbsI7
g0
(g39
g2
Ntp85
Rp86
(dp87
g43
Nsg44
g45
sg46
(lp88
I3
aI17
aI18
aI5
asg48
I7
sg49
I00
sg50
g83
sg55
g84
sbsI8
g0
(g39
g2
Ntp89
Rp90
(dp91
g43
Nsg44
g45
sg46
(lp92
I5
aI18
aI19
aI7
asg48
I8
sg49
I00
sg50
g83
sg55
g84
sbsI9
g0
(g39
g2
Ntp93
Rp94
(dp95
g43
Nsg44
g45
sg46
(lp96
I9
aI20
aI21
aI11
asg48
I9
sg49
I00
sg50
(dp97
g52
Nsg53
Nsg54
Nssg55
S'elset_plate_4_element_prop'
p98
sbsI10
g0
(g39
g2
Ntp99
Rp100
(dp101
g43
Nsg44
g45
sg46
(lp102
I11
aI21
aI22
aI13
asg48
I10
sg49
I00
sg50
g97
sg55
g98
sbsI11
g0
(g39
g2
Ntp103
Rp104
(dp105
g43
Nsg44
g45
sg46
(lp106
I13
aI22
aI23
aI15
asg48
I11
sg49
I00
sg50
g97
sg55
g98
sbsI12
g0
(g39
g2
Ntp107
Rp108
(dp109
g43
Nsg44
g45
sg46
(lp110
I16
aI24
aI25
aI17
asg48
I12
sg49
I00
sg50
(dp111
g52
Nsg53
Nsg54
Nssg55
S'elset_plate_5_element_prop'
p112
sbsI13
g0
(g39
g2
Ntp113
Rp114
(dp115
g43
Nsg44
g45
sg46
(lp116
I17
aI25
aI26
aI18
asg48
I13
sg49
I00
sg50
g111
sg55
g112
sbsI14
g0
(g39
g2
Ntp117
Rp118
(dp119
g43
Nsg44
g45
sg46
(lp120
I18
aI26
aI27
aI19
asg48
I14
sg49
I00
sg50
g111
sg55
g112
sbsI15
g0
(g39
g2
Ntp121
Rp122
(dp123
g43
Nsg44
g45
sg46
(lp124
I20
aI28
aI29
aI21
asg48
I15
sg49
I00
sg50
(dp125
g52
Nsg53
Nsg54
Nssg55
S'elset_plate_6_element_prop'
p126
sbsI16
g0
(g39
g2
Ntp127
Rp128
(dp129
g43
Nsg44
g45
sg46
(lp130
I21
aI29
aI30
aI22
asg48
I16
sg49
I00
sg50
g125
sg55
g126
sbsI17
g0
(g39
g2
Ntp131
Rp132
(dp133
g43
Nsg44
g45
sg46
(lp134
I22
aI30
aI31
aI23
asg48
I17
sg49
I00
sg50
g125
sg55
g126
sbsI18
g0
(g39
g2
Ntp135
Rp136
(dp137
g43
Nsg44
g45
sg46
(lp138
I6
aI7
aI33
aI32
asg48
I18
sg49
I00
sg50
(dp139
g52
Nsg53
Nsg54
Nssg55
S'elset_plate_7_element_prop'
p140
sbsI19
g0
(g39
g2
Ntp141
Rp142
(dp143
g43
Nsg44
g45
sg46
(lp144
I32
aI33
aI35
aI34
asg48
I19
sg49
I00
sg50
g139
sg55
g140
sbsI20
g0
(g39
g2
Ntp145
Rp146
(dp147
g43
Nsg44
g45
sg46
(lp148
I34
aI35
aI37
aI36
asg48
I20
sg49
I00
sg50
g139
sg55
g140
sbsI21
g0
(g39
g2
Ntp149
Rp150
(dp151
g43
Nsg44
g45
sg46
(lp152
I36
aI37
aI9
aI8
asg48
I21
sg49
I00
sg50
g139
sg55
g140
sbsI22
g0
(g39
g2
Ntp153
Rp154
(dp155
g43
Nsg44
g45
sg46
(lp156
I7
aI19
aI38
aI33
asg48
I22
sg49
I00
sg50
(dp157
g52
Nsg53
Nsg54
Nssg55
S'elset_plate_8_element_prop'
p158
sbsI23
g0
(g39
g2
Ntp159
Rp160
(dp161
g43
Nsg44
g45
sg46
(lp162
I33
aI38
aI39
aI35
asg48
I23
sg49
I00
sg50
g157
sg55
g158
sbsI24
g0
(g39
g2
Ntp163
Rp164
(dp165
g43
Nsg44
g45
sg46
(lp166
I35
aI39
aI40
aI37
asg48
I24
sg49
I00
sg50
g157
sg55
g158
sbsI25
g0
(g39
g2
Ntp167
Rp168
(dp169
g43
Nsg44
g45
sg46
(lp170
I37
aI40
aI20
aI9
asg48
I25
sg49
I00
sg50
g157
sg55
g158
sbsI26
g0
(g39
g2
Ntp171
Rp172
(dp173
g43
Nsg44
g45
sg46
(lp174
I19
aI27
aI41
aI38
asg48
I26
sg49
I00
sg50
(dp175
g52
Nsg53
Nsg54
Nssg55
S'elset_plate_9_element_prop'
p176
sbsI27
g0
(g39
g2
Ntp177
Rp178
(dp179
g43
Nsg44
g45
sg46
(lp180
I38
aI41
aI42
aI39
asg48
I27
sg49
I00
sg50
g175
sg55
g176
sbsI28
g0
(g39
g2
Ntp181
Rp182
(dp183
g43
Nsg44
g45
sg46
(lp184
I39
aI42
aI43
aI40
asg48
I28
sg49
I00
sg50
g175
sg55
g176
sbsI29
g0
(g39
g2
Ntp185
Rp186
(dp187
g43
Nsg44
g45
sg46
(lp188
I40
aI43
aI28
aI20
asg48
I29
sg49
I00
sg50
g175
sg55
g176
sbsI30
g0
(g39
g2
Ntp189
Rp190
(dp191
g43
Nsg44
g45
sg46
(lp192
I44
aI45
aI47
aI46
asg48
I30
sg49
I00
sg50
(dp193
g52
Nsg53
Nsg54
Nssg55
S'elset_wall_1_1_element_prop'
p194
sbsI31
g0
(g39
g2
Ntp195
Rp196
(dp197
g43
Nsg44
g45
sg46
(lp198
I45
aI48
aI49
aI47
asg48
I31
sg49
I00
sg50
(dp199
g52
Nsg53
Nsg54
Nssg55
S'elset_wall_1_2_element_prop'
p200
sbsI32
g0
(g39
g2
Ntp201
Rp202
(dp203
g43
Nsg44
g45
sg46
(lp204
I48
aI50
aI51
aI49
asg48
I32
sg49
I00
sg50
(dp205
g52
Nsg53
Nsg54
Nssg55
S'elset_wall_1_3_element_prop'
p206
sbsI33
g0
(g39
g2
Ntp207
Rp208
(dp209
g43
Nsg44
g45
sg46
(lp210
I52
aI53
aI45
aI44
asg48
I33
sg49
I00
sg50
(dp211
g52
Nsg53
Nsg54
Nssg55
S'elset_wall_1_4_element_prop'
p212
sbsI34
g0
(g39
g2
Ntp213
Rp214
(dp215
g43
Nsg44
g45
sg46
(lp216
I53
aI54
aI48
aI45
asg48
I34
sg49
I00
sg50
(dp217
g52
Nsg53
Nsg54
Nssg55
S'elset_wall_1_5_element_prop'
p218
sbsI35
g0
(g39
g2
Ntp219
Rp220
(dp221
g43
Nsg44
g45
sg46
(lp222
I54
aI55
aI50
aI48
asg48
I35
sg49
I00
sg50
(dp223
g52
Nsg53
Nsg54
Nssg55
S'elset_wall_1_6_element_prop'
p224
sbsI36
g0
(g39
g2
Ntp225
Rp226
(dp227
g43
Nsg44
g45
sg46
(lp228
I56
aI57
aI53
aI52
asg48
I36
sg49
I00
sg50
(dp229
g52
Nsg53
Nsg54
Nssg55
S'elset_wall_1_7_element_prop'
p230
sbsI37
g0
(g39
g2
Ntp231
Rp232
(dp233
g43
Nsg44
g45
sg46
(lp234
I57
aI58
aI54
aI53
asg48
I37
sg49
I00
sg50
(dp235
g52
Nsg53
Nsg54
Nssg55
S'elset_wall_1_8_element_prop'
p236
sbsI38
g0
(g39
g2
Ntp237
Rp238
(dp239
g43
Nsg44
g45
sg46
(lp240
I58
aI59
aI55
aI54
asg48
I38
sg49
I00
sg50
(dp241
g52
Nsg53
Nsg54
Nssg55
S'elset_wall_1_9_element_prop'
p242
sbsI39
g0
(g39
g2
Ntp243
Rp244
(dp245
g43
Nsg44
g45
sg46
(lp246
I60
aI62
aI63
aI61
asg48
I39
sg49
I00
sg50
(dp247
g52
Nsg53
Nsg54
Nssg55
S'elset_wall_2_1_element_prop'
p248
sbsI40
g0
(g39
g2
Ntp249
Rp250
(dp251
g43
Nsg44
g45
sg46
(lp252
I61
aI63
aI65
aI64
asg48
I40
sg49
I00
sg50
(dp253
g52
Nsg53
Nsg54
Nssg55
S'elset_wall_2_2_element_prop'
p254
sbsI41
g0
(g39
g2
Ntp255
Rp256
(dp257
g43
Nsg44
g45
sg46
(lp258
I64
aI65
aI67
aI66
asg48
I41
sg49
I00
sg50
(dp259
g52
Nsg53
Nsg54
Nssg55
S'elset_wall_2_3_element_prop'
p260
sbsI42
g0
(g39
g2
Ntp261
Rp262
(dp263
g43
Nsg44
g45
sg46
(lp264
I68
aI60
aI61
aI69
asg48
I42
sg49
I00
sg50
(dp265
g52
Nsg53
Nsg54
Nssg55
S'elset_wall_2_4_element_prop'
p266
sbsI43
g0
(g39
g2
Ntp267
Rp268
(dp269
g43
Nsg44
g45
sg46
(lp270
I69
aI61
aI64
aI70
asg48
I43
sg49
I00
sg50
(dp271
g52
Nsg53
Nsg54
Nssg55
S'elset_wall_2_5_element_prop'
p272
sbsI44
g0
(g39
g2
Ntp273
Rp274
(dp275
g43
Nsg44
g45
sg46
(lp276
I70
aI64
aI66
aI71
asg48
I44
sg49
I00
sg50
(dp277
g52
Nsg53
Nsg54
Nssg55
S'elset_wall_2_6_element_prop'
p278
sbsI45
g0
(g39
g2
Ntp279
Rp280
(dp281
g43
Nsg44
g45
sg46
(lp282
I72
aI68
aI69
aI73
asg48
I45
sg49
I00
sg50
(dp283
g52
Nsg53
Nsg54
Nssg55
S'elset_wall_2_7_element_prop'
p284
sbsI46
g0
(g39
g2
Ntp285
Rp286
(dp287
g43
Nsg44
g45
sg46
(lp288
I73
aI69
aI70
aI74
asg48
I46
sg49
I00
sg50
(dp289
g52
Nsg53
Nsg54
Nssg55
S'elset_wall_2_8_element_prop'
p290
sbsI47
g0
(g39
g2
Ntp291
Rp292
(dp293
g43
Nsg44
g45
sg46
(lp294
I74
aI70
aI71
aI75
asg48
I47
sg49
I00
sg50
(dp295
g52
Nsg53
Nsg54
Nssg55
S'elset_wall_2_9_element_prop'
p296
sbsI48
g0
(ccompas_fea.structure.element
MPCElement
p297
g2
Ntp298
Rp299
(dp300
g43
Nsg44
S'MPCElement'
p301
sg46
(lp302
I67
aI31
asg48
I48
sg49
I00
sg50
(dp303
g52
Nsg53
(lp304
F-1.8189894035458565e-12
aF0.0
aF609.15946264175966
asg54
Nssg55
S'elset_mpc_element_prop'
p305
sbsI49
g0
(g297
g2
Ntp306
Rp307
(dp308
g43
Nsg44
g301
sg46
(lp309
I65
aI23
asg48
I49
sg49
I00
sg50
(dp310
g52
Nsg53
(lp311
F-4.0927261579781771e-12
aF0.0
aF609.15946264175966
asg54
Nssg55
g305
sbsI50
g0
(g297
g2
Ntp312
Rp313
(dp314
g43
Nsg44
g301
sg46
(lp315
I63
aI15
asg48
I50
sg49
I00
sg50
(dp316
g52
Nsg53
(lp317
F-2.0463630789890885e-12
aF0.0
aF609.15946264175966
asg54
Nssg55
g305
sbsI51
g0
(g297
g2
Ntp318
Rp319
(dp320
g43
Nsg44
g301
sg46
(lp321
I62
aI14
asg48
I51
sg49
I00
sg50
(dp322
g52
Nsg53
(lp323
F0.0
aF0.0
aF609.15946264175966
asg54
Nssg55
g305
sbsI52
g0
(g297
g2
Ntp324
Rp325
(dp326
g43
Nsg44
g301
sg46
(lp327
I51
aI24
asg48
I52
sg49
I00
sg50
(dp328
g52
Nsg53
(lp329
F-1.8189894035458565e-12
aF0.0
aF609.15946264175966
asg54
Nssg55
g305
sbsI53
g0
(g297
g2
Ntp330
Rp331
(dp332
g43
Nsg44
g301
sg46
(lp333
I49
aI16
asg48
I53
sg49
I00
sg50
(dp334
g52
Nsg53
(lp335
F-4.0927261579781771e-12
aF0.0
aF609.15946264175966
asg54
Nssg55
g305
sbsI54
g0
(g297
g2
Ntp336
Rp337
(dp338
g43
Nsg44
g301
sg46
(lp339
I47
aI1
asg48
I54
sg49
I00
sg50
(dp340
g52
Nsg53
(lp341
F-2.0463630789890885e-12
aF0.0
aF609.15946264175966
asg54
Nssg55
g305
sbsI55
g0
(g297
g2
Ntp342
Rp343
(dp344
g43
Nsg44
g301
sg46
(lp345
I46
aI0
asg48
I55
sg49
I00
sg50
(dp346
g52
Nsg53
(lp347
F0.0
aF0.0
aF609.15946264175966
asg54
Nssg55
g305
sbssS'element_index'
p348
(dp349
S'4006.309,16466.137,-1282.687'
p350
I41
sS'796.435,0.000,-4017.618'
p351
I36
sS'796.435,7533.258,0.000'
p352
I19
sS'1592.870,16466.137,-304.580'
p353
I50
sS'1592.870,0.000,-304.580'
p354
I54
sS'2389.304,4528.188,0.000'
p355
I8
sS'2389.304,905.638,0.000'
p356
I6
sS'4006.309,905.638,0.000'
p357
I12
sS'4006.309,7533.258,0.000'
p358
I27
sS'2389.304,6133.636,0.000'
p359
I22
sS'2389.304,16466.137,-4017.618'
p360
I46
sS'4006.309,16466.137,-2650.153'
p361
I44
sS'796.435,2716.913,0.000'
p362
I1
sS'2389.304,2716.913,0.000'
p363
I7
sS'4006.309,8932.879,0.000'
p364
I28
sS'796.435,8932.879,0.000'
p365
I20
sS'796.435,0.000,-2650.153'
p366
I33
sS'2389.304,15560.499,0.000'
p367
I11
sS'2389.304,7533.258,0.000'
p368
I23
sS'796.435,16466.137,-4017.618'
p369
I45
sS'4006.309,11937.949,0.000'
p370
I15
sS'4006.309,15560.499,0.000'
p371
I17
sS'4006.309,6133.636,0.000'
p372
I26
sS'4006.309,10332.501,0.000'
p373
I29
sS'3185.739,16466.137,-304.580'
p374
I49
sS'4006.309,13749.224,0.000'
p375
I16
sS'2389.304,10332.501,0.000'
p376
I25
sS'796.435,11937.949,0.000'
p377
I3
sS'2389.304,8932.879,0.000'
p378
I24
sS'796.435,16466.137,-2650.153'
p379
I42
sS'4006.309,0.000,-4017.618'
p380
I38
sS'796.435,15560.499,0.000'
p381
I5
sS'2389.304,0.000,-2650.153'
p382
I34
sS'796.435,10332.501,0.000'
p383
I21
sS'0.000,0.000,-304.580'
p384
I55
sS'0.000,16466.137,-304.580'
p385
I51
sS'4826.878,0.000,-304.580'
p386
I52
sS'2389.304,16466.137,-2650.153'
p387
I43
sS'4006.309,2716.913,0.000'
p388
I13
sS'2389.304,0.000,-1282.687'
p389
I31
sS'796.435,0.000,-1282.687'
p390
I30
sS'3185.739,0.000,-304.580'
p391
I53
sS'796.435,13749.224,0.000'
p392
I4
sS'796.435,905.638,0.000'
p393
I0
sS'2389.304,11937.949,0.000'
p394
I9
sS'2389.304,16466.137,-1282.687'
p395
I40
sS'4006.309,0.000,-1282.687'
p396
I32
sS'4006.309,16466.137,-4017.618'
p397
I47
sS'796.435,16466.137,-1282.687'
p398
I39
sS'4826.878,16466.137,-304.580'
p399
I48
sS'4006.309,0.000,-2650.153'
p400
I35
sS'796.435,6133.636,0.000'
p401
I18
sS'2389.304,0.000,-4017.618'
p402
I37
sS'796.435,4528.188,0.000'
p403
I2
sS'4006.309,4528.188,0.000'
p404
I14
sS'2389.304,13749.224,0.000'
p405
I10
ssS'element_properties'
p406
(dp407
g266
g0
(ccompas_fea.structure.element_properties
ElementProperties
p408
g2
Ntp409
Rp410
(dp411
g15
I21
sS'__name__'
p412
S'ElementProperties'
p413
sS'name'
p414
g266
sS'material'
p415
S'wall_element_mat'
p416
sS'section'
p417
S'wall2_element_sec'
p418
sS'elset'
p419
S'elset_wall_2_4'
p420
sS'elements'
p421
NsS'rebar'
p422
(dp423
sbsg200
g0
(g408
g2
Ntp424
Rp425
(dp426
g15
I10
sg412
g413
sg414
g200
sg415
g416
sg417
S'wall1_element_sec'
p427
sg419
S'elset_wall_1_2'
p428
sg421
Nsg422
g423
sbsg236
g0
(g408
g2
Ntp429
Rp430
(dp431
g15
I16
sg412
g413
sg414
g236
sg415
g416
sg417
g427
sg419
S'elset_wall_1_8'
p432
sg421
Nsg422
g423
sbsg254
g0
(g408
g2
Ntp433
Rp434
(dp435
g15
I19
sg412
g413
sg414
g254
sg415
g416
sg417
g418
sg419
S'elset_wall_2_2'
p436
sg421
Nsg422
g423
sbsg56
g0
(g408
g2
Ntp437
Rp438
(dp439
g15
I0
sg412
g413
sg414
g56
sg415
S'plate_element_mat'
p440
sg417
S'plate_element_sec'
p441
sg419
S'elset_plate_1'
p442
sg421
Nsg422
g423
sbsg272
g0
(g408
g2
Ntp443
Rp444
(dp445
g15
I22
sg412
g413
sg414
g272
sg415
g416
sg417
g418
sg419
S'elset_wall_2_5'
p446
sg421
Nsg422
g423
sbsg176
g0
(g408
g2
Ntp447
Rp448
(dp449
g15
I8
sg412
g413
sg414
g176
sg415
g440
sg417
g441
sg419
S'elset_plate_9'
p450
sg421
Nsg422
g423
sbsg224
g0
(g408
g2
Ntp451
Rp452
(dp453
g15
I14
sg412
g413
sg414
g224
sg415
g416
sg417
g427
sg419
S'elset_wall_1_6'
p454
sg421
Nsg422
g423
sbsg112
g0
(g408
g2
Ntp455
Rp456
(dp457
g15
I4
sg412
g413
sg414
g112
sg415
g440
sg417
g441
sg419
S'elset_plate_5'
p458
sg421
Nsg422
g423
sbsg206
g0
(g408
g2
Ntp459
Rp460
(dp461
g15
I11
sg412
g413
sg414
g206
sg415
g416
sg417
g427
sg419
S'elset_wall_1_3'
p462
sg421
Nsg422
g423
sbsg84
g0
(g408
g2
Ntp463
Rp464
(dp465
g15
I2
sg412
g413
sg414
g84
sg415
g440
sg417
g441
sg419
S'elset_plate_3'
p466
sg421
Nsg422
g423
sbsg260
g0
(g408
g2
Ntp467
Rp468
(dp469
g15
I20
sg412
g413
sg414
g260
sg415
g416
sg417
g418
sg419
S'elset_wall_2_3'
p470
sg421
Nsg422
g423
sbsg278
g0
(g408
g2
Ntp471
Rp472
(dp473
g15
I23
sg412
g413
sg414
g278
sg415
g416
sg417
g418
sg419
S'elset_wall_2_6'
p474
sg421
Nsg422
g423
sbsg212
g0
(g408
g2
Ntp475
Rp476
(dp477
g15
I12
sg412
g413
sg414
g212
sg415
g416
sg417
g427
sg419
S'elset_wall_1_4'
p478
sg421
Nsg422
g423
sbsg242
g0
(g408
g2
Ntp479
Rp480
(dp481
g15
I17
sg412
g413
sg414
g242
sg415
g416
sg417
g427
sg419
S'elset_wall_1_9'
p482
sg421
Nsg422
g423
sbsg158
g0
(g408
g2
Ntp483
Rp484
(dp485
g15
I7
sg412
g413
sg414
g158
sg415
g440
sg417
g441
sg419
S'elset_plate_8'
p486
sg421
Nsg422
g423
sbsg194
g0
(g408
g2
Ntp487
Rp488
(dp489
g15
I9
sg412
g413
sg414
g194
sg415
g416
sg417
g427
sg419
S'elset_wall_1_1'
p490
sg421
Nsg422
g423
sbsg140
g0
(g408
g2
Ntp491
Rp492
(dp493
g15
I6
sg412
g413
sg414
g140
sg415
g440
sg417
g441
sg419
S'elset_plate_7'
p494
sg421
Nsg422
g423
sbsg290
g0
(g408
g2
Ntp495
Rp496
(dp497
g15
I25
sg412
g413
sg414
g290
sg415
g416
sg417
g418
sg419
S'elset_wall_2_8'
p498
sg421
Nsg422
g423
sbsg98
g0
(g408
g2
Ntp499
Rp500
(dp501
g15
I3
sg412
g413
sg414
g98
sg415
g440
sg417
g441
sg419
S'elset_plate_4'
p502
sg421
Nsg422
g423
sbsg70
g0
(g408
g2
Ntp503
Rp504
(dp505
g15
I1
sg412
g413
sg414
g70
sg415
g440
sg417
g441
sg419
S'elset_plate_2'
p506
sg421
Nsg422
g423
sbsg305
g0
(g408
g2
Ntp507
Rp508
(dp509
g15
I27
sg412
g413
sg414
g305
sg415
S'elset_mpc_element_mat'
p510
sg417
S'sec_mpc'
p511
sg419
S'elset_mpcs'
p512
sg421
Nsg422
g423
sbsg230
g0
(g408
g2
Ntp513
Rp514
(dp515
g15
I15
sg412
g413
sg414
g230
sg415
g416
sg417
g427
sg419
S'elset_wall_1_7'
p516
sg421
Nsg422
g423
sbsg284
g0
(g408
g2
Ntp517
Rp518
(dp519
g15
I24
sg412
g413
sg414
g284
sg415
g416
sg417
g418
sg419
S'elset_wall_2_7'
p520
sg421
Nsg422
g423
sbsg296
g0
(g408
g2
Ntp521
Rp522
(dp523
g15
I26
sg412
g413
sg414
g296
sg415
g416
sg417
g418
sg419
S'elset_wall_2_9'
p524
sg421
Nsg422
g423
sbsg248
g0
(g408
g2
Ntp525
Rp526
(dp527
g15
I18
sg412
g413
sg414
g248
sg415
g416
sg417
g418
sg419
S'elset_wall_2_1'
p528
sg421
Nsg422
g423
sbsg126
g0
(g408
g2
Ntp529
Rp530
(dp531
g15
I5
sg412
g413
sg414
g126
sg415
g440
sg417
g441
sg419
S'elset_plate_6'
p532
sg421
Nsg422
g423
sbsg218
g0
(g408
g2
Ntp533
Rp534
(dp535
g15
I13
sg412
g413
sg414
g218
sg415
g416
sg417
g427
sg419
S'elset_wall_1_5'
p536
sg421
Nsg422
g423
sbssS'interactions'
p537
(dp538
sS'loads'
p539
(dp540
S'Gleis1_BAHNLASTEN_Lasteinzugsflache_Lastblock_-3'
p541
g0
(ccompas_fea.structure.load
AreaLoad
p542
g2
Ntp543
Rp544
(dp545
g15
I5
sS'__name__'
p546
S'AreaLoad'
p547
sS'name'
p548
g541
sS'axes'
p549
S'global'
p550
sS'components'
p551
(dp552
g23
F0.082428184223799439
sg27
I0
sg28
I0
ssS'nodes'
p553
(lp554
sS'elements'
p555
(lp556
I7
aI13
asS'attr_list'
p557
(lp558
S'name'
p559
aS'axes'
p560
aS'components'
p561
aS'nodes'
p562
aS'elements'
p563
asbsS'earthPressure_liveLoad'
p564
g0
(g542
g2
Ntp565
Rp566
(dp567
g15
I6
sg546
g547
sg548
g564
sg549
S'local'
p568
sg551
(dp569
g23
F0.037699999999999997
sg27
I0
sg28
I0
ssg553
g554
sg555
(lp570
I32
aI33
aI35
aI36
aI38
aI39
asg557
(lp571
g559
ag560
ag561
ag562
ag563
asbsS'Gleis1_BAHNLASTEN_Lasteinzugsflache_Lastblock_-2'
p572
g0
(g542
g2
Ntp573
Rp574
(dp575
g15
I4
sg546
g547
sg548
g572
sg549
g550
sg551
(dp576
g23
F0.082428184223799439
sg27
I0
sg28
I0
ssg553
g554
sg555
(lp577
I14
asg557
(lp578
g559
ag560
ag561
ag562
ag563
asbsS'Gleis1_EIGENGEWICHTE_SCHIENE_Lasteinzugsflache'
p579
g0
(g542
g2
Ntp580
Rp581
(dp582
g15
I3
sg546
g547
sg548
g579
sg549
g550
sg551
(dp583
g23
F0.0024313140194634274
sg27
I0
sg28
I0
ssg553
g554
sg555
(lp584
I7
aI13
aI14
aI15
asg557
(lp585
g559
ag560
ag561
ag562
ag563
asbsS'earthPressure_backfill'
p586
g0
(g542
g2
Ntp587
Rp588
(dp589
g15
I2
sg546
g547
sg548
g586
sg549
g568
sg551
(dp590
g23
F0.051905292251984696
sg27
I0
sg28
I0
ssg553
g554
sg555
(lp591
g490
ag428
ag462
ag478
ag536
ag454
ag516
ag432
ag482
ag528
ag436
ag470
ag420
ag446
ag474
ag520
ag498
ag524
asg557
(lp592
g559
ag560
ag561
ag562
ag563
asbsS'earthPressure_gravel'
p593
g0
(g542
g2
Ntp594
Rp595
(dp596
g15
I1
sg546
g547
sg548
g593
sg549
g550
sg551
(dp597
g23
F0.013500000000000002
sg27
I0
sg28
I0
ssg553
g554
sg555
(lp598
g442
ag506
ag466
ag502
ag458
ag532
ag494
ag486
ag450
asg557
(lp599
g559
ag560
ag561
ag562
ag563
asbsS'load_gravity'
p600
g0
(ccompas_fea.structure.load
GravityLoad
p601
g2
Ntp602
Rp603
(dp604
g15
I0
sg546
S'GravityLoad'
p605
sg548
g600
sg549
g550
sg551
(dp606
g23
F1.3500000000000001
sg27
F0.0
sg28
F0.0
ssg553
g554
sg555
(lp607
g442
ag506
ag466
ag502
ag458
ag532
ag494
ag486
ag450
ag490
ag428
ag462
ag478
ag536
ag454
ag516
ag432
ag482
ag528
ag436
ag470
ag420
ag446
ag474
ag520
ag498
ag524
asg557
(lp608
g559
ag560
ag561
ag562
ag563
aS'g'
p609
asS'g'
p610
F-9.8100000000000005
sbssS'materials'
p611
(dp612
g510
g0
(ccompas_fea.structure.material
MPCStiff
p613
g2
Ntp614
Rp615
(dp616
g15
I2
sS'__name__'
p617
S'MPCStiff'
p618
sS'name'
p619
g510
sS'attr_list'
p620
(lp621
g559
aS'E'
p622
aS'v'
p623
aS'G'
p624
aS'p'
p625
aS'tension'
p626
aS'compression'
p627
asS'E'
p628
(dp629
g622
L10000000000000L
ssS'v'
p630
(dp631
g623
F0.29999999999999999
ssS'G'
p632
(dp633
g624
F3846153846153.8462
ssS'p'
p634
F0.10000000000000001
sS'tension'
p635
I01
sS'compression'
p636
I01
sbsg416
g0
(ccompas_fea.structure.material
CMMUsermat
p637
g2
Ntp638
Rp639
(dp640
g15
I1
sg617
S'CMMUsermat'
p641
sg619
g416
sg620
(lp642
g559
ag622
ag623
ag624
ag625
aS'R_Rohr'
p643
aS'rho'
p644
aS'oo'
p645
aS'uu'
p646
aS'beton'
p647
aS'fcc'
p648
aS'vc'
p649
aS'ecu'
p650
aS'k_E'
p651
aS'theta_b0'
p652
aS'theta_b1'
p653
aS'k_riss'
p654
aS'Entfestigung'
p655
aS'lambdaTS'
p656
aS'srmx'
p657
aS'srmy'
p658
aS'Begrenzung'
p659
aS'KritQ'
p660
aS'winkelD'
p661
aS'k_vr'
p662
aS'fswy'
p663
aS'stahl1'
p664
aS'zm1'
p665
aS'fsy1'
p666
aS'fsu1'
p667
aS'esu1'
p668
aS'esv1'
p669
aS'Es1'
p670
aS'ka1'
p671
aS'kb1'
p672
aS'kc1'
p673
aS'as1'
p674
aS'dm1'
p675
aS'psi1'
p676
aS'stahl2'
p677
aS'zm2'
p678
aS'fsy2'
p679
aS'fsu2'
p680
aS'esu2'
p681
aS'esv2'
p682
aS'Es2'
p683
aS'ka2'
p684
aS'kb2'
p685
aS'kc2'
p686
aS'as2'
p687
aS'dm2'
p688
aS'psi2'
p689
aS'stahl3'
p690
aS'zm3'
p691
aS'fsy3'
p692
aS'fsu3'
p693
aS'esu3'
p694
aS'esv3'
p695
aS'Es3'
p696
aS'ka3'
p697
aS'kb3'
p698
aS'kc3'
p699
aS'as3'
p700
aS'dm3'
p701
aS'psi3'
p702
aS'stahl4'
p703
aS'zm4'
p704
aS'fsy4'
p705
aS'fsu4'
p706
aS'esu4'
p707
aS'esv4'
p708
aS'Es4'
p709
aS'ka4'
p710
aS'kb4'
p711
aS'kc4'
p712
aS'as4'
p713
aS'dm4'
p714
aS'psi4'
p715
asS'E'
p716
(dp717
S'E'
p718
I200000
ssS'v'
p719
(dp720
S'v'
p721
F0.10000000000000001
ssS'G'
p722
(dp723
g624
F90909.090909090897
ssS'p'
p724
F2.5000000000000002e-06
sS'R_Rohr'
p725
(dp726
g643
I-1
ssS'rho'
p727
(dp728
g644
F2.5000000000000002e-06
ssS'oo'
p729
(dp730
g645
I30
ssS'uu'
p731
(dp732
g646
I30
ssS'beton'
p733
(dp734
g647
I2
ssS'fcc'
p735
(dp736
g648
I34
ssS'vc'
p737
(dp738
g649
I0
ssS'ecu'
p739
(dp740
g650
F-0.002
ssS'k_E'
p741
(dp742
g651
I10000
ssS'theta_b0'
p743
(dp744
g652
I2
ssS'theta_b1'
p745
(dp746
g653
I1
ssS'k_riss'
p747
(dp748
g654
I0
ssS'Entfestigung'
p749
(dp750
g655
I0
ssS'lambdaTS'
p751
(dp752
g656
F0.67000000000000004
ssS'srmx'
p753
(dp754
g657
I1
ssS'srmy'
p755
(dp756
g658
I1
ssS'Begrenzung'
p757
(dp758
g659
I2
ssS'KritQ'
p759
(dp760
g660
I0
ssS'winkelD'
p761
(dp762
g661
I45
ssS'k_vr'
p763
(dp764
g662
I1
ssS'fswy'
p765
(dp766
g663
I500
ssS'stahl1'
p767
(dp768
g664
I1
ssS'zm1'
p769
(dp770
g665
I2
ssS'fsy1'
p771
(dp772
g666
I408
ssS'fsu1'
p773
(dp774
g667
I441
ssS'esu1'
p775
(dp776
g668
F0.044999999999999998
ssS'esv1'
p777
(dp778
g669
F0.02
ssS'Es1'
p779
(dp780
g670
I200000
ssS'ka1'
p781
(dp782
g671
I-1
ssS'kb1'
p783
(dp784
g672
I-1
ssS'kc1'
p785
(dp786
g673
I-1
ssS'as1'
p787
(dp788
g674
F3.004926044628049
ssS'dm1'
p789
(dp790
g675
F28.424117601985724
ssS'psi1'
p791
(dp792
g676
I90
ssS'stahl2'
p793
(dp794
g677
I1
ssS'zm2'
p795
(dp796
g678
I2
ssS'fsy2'
p797
(dp798
g679
I408
ssS'fsu2'
p799
(dp800
g680
I441
ssS'esu2'
p801
(dp802
g681
F0.044999999999999998
ssS'esv2'
p803
(dp804
g682
F0.02
ssS'Es2'
p805
(dp806
g683
I200000
ssS'ka2'
p807
(dp808
g684
I-1
ssS'kb2'
p809
(dp810
g685
I-1
ssS'kc2'
p811
(dp812
g686
I-1
ssS'as2'
p813
(dp814
g687
F0.53557746745807866
ssS'dm2'
p815
(dp816
g688
F12.0
ssS'psi2'
p817
(dp818
g689
I0
ssS'stahl3'
p819
(dp820
g690
I1
ssS'zm3'
p821
(dp822
g691
I2
ssS'fsy3'
p823
(dp824
g692
I408
ssS'fsu3'
p825
(dp826
g693
I441
ssS'esu3'
p827
(dp828
g694
F0.044999999999999998
ssS'esv3'
p829
(dp830
g695
F0.02
ssS'Es3'
p831
(dp832
g696
I200000
ssS'ka3'
p833
(dp834
g697
I-1
ssS'kb3'
p835
(dp836
g698
I-1
ssS'kc3'
p837
(dp838
g699
I-1
ssS'as3'
p839
(dp840
g700
F0.53557746745807866
ssS'dm3'
p841
(dp842
g701
F12.0
ssS'psi3'
p843
(dp844
g702
I0
ssS'stahl4'
p845
(dp846
g703
I1
ssS'zm4'
p847
(dp848
g704
I2
ssS'fsy4'
p849
(dp850
g705
I408
ssS'fsu4'
p851
(dp852
g706
I441
ssS'esu4'
p853
(dp854
g707
F0.044999999999999998
ssS'esv4'
p855
(dp856
g708
F0.02
ssS'Es4'
p857
(dp858
g709
I200000
ssS'ka4'
p859
(dp860
g710
I-1
ssS'kb4'
p861
(dp862
g711
I-1
ssS'kc4'
p863
(dp864
g712
I-1
ssS'as4'
p865
(dp866
g713
F2.3277767961853124
ssS'dm4'
p867
(dp868
g714
F25.017318908057518
ssS'psi4'
p869
(dp870
g715
I90
ssbsg440
g0
(g637
g2
Ntp871
Rp872
(dp873
g15
I0
sg617
g641
sg619
g440
sg620
(lp874
g559
ag622
ag623
ag624
ag625
ag643
ag644
ag645
ag646
ag647
ag648
ag649
ag650
ag651
ag652
ag653
ag654
ag655
ag656
ag657
ag658
ag659
ag660
ag661
ag662
ag663
ag664
ag665
ag666
ag667
ag668
ag669
ag670
ag671
ag672
ag673
ag674
ag675
ag676
ag677
ag678
ag679
ag680
ag681
ag682
ag683
ag684
ag685
ag686
ag687
ag688
ag689
ag690
ag691
ag692
ag693
ag694
ag695
ag696
ag697
ag698
ag699
ag700
ag701
ag702
ag703
ag704
ag705
ag706
ag707
ag708
ag709
ag710
ag711
ag712
ag713
ag714
ag715
asg716
(dp875
g718
I200000
ssg719
(dp876
g721
F0.10000000000000001
ssg722
(dp877
g624
F90909.090909090897
ssg724
F2.5000000000000002e-06
sg725
(dp878
g643
I-1
ssg727
(dp879
g644
F2.5000000000000002e-06
ssg729
(dp880
g645
I30
ssg731
(dp881
g646
I30
ssg733
(dp882
g647
I2
ssg735
(dp883
g648
I34
ssg737
(dp884
g649
I0
ssg739
(dp885
g650
F-0.002
ssg741
(dp886
g651
I10000
ssg743
(dp887
g652
I2
ssg745
(dp888
g653
I1
ssg747
(dp889
g654
I0
ssg749
(dp890
g655
I0
ssg751
(dp891
g656
F0.67000000000000004
ssg753
(dp892
g657
I1
ssg755
(dp893
g658
I1
ssg757
(dp894
g659
I2
ssg759
(dp895
g660
I0
ssg761
(dp896
g661
I45
ssg763
(dp897
g662
I1
ssg765
(dp898
g663
I500
ssg767
(dp899
g664
I1
ssg769
(dp900
g665
I2
ssg771
(dp901
g666
I408
ssg773
(dp902
g667
I441
ssg775
(dp903
g668
F0.044999999999999998
ssg777
(dp904
g669
F0.02
ssg779
(dp905
g670
I200000
ssg781
(dp906
g671
I-1
ssg783
(dp907
g672
I-1
ssg785
(dp908
g673
I-1
ssg787
(dp909
g674
F1.0666040881207703
ssg789
(dp910
g675
F25.283466686842182
ssg791
(dp911
g676
I90
ssg793
(dp912
g677
I1
ssg795
(dp913
g678
I2
ssg797
(dp914
g679
I408
ssg799
(dp915
g680
I441
ssg801
(dp916
g681
F0.044999999999999998
ssg803
(dp917
g682
F0.02
ssg805
(dp918
g683
I200000
ssg807
(dp919
g684
I-1
ssg809
(dp920
g685
I-1
ssg811
(dp921
g686
I-1
ssg813
(dp922
g687
F0.18342628592905069
ssg815
(dp923
g688
F10.484936033634323
ssg817
(dp924
g689
I0
ssg819
(dp925
g690
I1
ssg821
(dp926
g691
I2
ssg823
(dp927
g692
I408
ssg825
(dp928
g693
I441
ssg827
(dp929
g694
F0.044999999999999998
ssg829
(dp930
g695
F0.02
ssg831
(dp931
g696
I200000
ssg833
(dp932
g697
I-1
ssg835
(dp933
g698
I-1
ssg837
(dp934
g699
I-1
ssg839
(dp935
g700
F0.24026609723736392
ssg841
(dp936
g701
F12.0
ssg843
(dp937
g702
I0
ssg845
(dp938
g703
I1
ssg847
(dp939
g704
I2
ssg849
(dp940
g705
I408
ssg851
(dp941
g706
I441
ssg853
(dp942
g707
F0.044999999999999998
ssg855
(dp943
g708
F0.02
ssg857
(dp944
g709
I200000
ssg859
(dp945
g710
I-1
ssg861
(dp946
g711
I-1
ssg863
(dp947
g712
I-1
ssg865
(dp948
g713
F0.92795103753889174
ssg867
(dp949
g714
F23.582917401909171
ssg869
(dp950
g715
I90
ssbssS'misc'
p951
(dp952
sS'name'
p953
S'NLFE_CFB3'
p954
sS'nodes'
p955
(dp956
I0
g0
(ccompas_fea.structure.node
Node
p957
g2
Ntp958
Rp959
(dp960
S'__name__'
p961
S'Node'
p962
sS'key'
p963
I0
sS'x'
p964
F0.0
sS'y'
p965
F0.0
sS'z'
p966
F0.0
sS'ex'
p967
(lp968
I1
aI0
aI0
asS'ey'
p969
(lp970
I0
aI1
aI0
asS'ez'
p971
(lp972
I0
aI0
aI1
asS'mass'
p973
NsbsI1
g0
(g957
g2
Ntp974
Rp975
(dp976
g961
g962
sg963
I1
sg964
F1592.869655226438
sg965
F0.0
sg966
F0.0
sg967
g968
sg969
g970
sg971
g972
sg973
NsbsI2
g0
(g957
g2
Ntp977
Rp978
(dp979
g961
g962
sg963
I2
sg964
F0.0
sg965
F1811.2750379570073
sg966
F0.0
sg967
g968
sg969
g970
sg971
g972
sg973
NsbsI3
g0
(g957
g2
Ntp980
Rp981
(dp982
g961
g962
sg963
I3
sg964
F1592.8696552264382
sg965
F1811.2750379570073
sg966
F0.0
sg967
g968
sg969
g970
sg971
g972
sg973
NsbsI4
g0
(g957
g2
Ntp983
Rp984
(dp985
g961
g962
sg963
I4
sg964
F0.0
sg965
F3622.5500759140145
sg966
F0.0
sg967
g968
sg969
g970
sg971
g972
sg973
NsbsI5
g0
(g957
g2
Ntp986
Rp987
(dp988
g961
g962
sg963
I5
sg964
F1592.869655226438
sg965
F3622.5500759140145
sg966
F0.0
sg967
g968
sg969
g970
sg971
g972
sg973
NsbsI6
g0
(g957
g2
Ntp989
Rp990
(dp991
g961
g962
sg963
I6
sg964
F0.0
sg965
F5433.825113871022
sg966
F0.0
sg967
g968
sg969
g970
sg971
g972
sg973
NsbsI7
g0
(g957
g2
Ntp992
Rp993
(dp994
g961
g962
sg963
I7
sg964
F1592.869655226438
sg965
F5433.825113871022
sg966
F0.0
sg967
g968
sg969
g970
sg971
g972
sg973
NsbsI8
g0
(g957
g2
Ntp995
Rp996
(dp997
g961
g962
sg963
I8
sg964
F0.0
sg965
F11032.311594829043
sg966
F0.0
sg967
g968
sg969
g970
sg971
g972
sg973
NsbsI9
g0
(g957
g2
Ntp998
Rp999
(dp1000
g961
g962
sg963
I9
sg964
F1592.869655226438
sg965
F11032.311594829043
sg966
F0.0
sg967
g968
sg969
g970
sg971
g972
sg973
NsbsI10
g0
(g957
g2
Ntp1001
Rp1002
(dp1003
g961
g962
sg963
I10
sg964
F0.0
sg965
F12843.586632786051
sg966
F0.0
sg967
g968
sg969
g970
sg971
g972
sg973
NsbsI11
g0
(g957
g2
Ntp1004
Rp1005
(dp1006
g961
g962
sg963
I11
sg964
F1592.8696552264382
sg965
F12843.586632786051
sg966
F0.0
sg967
g968
sg969
g970
sg971
g972
sg973
NsbsI12
g0
(g957
g2
Ntp1007
Rp1008
(dp1009
g961
g962
sg963
I12
sg964
F0.0
sg965
F14654.861670743057
sg966
F0.0
sg967
g968
sg969
g970
sg971
g972
sg973
NsbsI13
g0
(g957
g2
Ntp1010
Rp1011
(dp1012
g961
g962
sg963
I13
sg964
F1592.869655226438
sg965
F14654.861670743057
sg966
F0.0
sg967
g968
sg969
g970
sg971
g972
sg973
NsbsI14
g0
(g957
g2
Ntp1013
Rp1014
(dp1015
g961
g962
sg963
I14
sg964
F0.0
sg965
F16466.136708700065
sg966
F0.0
sg967
g968
sg969
g970
sg971
g972
sg973
NsbsI15
g0
(g957
g2
Ntp1016
Rp1017
(dp1018
g961
g962
sg963
I15
sg964
F1592.869655226438
sg965
F16466.136708700065
sg966
F0.0
sg967
g968
sg969
g970
sg971
g972
sg973
NsbsI16
g0
(g957
g2
Ntp1019
Rp1020
(dp1021
g961
g962
sg963
I16
sg964
F3185.739310452876
sg965
F0.0
sg966
F0.0
sg967
g968
sg969
g970
sg971
g972
sg973
NsbsI17
g0
(g957
g2
Ntp1022
Rp1023
(dp1024
g961
g962
sg963
I17
sg964
F3185.7393104528765
sg965
F1811.2750379570073
sg966
F0.0
sg967
g968
sg969
g970
sg971
g972
sg973
NsbsI18
g0
(g957
g2
Ntp1025
Rp1026
(dp1027
g961
g962
sg963
I18
sg964
F3185.739310452876
sg965
F3622.5500759140145
sg966
F0.0
sg967
g968
sg969
g970
sg971
g972
sg973
NsbsI19
g0
(g957
g2
Ntp1028
Rp1029
(dp1030
g961
g962
sg963
I19
sg964
F3185.739310452876
sg965
F5433.825113871022
sg966
F0.0
sg967
g968
sg969
g970
sg971
g972
sg973
NsbsI20
g0
(g957
g2
Ntp1031
Rp1032
(dp1033
g961
g962
sg963
I20
sg964
F3185.739310452876
sg965
F11032.311594829043
sg966
F0.0
sg967
g968
sg969
g970
sg971
g972
sg973
NsbsI21
g0
(g957
g2
Ntp1034
Rp1035
(dp1036
g961
g962
sg963
I21
sg964
F3185.7393104528765
sg965
F12843.586632786051
sg966
F0.0
sg967
g968
sg969
g970
sg971
g972
sg973
NsbsI22
g0
(g957
g2
Ntp1037
Rp1038
(dp1039
g961
g962
sg963
I22
sg964
F3185.739310452876
sg965
F14654.861670743057
sg966
F0.0
sg967
g968
sg969
g970
sg971
g972
sg973
NsbsI23
g0
(g957
g2
Ntp1040
Rp1041
(dp1042
g961
g962
sg963
I23
sg964
F3185.739310452876
sg965
F16466.136708700065
sg966
F0.0
sg967
g968
sg969
g970
sg971
g972
sg973
NsbsI24
g0
(g957
g2
Ntp1043
Rp1044
(dp1045
g961
g962
sg963
I24
sg964
F4826.8777431104181
sg965
F0.0
sg966
F0.0
sg967
g968
sg969
g970
sg971
g972
sg973
NsbsI25
g0
(g957
g2
Ntp1046
Rp1047
(dp1048
g961
g962
sg963
I25
sg964
F4826.8777431104181
sg965
F1811.2750379570073
sg966
F0.0
sg967
g968
sg969
g970
sg971
g972
sg973
NsbsI26
g0
(g957
g2
Ntp1049
Rp1050
(dp1051
g961
g962
sg963
I26
sg964
F4826.8777431104181
sg965
F3622.5500759140145
sg966
F0.0
sg967
g968
sg969
g970
sg971
g972
sg973
NsbsI27
g0
(g957
g2
Ntp1052
Rp1053
(dp1054
g961
g962
sg963
I27
sg964
F4826.8777431104181
sg965
F5433.825113871022
sg966
F0.0
sg967
g968
sg969
g970
sg971
g972
sg973
NsbsI28
g0
(g957
g2
Ntp1055
Rp1056
(dp1057
g961
g962
sg963
I28
sg964
F4826.8777431104181
sg965
F11032.311594829043
sg966
F0.0
sg967
g968
sg969
g970
sg971
g972
sg973
NsbsI29
g0
(g957
g2
Ntp1058
Rp1059
(dp1060
g961
g962
sg963
I29
sg964
F4826.8777431104181
sg965
F12843.586632786051
sg966
F0.0
sg967
g968
sg969
g970
sg971
g972
sg973
NsbsI30
g0
(g957
g2
Ntp1061
Rp1062
(dp1063
g961
g962
sg963
I30
sg964
F4826.8777431104181
sg965
F14654.861670743057
sg966
F0.0
sg967
g968
sg969
g970
sg971
g972
sg973
NsbsI31
g0
(g957
g2
Ntp1064
Rp1065
(dp1066
g961
g962
sg963
I31
sg964
F4826.8777431104181
sg965
F16466.136708700065
sg966
F0.0
sg967
g968
sg969
g970
sg971
g972
sg973
NsbsI32
g0
(g957
g2
Ntp1067
Rp1068
(dp1069
g961
g962
sg963
I32
sg964
F0.0
sg965
F6833.4467341105274
sg966
F0.0
sg967
g968
sg969
g970
sg971
g972
sg973
NsbsI33
g0
(g957
g2
Ntp1070
Rp1071
(dp1072
g961
g962
sg963
I33
sg964
F1592.869655226438
sg965
F6833.4467341105274
sg966
F0.0
sg967
g968
sg969
g970
sg971
g972
sg973
NsbsI34
g0
(g957
g2
Ntp1073
Rp1074
(dp1075
g961
g962
sg963
I34
sg964
F0.0
sg965
F8233.0683543500327
sg966
F0.0
sg967
g968
sg969
g970
sg971
g972
sg973
NsbsI35
g0
(g957
g2
Ntp1076
Rp1077
(dp1078
g961
g962
sg963
I35
sg964
F1592.869655226438
sg965
F8233.0683543500327
sg966
F0.0
sg967
g968
sg969
g970
sg971
g972
sg973
NsbsI36
g0
(g957
g2
Ntp1079
Rp1080
(dp1081
g961
g962
sg963
I36
sg964
F0.0
sg965
F9632.6899745895389
sg966
F0.0
sg967
g968
sg969
g970
sg971
g972
sg973
NsbsI37
g0
(g957
g2
Ntp1082
Rp1083
(dp1084
g961
g962
sg963
I37
sg964
F1592.869655226438
sg965
F9632.6899745895389
sg966
F0.0
sg967
g968
sg969
g970
sg971
g972
sg973
NsbsI38
g0
(g957
g2
Ntp1085
Rp1086
(dp1087
g961
g962
sg963
I38
sg964
F3185.739310452876
sg965
F6833.4467341105274
sg966
F0.0
sg967
g968
sg969
g970
sg971
g972
sg973
NsbsI39
g0
(g957
g2
Ntp1088
Rp1089
(dp1090
g961
g962
sg963
I39
sg964
F3185.739310452876
sg965
F8233.0683543500327
sg966
F0.0
sg967
g968
sg969
g970
sg971
g972
sg973
NsbsI40
g0
(g957
g2
Ntp1091
Rp1092
(dp1093
g961
g962
sg963
I40
sg964
F3185.739310452876
sg965
F9632.6899745895389
sg966
F0.0
sg967
g968
sg969
g970
sg971
g972
sg973
NsbsI41
g0
(g957
g2
Ntp1094
Rp1095
(dp1096
g961
g962
sg963
I41
sg964
F4826.8777431104181
sg965
F6833.4467341105274
sg966
F0.0
sg967
g968
sg969
g970
sg971
g972
sg973
NsbsI42
g0
(g957
g2
Ntp1097
Rp1098
(dp1099
g961
g962
sg963
I42
sg964
F4826.8777431104181
sg965
F8233.0683543500327
sg966
F0.0
sg967
g968
sg969
g970
sg971
g972
sg973
NsbsI43
g0
(g957
g2
Ntp1100
Rp1101
(dp1102
g961
g962
sg963
I43
sg964
F4826.8777431104181
sg965
F9632.6899745895389
sg966
F0.0
sg967
g968
sg969
g970
sg971
g972
sg973
NsbsI44
g0
(g957
g2
Ntp1103
Rp1104
(dp1105
g961
g962
sg963
I44
sg964
F0.0
sg965
F0.0
sg966
F-1956.2148920138102
sg967
g968
sg969
g970
sg971
g972
sg973
NsbsI45
g0
(g957
g2
Ntp1106
Rp1107
(dp1108
g961
g962
sg963
I45
sg964
F1592.86965522644
sg965
F0.0
sg966
F-1956.2148920138102
sg967
g968
sg969
g970
sg971
g972
sg973
NsbsI46
g0
(g957
g2
Ntp1109
Rp1110
(dp1111
g961
g962
sg963
I46
sg964
F0.0
sg965
F0.0
sg966
F-609.15946264175966
sg967
g968
sg969
g970
sg971
g972
sg973
NsbsI47
g0
(g957
g2
Ntp1112
Rp1113
(dp1114
g961
g962
sg963
I47
sg964
F1592.86965522644
sg965
F0.0
sg966
F-609.15946264175966
sg967
g968
sg969
g970
sg971
g972
sg973
NsbsI48
g0
(g957
g2
Ntp1115
Rp1116
(dp1117
g961
g962
sg963
I48
sg964
F3185.7393104528801
sg965
F0.0
sg966
F-1956.2148920138102
sg967
g968
sg969
g970
sg971
g972
sg973
NsbsI49
g0
(g957
g2
Ntp1118
Rp1119
(dp1120
g961
g962
sg963
I49
sg964
F3185.7393104528801
sg965
F0.0
sg966
F-609.15946264175966
sg967
g968
sg969
g970
sg971
g972
sg973
NsbsI50
g0
(g957
g2
Ntp1121
Rp1122
(dp1123
g961
g962
sg963
I50
sg964
F4826.8777431104199
sg965
F0.0
sg966
F-1956.2148920138102
sg967
g968
sg969
g970
sg971
g972
sg973
NsbsI51
g0
(g957
g2
Ntp1124
Rp1125
(dp1126
g961
g962
sg963
I51
sg964
F4826.8777431104199
sg965
F0.0
sg966
F-609.15946264175966
sg967
g968
sg969
g970
sg971
g972
sg973
NsbsI52
g0
(g957
g2
Ntp1127
Rp1128
(dp1129
g961
g962
sg963
I52
sg964
F0.0
sg965
F0.0
sg966
F-3344.0901828819824
sg967
g968
sg969
g970
sg971
g972
sg973
NsbsI53
g0
(g957
g2
Ntp1130
Rp1131
(dp1132
g961
g962
sg963
I53
sg964
F1592.86965522644
sg965
F0.0
sg966
F-3344.0901828819824
sg967
g968
sg969
g970
sg971
g972
sg973
NsbsI54
g0
(g957
g2
Ntp1133
Rp1134
(dp1135
g961
g962
sg963
I54
sg964
F3185.7393104528801
sg965
F0.0
sg966
F-3344.0901828819824
sg967
g968
sg969
g970
sg971
g972
sg973
NsbsI55
g0
(g957
g2
Ntp1136
Rp1137
(dp1138
g961
g962
sg963
I55
sg964
F4826.8777431104199
sg965
F0.0
sg966
F-3344.0901828819824
sg967
g968
sg969
g970
sg971
g972
sg973
NsbsI56
g0
(g957
g2
Ntp1139
Rp1140
(dp1141
g961
g962
sg963
I56
sg964
F0.0
sg965
F0.0
sg966
F-4691.145612254033
sg967
g968
sg969
g970
sg971
g972
sg973
NsbsI57
g0
(g957
g2
Ntp1142
Rp1143
(dp1144
g961
g962
sg963
I57
sg964
F1592.86965522644
sg965
F0.0
sg966
F-4691.145612254033
sg967
g968
sg969
g970
sg971
g972
sg973
NsbsI58
g0
(g957
g2
Ntp1145
Rp1146
(dp1147
g961
g962
sg963
I58
sg964
F3185.7393104528801
sg965
F0.0
sg966
F-4691.145612254033
sg967
g968
sg969
g970
sg971
g972
sg973
NsbsI59
g0
(g957
g2
Ntp1148
Rp1149
(dp1150
g961
g962
sg963
I59
sg964
F4826.8777431104199
sg965
F0.0
sg966
F-4691.145612254033
sg967
g968
sg969
g970
sg971
g972
sg973
NsbsI60
g0
(g957
g2
Ntp1151
Rp1152
(dp1153
g961
g962
sg963
I60
sg964
F0.0
sg965
F16466.136708700065
sg966
F-1956.2148920138102
sg967
g968
sg969
g970
sg971
g972
sg973
NsbsI61
g0
(g957
g2
Ntp1154
Rp1155
(dp1156
g961
g962
sg963
I61
sg964
F1592.86965522644
sg965
F16466.136708700065
sg966
F-1956.2148920138102
sg967
g968
sg969
g970
sg971
g972
sg973
NsbsI62
g0
(g957
g2
Ntp1157
Rp1158
(dp1159
g961
g962
sg963
I62
sg964
F0.0
sg965
F16466.136708700065
sg966
F-609.15946264175966
sg967
g968
sg969
g970
sg971
g972
sg973
NsbsI63
g0
(g957
g2
Ntp1160
Rp1161
(dp1162
g961
g962
sg963
I63
sg964
F1592.86965522644
sg965
F16466.136708700065
sg966
F-609.15946264175966
sg967
g968
sg969
g970
sg971
g972
sg973
NsbsI64
g0
(g957
g2
Ntp1163
Rp1164
(dp1165
g961
g962
sg963
I64
sg964
F3185.7393104528801
sg965
F16466.136708700065
sg966
F-1956.2148920138102
sg967
g968
sg969
g970
sg971
g972
sg973
NsbsI65
g0
(g957
g2
Ntp1166
Rp1167
(dp1168
g961
g962
sg963
I65
sg964
F3185.7393104528801
sg965
F16466.136708700065
sg966
F-609.15946264175966
sg967
g968
sg969
g970
sg971
g972
sg973
NsbsI66
g0
(g957
g2
Ntp1169
Rp1170
(dp1171
g961
g962
sg963
I66
sg964
F4826.8777431104199
sg965
F16466.136708700065
sg966
F-1956.2148920138102
sg967
g968
sg969
g970
sg971
g972
sg973
NsbsI67
g0
(g957
g2
Ntp1172
Rp1173
(dp1174
g961
g962
sg963
I67
sg964
F4826.8777431104199
sg965
F16466.136708700065
sg966
F-609.15946264175966
sg967
g968
sg969
g970
sg971
g972
sg973
NsbsI68
g0
(g957
g2
Ntp1175
Rp1176
(dp1177
g961
g962
sg963
I68
sg964
F0.0
sg965
F16466.136708700065
sg966
F-3344.0901828819824
sg967
g968
sg969
g970
sg971
g972
sg973
NsbsI69
g0
(g957
g2
Ntp1178
Rp1179
(dp1180
g961
g962
sg963
I69
sg964
F1592.86965522644
sg965
F16466.136708700065
sg966
F-3344.0901828819824
sg967
g968
sg969
g970
sg971
g972
sg973
NsbsI70
g0
(g957
g2
Ntp1181
Rp1182
(dp1183
g961
g962
sg963
I70
sg964
F3185.7393104528801
sg965
F16466.136708700065
sg966
F-3344.0901828819824
sg967
g968
sg969
g970
sg971
g972
sg973
NsbsI71
g0
(g957
g2
Ntp1184
Rp1185
(dp1186
g961
g962
sg963
I71
sg964
F4826.8777431104199
sg965
F16466.136708700065
sg966
F-3344.0901828819824
sg967
g968
sg969
g970
sg971
g972
sg973
NsbsI72
g0
(g957
g2
Ntp1187
Rp1188
(dp1189
g961
g962
sg963
I72
sg964
F0.0
sg965
F16466.136708700065
sg966
F-4691.145612254033
sg967
g968
sg969
g970
sg971
g972
sg973
NsbsI73
g0
(g957
g2
Ntp1190
Rp1191
(dp1192
g961
g962
sg963
I73
sg964
F1592.86965522644
sg965
F16466.136708700065
sg966
F-4691.145612254033
sg967
g968
sg969
g970
sg971
g972
sg973
NsbsI74
g0
(g957
g2
Ntp1193
Rp1194
(dp1195
g961
g962
sg963
I74
sg964
F3185.7393104528801
sg965
F16466.136708700065
sg966
F-4691.145612254033
sg967
g968
sg969
g970
sg971
g972
sg973
NsbsI75
g0
(g957
g2
Ntp1196
Rp1197
(dp1198
g961
g962
sg963
I75
sg964
F4826.8777431104199
sg965
F16466.136708700065
sg966
F-4691.145612254033
sg967
g968
sg969
g970
sg971
g972
sg973
NsbssS'node_index'
p1199
(dp1200
S'4826.878,3622.550,0.000'
p1201
I26
sS'4826.878,16466.137,0.000'
p1202
I31
sS'4826.878,1811.275,0.000'
p1203
I25
sS'3185.739,3622.550,0.000'
p1204
I18
sS'1592.870,12843.587,0.000'
p1205
I11
sS'4826.878,0.000,-3344.090'
p1206
I55
sS'1592.870,16466.137,-1956.215'
p1207
I61
sS'1592.870,16466.137,-609.159'
p1208
I63
sS'1592.870,5433.825,0.000'
p1209
I7
sS'3185.739,0.000,-4691.146'
p1210
I58
sS'1592.870,0.000,-3344.090'
p1211
I53
sS'0.000,12843.587,0.000'
p1212
I10
sS'1592.870,0.000,-4691.146'
p1213
I57
sS'3185.739,5433.825,0.000'
p1214
I19
sS'1592.870,0.000,0.000'
p1215
I1
sS'0.000,16466.137,0.000'
p1216
I14
sS'3185.739,0.000,0.000'
p1217
I16
sS'4826.878,0.000,0.000'
p1218
I24
sS'4826.878,5433.825,0.000'
p1219
I27
sS'3185.739,8233.068,0.000'
p1220
I39
sS'4826.878,9632.690,0.000'
p1221
I43
sS'1592.870,16466.137,-4691.146'
p1222
I73
sS'1592.870,0.000,-1956.215'
p1223
I45
sS'3185.739,16466.137,-1956.215'
p1224
I64
sS'4826.878,16466.137,-3344.090'
p1225
I71
sS'3185.739,11032.312,0.000'
p1226
I20
sS'1592.870,8233.068,0.000'
p1227
I35
sS'3185.739,1811.275,0.000'
p1228
I17
sS'0.000,3622.550,0.000'
p1229
I4
sS'0.000,9632.690,0.000'
p1230
I36
sS'1592.870,6833.447,0.000'
p1231
I33
sS'0.000,0.000,-1956.215'
p1232
I44
sS'0.000,16466.137,-1956.215'
p1233
I60
sS'0.000,0.000,0.000'
p1234
I0
sS'3185.739,16466.137,0.000'
p1235
I23
sS'4826.878,16466.137,-1956.215'
p1236
I66
sS'0.000,16466.137,-3344.090'
p1237
I68
sS'4826.878,11032.312,0.000'
p1238
I28
sS'4826.878,14654.862,0.000'
p1239
I30
sS'4826.878,0.000,-609.159'
p1240
I51
sS'1592.870,3622.550,0.000'
p1241
I5
sS'0.000,1811.275,0.000'
p1242
I2
sS'4826.878,12843.587,0.000'
p1243
I29
sS'0.000,0.000,-609.159'
p1244
I46
sS'1592.870,16466.137,0.000'
p1245
I15
sS'4826.878,6833.447,0.000'
p1246
I41
sS'1592.870,1811.275,0.000'
p1247
I3
sS'0.000,0.000,-4691.146'
p1248
I56
sS'4826.878,8233.068,0.000'
p1249
I42
sS'0.000,16466.137,-609.159'
p1250
I62
sS'1592.870,16466.137,-3344.090'
p1251
I69
sS'0.000,5433.825,0.000'
p1252
I6
sS'1592.870,14654.862,0.000'
p1253
I13
sS'3185.739,12843.587,0.000'
p1254
I21
sS'3185.739,16466.137,-3344.090'
p1255
I70
sS'0.000,16466.137,-4691.146'
p1256
I72
sS'3185.739,16466.137,-4691.146'
p1257
I74
sS'0.000,11032.312,0.000'
p1258
I8
sS'3185.739,6833.447,0.000'
p1259
I38
sS'4826.878,0.000,-4691.146'
p1260
I59
sS'1592.870,11032.312,0.000'
p1261
I9
sS'4826.878,0.000,-1956.215'
p1262
I50
sS'0.000,0.000,-3344.090'
p1263
I52
sS'3185.739,0.000,-609.159'
p1264
I49
sS'0.000,14654.862,0.000'
p1265
I12
sS'0.000,8233.068,0.000'
p1266
I34
sS'3185.739,0.000,-1956.215'
p1267
I48
sS'3185.739,9632.690,0.000'
p1268
I40
sS'4826.878,16466.137,-609.159'
p1269
I67
sS'1592.870,0.000,-609.159'
p1270
I47
sS'3185.739,14654.862,0.000'
p1271
I22
sS'3185.739,0.000,-3344.090'
p1272
I54
sS'4826.878,16466.137,-4691.146'
p1273
I75
sS'3185.739,16466.137,-609.159'
p1274
I65
sS'0.000,6833.447,0.000'
p1275
I32
sS'1592.870,9632.690,0.000'
p1276
I37
ssS'path'
p1277
S'C:\\Temp\\'
p1278
sS'results'
p1279
(dp1280
S'step_2'
p1281
S'ERROR'
p1282
sS'step_3'
p1283
g1282
sS'step_4'
p1284
g1282
sS'step_1'
p1285
g1282
ssS'sections'
p1286
(dp1287
g427
g0
(ccompas_fea.structure.section
ShellSection
p1288
g2
Ntp1289
Rp1290
(dp1291
g15
I1
sS'__name__'
p1292
S'ShellSection'
p1293
sS'name'
p1294
g427
sS'geometry'
p1295
(dp1296
S't'
p1297
F791.12814515860953
ssS'loc_coords_OR'
p1298
(dp1299
S'ORxyz'
p1300
(lp1301
I0
aI0
aF-4081.9861496100002
assS'loc_coords_XA'
p1302
(dp1303
S'XAxyz'
p1304
(lp1305
I1
aI0
aF-4081.9861496100002
assS'loc_coords_YA'
p1306
(dp1307
S'YAxyz'
p1308
(lp1309
F4081.9861496100002
aF-4081.9861496100002
aF-4080.9861496100002
assS'loc_coords_EV_XA'
p1310
(dp1311
S'EV_XA'
p1312
(lp1313
F1.0
aF0.0
aF0.0
assS'loc_coords_EV_YA'
p1314
(dp1315
S'EV_YA'
p1316
(lp1317
F0.70710677057736437
aF-0.70710677057736437
aF0.00017322615625359791
assS'loc_coords_EV_ZA'
p1318
(dp1319
S'EV_ZA'
p1320
(lp1321
F0.0
aF-1.0
aF0.0
assS'nr_layers'
p1322
(dp1323
S'nn'
p1324
F51.0
ssS'offset'
p1325
(dp1326
S'mode'
p1327
S'mid'
p1328
ssbsg441
g0
(g1288
g2
Ntp1329
Rp1330
(dp1331
g15
I0
sg1292
g1293
sg1294
g441
sg1295
(dp1332
g1297
F609.15946264175966
ssg1298
(dp1333
g1300
(lp1334
I0
aI0
aI0
assg1302
(dp1335
g1304
(lp1336
I1
aI0
aI0
assg1306
(dp1337
g1308
(lp1338
F0.0
aF1.0
aF0.0
assg1310
(dp1339
g1312
(lp1340
F1.0
aF0.0
aF0.0
assg1314
(dp1341
g1316
(lp1342
F0.0
aF1.0
aF0.0
assg1318
(dp1343
g1320
(lp1344
F0.0
aF0.0
aF1.0
assg1322
(dp1345
g1324
F59.0
ssg1325
(dp1346
g1327
S'top'
p1347
ssbsg418
g0
(g1288
g2
Ntp1348
Rp1349
(dp1350
g15
I2
sg1292
g1293
sg1294
g418
sg1295
(dp1351
g1297
F791.12814515860953
ssg1298
(dp1352
g1300
(lp1353
I0
aF16466.1367087
aF-4081.9861496100002
assg1302
(dp1354
g1304
(lp1355
I1
aF16466.1367087
aF-4081.9861496100002
assg1306
(dp1356
g1308
(lp1357
F-4081.9861496090889
aF12384.15055909
aF-20549.122858310002
assg1310
(dp1358
g1312
(lp1359
F1.0
aF0.0
aF0.0
assg1314
(dp1360
g1316
(lp1361
F-0.23392881271208252
aF-0.23392881271213475
aF-0.94369201605513575
assg1318
(dp1362
g1320
(lp1363
F0.0
aF1.0
aF0.0
assg1322
(dp1364
g1324
F51.0
ssg1325
(dp1365
g1327
g1328
ssbsg511
g0
(ccompas_fea.structure.section
MPCSection
p1366
g2
Ntp1367
Rp1368
(dp1369
g15
I3
sg1292
S'MPCSection'
p1370
sg1294
g511
sg1295
NsS'nr_layers'
p1371
NsbssS'sets'
p1372
(dp1373
g536
g0
(ccompas_fea.structure.set
Set
p1374
g2
Ntp1375
Rp1376
(dp1377
S'__name__'
p1378
S'Set'
p1379
sS'name'
p1380
g536
sS'type'
p1381
S'element'
p1382
sS'selection'
p1383
(lp1384
I34
asS'index'
p1385
I13
sbsg512
g0
(g1374
g2
Ntp1386
Rp1387
(dp1388
g1378
g1379
sg1380
g512
sg1381
g1382
sg1383
(lp1389
I48
aI49
aI50
aI51
aI52
aI53
aI54
aI55
asg1385
I27
sbsg420
g0
(g1374
g2
Ntp1390
Rp1391
(dp1392
g1378
g1379
sg1380
g420
sg1381
g1382
sg1383
(lp1393
I42
asg1385
I21
sbsg466
g0
(g1374
g2
Ntp1394
Rp1395
(dp1396
g1378
g1379
sg1380
g466
sg1381
g1382
sg1383
(lp1397
I8
aI6
aI7
asg1385
I2
sbsg432
g0
(g1374
g2
Ntp1398
Rp1399
(dp1400
g1378
g1379
sg1380
g432
sg1381
g1382
sg1383
(lp1401
I37
asg1385
I16
sbsg528
g0
(g1374
g2
Ntp1402
Rp1403
(dp1404
g1378
g1379
sg1380
g528
sg1381
g1382
sg1383
(lp1405
I39
asg1385
I18
sbsg506
g0
(g1374
g2
Ntp1406
Rp1407
(dp1408
g1378
g1379
sg1380
g506
sg1381
g1382
sg1383
(lp1409
I3
aI4
aI5
asg1385
I1
sbsg442
g0
(g1374
g2
Ntp1410
Rp1411
(dp1412
g1378
g1379
sg1380
g442
sg1381
g1382
sg1383
(lp1413
I0
aI1
aI2
asg1385
I0
sbsg494
g0
(g1374
g2
Ntp1414
Rp1415
(dp1416
g1378
g1379
sg1380
g494
sg1381
g1382
sg1383
(lp1417
I18
aI19
aI20
aI21
asg1385
I6
sbsg532
g0
(g1374
g2
Ntp1418
Rp1419
(dp1420
g1378
g1379
sg1380
g532
sg1381
g1382
sg1383
(lp1421
I16
aI17
aI15
asg1385
I5
sbsg458
g0
(g1374
g2
Ntp1422
Rp1423
(dp1424
g1378
g1379
sg1380
g458
sg1381
g1382
sg1383
(lp1425
I12
aI13
aI14
asg1385
I4
sbsg502
g0
(g1374
g2
Ntp1426
Rp1427
(dp1428
g1378
g1379
sg1380
g502
sg1381
g1382
sg1383
(lp1429
I9
aI10
aI11
asg1385
I3
sbsg450
g0
(g1374
g2
Ntp1430
Rp1431
(dp1432
g1378
g1379
sg1380
g450
sg1381
g1382
sg1383
(lp1433
I26
aI27
aI28
aI29
asg1385
I8
sbsg486
g0
(g1374
g2
Ntp1434
Rp1435
(dp1436
g1378
g1379
sg1380
g486
sg1381
g1382
sg1383
(lp1437
I24
aI25
aI22
aI23
asg1385
I7
sbsg462
g0
(g1374
g2
Ntp1438
Rp1439
(dp1440
g1378
g1379
sg1380
g462
sg1381
g1382
sg1383
(lp1441
I32
asg1385
I11
sbsg524
g0
(g1374
g2
Ntp1442
Rp1443
(dp1444
g1378
g1379
sg1380
g524
sg1381
g1382
sg1383
(lp1445
I47
asg1385
I26
sbsg474
g0
(g1374
g2
Ntp1446
Rp1447
(dp1448
g1378
g1379
sg1380
g474
sg1381
g1382
sg1383
(lp1449
I44
asg1385
I23
sbsg454
g0
(g1374
g2
Ntp1450
Rp1451
(dp1452
g1378
g1379
sg1380
g454
sg1381
g1382
sg1383
(lp1453
I35
asg1385
I14
sbsg470
g0
(g1374
g2
Ntp1454
Rp1455
(dp1456
g1378
g1379
sg1380
g470
sg1381
g1382
sg1383
(lp1457
I41
asg1385
I20
sbsg490
g0
(g1374
g2
Ntp1458
Rp1459
(dp1460
g1378
g1379
sg1380
g490
sg1381
g1382
sg1383
(lp1461
I30
asg1385
I9
sbsg482
g0
(g1374
g2
Ntp1462
Rp1463
(dp1464
g1378
g1379
sg1380
g482
sg1381
g1382
sg1383
(lp1465
I38
asg1385
I17
sbsg35
g0
(g1374
g2
Ntp1466
Rp1467
(dp1468
g1378
g1379
sg1380
g35
sg1381
S'node'
p1469
sg1383
(lp1470
I75
aI74
aI73
aI72
asg1385
I29
sbsg478
g0
(g1374
g2
Ntp1471
Rp1472
(dp1473
g1378
g1379
sg1380
g478
sg1381
g1382
sg1383
(lp1474
I33
asg1385
I12
sbsg498
g0
(g1374
g2
Ntp1475
Rp1476
(dp1477
g1378
g1379
sg1380
g498
sg1381
g1382
sg1383
(lp1478
I46
asg1385
I25
sbsg446
g0
(g1374
g2
Ntp1479
Rp1480
(dp1481
g1378
g1379
sg1380
g446
sg1381
g1382
sg1383
(lp1482
I43
asg1385
I22
sbsg20
g0
(g1374
g2
Ntp1483
Rp1484
(dp1485
g1378
g1379
sg1380
g20
sg1381
g1469
sg1383
(lp1486
I59
aI58
aI57
aI56
asg1385
I28
sbsg516
g0
(g1374
g2
Ntp1487
Rp1488
(dp1489
g1378
g1379
sg1380
g516
sg1381
g1382
sg1383
(lp1490
I36
asg1385
I15
sbsg436
g0
(g1374
g2
Ntp1491
Rp1492
(dp1493
g1378
g1379
sg1380
g436
sg1381
g1382
sg1383
(lp1494
I40
asg1385
I19
sbsg428
g0
(g1374
g2
Ntp1495
Rp1496
(dp1497
g1378
g1379
sg1380
g428
sg1381
g1382
sg1383
(lp1498
I31
asg1385
I10
sbsg520
g0
(g1374
g2
Ntp1499
Rp1500
(dp1501
g1378
g1379
sg1380
g520
sg1381
g1382
sg1383
(lp1502
I45
asg1385
I24
sbssS'steps'
p1503
(dp1504
g1281
g0
(ccompas_fea.structure.step
GeneralStep
p1505
g2
Ntp1506
Rp1507
(dp1508
g15
I1
sS'__name__'
p1509
S'GeneralStep'
p1510
sS'name'
p1511
g1281
sS'attr_list'
p1512
(lp1513
g559
aS'increments'
p1514
aS'iterations'
p1515
aS'factor'
p1516
aS'nlgeom'
p1517
aS'nlmat'
p1518
aS'displacements'
p1519
aS'loads'
p1520
aS'type'
p1521
aS'tolerance'
p1522
aS'modify'
p1523
asS'increments'
p1524
I1
sS'iterations'
p1525
I100
sS'tolerance'
p1526
F0.01
sS'factor'
p1527
F1.0
sS'nlgeom'
p1528
I00
sS'nlmat'
p1529
I01
sS'displacements'
p1530
(lp1531
sS'loads'
p1532
(lp1533
g600
asS'modify'
p1534
I01
sS'type'
p1535
S'static'
p1536
sbsg1283
g0
(g1505
g2
Ntp1537
Rp1538
(dp1539
g15
I2
sg1509
g1510
sg1511
g1283
sg1512
(lp1540
g559
ag1514
ag1515
ag1516
ag1517
ag1518
ag1519
ag1520
ag1521
ag1522
ag1523
asg1524
I1
sg1525
I100
sg1526
F0.01
sg1527
F1.0
sg1528
I00
sg1529
I01
sg1530
(lp1541
sg1532
(lp1542
g593
ag586
ag579
asg1534
I01
sg1535
g1536
sbsg1284
g0
(g1505
g2
Ntp1543
Rp1544
(dp1545
g15
I3
sg1509
g1510
sg1511
g1284
sg1512
(lp1546
g559
ag1514
ag1515
ag1516
ag1517
ag1518
ag1519
ag1520
ag1521
ag1522
ag1523
asg1524
I1
sg1525
I100
sg1526
F0.01
sg1527
F1.0
sg1528
I00
sg1529
I01
sg1530
(lp1547
sg1532
(lp1548
g572
ag541
ag564
asg1534
I01
sg1535
g1536
sbsg1285
g0
(g1505
g2
Ntp1549
Rp1550
(dp1551
g15
I0
sg1509
g1510
sg1511
g1285
sg1512
(lp1552
g559
ag1514
ag1515
ag1516
ag1517
ag1518
ag1519
ag1520
ag1521
ag1522
ag1523
asg1524
I1
sg1525
I100
sg1526
F0.01
sg1527
F1.0
sg1528
I00
sg1529
I01
sg1530
(lp1553
g10
ag31
asg1532
(lp1554
sg1534
I01
sg1535
g1536
sbssS'loc_coor'
p1555
(dp1556
sS'steps_order'
p1557
(lp1558
g1285
ag1281
ag1283
ag1284
asS'tol'
p1559
S'3'
p1560
sS'virtual_nodes'
p1561
(dp1562
sS'virtual_node_index'
p1563
(dp1564
sS'virtual_elements'
p1565
(dp1566
sS'virtual_element_index'
p1567
(dp1568
sb.