ccopy_reg
_reconstructor
p0
(ccompas_fea.structure.structure
Structure
p1
c__builtin__
object
p2
Ntp3
Rp4
(dp5
S'constraints'
p6
(dp7
sS'displacements'
p8
(dp9
S'nset_pinned_set_disp_1'
p10
g0
(ccompas_fea.structure.displacement
GeneralDisplacement
p11
g2
Ntp12
Rp13
(dp14
S'index'
p15
I0
sS'__name__'
p16
S'GeneralDisplacement'
p17
sS'name'
p18
g10
sS'nodes'
p19
S'nset_support_wall1'
p20
sS'components'
p21
(dp22
S'z'
p23
I0
sS'xx'
p24
I0
sS'zz'
p25
I0
sS'yy'
p26
I0
sS'y'
p27
I0
sS'x'
p28
I0
ssS'axes'
p29
S'global'
p30
sbsS'nset_pinned_set_disp_2'
p31
g0
(g11
g2
Ntp32
Rp33
(dp34
g15
I1
sg16
g17
sg18
g31
sg19
S'nset_support_wall2'
p35
sg21
(dp36
g23
I0
sg24
I0
sg25
I0
sg26
I0
sg27
I0
sg28
I0
ssg29
g30
sbssS'elements'
p37
(dp38
I0
g0
(ccompas_fea.structure.element
ShellElement
p39
g2
Ntp40
Rp41
(dp42
S'mass'
p43
NsS'__name__'
p44
S'ShellElement'
p45
sS'nodes'
p46
(lp47
I0
aI1
aI3
aI2
asS'number'
p48
I0
sS'thermal'
p49
I00
sS'axes'
p50
(dp51
S'ey'
p52
NsS'ez'
p53
NsS'ex'
p54
NssS'element_property'
p55
S'elset_plate_1_element_prop'
p56
sbsI1
g0
(g39
g2
Ntp57
Rp58
(dp59
g43
Nsg44
g45
sg46
(lp60
I2
aI3
aI5
aI4
asg48
I1
sg49
I00
sg50
g51
sg55
g56
sbsI2
g0
(g39
g2
Ntp61
Rp62
(dp63
g43
Nsg44
g45
sg46
(lp64
I6
aI7
aI9
aI8
asg48
I2
sg49
I00
sg50
(dp65
g52
Nsg53
Nsg54
Nssg55
S'elset_plate_2_element_prop'
p66
sbsI3
g0
(g39
g2
Ntp67
Rp68
(dp69
g43
Nsg44
g45
sg46
(lp70
I8
aI9
aI11
aI10
asg48
I3
sg49
I00
sg50
g65
sg55
g66
sbsI4
g0
(g39
g2
Ntp71
Rp72
(dp73
g43
Nsg44
g45
sg46
(lp74
I1
aI12
aI13
aI3
asg48
I4
sg49
I00
sg50
(dp75
g52
Nsg53
Nsg54
Nssg55
S'elset_plate_3_element_prop'
p76
sbsI5
g0
(g39
g2
Ntp77
Rp78
(dp79
g43
Nsg44
g45
sg46
(lp80
I3
aI13
aI14
aI5
asg48
I5
sg49
I00
sg50
g75
sg55
g76
sbsI6
g0
(g39
g2
Ntp81
Rp82
(dp83
g43
Nsg44
g45
sg46
(lp84
I7
aI15
aI16
aI9
asg48
I6
sg49
I00
sg50
(dp85
g52
Nsg53
Nsg54
Nssg55
S'elset_plate_4_element_prop'
p86
sbsI7
g0
(g39
g2
Ntp87
Rp88
(dp89
g43
Nsg44
g45
sg46
(lp90
I9
aI16
aI17
aI11
asg48
I7
sg49
I00
sg50
g85
sg55
g86
sbsI8
g0
(g39
g2
Ntp91
Rp92
(dp93
g43
Nsg44
g45
sg46
(lp94
I12
aI18
aI19
aI13
asg48
I8
sg49
I00
sg50
(dp95
g52
Nsg53
Nsg54
Nssg55
S'elset_plate_5_element_prop'
p96
sbsI9
g0
(g39
g2
Ntp97
Rp98
(dp99
g43
Nsg44
g45
sg46
(lp100
I13
aI19
aI20
aI14
asg48
I9
sg49
I00
sg50
g95
sg55
g96
sbsI10
g0
(g39
g2
Ntp101
Rp102
(dp103
g43
Nsg44
g45
sg46
(lp104
I15
aI21
aI22
aI16
asg48
I10
sg49
I00
sg50
(dp105
g52
Nsg53
Nsg54
Nssg55
S'elset_plate_6_element_prop'
p106
sbsI11
g0
(g39
g2
Ntp107
Rp108
(dp109
g43
Nsg44
g45
sg46
(lp110
I16
aI22
aI23
aI17
asg48
I11
sg49
I00
sg50
g105
sg55
g106
sbsI12
g0
(g39
g2
Ntp111
Rp112
(dp113
g43
Nsg44
g45
sg46
(lp114
I4
aI5
aI25
aI24
asg48
I12
sg49
I00
sg50
(dp115
g52
Nsg53
Nsg54
Nssg55
S'elset_plate_7_element_prop'
p116
sbsI13
g0
(g39
g2
Ntp117
Rp118
(dp119
g43
Nsg44
g45
sg46
(lp120
I24
aI25
aI7
aI6
asg48
I13
sg49
I00
sg50
g115
sg55
g116
sbsI14
g0
(g39
g2
Ntp121
Rp122
(dp123
g43
Nsg44
g45
sg46
(lp124
I5
aI14
aI26
aI25
asg48
I14
sg49
I00
sg50
(dp125
g52
Nsg53
Nsg54
Nssg55
S'elset_plate_8_element_prop'
p126
sbsI15
g0
(g39
g2
Ntp127
Rp128
(dp129
g43
Nsg44
g45
sg46
(lp130
I25
aI26
aI15
aI7
asg48
I15
sg49
I00
sg50
g125
sg55
g126
sbsI16
g0
(g39
g2
Ntp131
Rp132
(dp133
g43
Nsg44
g45
sg46
(lp134
I14
aI20
aI27
aI26
asg48
I16
sg49
I00
sg50
(dp135
g52
Nsg53
Nsg54
Nssg55
S'elset_plate_9_element_prop'
p136
sbsI17
g0
(g39
g2
Ntp137
Rp138
(dp139
g43
Nsg44
g45
sg46
(lp140
I26
aI27
aI21
aI15
asg48
I17
sg49
I00
sg50
g135
sg55
g136
sbsI18
g0
(g39
g2
Ntp141
Rp142
(dp143
g43
Nsg44
g45
sg46
(lp144
I28
aI29
aI31
aI30
asg48
I18
sg49
I00
sg50
(dp145
g52
Nsg53
Nsg54
Nssg55
S'elset_wall_1_1_element_prop'
p146
sbsI19
g0
(g39
g2
Ntp147
Rp148
(dp149
g43
Nsg44
g45
sg46
(lp150
I29
aI32
aI33
aI31
asg48
I19
sg49
I00
sg50
(dp151
g52
Nsg53
Nsg54
Nssg55
S'elset_wall_1_2_element_prop'
p152
sbsI20
g0
(g39
g2
Ntp153
Rp154
(dp155
g43
Nsg44
g45
sg46
(lp156
I32
aI34
aI35
aI33
asg48
I20
sg49
I00
sg50
(dp157
g52
Nsg53
Nsg54
Nssg55
S'elset_wall_1_3_element_prop'
p158
sbsI21
g0
(g39
g2
Ntp159
Rp160
(dp161
g43
Nsg44
g45
sg46
(lp162
I36
aI37
aI29
aI28
asg48
I21
sg49
I00
sg50
(dp163
g52
Nsg53
Nsg54
Nssg55
S'elset_wall_1_4_element_prop'
p164
sbsI22
g0
(g39
g2
Ntp165
Rp166
(dp167
g43
Nsg44
g45
sg46
(lp168
I37
aI38
aI32
aI29
asg48
I22
sg49
I00
sg50
(dp169
g52
Nsg53
Nsg54
Nssg55
S'elset_wall_1_5_element_prop'
p170
sbsI23
g0
(g39
g2
Ntp171
Rp172
(dp173
g43
Nsg44
g45
sg46
(lp174
I38
aI39
aI34
aI32
asg48
I23
sg49
I00
sg50
(dp175
g52
Nsg53
Nsg54
Nssg55
S'elset_wall_1_6_element_prop'
p176
sbsI24
g0
(g39
g2
Ntp177
Rp178
(dp179
g43
Nsg44
g45
sg46
(lp180
I40
aI41
aI37
aI36
asg48
I24
sg49
I00
sg50
(dp181
g52
Nsg53
Nsg54
Nssg55
S'elset_wall_1_7_element_prop'
p182
sbsI25
g0
(g39
g2
Ntp183
Rp184
(dp185
g43
Nsg44
g45
sg46
(lp186
I41
aI42
aI38
aI37
asg48
I25
sg49
I00
sg50
(dp187
g52
Nsg53
Nsg54
Nssg55
S'elset_wall_1_8_element_prop'
p188
sbsI26
g0
(g39
g2
Ntp189
Rp190
(dp191
g43
Nsg44
g45
sg46
(lp192
I42
aI43
aI39
aI38
asg48
I26
sg49
I00
sg50
(dp193
g52
Nsg53
Nsg54
Nssg55
S'elset_wall_1_9_element_prop'
p194
sbsI27
g0
(g39
g2
Ntp195
Rp196
(dp197
g43
Nsg44
g45
sg46
(lp198
I44
aI46
aI47
aI45
asg48
I27
sg49
I00
sg50
(dp199
g52
Nsg53
Nsg54
Nssg55
S'elset_wall_2_1_element_prop'
p200
sbsI28
g0
(g39
g2
Ntp201
Rp202
(dp203
g43
Nsg44
g45
sg46
(lp204
I45
aI47
aI49
aI48
asg48
I28
sg49
I00
sg50
(dp205
g52
Nsg53
Nsg54
Nssg55
S'elset_wall_2_2_element_prop'
p206
sbsI29
g0
(g39
g2
Ntp207
Rp208
(dp209
g43
Nsg44
g45
sg46
(lp210
I48
aI49
aI51
aI50
asg48
I29
sg49
I00
sg50
(dp211
g52
Nsg53
Nsg54
Nssg55
S'elset_wall_2_3_element_prop'
p212
sbsI30
g0
(g39
g2
Ntp213
Rp214
(dp215
g43
Nsg44
g45
sg46
(lp216
I52
aI44
aI45
aI53
asg48
I30
sg49
I00
sg50
(dp217
g52
Nsg53
Nsg54
Nssg55
S'elset_wall_2_4_element_prop'
p218
sbsI31
g0
(g39
g2
Ntp219
Rp220
(dp221
g43
Nsg44
g45
sg46
(lp222
I53
aI45
aI48
aI54
asg48
I31
sg49
I00
sg50
(dp223
g52
Nsg53
Nsg54
Nssg55
S'elset_wall_2_5_element_prop'
p224
sbsI32
g0
(g39
g2
Ntp225
Rp226
(dp227
g43
Nsg44
g45
sg46
(lp228
I54
aI48
aI50
aI55
asg48
I32
sg49
I00
sg50
(dp229
g52
Nsg53
Nsg54
Nssg55
S'elset_wall_2_6_element_prop'
p230
sbsI33
g0
(g39
g2
Ntp231
Rp232
(dp233
g43
Nsg44
g45
sg46
(lp234
I56
aI52
aI53
aI57
asg48
I33
sg49
I00
sg50
(dp235
g52
Nsg53
Nsg54
Nssg55
S'elset_wall_2_7_element_prop'
p236
sbsI34
g0
(g39
g2
Ntp237
Rp238
(dp239
g43
Nsg44
g45
sg46
(lp240
I57
aI53
aI54
aI58
asg48
I34
sg49
I00
sg50
(dp241
g52
Nsg53
Nsg54
Nssg55
S'elset_wall_2_8_element_prop'
p242
sbsI35
g0
(g39
g2
Ntp243
Rp244
(dp245
g43
Nsg44
g45
sg46
(lp246
I58
aI54
aI55
aI59
asg48
I35
sg49
I00
sg50
(dp247
g52
Nsg53
Nsg54
Nssg55
S'elset_wall_2_9_element_prop'
p248
sbsI36
g0
(ccompas_fea.structure.element
MPCElement
p249
g2
Ntp250
Rp251
(dp252
g43
Nsg44
S'MPCElement'
p253
sg46
(lp254
I51
aI23
asg48
I36
sg49
I00
sg50
(dp255
g52
Nsg53
(lp256
F3.637978807091713e-12
aF0.0
aF1140.2760229964047
asg54
Nssg55
S'elset_mpc_element_prop'
p257
sbsI37
g0
(g249
g2
Ntp258
Rp259
(dp260
g43
Nsg44
g253
sg46
(lp261
I49
aI17
asg48
I37
sg49
I00
sg50
(dp262
g52
Nsg53
(lp263
F4.5474735088646412e-13
aF0.0
aF1140.2760229964047
asg54
Nssg55
g257
sbsI38
g0
(g249
g2
Ntp264
Rp265
(dp266
g43
Nsg44
g253
sg46
(lp267
I47
aI11
asg48
I38
sg49
I00
sg50
(dp268
g52
Nsg53
(lp269
F2.2737367544323206e-13
aF0.0
aF1140.2760229964047
asg54
Nssg55
g257
sbsI39
g0
(g249
g2
Ntp270
Rp271
(dp272
g43
Nsg44
g253
sg46
(lp273
I46
aI10
asg48
I39
sg49
I00
sg50
(dp274
g52
Nsg53
(lp275
F0.0
aF0.0
aF1140.2760229964047
asg54
Nssg55
g257
sbsI40
g0
(g249
g2
Ntp276
Rp277
(dp278
g43
Nsg44
g253
sg46
(lp279
I35
aI18
asg48
I40
sg49
I00
sg50
(dp280
g52
Nsg53
(lp281
F3.637978807091713e-12
aF0.0
aF1140.2760229964047
asg54
Nssg55
g257
sbsI41
g0
(g249
g2
Ntp282
Rp283
(dp284
g43
Nsg44
g253
sg46
(lp285
I33
aI12
asg48
I41
sg49
I00
sg50
(dp286
g52
Nsg53
(lp287
F4.5474735088646412e-13
aF0.0
aF1140.2760229964047
asg54
Nssg55
g257
sbsI42
g0
(g249
g2
Ntp288
Rp289
(dp290
g43
Nsg44
g253
sg46
(lp291
I31
aI1
asg48
I42
sg49
I00
sg50
(dp292
g52
Nsg53
(lp293
F2.2737367544323206e-13
aF0.0
aF1140.2760229964047
asg54
Nssg55
g257
sbsI43
g0
(g249
g2
Ntp294
Rp295
(dp296
g43
Nsg44
g253
sg46
(lp297
I30
aI0
asg48
I43
sg49
I00
sg50
(dp298
g52
Nsg53
(lp299
F0.0
aF0.0
aF1140.2760229964047
asg54
Nssg55
g257
sbssS'element_index'
p300
(dp301
S'4048.645,10724.142,0.000'
p302
I10
sS'2414.553,0.000,-4302.741'
p303
I25
sS'2414.553,1175.736,0.000'
p304
I4
sS'804.851,1175.736,0.000'
p305
I0
sS'4877.885,14251.351,-570.138'
p306
I36
sS'4048.645,14251.351,-4302.741'
p307
I35
sS'1609.702,0.000,-570.138'
p308
I42
sS'2414.553,14251.351,-3033.968'
p309
I31
sS'4048.645,8337.040,0.000'
p310
I17
sS'804.851,0.000,-4302.741'
p311
I24
sS'804.851,3527.209,0.000'
p312
I1
sS'804.851,5914.311,0.000'
p313
I12
sS'2414.553,8337.040,0.000'
p314
I15
sS'804.851,14251.351,-1765.194'
p315
I27
sS'804.851,10724.142,0.000'
p316
I2
sS'4048.645,0.000,-4302.741'
p317
I26
sS'1609.702,14251.351,-570.138'
p318
I38
sS'2414.553,10724.142,0.000'
p319
I6
sS'804.851,8337.040,0.000'
p320
I13
sS'3219.404,14251.351,-570.138'
p321
I37
sS'0.000,14251.351,-570.138'
p322
I39
sS'2414.553,14251.351,-4302.741'
p323
I34
sS'2414.553,0.000,-1765.194'
p324
I19
sS'804.851,0.000,-1765.194'
p325
I18
sS'804.851,0.000,-3033.968'
p326
I21
sS'4048.645,0.000,-3033.968'
p327
I23
sS'2414.553,3527.209,0.000'
p328
I5
sS'804.851,14251.351,-4302.741'
p329
I33
sS'0.000,0.000,-570.138'
p330
I43
sS'804.851,13075.614,0.000'
p331
I3
sS'4048.645,13075.614,0.000'
p332
I11
sS'2414.553,5914.311,0.000'
p333
I14
sS'4048.645,14251.351,-3033.968'
p334
I32
sS'2414.553,13075.614,0.000'
p335
I7
sS'4877.885,0.000,-570.138'
p336
I40
sS'4048.645,3527.209,0.000'
p337
I9
sS'4048.645,1175.736,0.000'
p338
I8
sS'4048.645,5914.311,0.000'
p339
I16
sS'2414.553,0.000,-3033.968'
p340
I22
sS'2414.553,14251.351,-1765.194'
p341
I28
sS'804.851,14251.351,-3033.968'
p342
I30
sS'3219.404,0.000,-570.138'
p343
I41
sS'4048.645,14251.351,-1765.194'
p344
I29
sS'4048.645,0.000,-1765.194'
p345
I20
ssS'element_properties'
p346
(dp347
g218
g0
(ccompas_fea.structure.element_properties
ElementProperties
p348
g2
Ntp349
Rp350
(dp351
g15
I21
sS'__name__'
p352
S'ElementProperties'
p353
sS'name'
p354
g218
sS'material'
p355
S'wall_element_mat'
p356
sS'section'
p357
S'wall2_element_sec'
p358
sS'elset'
p359
S'elset_wall_2_4'
p360
sS'elements'
p361
NsS'rebar'
p362
(dp363
sbsg152
g0
(g348
g2
Ntp364
Rp365
(dp366
g15
I10
sg352
g353
sg354
g152
sg355
g356
sg357
S'wall1_element_sec'
p367
sg359
S'elset_wall_1_2'
p368
sg361
Nsg362
g363
sbsg188
g0
(g348
g2
Ntp369
Rp370
(dp371
g15
I16
sg352
g353
sg354
g188
sg355
g356
sg357
g367
sg359
S'elset_wall_1_8'
p372
sg361
Nsg362
g363
sbsg206
g0
(g348
g2
Ntp373
Rp374
(dp375
g15
I19
sg352
g353
sg354
g206
sg355
g356
sg357
g358
sg359
S'elset_wall_2_2'
p376
sg361
Nsg362
g363
sbsg56
g0
(g348
g2
Ntp377
Rp378
(dp379
g15
I0
sg352
g353
sg354
g56
sg355
S'plate_element_mat'
p380
sg357
S'plate_element_sec'
p381
sg359
S'elset_plate_1'
p382
sg361
Nsg362
g363
sbsg224
g0
(g348
g2
Ntp383
Rp384
(dp385
g15
I22
sg352
g353
sg354
g224
sg355
g356
sg357
g358
sg359
S'elset_wall_2_5'
p386
sg361
Nsg362
g363
sbsg136
g0
(g348
g2
Ntp387
Rp388
(dp389
g15
I8
sg352
g353
sg354
g136
sg355
g380
sg357
g381
sg359
S'elset_plate_9'
p390
sg361
Nsg362
g363
sbsg176
g0
(g348
g2
Ntp391
Rp392
(dp393
g15
I14
sg352
g353
sg354
g176
sg355
g356
sg357
g367
sg359
S'elset_wall_1_6'
p394
sg361
Nsg362
g363
sbsg96
g0
(g348
g2
Ntp395
Rp396
(dp397
g15
I4
sg352
g353
sg354
g96
sg355
g380
sg357
g381
sg359
S'elset_plate_5'
p398
sg361
Nsg362
g363
sbsg158
g0
(g348
g2
Ntp399
Rp400
(dp401
g15
I11
sg352
g353
sg354
g158
sg355
g356
sg357
g367
sg359
S'elset_wall_1_3'
p402
sg361
Nsg362
g363
sbsg76
g0
(g348
g2
Ntp403
Rp404
(dp405
g15
I2
sg352
g353
sg354
g76
sg355
g380
sg357
g381
sg359
S'elset_plate_3'
p406
sg361
Nsg362
g363
sbsg212
g0
(g348
g2
Ntp407
Rp408
(dp409
g15
I20
sg352
g353
sg354
g212
sg355
g356
sg357
g358
sg359
S'elset_wall_2_3'
p410
sg361
Nsg362
g363
sbsg230
g0
(g348
g2
Ntp411
Rp412
(dp413
g15
I23
sg352
g353
sg354
g230
sg355
g356
sg357
g358
sg359
S'elset_wall_2_6'
p414
sg361
Nsg362
g363
sbsg164
g0
(g348
g2
Ntp415
Rp416
(dp417
g15
I12
sg352
g353
sg354
g164
sg355
g356
sg357
g367
sg359
S'elset_wall_1_4'
p418
sg361
Nsg362
g363
sbsg194
g0
(g348
g2
Ntp419
Rp420
(dp421
g15
I17
sg352
g353
sg354
g194
sg355
g356
sg357
g367
sg359
S'elset_wall_1_9'
p422
sg361
Nsg362
g363
sbsg126
g0
(g348
g2
Ntp423
Rp424
(dp425
g15
I7
sg352
g353
sg354
g126
sg355
g380
sg357
g381
sg359
S'elset_plate_8'
p426
sg361
Nsg362
g363
sbsg146
g0
(g348
g2
Ntp427
Rp428
(dp429
g15
I9
sg352
g353
sg354
g146
sg355
g356
sg357
g367
sg359
S'elset_wall_1_1'
p430
sg361
Nsg362
g363
sbsg116
g0
(g348
g2
Ntp431
Rp432
(dp433
g15
I6
sg352
g353
sg354
g116
sg355
g380
sg357
g381
sg359
S'elset_plate_7'
p434
sg361
Nsg362
g363
sbsg242
g0
(g348
g2
Ntp435
Rp436
(dp437
g15
I25
sg352
g353
sg354
g242
sg355
g356
sg357
g358
sg359
S'elset_wall_2_8'
p438
sg361
Nsg362
g363
sbsg86
g0
(g348
g2
Ntp439
Rp440
(dp441
g15
I3
sg352
g353
sg354
g86
sg355
g380
sg357
g381
sg359
S'elset_plate_4'
p442
sg361
Nsg362
g363
sbsg66
g0
(g348
g2
Ntp443
Rp444
(dp445
g15
I1
sg352
g353
sg354
g66
sg355
g380
sg357
g381
sg359
S'elset_plate_2'
p446
sg361
Nsg362
g363
sbsg257
g0
(g348
g2
Ntp447
Rp448
(dp449
g15
I27
sg352
g353
sg354
g257
sg355
S'elset_mpc_element_mat'
p450
sg357
S'sec_mpc'
p451
sg359
S'elset_mpcs'
p452
sg361
Nsg362
g363
sbsg182
g0
(g348
g2
Ntp453
Rp454
(dp455
g15
I15
sg352
g353
sg354
g182
sg355
g356
sg357
g367
sg359
S'elset_wall_1_7'
p456
sg361
Nsg362
g363
sbsg236
g0
(g348
g2
Ntp457
Rp458
(dp459
g15
I24
sg352
g353
sg354
g236
sg355
g356
sg357
g358
sg359
S'elset_wall_2_7'
p460
sg361
Nsg362
g363
sbsg248
g0
(g348
g2
Ntp461
Rp462
(dp463
g15
I26
sg352
g353
sg354
g248
sg355
g356
sg357
g358
sg359
S'elset_wall_2_9'
p464
sg361
Nsg362
g363
sbsg200
g0
(g348
g2
Ntp465
Rp466
(dp467
g15
I18
sg352
g353
sg354
g200
sg355
g356
sg357
g358
sg359
S'elset_wall_2_1'
p468
sg361
Nsg362
g363
sbsg106
g0
(g348
g2
Ntp469
Rp470
(dp471
g15
I5
sg352
g353
sg354
g106
sg355
g380
sg357
g381
sg359
S'elset_plate_6'
p472
sg361
Nsg362
g363
sbsg170
g0
(g348
g2
Ntp473
Rp474
(dp475
g15
I13
sg352
g353
sg354
g170
sg355
g356
sg357
g367
sg359
S'elset_wall_1_5'
p476
sg361
Nsg362
g363
sbssS'interactions'
p477
(dp478
sS'loads'
p479
(dp480
S'earthPressure_liveLoad'
p481
g0
(ccompas_fea.structure.load
AreaLoad
p482
g2
Ntp483
Rp484
(dp485
g15
I6
sS'__name__'
p486
S'AreaLoad'
p487
sS'name'
p488
g481
sS'axes'
p489
S'local'
p490
sS'components'
p491
(dp492
g23
F0.037699999999999997
sg27
I0
sg28
I0
ssS'nodes'
p493
(lp494
sS'elements'
p495
(lp496
I20
aI21
aI23
aI24
aI26
aI27
asS'attr_list'
p497
(lp498
S'name'
p499
aS'axes'
p500
aS'components'
p501
aS'nodes'
p502
aS'elements'
p503
asbsS'Gleis1_BAHNLASTEN_Lasteinzugsflache_Lastblock_-2'
p504
g0
(g482
g2
Ntp505
Rp506
(dp507
g15
I5
sg486
g487
sg488
g504
sg489
S'global'
p508
sg491
(dp509
g23
F0.057018757369393998
sg27
I0
sg28
I0
ssg493
g494
sg495
(lp510
I5
aI9
asg497
(lp511
g499
ag500
ag501
ag502
ag503
asbsS'Gleis1_EIGENGEWICHTE_SCHIENE_Lasteinzugsflache'
p512
g0
(g482
g2
Ntp513
Rp514
(dp515
g15
I3
sg486
g487
sg488
g512
sg489
g508
sg491
(dp516
g23
F0.0021194239106911887
sg27
I0
sg28
I0
ssg493
g494
sg495
(lp517
I5
aI9
aI10
aI17
asg497
(lp518
g499
ag500
ag501
ag502
ag503
asbsS'earthPressure_backfill'
p519
g0
(g482
g2
Ntp520
Rp521
(dp522
g15
I2
sg486
g487
sg488
g519
sg489
g490
sg491
(dp523
g23
F0.060840351105627195
sg27
I0
sg28
I0
ssg493
g494
sg495
(lp524
g430
ag368
ag402
ag418
ag476
ag394
ag456
ag372
ag422
ag468
ag376
ag410
ag360
ag386
ag414
ag460
ag438
ag464
asg497
(lp525
g499
ag500
ag501
ag502
ag503
asbsS'earthPressure_gravel'
p526
g0
(g482
g2
Ntp527
Rp528
(dp529
g15
I1
sg486
g487
sg488
g526
sg489
g508
sg491
(dp530
g23
F0.013500000000000002
sg27
I0
sg28
I0
ssg493
g494
sg495
(lp531
g382
ag446
ag406
ag442
ag398
ag472
ag434
ag426
ag390
asg497
(lp532
g499
ag500
ag501
ag502
ag503
asbsS'Gleis1_BAHNLASTEN_Lasteinzugsflache_Lastblock_-1'
p533
g0
(g482
g2
Ntp534
Rp535
(dp536
g15
I4
sg486
g487
sg488
g533
sg489
g508
sg491
(dp537
g23
F0.057018757369393998
sg27
I0
sg28
I0
ssg493
g494
sg495
(lp538
I17
asg497
(lp539
g499
ag500
ag501
ag502
ag503
asbsS'load_gravity'
p540
g0
(ccompas_fea.structure.load
GravityLoad
p541
g2
Ntp542
Rp543
(dp544
g15
I0
sg486
S'GravityLoad'
p545
sg488
g540
sg489
g508
sg491
(dp546
g23
F1.3500000000000001
sg27
F0.0
sg28
F0.0
ssg493
g494
sg495
(lp547
g382
ag446
ag406
ag442
ag398
ag472
ag434
ag426
ag390
ag430
ag368
ag402
ag418
ag476
ag394
ag456
ag372
ag422
ag468
ag376
ag410
ag360
ag386
ag414
ag460
ag438
ag464
asg497
(lp548
g499
ag500
ag501
ag502
ag503
aS'g'
p549
asS'g'
p550
F-9.8100000000000005
sbssS'materials'
p551
(dp552
g450
g0
(ccompas_fea.structure.material
MPCStiff
p553
g2
Ntp554
Rp555
(dp556
g15
I2
sS'__name__'
p557
S'MPCStiff'
p558
sS'name'
p559
g450
sS'attr_list'
p560
(lp561
g499
aS'E'
p562
aS'v'
p563
aS'G'
p564
aS'p'
p565
aS'tension'
p566
aS'compression'
p567
asS'E'
p568
(dp569
g562
L10000000000000L
ssS'v'
p570
(dp571
g563
F0.29999999999999999
ssS'G'
p572
(dp573
g564
F3846153846153.8462
ssS'p'
p574
F0.10000000000000001
sS'tension'
p575
I01
sS'compression'
p576
I01
sbsg356
g0
(ccompas_fea.structure.material
CMMUsermat
p577
g2
Ntp578
Rp579
(dp580
g15
I1
sg557
S'CMMUsermat'
p581
sg559
g356
sg560
(lp582
g499
ag562
ag563
ag564
ag565
aS'R_Rohr'
p583
aS'rho'
p584
aS'oo'
p585
aS'uu'
p586
aS'beton'
p587
aS'fcc'
p588
aS'vc'
p589
aS'ecu'
p590
aS'k_E'
p591
aS'theta_b0'
p592
aS'theta_b1'
p593
aS'k_riss'
p594
aS'Entfestigung'
p595
aS'lambdaTS'
p596
aS'srmx'
p597
aS'srmy'
p598
aS'Begrenzung'
p599
aS'KritQ'
p600
aS'winkelD'
p601
aS'k_vr'
p602
aS'fswy'
p603
aS'stahl1'
p604
aS'zm1'
p605
aS'fsy1'
p606
aS'fsu1'
p607
aS'esu1'
p608
aS'esv1'
p609
aS'Es1'
p610
aS'ka1'
p611
aS'kb1'
p612
aS'kc1'
p613
aS'as1'
p614
aS'dm1'
p615
aS'psi1'
p616
aS'stahl2'
p617
aS'zm2'
p618
aS'fsy2'
p619
aS'fsu2'
p620
aS'esu2'
p621
aS'esv2'
p622
aS'Es2'
p623
aS'ka2'
p624
aS'kb2'
p625
aS'kc2'
p626
aS'as2'
p627
aS'dm2'
p628
aS'psi2'
p629
aS'stahl3'
p630
aS'zm3'
p631
aS'fsy3'
p632
aS'fsu3'
p633
aS'esu3'
p634
aS'esv3'
p635
aS'Es3'
p636
aS'ka3'
p637
aS'kb3'
p638
aS'kc3'
p639
aS'as3'
p640
aS'dm3'
p641
aS'psi3'
p642
aS'stahl4'
p643
aS'zm4'
p644
aS'fsy4'
p645
aS'fsu4'
p646
aS'esu4'
p647
aS'esv4'
p648
aS'Es4'
p649
aS'ka4'
p650
aS'kb4'
p651
aS'kc4'
p652
aS'as4'
p653
aS'dm4'
p654
aS'psi4'
p655
asS'E'
p656
(dp657
S'E'
p658
I200000
ssS'v'
p659
(dp660
S'v'
p661
F0.10000000000000001
ssS'G'
p662
(dp663
g564
F90909.090909090897
ssS'p'
p664
F2.5000000000000002e-06
sS'R_Rohr'
p665
(dp666
g583
I-1
ssS'rho'
p667
(dp668
g584
F2.5000000000000002e-06
ssS'oo'
p669
(dp670
g585
I30
ssS'uu'
p671
(dp672
g586
I30
ssS'beton'
p673
(dp674
g587
I2
ssS'fcc'
p675
(dp676
g588
I33
ssS'vc'
p677
(dp678
g589
I0
ssS'ecu'
p679
(dp680
g590
F-0.002
ssS'k_E'
p681
(dp682
g591
I10000
ssS'theta_b0'
p683
(dp684
g592
I2
ssS'theta_b1'
p685
(dp686
g593
I1
ssS'k_riss'
p687
(dp688
g594
I0
ssS'Entfestigung'
p689
(dp690
g595
I0
ssS'lambdaTS'
p691
(dp692
g596
F0.67000000000000004
ssS'srmx'
p693
(dp694
g597
I1
ssS'srmy'
p695
(dp696
g598
I1
ssS'Begrenzung'
p697
(dp698
g599
I2
ssS'KritQ'
p699
(dp700
g600
I0
ssS'winkelD'
p701
(dp702
g601
I45
ssS'k_vr'
p703
(dp704
g602
I1
ssS'fswy'
p705
(dp706
g603
I500
ssS'stahl1'
p707
(dp708
g604
I1
ssS'zm1'
p709
(dp710
g605
I2
ssS'fsy1'
p711
(dp712
g606
I360
ssS'fsu1'
p713
(dp714
g607
I389
ssS'esu1'
p715
(dp716
g608
F0.044999999999999998
ssS'esv1'
p717
(dp718
g609
F0.02
ssS'Es1'
p719
(dp720
g610
I200000
ssS'ka1'
p721
(dp722
g611
I-1
ssS'kb1'
p723
(dp724
g612
I-1
ssS'kc1'
p725
(dp726
g613
I-1
ssS'as1'
p727
(dp728
g614
F0.20499716248931713
ssS'dm1'
p729
(dp730
g615
F10.800576652910664
ssS'psi1'
p731
(dp732
g616
I90
ssS'stahl2'
p733
(dp734
g617
I1
ssS'zm2'
p735
(dp736
g618
I2
ssS'fsy2'
p737
(dp738
g619
I360
ssS'fsu2'
p739
(dp740
g620
I389
ssS'esu2'
p741
(dp742
g621
F0.044999999999999998
ssS'esv2'
p743
(dp744
g622
F0.02
ssS'Es2'
p745
(dp746
g623
I200000
ssS'ka2'
p747
(dp748
g624
I-1
ssS'kb2'
p749
(dp750
g625
I-1
ssS'kc2'
p751
(dp752
g626
I-1
ssS'as2'
p753
(dp754
g627
F0.25305589270665474
ssS'dm2'
p755
(dp756
g628
F12.0
ssS'psi2'
p757
(dp758
g629
I0
ssS'stahl3'
p759
(dp760
g630
I1
ssS'zm3'
p761
(dp762
g631
I2
ssS'fsy3'
p763
(dp764
g632
I360
ssS'fsu3'
p765
(dp766
g633
I389
ssS'esu3'
p767
(dp768
g634
F0.044999999999999998
ssS'esv3'
p769
(dp770
g635
F0.02
ssS'Es3'
p771
(dp772
g636
I200000
ssS'ka3'
p773
(dp774
g637
I-1
ssS'kb3'
p775
(dp776
g638
I-1
ssS'kc3'
p777
(dp778
g639
I-1
ssS'as3'
p779
(dp780
g640
F0.25305589270665474
ssS'dm3'
p781
(dp782
g641
F12.0
ssS'psi3'
p783
(dp784
g642
I0
ssS'stahl4'
p785
(dp786
g643
I1
ssS'zm4'
p787
(dp788
g644
I2
ssS'fsy4'
p789
(dp790
g645
I360
ssS'fsu4'
p791
(dp792
g646
I389
ssS'esu4'
p793
(dp794
g647
F0.044999999999999998
ssS'esv4'
p795
(dp796
g648
F0.02
ssS'Es4'
p797
(dp798
g649
I200000
ssS'ka4'
p799
(dp800
g650
I-1
ssS'kb4'
p801
(dp802
g651
I-1
ssS'kc4'
p803
(dp804
g652
I-1
ssS'as4'
p805
(dp806
g653
F0.2250673187002146
ssS'dm4'
p807
(dp808
g654
F11.316945832264491
ssS'psi4'
p809
(dp810
g655
I90
ssbsg380
g0
(g577
g2
Ntp811
Rp812
(dp813
g15
I0
sg557
g581
sg559
g380
sg560
(lp814
g499
ag562
ag563
ag564
ag565
ag583
ag584
ag585
ag586
ag587
ag588
ag589
ag590
ag591
ag592
ag593
ag594
ag595
ag596
ag597
ag598
ag599
ag600
ag601
ag602
ag603
ag604
ag605
ag606
ag607
ag608
ag609
ag610
ag611
ag612
ag613
ag614
ag615
ag616
ag617
ag618
ag619
ag620
ag621
ag622
ag623
ag624
ag625
ag626
ag627
ag628
ag629
ag630
ag631
ag632
ag633
ag634
ag635
ag636
ag637
ag638
ag639
ag640
ag641
ag642
ag643
ag644
ag645
ag646
ag647
ag648
ag649
ag650
ag651
ag652
ag653
ag654
ag655
asg656
(dp815
g658
I200000
ssg659
(dp816
g661
F0.10000000000000001
ssg662
(dp817
g564
F90909.090909090897
ssg664
F2.5000000000000002e-06
sg665
(dp818
g583
I-1
ssg667
(dp819
g584
F2.5000000000000002e-06
ssg669
(dp820
g585
I30
ssg671
(dp821
g586
I30
ssg673
(dp822
g587
I2
ssg675
(dp823
g588
I33
ssg677
(dp824
g589
I0
ssg679
(dp825
g590
F-0.002
ssg681
(dp826
g591
I10000
ssg683
(dp827
g592
I2
ssg685
(dp828
g593
I1
ssg687
(dp829
g594
I0
ssg689
(dp830
g595
I0
ssg691
(dp831
g596
F0.67000000000000004
ssg693
(dp832
g597
I1
ssg695
(dp833
g598
I1
ssg697
(dp834
g599
I2
ssg699
(dp835
g600
I0
ssg701
(dp836
g601
I45
ssg703
(dp837
g602
I1
ssg705
(dp838
g603
I500
ssg707
(dp839
g604
I1
ssg709
(dp840
g605
I2
ssg711
(dp841
g606
I360
ssg713
(dp842
g607
I389
ssg715
(dp843
g608
F0.044999999999999998
ssg717
(dp844
g609
F0.02
ssg719
(dp845
g610
I200000
ssg721
(dp846
g611
I-1
ssg723
(dp847
g612
I-1
ssg725
(dp848
g613
I-1
ssg727
(dp849
g614
F0.88677283470692247
ssg729
(dp850
g615
F11.486722362572285
ssg731
(dp851
g616
I90
ssg733
(dp852
g617
I1
ssg735
(dp853
g618
I2
ssg737
(dp854
g619
I360
ssg739
(dp855
g620
I389
ssg741
(dp856
g621
F0.044999999999999998
ssg743
(dp857
g622
F0.02
ssg745
(dp858
g623
I200000
ssg747
(dp859
g624
I-1
ssg749
(dp860
g625
I-1
ssg751
(dp861
g626
I-1
ssg753
(dp862
g627
F3.556133172124202
ssg755
(dp863
g628
F23.00270670782772
ssg757
(dp864
g629
I0
ssg759
(dp865
g630
I1
ssg761
(dp866
g631
I2
ssg763
(dp867
g632
I360
ssg765
(dp868
g633
I389
ssg767
(dp869
g634
F0.044999999999999998
ssg769
(dp870
g635
F0.02
ssg771
(dp871
g636
I200000
ssg773
(dp872
g637
I-1
ssg775
(dp873
g638
I-1
ssg777
(dp874
g639
I-1
ssg779
(dp875
g640
F0.96779332919036809
ssg781
(dp876
g641
F12.0
ssg783
(dp877
g642
I0
ssg785
(dp878
g643
I1
ssg787
(dp879
g644
I2
ssg789
(dp880
g645
I360
ssg791
(dp881
g646
I389
ssg793
(dp882
g647
F0.044999999999999998
ssg795
(dp883
g648
F0.02
ssg797
(dp884
g649
I200000
ssg799
(dp885
g650
I-1
ssg801
(dp886
g651
I-1
ssg803
(dp887
g652
I-1
ssg805
(dp888
g653
F5.20989412641587
ssg807
(dp889
g654
F27.842253466087193
ssg809
(dp890
g655
I90
ssbssS'misc'
p891
(dp892
sS'name'
p893
S'NLFE_CFB2'
p894
sS'nodes'
p895
(dp896
I0
g0
(ccompas_fea.structure.node
Node
p897
g2
Ntp898
Rp899
(dp900
S'__name__'
p901
S'Node'
p902
sS'key'
p903
I0
sS'x'
p904
F0.0
sS'y'
p905
F0.0
sS'z'
p906
F0.0
sS'ex'
p907
(lp908
I1
aI0
aI0
asS'ey'
p909
(lp910
I0
aI1
aI0
asS'ez'
p911
(lp912
I0
aI0
aI1
asS'mass'
p913
NsbsI1
g0
(g897
g2
Ntp914
Rp915
(dp916
g901
g902
sg903
I1
sg904
F1609.7020454329302
sg905
F0.0
sg906
F0.0
sg907
g908
sg909
g910
sg911
g912
sg913
NsbsI2
g0
(g897
g2
Ntp917
Rp918
(dp919
g901
g902
sg903
I2
sg904
F0.0
sg905
F2351.4728891993605
sg906
F0.0
sg907
g908
sg909
g910
sg911
g912
sg913
NsbsI3
g0
(g897
g2
Ntp920
Rp921
(dp922
g901
g902
sg903
I3
sg904
F1609.7020454329302
sg905
F2351.4728891993605
sg906
F0.0
sg907
g908
sg909
g910
sg911
g912
sg913
NsbsI4
g0
(g897
g2
Ntp923
Rp924
(dp925
g901
g902
sg903
I4
sg904
F0.0
sg905
F4702.9457783987209
sg906
F0.0
sg907
g908
sg909
g910
sg911
g912
sg913
NsbsI5
g0
(g897
g2
Ntp926
Rp927
(dp928
g901
g902
sg903
I5
sg904
F1609.7020454329302
sg905
F4702.9457783987209
sg906
F0.0
sg907
g908
sg909
g910
sg911
g912
sg913
NsbsI6
g0
(g897
g2
Ntp929
Rp930
(dp931
g901
g902
sg903
I6
sg904
F0.0
sg905
F9548.4050652337646
sg906
F0.0
sg907
g908
sg909
g910
sg911
g912
sg913
NsbsI7
g0
(g897
g2
Ntp932
Rp933
(dp934
g901
g902
sg903
I7
sg904
F1609.7020454329302
sg905
F9548.4050652337646
sg906
F0.0
sg907
g908
sg909
g910
sg911
g912
sg913
NsbsI8
g0
(g897
g2
Ntp935
Rp936
(dp937
g901
g902
sg903
I8
sg904
F0.0
sg905
F11899.877954433126
sg906
F0.0
sg907
g908
sg909
g910
sg911
g912
sg913
NsbsI9
g0
(g897
g2
Ntp938
Rp939
(dp940
g901
g902
sg903
I9
sg904
F1609.7020454329302
sg905
F11899.877954433126
sg906
F0.0
sg907
g908
sg909
g910
sg911
g912
sg913
NsbsI10
g0
(g897
g2
Ntp941
Rp942
(dp943
g901
g902
sg903
I10
sg904
F0.0
sg905
F14251.350843632486
sg906
F0.0
sg907
g908
sg909
g910
sg911
g912
sg913
NsbsI11
g0
(g897
g2
Ntp944
Rp945
(dp946
g901
g902
sg903
I11
sg904
F1609.7020454329302
sg905
F14251.350843632486
sg906
F0.0
sg907
g908
sg909
g910
sg911
g912
sg913
NsbsI12
g0
(g897
g2
Ntp947
Rp948
(dp949
g901
g902
sg903
I12
sg904
F3219.4040908658603
sg905
F0.0
sg906
F0.0
sg907
g908
sg909
g910
sg911
g912
sg913
NsbsI13
g0
(g897
g2
Ntp950
Rp951
(dp952
g901
g902
sg903
I13
sg904
F3219.4040908658603
sg905
F2351.4728891993605
sg906
F0.0
sg907
g908
sg909
g910
sg911
g912
sg913
NsbsI14
g0
(g897
g2
Ntp953
Rp954
(dp955
g901
g902
sg903
I14
sg904
F3219.4040908658603
sg905
F4702.9457783987209
sg906
F0.0
sg907
g908
sg909
g910
sg911
g912
sg913
NsbsI15
g0
(g897
g2
Ntp956
Rp957
(dp958
g901
g902
sg903
I15
sg904
F3219.4040908658603
sg905
F9548.4050652337646
sg906
F0.0
sg907
g908
sg909
g910
sg911
g912
sg913
NsbsI16
g0
(g897
g2
Ntp959
Rp960
(dp961
g901
g902
sg903
I16
sg904
F3219.4040908658603
sg905
F11899.877954433126
sg906
F0.0
sg907
g908
sg909
g910
sg911
g912
sg913
NsbsI17
g0
(g897
g2
Ntp962
Rp963
(dp964
g901
g902
sg903
I17
sg904
F3219.4040908658603
sg905
F14251.350843632486
sg906
F0.0
sg907
g908
sg909
g910
sg911
g912
sg913
NsbsI18
g0
(g897
g2
Ntp965
Rp966
(dp967
g901
g902
sg903
I18
sg904
F4877.884986160394
sg905
F0.0
sg906
F0.0
sg907
g908
sg909
g910
sg911
g912
sg913
NsbsI19
g0
(g897
g2
Ntp968
Rp969
(dp970
g901
g902
sg903
I19
sg904
F4877.884986160394
sg905
F2351.4728891993605
sg906
F0.0
sg907
g908
sg909
g910
sg911
g912
sg913
NsbsI20
g0
(g897
g2
Ntp971
Rp972
(dp973
g901
g902
sg903
I20
sg904
F4877.884986160394
sg905
F4702.9457783987209
sg906
F0.0
sg907
g908
sg909
g910
sg911
g912
sg913
NsbsI21
g0
(g897
g2
Ntp974
Rp975
(dp976
g901
g902
sg903
I21
sg904
F4877.884986160394
sg905
F9548.4050652337646
sg906
F0.0
sg907
g908
sg909
g910
sg911
g912
sg913
NsbsI22
g0
(g897
g2
Ntp977
Rp978
(dp979
g901
g902
sg903
I22
sg904
F4877.884986160394
sg905
F11899.877954433126
sg906
F0.0
sg907
g908
sg909
g910
sg911
g912
sg913
NsbsI23
g0
(g897
g2
Ntp980
Rp981
(dp982
g901
g902
sg903
I23
sg904
F4877.884986160394
sg905
F14251.350843632486
sg906
F0.0
sg907
g908
sg909
g910
sg911
g912
sg913
NsbsI24
g0
(g897
g2
Ntp983
Rp984
(dp985
g901
g902
sg903
I24
sg904
F0.0
sg905
F7125.6754218162414
sg906
F0.0
sg907
g908
sg909
g910
sg911
g912
sg913
NsbsI25
g0
(g897
g2
Ntp986
Rp987
(dp988
g901
g902
sg903
I25
sg904
F1609.7020454329299
sg905
F7125.6754218162414
sg906
F0.0
sg907
g908
sg909
g910
sg911
g912
sg913
NsbsI26
g0
(g897
g2
Ntp989
Rp990
(dp991
g901
g902
sg903
I26
sg904
F3219.4040908658599
sg905
F7125.6754218162414
sg906
F0.0
sg907
g908
sg909
g910
sg911
g912
sg913
NsbsI27
g0
(g897
g2
Ntp992
Rp993
(dp994
g901
g902
sg903
I27
sg904
F4877.8849861603931
sg905
F7125.6754218162414
sg906
F0.0
sg907
g908
sg909
g910
sg911
g912
sg913
NsbsI28
g0
(g897
g2
Ntp995
Rp996
(dp997
g901
g902
sg903
I28
sg904
F0.0
sg905
F0.0
sg906
F-2390.1125233402372
sg907
g908
sg909
g910
sg911
g912
sg913
NsbsI29
g0
(g897
g2
Ntp998
Rp999
(dp1000
g901
g902
sg903
I29
sg904
F1609.7020454329299
sg905
F0.0
sg906
F-2390.1125233402372
sg907
g908
sg909
g910
sg911
g912
sg913
NsbsI30
g0
(g897
g2
Ntp1001
Rp1002
(dp1003
g901
g902
sg903
I30
sg904
F0.0
sg905
F0.0
sg906
F-1140.2760229964047
sg907
g908
sg909
g910
sg911
g912
sg913
NsbsI31
g0
(g897
g2
Ntp1004
Rp1005
(dp1006
g901
g902
sg903
I31
sg904
F1609.7020454329299
sg905
F0.0
sg906
F-1140.2760229964047
sg907
g908
sg909
g910
sg911
g912
sg913
NsbsI32
g0
(g897
g2
Ntp1007
Rp1008
(dp1009
g901
g902
sg903
I32
sg904
F3219.4040908658599
sg905
F0.0
sg906
F-2390.1125233402372
sg907
g908
sg909
g910
sg911
g912
sg913
NsbsI33
g0
(g897
g2
Ntp1010
Rp1011
(dp1012
g901
g902
sg903
I33
sg904
F3219.4040908658599
sg905
F0.0
sg906
F-1140.2760229964047
sg907
g908
sg909
g910
sg911
g912
sg913
NsbsI34
g0
(g897
g2
Ntp1013
Rp1014
(dp1015
g901
g902
sg903
I34
sg904
F4877.8849861603903
sg905
F0.0
sg906
F-2390.1125233402372
sg907
g908
sg909
g910
sg911
g912
sg913
NsbsI35
g0
(g897
g2
Ntp1016
Rp1017
(dp1018
g901
g902
sg903
I35
sg904
F4877.8849861603903
sg905
F0.0
sg906
F-1140.2760229964047
sg907
g908
sg909
g910
sg911
g912
sg913
NsbsI36
g0
(g897
g2
Ntp1019
Rp1020
(dp1021
g901
g902
sg903
I36
sg904
F0.0
sg905
F0.0
sg906
F-3677.8228570278225
sg907
g908
sg909
g910
sg911
g912
sg913
NsbsI37
g0
(g897
g2
Ntp1022
Rp1023
(dp1024
g901
g902
sg903
I37
sg904
F1609.7020454329299
sg905
F0.0
sg906
F-3677.8228570278225
sg907
g908
sg909
g910
sg911
g912
sg913
NsbsI38
g0
(g897
g2
Ntp1025
Rp1026
(dp1027
g901
g902
sg903
I38
sg904
F3219.4040908658599
sg905
F0.0
sg906
F-3677.8228570278225
sg907
g908
sg909
g910
sg911
g912
sg913
NsbsI39
g0
(g897
g2
Ntp1028
Rp1029
(dp1030
g901
g902
sg903
I39
sg904
F4877.8849861603903
sg905
F0.0
sg906
F-3677.8228570278225
sg907
g908
sg909
g910
sg911
g912
sg913
NsbsI40
g0
(g897
g2
Ntp1031
Rp1032
(dp1033
g901
g902
sg903
I40
sg904
F0.0
sg905
F0.0
sg906
F-4927.6593573716546
sg907
g908
sg909
g910
sg911
g912
sg913
NsbsI41
g0
(g897
g2
Ntp1034
Rp1035
(dp1036
g901
g902
sg903
I41
sg904
F1609.7020454329299
sg905
F0.0
sg906
F-4927.6593573716546
sg907
g908
sg909
g910
sg911
g912
sg913
NsbsI42
g0
(g897
g2
Ntp1037
Rp1038
(dp1039
g901
g902
sg903
I42
sg904
F3219.4040908658599
sg905
F0.0
sg906
F-4927.6593573716546
sg907
g908
sg909
g910
sg911
g912
sg913
NsbsI43
g0
(g897
g2
Ntp1040
Rp1041
(dp1042
g901
g902
sg903
I43
sg904
F4877.8849861603903
sg905
F0.0
sg906
F-4927.6593573716546
sg907
g908
sg909
g910
sg911
g912
sg913
NsbsI44
g0
(g897
g2
Ntp1043
Rp1044
(dp1045
g901
g902
sg903
I44
sg904
F0.0
sg905
F14251.350843632486
sg906
F-2390.1125233402372
sg907
g908
sg909
g910
sg911
g912
sg913
NsbsI45
g0
(g897
g2
Ntp1046
Rp1047
(dp1048
g901
g902
sg903
I45
sg904
F1609.7020454329299
sg905
F14251.350843632486
sg906
F-2390.1125233402372
sg907
g908
sg909
g910
sg911
g912
sg913
NsbsI46
g0
(g897
g2
Ntp1049
Rp1050
(dp1051
g901
g902
sg903
I46
sg904
F0.0
sg905
F14251.350843632486
sg906
F-1140.2760229964047
sg907
g908
sg909
g910
sg911
g912
sg913
NsbsI47
g0
(g897
g2
Ntp1052
Rp1053
(dp1054
g901
g902
sg903
I47
sg904
F1609.7020454329299
sg905
F14251.350843632486
sg906
F-1140.2760229964047
sg907
g908
sg909
g910
sg911
g912
sg913
NsbsI48
g0
(g897
g2
Ntp1055
Rp1056
(dp1057
g901
g902
sg903
I48
sg904
F3219.4040908658599
sg905
F14251.350843632486
sg906
F-2390.1125233402372
sg907
g908
sg909
g910
sg911
g912
sg913
NsbsI49
g0
(g897
g2
Ntp1058
Rp1059
(dp1060
g901
g902
sg903
I49
sg904
F3219.4040908658599
sg905
F14251.350843632486
sg906
F-1140.2760229964047
sg907
g908
sg909
g910
sg911
g912
sg913
NsbsI50
g0
(g897
g2
Ntp1061
Rp1062
(dp1063
g901
g902
sg903
I50
sg904
F4877.8849861603903
sg905
F14251.350843632486
sg906
F-2390.1125233402372
sg907
g908
sg909
g910
sg911
g912
sg913
NsbsI51
g0
(g897
g2
Ntp1064
Rp1065
(dp1066
g901
g902
sg903
I51
sg904
F4877.8849861603903
sg905
F14251.350843632486
sg906
F-1140.2760229964047
sg907
g908
sg909
g910
sg911
g912
sg913
NsbsI52
g0
(g897
g2
Ntp1067
Rp1068
(dp1069
g901
g902
sg903
I52
sg904
F0.0
sg905
F14251.350843632486
sg906
F-3677.8228570278225
sg907
g908
sg909
g910
sg911
g912
sg913
NsbsI53
g0
(g897
g2
Ntp1070
Rp1071
(dp1072
g901
g902
sg903
I53
sg904
F1609.7020454329299
sg905
F14251.350843632486
sg906
F-3677.8228570278225
sg907
g908
sg909
g910
sg911
g912
sg913
NsbsI54
g0
(g897
g2
Ntp1073
Rp1074
(dp1075
g901
g902
sg903
I54
sg904
F3219.4040908658599
sg905
F14251.350843632486
sg906
F-3677.8228570278225
sg907
g908
sg909
g910
sg911
g912
sg913
NsbsI55
g0
(g897
g2
Ntp1076
Rp1077
(dp1078
g901
g902
sg903
I55
sg904
F4877.8849861603903
sg905
F14251.350843632486
sg906
F-3677.8228570278225
sg907
g908
sg909
g910
sg911
g912
sg913
NsbsI56
g0
(g897
g2
Ntp1079
Rp1080
(dp1081
g901
g902
sg903
I56
sg904
F0.0
sg905
F14251.350843632486
sg906
F-4927.6593573716546
sg907
g908
sg909
g910
sg911
g912
sg913
NsbsI57
g0
(g897
g2
Ntp1082
Rp1083
(dp1084
g901
g902
sg903
I57
sg904
F1609.7020454329299
sg905
F14251.350843632486
sg906
F-4927.6593573716546
sg907
g908
sg909
g910
sg911
g912
sg913
NsbsI58
g0
(g897
g2
Ntp1085
Rp1086
(dp1087
g901
g902
sg903
I58
sg904
F3219.4040908658599
sg905
F14251.350843632486
sg906
F-4927.6593573716546
sg907
g908
sg909
g910
sg911
g912
sg913
NsbsI59
g0
(g897
g2
Ntp1088
Rp1089
(dp1090
g901
g902
sg903
I59
sg904
F4877.8849861603903
sg905
F14251.350843632486
sg906
F-4927.6593573716546
sg907
g908
sg909
g910
sg911
g912
sg913
NsbssS'node_index'
p1091
(dp1092
S'4877.885,4702.946,0.000'
p1093
I20
sS'4877.885,14251.351,-2390.113'
p1094
I50
sS'0.000,14251.351,0.000'
p1095
I10
sS'0.000,0.000,-3677.823'
p1096
I36
sS'3219.404,0.000,-4927.659'
p1097
I42
sS'3219.404,2351.473,0.000'
p1098
I13
sS'1609.702,4702.946,0.000'
p1099
I5
sS'0.000,14251.351,-1140.276'
p1100
I46
sS'0.000,14251.351,-3677.823'
p1101
I52
sS'3219.404,9548.405,0.000'
p1102
I15
sS'4877.885,0.000,-3677.823'
p1103
I39
sS'1609.702,11899.878,0.000'
p1104
I9
sS'0.000,7125.675,0.000'
p1105
I24
sS'3219.404,7125.675,0.000'
p1106
I26
sS'3219.404,0.000,-1140.276'
p1107
I33
sS'1609.702,7125.675,0.000'
p1108
I25
sS'4877.885,9548.405,0.000'
p1109
I21
sS'4877.885,0.000,-2390.113'
p1110
I34
sS'4877.885,14251.351,-3677.823'
p1111
I55
sS'3219.404,0.000,-2390.113'
p1112
I32
sS'4877.885,0.000,-4927.659'
p1113
I43
sS'4877.885,14251.351,-4927.659'
p1114
I59
sS'1609.702,0.000,-2390.113'
p1115
I29
sS'1609.702,2351.473,0.000'
p1116
I3
sS'0.000,9548.405,0.000'
p1117
I6
sS'0.000,0.000,0.000'
p1118
I0
sS'3219.404,11899.878,0.000'
p1119
I16
sS'1609.702,9548.405,0.000'
p1120
I7
sS'1609.702,14251.351,0.000'
p1121
I11
sS'4877.885,2351.473,0.000'
p1122
I19
sS'0.000,14251.351,-2390.113'
p1123
I44
sS'1609.702,0.000,0.000'
p1124
I1
sS'1609.702,0.000,-4927.659'
p1125
I41
sS'0.000,14251.351,-4927.659'
p1126
I56
sS'4877.885,7125.675,0.000'
p1127
I27
sS'4877.885,0.000,0.000'
p1128
I18
sS'0.000,2351.473,0.000'
p1129
I2
sS'3219.404,14251.351,0.000'
p1130
I17
sS'1609.702,0.000,-1140.276'
p1131
I31
sS'0.000,0.000,-2390.113'
p1132
I28
sS'3219.404,0.000,0.000'
p1133
I12
sS'0.000,0.000,-4927.659'
p1134
I40
sS'0.000,4702.946,0.000'
p1135
I4
sS'4877.885,11899.878,0.000'
p1136
I22
sS'3219.404,14251.351,-2390.113'
p1137
I48
sS'4877.885,14251.351,0.000'
p1138
I23
sS'3219.404,14251.351,-3677.823'
p1139
I54
sS'3219.404,0.000,-3677.823'
p1140
I38
sS'1609.702,14251.351,-2390.113'
p1141
I45
sS'4877.885,14251.351,-1140.276'
p1142
I51
sS'0.000,11899.878,0.000'
p1143
I8
sS'1609.702,14251.351,-3677.823'
p1144
I53
sS'1609.702,14251.351,-4927.659'
p1145
I57
sS'3219.404,14251.351,-4927.659'
p1146
I58
sS'4877.885,0.000,-1140.276'
p1147
I35
sS'1609.702,0.000,-3677.823'
p1148
I37
sS'3219.404,14251.351,-1140.276'
p1149
I49
sS'0.000,0.000,-1140.276'
p1150
I30
sS'3219.404,4702.946,0.000'
p1151
I14
sS'1609.702,14251.351,-1140.276'
p1152
I47
ssS'path'
p1153
S'C:\\Temp\\'
p1154
sS'results'
p1155
(dp1156
S'step_2'
p1157
S'ERROR'
p1158
sS'step_3'
p1159
g1158
sS'step_4'
p1160
g1158
sS'step_1'
p1161
g1158
ssS'sections'
p1162
(dp1163
g367
g0
(ccompas_fea.structure.section
ShellSection
p1164
g2
Ntp1165
Rp1166
(dp1167
g15
I1
sS'__name__'
p1168
S'ShellSection'
p1169
sS'name'
p1170
g367
sS'geometry'
p1171
(dp1172
S't'
p1173
F832.91107170043074
ssS'loc_coords_OR'
p1174
(dp1175
S'ORxyz'
p1176
(lp1177
I0
aI0
aF-3787.3833343800002
assS'loc_coords_XA'
p1178
(dp1179
S'XAxyz'
p1180
(lp1181
I1
aI0
aF-3787.3833343800002
assS'loc_coords_YA'
p1182
(dp1183
S'YAxyz'
p1184
(lp1185
F3787.3833343800002
aF-3787.3833343800002
aF-3786.3833343800002
assS'loc_coords_EV_XA'
p1186
(dp1187
S'EV_XA'
p1188
(lp1189
F1.0
aF0.0
aF0.0
assS'loc_coords_EV_YA'
p1190
(dp1191
S'EV_YA'
p1192
(lp1193
F0.70710676886269563
aF-0.70710676886269563
aF0.0001867006073676062
assS'loc_coords_EV_ZA'
p1194
(dp1195
S'EV_ZA'
p1196
(lp1197
F0.0
aF-1.0
aF0.0
assS'nr_layers'
p1198
(dp1199
S'nn'
p1200
F78.0
ssS'offset'
p1201
(dp1202
S'mode'
p1203
S'mid'
p1204
ssbsg381
g0
(g1164
g2
Ntp1205
Rp1206
(dp1207
g15
I0
sg1168
g1169
sg1170
g381
sg1171
(dp1208
g1173
F1140.2760229964047
ssg1174
(dp1209
g1176
(lp1210
I0
aI0
aI0
assg1178
(dp1211
g1180
(lp1212
I1
aI0
aI0
assg1182
(dp1213
g1184
(lp1214
F0.0
aF1.0
aF0.0
assg1186
(dp1215
g1188
(lp1216
F1.0
aF0.0
aF0.0
assg1190
(dp1217
g1192
(lp1218
F0.0
aF1.0
aF0.0
assg1194
(dp1219
g1196
(lp1220
F0.0
aF0.0
aF1.0
assg1198
(dp1221
g1200
F73.0
ssg1201
(dp1222
g1203
S'top'
p1223
ssbsg358
g0
(g1164
g2
Ntp1224
Rp1225
(dp1226
g15
I2
sg1168
g1169
sg1170
g358
sg1171
(dp1227
g1173
F832.91107170043074
ssg1174
(dp1228
g1176
(lp1229
I0
aF14251.350843599999
aF-3787.3833343800002
assg1178
(dp1230
g1180
(lp1231
I1
aF14251.350843599999
aF-3787.3833343800002
assg1182
(dp1232
g1184
(lp1233
F-3787.3833343759179
aF10463.96750922
aF-18039.734177980001
assg1186
(dp1234
g1188
(lp1235
F1.0
aF0.0
aF0.0
assg1190
(dp1236
g1192
(lp1237
F-0.24875146090628447
aF-0.24875146090655256
aF-0.93607981571757293
assg1194
(dp1238
g1196
(lp1239
F0.0
aF1.0
aF0.0
assg1198
(dp1240
g1200
F78.0
ssg1201
(dp1241
g1203
g1204
ssbsg451
g0
(ccompas_fea.structure.section
MPCSection
p1242
g2
Ntp1243
Rp1244
(dp1245
g15
I3
sg1168
S'MPCSection'
p1246
sg1170
g451
sg1171
NsS'nr_layers'
p1247
NsbssS'sets'
p1248
(dp1249
g476
g0
(ccompas_fea.structure.set
Set
p1250
g2
Ntp1251
Rp1252
(dp1253
S'__name__'
p1254
S'Set'
p1255
sS'name'
p1256
g476
sS'type'
p1257
S'element'
p1258
sS'selection'
p1259
(lp1260
I22
asS'index'
p1261
I13
sbsg452
g0
(g1250
g2
Ntp1262
Rp1263
(dp1264
g1254
g1255
sg1256
g452
sg1257
g1258
sg1259
(lp1265
I36
aI37
aI38
aI39
aI40
aI41
aI42
aI43
asg1261
I27
sbsg360
g0
(g1250
g2
Ntp1266
Rp1267
(dp1268
g1254
g1255
sg1256
g360
sg1257
g1258
sg1259
(lp1269
I30
asg1261
I21
sbsg406
g0
(g1250
g2
Ntp1270
Rp1271
(dp1272
g1254
g1255
sg1256
g406
sg1257
g1258
sg1259
(lp1273
I4
aI5
asg1261
I2
sbsg372
g0
(g1250
g2
Ntp1274
Rp1275
(dp1276
g1254
g1255
sg1256
g372
sg1257
g1258
sg1259
(lp1277
I25
asg1261
I16
sbsg468
g0
(g1250
g2
Ntp1278
Rp1279
(dp1280
g1254
g1255
sg1256
g468
sg1257
g1258
sg1259
(lp1281
I27
asg1261
I18
sbsg446
g0
(g1250
g2
Ntp1282
Rp1283
(dp1284
g1254
g1255
sg1256
g446
sg1257
g1258
sg1259
(lp1285
I2
aI3
asg1261
I1
sbsg382
g0
(g1250
g2
Ntp1286
Rp1287
(dp1288
g1254
g1255
sg1256
g382
sg1257
g1258
sg1259
(lp1289
I0
aI1
asg1261
I0
sbsg434
g0
(g1250
g2
Ntp1290
Rp1291
(dp1292
g1254
g1255
sg1256
g434
sg1257
g1258
sg1259
(lp1293
I12
aI13
asg1261
I6
sbsg472
g0
(g1250
g2
Ntp1294
Rp1295
(dp1296
g1254
g1255
sg1256
g472
sg1257
g1258
sg1259
(lp1297
I10
aI11
asg1261
I5
sbsg398
g0
(g1250
g2
Ntp1298
Rp1299
(dp1300
g1254
g1255
sg1256
g398
sg1257
g1258
sg1259
(lp1301
I8
aI9
asg1261
I4
sbsg442
g0
(g1250
g2
Ntp1302
Rp1303
(dp1304
g1254
g1255
sg1256
g442
sg1257
g1258
sg1259
(lp1305
I6
aI7
asg1261
I3
sbsg390
g0
(g1250
g2
Ntp1306
Rp1307
(dp1308
g1254
g1255
sg1256
g390
sg1257
g1258
sg1259
(lp1309
I16
aI17
asg1261
I8
sbsg426
g0
(g1250
g2
Ntp1310
Rp1311
(dp1312
g1254
g1255
sg1256
g426
sg1257
g1258
sg1259
(lp1313
I14
aI15
asg1261
I7
sbsg402
g0
(g1250
g2
Ntp1314
Rp1315
(dp1316
g1254
g1255
sg1256
g402
sg1257
g1258
sg1259
(lp1317
I20
asg1261
I11
sbsg464
g0
(g1250
g2
Ntp1318
Rp1319
(dp1320
g1254
g1255
sg1256
g464
sg1257
g1258
sg1259
(lp1321
I35
asg1261
I26
sbsg414
g0
(g1250
g2
Ntp1322
Rp1323
(dp1324
g1254
g1255
sg1256
g414
sg1257
g1258
sg1259
(lp1325
I32
asg1261
I23
sbsg394
g0
(g1250
g2
Ntp1326
Rp1327
(dp1328
g1254
g1255
sg1256
g394
sg1257
g1258
sg1259
(lp1329
I23
asg1261
I14
sbsg410
g0
(g1250
g2
Ntp1330
Rp1331
(dp1332
g1254
g1255
sg1256
g410
sg1257
g1258
sg1259
(lp1333
I29
asg1261
I20
sbsg430
g0
(g1250
g2
Ntp1334
Rp1335
(dp1336
g1254
g1255
sg1256
g430
sg1257
g1258
sg1259
(lp1337
I18
asg1261
I9
sbsg422
g0
(g1250
g2
Ntp1338
Rp1339
(dp1340
g1254
g1255
sg1256
g422
sg1257
g1258
sg1259
(lp1341
I26
asg1261
I17
sbsg35
g0
(g1250
g2
Ntp1342
Rp1343
(dp1344
g1254
g1255
sg1256
g35
sg1257
S'node'
p1345
sg1259
(lp1346
I59
aI58
aI57
aI56
asg1261
I29
sbsg418
g0
(g1250
g2
Ntp1347
Rp1348
(dp1349
g1254
g1255
sg1256
g418
sg1257
g1258
sg1259
(lp1350
I21
asg1261
I12
sbsg438
g0
(g1250
g2
Ntp1351
Rp1352
(dp1353
g1254
g1255
sg1256
g438
sg1257
g1258
sg1259
(lp1354
I34
asg1261
I25
sbsg386
g0
(g1250
g2
Ntp1355
Rp1356
(dp1357
g1254
g1255
sg1256
g386
sg1257
g1258
sg1259
(lp1358
I31
asg1261
I22
sbsg20
g0
(g1250
g2
Ntp1359
Rp1360
(dp1361
g1254
g1255
sg1256
g20
sg1257
g1345
sg1259
(lp1362
I43
aI42
aI41
aI40
asg1261
I28
sbsg456
g0
(g1250
g2
Ntp1363
Rp1364
(dp1365
g1254
g1255
sg1256
g456
sg1257
g1258
sg1259
(lp1366
I24
asg1261
I15
sbsg376
g0
(g1250
g2
Ntp1367
Rp1368
(dp1369
g1254
g1255
sg1256
g376
sg1257
g1258
sg1259
(lp1370
I28
asg1261
I19
sbsg368
g0
(g1250
g2
Ntp1371
Rp1372
(dp1373
g1254
g1255
sg1256
g368
sg1257
g1258
sg1259
(lp1374
I19
asg1261
I10
sbsg460
g0
(g1250
g2
Ntp1375
Rp1376
(dp1377
g1254
g1255
sg1256
g460
sg1257
g1258
sg1259
(lp1378
I33
asg1261
I24
sbssS'steps'
p1379
(dp1380
g1157
g0
(ccompas_fea.structure.step
GeneralStep
p1381
g2
Ntp1382
Rp1383
(dp1384
g15
I1
sS'__name__'
p1385
S'GeneralStep'
p1386
sS'name'
p1387
g1157
sS'attr_list'
p1388
(lp1389
g499
aS'increments'
p1390
aS'iterations'
p1391
aS'factor'
p1392
aS'nlgeom'
p1393
aS'nlmat'
p1394
aS'displacements'
p1395
aS'loads'
p1396
aS'type'
p1397
aS'tolerance'
p1398
aS'modify'
p1399
asS'increments'
p1400
I1
sS'iterations'
p1401
I100
sS'tolerance'
p1402
F0.01
sS'factor'
p1403
F1.0
sS'nlgeom'
p1404
I00
sS'nlmat'
p1405
I01
sS'displacements'
p1406
(lp1407
sS'loads'
p1408
(lp1409
g540
asS'modify'
p1410
I01
sS'type'
p1411
S'static'
p1412
sbsg1159
g0
(g1381
g2
Ntp1413
Rp1414
(dp1415
g15
I2
sg1385
g1386
sg1387
g1159
sg1388
(lp1416
g499
ag1390
ag1391
ag1392
ag1393
ag1394
ag1395
ag1396
ag1397
ag1398
ag1399
asg1400
I1
sg1401
I100
sg1402
F0.01
sg1403
F1.0
sg1404
I00
sg1405
I01
sg1406
(lp1417
sg1408
(lp1418
g526
ag519
ag512
asg1410
I01
sg1411
g1412
sbsg1160
g0
(g1381
g2
Ntp1419
Rp1420
(dp1421
g15
I3
sg1385
g1386
sg1387
g1160
sg1388
(lp1422
g499
ag1390
ag1391
ag1392
ag1393
ag1394
ag1395
ag1396
ag1397
ag1398
ag1399
asg1400
I1
sg1401
I100
sg1402
F0.01
sg1403
F1.0
sg1404
I00
sg1405
I01
sg1406
(lp1423
sg1408
(lp1424
g533
ag504
ag481
asg1410
I01
sg1411
g1412
sbsg1161
g0
(g1381
g2
Ntp1425
Rp1426
(dp1427
g15
I0
sg1385
g1386
sg1387
g1161
sg1388
(lp1428
g499
ag1390
ag1391
ag1392
ag1393
ag1394
ag1395
ag1396
ag1397
ag1398
ag1399
asg1400
I1
sg1401
I100
sg1402
F0.01
sg1403
F1.0
sg1404
I00
sg1405
I01
sg1406
(lp1429
g10
ag31
asg1408
(lp1430
sg1410
I01
sg1411
g1412
sbssS'loc_coor'
p1431
(dp1432
sS'steps_order'
p1433
(lp1434
g1161
ag1157
ag1159
ag1160
asS'tol'
p1435
S'3'
p1436
sS'virtual_nodes'
p1437
(dp1438
sS'virtual_node_index'
p1439
(dp1440
sS'virtual_elements'
p1441
(dp1442
sS'virtual_element_index'
p1443
(dp1444
sb.