ccopy_reg
_reconstructor
p0
(ccompas_fea.structure.structure
Structure
p1
c__builtin__
object
p2
Ntp3
Rp4
(dp5
S'constraints'
p6
(dp7
sS'displacements'
p8
(dp9
S'nset_pinned_set_disp_1'
p10
g0
(ccompas_fea.structure.displacement
GeneralDisplacement
p11
g2
Ntp12
Rp13
(dp14
S'index'
p15
I0
sS'__name__'
p16
S'GeneralDisplacement'
p17
sS'name'
p18
g10
sS'nodes'
p19
S'nset_support_wall1'
p20
sS'components'
p21
(dp22
S'z'
p23
I0
sS'xx'
p24
I0
sS'zz'
p25
I0
sS'yy'
p26
I0
sS'y'
p27
I0
sS'x'
p28
I0
ssS'axes'
p29
S'global'
p30
sbsS'nset_pinned_set_disp_2'
p31
g0
(g11
g2
Ntp32
Rp33
(dp34
g15
I1
sg16
g17
sg18
g31
sg19
S'nset_support_wall2'
p35
sg21
(dp36
g23
I0
sg24
I0
sg25
I0
sg26
I0
sg27
I0
sg28
I0
ssg29
g30
sbssS'elements'
p37
(dp38
I0
g0
(ccompas_fea.structure.element
ShellElement
p39
g2
Ntp40
Rp41
(dp42
S'mass'
p43
NsS'__name__'
p44
S'ShellElement'
p45
sS'nodes'
p46
(lp47
I0
aI1
aI3
aI2
asS'number'
p48
I0
sS'thermal'
p49
I00
sS'axes'
p50
(dp51
S'ey'
p52
NsS'ez'
p53
NsS'ex'
p54
NssS'element_property'
p55
S'elset_plate_1_element_prop'
p56
sbsI1
g0
(g39
g2
Ntp57
Rp58
(dp59
g43
Nsg44
g45
sg46
(lp60
I2
aI3
aI5
aI4
asg48
I1
sg49
I00
sg50
g51
sg55
g56
sbsI2
g0
(g39
g2
Ntp61
Rp62
(dp63
g43
Nsg44
g45
sg46
(lp64
I6
aI7
aI9
aI8
asg48
I2
sg49
I00
sg50
(dp65
g52
Nsg53
Nsg54
Nssg55
S'elset_plate_2_element_prop'
p66
sbsI3
g0
(g39
g2
Ntp67
Rp68
(dp69
g43
Nsg44
g45
sg46
(lp70
I8
aI9
aI11
aI10
asg48
I3
sg49
I00
sg50
g65
sg55
g66
sbsI4
g0
(g39
g2
Ntp71
Rp72
(dp73
g43
Nsg44
g45
sg46
(lp74
I1
aI12
aI13
aI3
asg48
I4
sg49
I00
sg50
(dp75
g52
Nsg53
Nsg54
Nssg55
S'elset_plate_3_element_prop'
p76
sbsI5
g0
(g39
g2
Ntp77
Rp78
(dp79
g43
Nsg44
g45
sg46
(lp80
I3
aI13
aI14
aI5
asg48
I5
sg49
I00
sg50
g75
sg55
g76
sbsI6
g0
(g39
g2
Ntp81
Rp82
(dp83
g43
Nsg44
g45
sg46
(lp84
I7
aI15
aI16
aI9
asg48
I6
sg49
I00
sg50
(dp85
g52
Nsg53
Nsg54
Nssg55
S'elset_plate_4_element_prop'
p86
sbsI7
g0
(g39
g2
Ntp87
Rp88
(dp89
g43
Nsg44
g45
sg46
(lp90
I9
aI16
aI17
aI11
asg48
I7
sg49
I00
sg50
g85
sg55
g86
sbsI8
g0
(g39
g2
Ntp91
Rp92
(dp93
g43
Nsg44
g45
sg46
(lp94
I12
aI18
aI19
aI13
asg48
I8
sg49
I00
sg50
(dp95
g52
Nsg53
Nsg54
Nssg55
S'elset_plate_5_element_prop'
p96
sbsI9
g0
(g39
g2
Ntp97
Rp98
(dp99
g43
Nsg44
g45
sg46
(lp100
I13
aI19
aI20
aI14
asg48
I9
sg49
I00
sg50
g95
sg55
g96
sbsI10
g0
(g39
g2
Ntp101
Rp102
(dp103
g43
Nsg44
g45
sg46
(lp104
I15
aI21
aI22
aI16
asg48
I10
sg49
I00
sg50
(dp105
g52
Nsg53
Nsg54
Nssg55
S'elset_plate_6_element_prop'
p106
sbsI11
g0
(g39
g2
Ntp107
Rp108
(dp109
g43
Nsg44
g45
sg46
(lp110
I16
aI22
aI23
aI17
asg48
I11
sg49
I00
sg50
g105
sg55
g106
sbsI12
g0
(g39
g2
Ntp111
Rp112
(dp113
g43
Nsg44
g45
sg46
(lp114
I4
aI5
aI25
aI24
asg48
I12
sg49
I00
sg50
(dp115
g52
Nsg53
Nsg54
Nssg55
S'elset_plate_7_element_prop'
p116
sbsI13
g0
(g39
g2
Ntp117
Rp118
(dp119
g43
Nsg44
g45
sg46
(lp120
I24
aI25
aI7
aI6
asg48
I13
sg49
I00
sg50
g115
sg55
g116
sbsI14
g0
(g39
g2
Ntp121
Rp122
(dp123
g43
Nsg44
g45
sg46
(lp124
I5
aI14
aI26
aI25
asg48
I14
sg49
I00
sg50
(dp125
g52
Nsg53
Nsg54
Nssg55
S'elset_plate_8_element_prop'
p126
sbsI15
g0
(g39
g2
Ntp127
Rp128
(dp129
g43
Nsg44
g45
sg46
(lp130
I25
aI26
aI15
aI7
asg48
I15
sg49
I00
sg50
g125
sg55
g126
sbsI16
g0
(g39
g2
Ntp131
Rp132
(dp133
g43
Nsg44
g45
sg46
(lp134
I14
aI20
aI27
aI26
asg48
I16
sg49
I00
sg50
(dp135
g52
Nsg53
Nsg54
Nssg55
S'elset_plate_9_element_prop'
p136
sbsI17
g0
(g39
g2
Ntp137
Rp138
(dp139
g43
Nsg44
g45
sg46
(lp140
I26
aI27
aI21
aI15
asg48
I17
sg49
I00
sg50
g135
sg55
g136
sbsI18
g0
(g39
g2
Ntp141
Rp142
(dp143
g43
Nsg44
g45
sg46
(lp144
I28
aI29
aI31
aI30
asg48
I18
sg49
I00
sg50
(dp145
g52
Nsg53
Nsg54
Nssg55
S'elset_wall_1_1_element_prop'
p146
sbsI19
g0
(g39
g2
Ntp147
Rp148
(dp149
g43
Nsg44
g45
sg46
(lp150
I29
aI32
aI33
aI31
asg48
I19
sg49
I00
sg50
(dp151
g52
Nsg53
Nsg54
Nssg55
S'elset_wall_1_2_element_prop'
p152
sbsI20
g0
(g39
g2
Ntp153
Rp154
(dp155
g43
Nsg44
g45
sg46
(lp156
I32
aI34
aI35
aI33
asg48
I20
sg49
I00
sg50
(dp157
g52
Nsg53
Nsg54
Nssg55
S'elset_wall_1_3_element_prop'
p158
sbsI21
g0
(g39
g2
Ntp159
Rp160
(dp161
g43
Nsg44
g45
sg46
(lp162
I36
aI37
aI29
aI28
asg48
I21
sg49
I00
sg50
(dp163
g52
Nsg53
Nsg54
Nssg55
S'elset_wall_1_4_element_prop'
p164
sbsI22
g0
(g39
g2
Ntp165
Rp166
(dp167
g43
Nsg44
g45
sg46
(lp168
I37
aI38
aI32
aI29
asg48
I22
sg49
I00
sg50
(dp169
g52
Nsg53
Nsg54
Nssg55
S'elset_wall_1_5_element_prop'
p170
sbsI23
g0
(g39
g2
Ntp171
Rp172
(dp173
g43
Nsg44
g45
sg46
(lp174
I38
aI39
aI34
aI32
asg48
I23
sg49
I00
sg50
(dp175
g52
Nsg53
Nsg54
Nssg55
S'elset_wall_1_6_element_prop'
p176
sbsI24
g0
(g39
g2
Ntp177
Rp178
(dp179
g43
Nsg44
g45
sg46
(lp180
I40
aI41
aI37
aI36
asg48
I24
sg49
I00
sg50
(dp181
g52
Nsg53
Nsg54
Nssg55
S'elset_wall_1_7_element_prop'
p182
sbsI25
g0
(g39
g2
Ntp183
Rp184
(dp185
g43
Nsg44
g45
sg46
(lp186
I41
aI42
aI38
aI37
asg48
I25
sg49
I00
sg50
(dp187
g52
Nsg53
Nsg54
Nssg55
S'elset_wall_1_8_element_prop'
p188
sbsI26
g0
(g39
g2
Ntp189
Rp190
(dp191
g43
Nsg44
g45
sg46
(lp192
I42
aI43
aI39
aI38
asg48
I26
sg49
I00
sg50
(dp193
g52
Nsg53
Nsg54
Nssg55
S'elset_wall_1_9_element_prop'
p194
sbsI27
g0
(g39
g2
Ntp195
Rp196
(dp197
g43
Nsg44
g45
sg46
(lp198
I44
aI46
aI47
aI45
asg48
I27
sg49
I00
sg50
(dp199
g52
Nsg53
Nsg54
Nssg55
S'elset_wall_2_1_element_prop'
p200
sbsI28
g0
(g39
g2
Ntp201
Rp202
(dp203
g43
Nsg44
g45
sg46
(lp204
I45
aI47
aI49
aI48
asg48
I28
sg49
I00
sg50
(dp205
g52
Nsg53
Nsg54
Nssg55
S'elset_wall_2_2_element_prop'
p206
sbsI29
g0
(g39
g2
Ntp207
Rp208
(dp209
g43
Nsg44
g45
sg46
(lp210
I48
aI49
aI51
aI50
asg48
I29
sg49
I00
sg50
(dp211
g52
Nsg53
Nsg54
Nssg55
S'elset_wall_2_3_element_prop'
p212
sbsI30
g0
(g39
g2
Ntp213
Rp214
(dp215
g43
Nsg44
g45
sg46
(lp216
I52
aI44
aI45
aI53
asg48
I30
sg49
I00
sg50
(dp217
g52
Nsg53
Nsg54
Nssg55
S'elset_wall_2_4_element_prop'
p218
sbsI31
g0
(g39
g2
Ntp219
Rp220
(dp221
g43
Nsg44
g45
sg46
(lp222
I53
aI45
aI48
aI54
asg48
I31
sg49
I00
sg50
(dp223
g52
Nsg53
Nsg54
Nssg55
S'elset_wall_2_5_element_prop'
p224
sbsI32
g0
(g39
g2
Ntp225
Rp226
(dp227
g43
Nsg44
g45
sg46
(lp228
I54
aI48
aI50
aI55
asg48
I32
sg49
I00
sg50
(dp229
g52
Nsg53
Nsg54
Nssg55
S'elset_wall_2_6_element_prop'
p230
sbsI33
g0
(g39
g2
Ntp231
Rp232
(dp233
g43
Nsg44
g45
sg46
(lp234
I56
aI52
aI53
aI57
asg48
I33
sg49
I00
sg50
(dp235
g52
Nsg53
Nsg54
Nssg55
S'elset_wall_2_7_element_prop'
p236
sbsI34
g0
(g39
g2
Ntp237
Rp238
(dp239
g43
Nsg44
g45
sg46
(lp240
I57
aI53
aI54
aI58
asg48
I34
sg49
I00
sg50
(dp241
g52
Nsg53
Nsg54
Nssg55
S'elset_wall_2_8_element_prop'
p242
sbsI35
g0
(g39
g2
Ntp243
Rp244
(dp245
g43
Nsg44
g45
sg46
(lp246
I58
aI54
aI55
aI59
asg48
I35
sg49
I00
sg50
(dp247
g52
Nsg53
Nsg54
Nssg55
S'elset_wall_2_9_element_prop'
p248
sbsI36
g0
(ccompas_fea.structure.element
MPCElement
p249
g2
Ntp250
Rp251
(dp252
g43
Nsg44
S'MPCElement'
p253
sg46
(lp254
I51
aI23
asg48
I36
sg49
I00
sg50
(dp255
g52
Nsg53
(lp256
F-4.5474735088646412e-12
aF0.0
aF947.73429097015151
asg54
Nssg55
S'elset_mpc_element_prop'
p257
sbsI37
g0
(g249
g2
Ntp258
Rp259
(dp260
g43
Nsg44
g253
sg46
(lp261
I49
aI17
asg48
I37
sg49
I00
sg50
(dp262
g52
Nsg53
(lp263
F-4.5474735088646412e-12
aF0.0
aF947.73429097015151
asg54
Nssg55
g257
sbsI38
g0
(g249
g2
Ntp264
Rp265
(dp266
g43
Nsg44
g253
sg46
(lp267
I47
aI11
asg48
I38
sg49
I00
sg50
(dp268
g52
Nsg53
(lp269
F2.7284841053187847e-12
aF0.0
aF947.73429097015151
asg54
Nssg55
g257
sbsI39
g0
(g249
g2
Ntp270
Rp271
(dp272
g43
Nsg44
g253
sg46
(lp273
I46
aI10
asg48
I39
sg49
I00
sg50
(dp274
g52
Nsg53
(lp275
F0.0
aF0.0
aF947.73429097015151
asg54
Nssg55
g257
sbsI40
g0
(g249
g2
Ntp276
Rp277
(dp278
g43
Nsg44
g253
sg46
(lp279
I35
aI18
asg48
I40
sg49
I00
sg50
(dp280
g52
Nsg53
(lp281
F-4.5474735088646412e-12
aF0.0
aF947.73429097015151
asg54
Nssg55
g257
sbsI41
g0
(g249
g2
Ntp282
Rp283
(dp284
g43
Nsg44
g253
sg46
(lp285
I33
aI12
asg48
I41
sg49
I00
sg50
(dp286
g52
Nsg53
(lp287
F-4.5474735088646412e-12
aF0.0
aF947.73429097015151
asg54
Nssg55
g257
sbsI42
g0
(g249
g2
Ntp288
Rp289
(dp290
g43
Nsg44
g253
sg46
(lp291
I31
aI1
asg48
I42
sg49
I00
sg50
(dp292
g52
Nsg53
(lp293
F2.7284841053187847e-12
aF0.0
aF947.73429097015151
asg54
Nssg55
g257
sbsI43
g0
(g249
g2
Ntp294
Rp295
(dp296
g43
Nsg44
g253
sg46
(lp297
I30
aI0
asg48
I43
sg49
I00
sg50
(dp298
g52
Nsg53
(lp299
F0.0
aF0.0
aF947.73429097015151
asg54
Nssg55
g257
sbssS'element_index'
p300
(dp301
S'638.406,5476.634,0.000'
p302
I12
sS'638.406,13196.709,-2641.052'
p303
I33
sS'3211.375,9930.524,0.000'
p304
I10
sS'638.406,3266.186,0.000'
p305
I1
sS'1915.218,0.000,-1961.697'
p306
I22
sS'1915.218,13196.709,-1282.342'
p307
I28
sS'3869.127,13196.709,-473.867'
p308
I36
sS'3211.375,13196.709,-1961.697'
p309
I32
sS'1915.218,3266.186,0.000'
p310
I5
sS'1915.218,7720.075,0.000'
p311
I15
sS'3211.375,0.000,-1282.342'
p312
I20
sS'2553.624,13196.709,-473.867'
p313
I37
sS'638.406,0.000,-1282.342'
p314
I18
sS'1915.218,1088.729,0.000'
p315
I4
sS'3211.375,0.000,-2641.052'
p316
I26
sS'1276.812,0.000,-473.867'
p317
I42
sS'1915.218,12107.981,0.000'
p318
I7
sS'638.406,13196.709,-1282.342'
p319
I27
sS'638.406,13196.709,-1961.697'
p320
I30
sS'1915.218,9930.524,0.000'
p321
I6
sS'0.000,13196.709,-473.867'
p322
I39
sS'3211.375,3266.186,0.000'
p323
I9
sS'638.406,7720.075,0.000'
p324
I13
sS'1915.218,0.000,-2641.052'
p325
I25
sS'2553.624,0.000,-473.867'
p326
I41
sS'3211.375,1088.729,0.000'
p327
I8
sS'3211.375,5476.634,0.000'
p328
I16
sS'3211.375,7720.075,0.000'
p329
I17
sS'638.406,0.000,-1961.697'
p330
I21
sS'3869.127,0.000,-473.867'
p331
I40
sS'1915.218,13196.709,-2641.052'
p332
I34
sS'1915.218,5476.634,0.000'
p333
I14
sS'638.406,1088.729,0.000'
p334
I0
sS'1915.218,0.000,-1282.342'
p335
I19
sS'3211.375,12107.981,0.000'
p336
I11
sS'638.406,0.000,-2641.052'
p337
I24
sS'3211.375,0.000,-1961.697'
p338
I23
sS'1915.218,13196.709,-1961.697'
p339
I31
sS'638.406,12107.981,0.000'
p340
I3
sS'1276.812,13196.709,-473.867'
p341
I38
sS'638.406,9930.524,0.000'
p342
I2
sS'0.000,0.000,-473.867'
p343
I43
sS'3211.375,13196.709,-1282.342'
p344
I29
sS'3211.375,13196.709,-2641.052'
p345
I35
ssS'element_properties'
p346
(dp347
g218
g0
(ccompas_fea.structure.element_properties
ElementProperties
p348
g2
Ntp349
Rp350
(dp351
g15
I21
sS'__name__'
p352
S'ElementProperties'
p353
sS'name'
p354
g218
sS'material'
p355
S'wall_element_mat'
p356
sS'section'
p357
S'wall2_element_sec'
p358
sS'elset'
p359
S'elset_wall_2_4'
p360
sS'elements'
p361
NsS'rebar'
p362
(dp363
sbsg152
g0
(g348
g2
Ntp364
Rp365
(dp366
g15
I10
sg352
g353
sg354
g152
sg355
g356
sg357
S'wall1_element_sec'
p367
sg359
S'elset_wall_1_2'
p368
sg361
Nsg362
g363
sbsg188
g0
(g348
g2
Ntp369
Rp370
(dp371
g15
I16
sg352
g353
sg354
g188
sg355
g356
sg357
g367
sg359
S'elset_wall_1_8'
p372
sg361
Nsg362
g363
sbsg206
g0
(g348
g2
Ntp373
Rp374
(dp375
g15
I19
sg352
g353
sg354
g206
sg355
g356
sg357
g358
sg359
S'elset_wall_2_2'
p376
sg361
Nsg362
g363
sbsg56
g0
(g348
g2
Ntp377
Rp378
(dp379
g15
I0
sg352
g353
sg354
g56
sg355
S'plate_element_mat'
p380
sg357
S'plate_element_sec'
p381
sg359
S'elset_plate_1'
p382
sg361
Nsg362
g363
sbsg224
g0
(g348
g2
Ntp383
Rp384
(dp385
g15
I22
sg352
g353
sg354
g224
sg355
g356
sg357
g358
sg359
S'elset_wall_2_5'
p386
sg361
Nsg362
g363
sbsg136
g0
(g348
g2
Ntp387
Rp388
(dp389
g15
I8
sg352
g353
sg354
g136
sg355
g380
sg357
g381
sg359
S'elset_plate_9'
p390
sg361
Nsg362
g363
sbsg176
g0
(g348
g2
Ntp391
Rp392
(dp393
g15
I14
sg352
g353
sg354
g176
sg355
g356
sg357
g367
sg359
S'elset_wall_1_6'
p394
sg361
Nsg362
g363
sbsg96
g0
(g348
g2
Ntp395
Rp396
(dp397
g15
I4
sg352
g353
sg354
g96
sg355
g380
sg357
g381
sg359
S'elset_plate_5'
p398
sg361
Nsg362
g363
sbsg158
g0
(g348
g2
Ntp399
Rp400
(dp401
g15
I11
sg352
g353
sg354
g158
sg355
g356
sg357
g367
sg359
S'elset_wall_1_3'
p402
sg361
Nsg362
g363
sbsg76
g0
(g348
g2
Ntp403
Rp404
(dp405
g15
I2
sg352
g353
sg354
g76
sg355
g380
sg357
g381
sg359
S'elset_plate_3'
p406
sg361
Nsg362
g363
sbsg212
g0
(g348
g2
Ntp407
Rp408
(dp409
g15
I20
sg352
g353
sg354
g212
sg355
g356
sg357
g358
sg359
S'elset_wall_2_3'
p410
sg361
Nsg362
g363
sbsg230
g0
(g348
g2
Ntp411
Rp412
(dp413
g15
I23
sg352
g353
sg354
g230
sg355
g356
sg357
g358
sg359
S'elset_wall_2_6'
p414
sg361
Nsg362
g363
sbsg164
g0
(g348
g2
Ntp415
Rp416
(dp417
g15
I12
sg352
g353
sg354
g164
sg355
g356
sg357
g367
sg359
S'elset_wall_1_4'
p418
sg361
Nsg362
g363
sbsg194
g0
(g348
g2
Ntp419
Rp420
(dp421
g15
I17
sg352
g353
sg354
g194
sg355
g356
sg357
g367
sg359
S'elset_wall_1_9'
p422
sg361
Nsg362
g363
sbsg126
g0
(g348
g2
Ntp423
Rp424
(dp425
g15
I7
sg352
g353
sg354
g126
sg355
g380
sg357
g381
sg359
S'elset_plate_8'
p426
sg361
Nsg362
g363
sbsg146
g0
(g348
g2
Ntp427
Rp428
(dp429
g15
I9
sg352
g353
sg354
g146
sg355
g356
sg357
g367
sg359
S'elset_wall_1_1'
p430
sg361
Nsg362
g363
sbsg116
g0
(g348
g2
Ntp431
Rp432
(dp433
g15
I6
sg352
g353
sg354
g116
sg355
g380
sg357
g381
sg359
S'elset_plate_7'
p434
sg361
Nsg362
g363
sbsg242
g0
(g348
g2
Ntp435
Rp436
(dp437
g15
I25
sg352
g353
sg354
g242
sg355
g356
sg357
g358
sg359
S'elset_wall_2_8'
p438
sg361
Nsg362
g363
sbsg86
g0
(g348
g2
Ntp439
Rp440
(dp441
g15
I3
sg352
g353
sg354
g86
sg355
g380
sg357
g381
sg359
S'elset_plate_4'
p442
sg361
Nsg362
g363
sbsg66
g0
(g348
g2
Ntp443
Rp444
(dp445
g15
I1
sg352
g353
sg354
g66
sg355
g380
sg357
g381
sg359
S'elset_plate_2'
p446
sg361
Nsg362
g363
sbsg257
g0
(g348
g2
Ntp447
Rp448
(dp449
g15
I27
sg352
g353
sg354
g257
sg355
S'elset_mpc_element_mat'
p450
sg357
S'sec_mpc'
p451
sg359
S'elset_mpcs'
p452
sg361
Nsg362
g363
sbsg182
g0
(g348
g2
Ntp453
Rp454
(dp455
g15
I15
sg352
g353
sg354
g182
sg355
g356
sg357
g367
sg359
S'elset_wall_1_7'
p456
sg361
Nsg362
g363
sbsg236
g0
(g348
g2
Ntp457
Rp458
(dp459
g15
I24
sg352
g353
sg354
g236
sg355
g356
sg357
g358
sg359
S'elset_wall_2_7'
p460
sg361
Nsg362
g363
sbsg248
g0
(g348
g2
Ntp461
Rp462
(dp463
g15
I26
sg352
g353
sg354
g248
sg355
g356
sg357
g358
sg359
S'elset_wall_2_9'
p464
sg361
Nsg362
g363
sbsg200
g0
(g348
g2
Ntp465
Rp466
(dp467
g15
I18
sg352
g353
sg354
g200
sg355
g356
sg357
g358
sg359
S'elset_wall_2_1'
p468
sg361
Nsg362
g363
sbsg106
g0
(g348
g2
Ntp469
Rp470
(dp471
g15
I5
sg352
g353
sg354
g106
sg355
g380
sg357
g381
sg359
S'elset_plate_6'
p472
sg361
Nsg362
g363
sbsg170
g0
(g348
g2
Ntp473
Rp474
(dp475
g15
I13
sg352
g353
sg354
g170
sg355
g356
sg357
g367
sg359
S'elset_wall_1_5'
p476
sg361
Nsg362
g363
sbssS'interactions'
p477
(dp478
sS'loads'
p479
(dp480
S'Gleis1_BAHNLASTEN_Lasteinzugsflache_Lastblock_-3'
p481
g0
(ccompas_fea.structure.load
AreaLoad
p482
g2
Ntp483
Rp484
(dp485
g15
I5
sS'__name__'
p486
S'AreaLoad'
p487
sS'name'
p488
g481
sS'axes'
p489
S'global'
p490
sS'components'
p491
(dp492
g23
F0.067056485482056241
sg27
I0
sg28
I0
ssS'nodes'
p493
(lp494
sS'elements'
p495
(lp496
I1
aI5
aI9
asS'attr_list'
p497
(lp498
S'name'
p499
aS'axes'
p500
aS'components'
p501
aS'nodes'
p502
aS'elements'
p503
asbsS'earthPressure_liveLoad'
p504
g0
(g482
g2
Ntp505
Rp506
(dp507
g15
I6
sg486
g487
sg488
g504
sg489
S'local'
p508
sg491
(dp509
g23
F0.037699999999999997
sg27
I0
sg28
I0
ssg493
g494
sg495
(lp510
I19
aI20
aI21
aI22
aI23
aI24
aI25
aI26
aI27
asg497
(lp511
g499
ag500
ag501
ag502
ag503
asbsS'Gleis1_BAHNLASTEN_Lasteinzugsflache_Lastblock_-2'
p512
g0
(g482
g2
Ntp513
Rp514
(dp515
g15
I4
sg486
g487
sg488
g512
sg489
g490
sg491
(dp516
g23
F0.067056485482056241
sg27
I0
sg28
I0
ssg493
g494
sg495
(lp517
I1
aI2
aI6
asg497
(lp518
g499
ag500
ag501
ag502
ag503
asbsS'Gleis1_EIGENGEWICHTE_SCHIENE_Lasteinzugsflache'
p519
g0
(g482
g2
Ntp520
Rp521
(dp522
g15
I3
sg486
g487
sg488
g519
sg489
g490
sg491
(dp523
g23
F0.0022227939757930248
sg27
I0
sg28
I0
ssg493
g494
sg495
(lp524
I1
aI2
aI5
aI6
aI9
asg497
(lp525
g499
ag500
ag501
ag502
ag503
asbsS'earthPressure_backfill'
p526
g0
(g482
g2
Ntp527
Rp528
(dp529
g15
I2
sg486
g487
sg488
g526
sg489
g508
sg491
(dp530
g23
F0.049281705006039248
sg27
I0
sg28
I0
ssg493
g494
sg495
(lp531
g430
ag368
ag402
ag418
ag476
ag394
ag456
ag372
ag422
ag468
ag376
ag410
ag360
ag386
ag414
ag460
ag438
ag464
asg497
(lp532
g499
ag500
ag501
ag502
ag503
asbsS'earthPressure_gravel'
p533
g0
(g482
g2
Ntp534
Rp535
(dp536
g15
I1
sg486
g487
sg488
g533
sg489
g490
sg491
(dp537
g23
F0.013500000000000002
sg27
I0
sg28
I0
ssg493
g494
sg495
(lp538
g382
ag446
ag406
ag442
ag398
ag472
ag434
ag426
ag390
asg497
(lp539
g499
ag500
ag501
ag502
ag503
asbsS'load_gravity'
p540
g0
(ccompas_fea.structure.load
GravityLoad
p541
g2
Ntp542
Rp543
(dp544
S'index'
p545
I0
sg486
S'GravityLoad'
p546
sg488
g540
sg489
g490
sg491
(dp547
g23
F1.3500000000000001
sg27
F0.0
sg28
F0.0
ssg493
g494
sg495
(lp548
g382
ag446
ag406
ag442
ag398
ag472
ag434
ag426
ag390
ag430
ag368
ag402
ag418
ag476
ag394
ag456
ag372
ag422
ag468
ag376
ag410
ag360
ag386
ag414
ag460
ag438
ag464
asg497
(lp549
g499
ag500
ag501
ag502
ag503
aS'g'
p550
asS'g'
p551
F-9.8100000000000005
sbssS'materials'
p552
(dp553
g450
g0
(ccompas_fea.structure.material
MPCStiff
p554
g2
Ntp555
Rp556
(dp557
g545
I2
sS'__name__'
p558
S'MPCStiff'
p559
sS'name'
p560
g450
sS'attr_list'
p561
(lp562
g499
aS'E'
p563
aS'v'
p564
aS'G'
p565
aS'p'
p566
aS'tension'
p567
aS'compression'
p568
asS'E'
p569
(dp570
g563
L10000000000000L
ssS'v'
p571
(dp572
g564
F0.29999999999999999
ssS'G'
p573
(dp574
g565
F3846153846153.8462
ssS'p'
p575
F0.10000000000000001
sS'tension'
p576
I01
sS'compression'
p577
I01
sbsg356
g0
(ccompas_fea.structure.material
CMMUsermat
p578
g2
Ntp579
Rp580
(dp581
g15
I1
sg558
S'CMMUsermat'
p582
sg560
g356
sg561
(lp583
g499
ag563
ag564
ag565
ag566
aS'R_Rohr'
p584
aS'rho'
p585
aS'oo'
p586
aS'uu'
p587
aS'beton'
p588
aS'fcc'
p589
aS'vc'
p590
aS'ecu'
p591
aS'k_E'
p592
aS'theta_b0'
p593
aS'theta_b1'
p594
aS'k_riss'
p595
aS'Entfestigung'
p596
aS'lambdaTS'
p597
aS'srmx'
p598
aS'srmy'
p599
aS'Begrenzung'
p600
aS'KritQ'
p601
aS'winkelD'
p602
aS'k_vr'
p603
aS'fswy'
p604
aS'stahl1'
p605
aS'zm1'
p606
aS'fsy1'
p607
aS'fsu1'
p608
aS'esu1'
p609
aS'esv1'
p610
aS'Es1'
p611
aS'ka1'
p612
aS'kb1'
p613
aS'kc1'
p614
aS'as1'
p615
aS'dm1'
p616
aS'psi1'
p617
aS'stahl2'
p618
aS'zm2'
p619
aS'fsy2'
p620
aS'fsu2'
p621
aS'esu2'
p622
aS'esv2'
p623
aS'Es2'
p624
aS'ka2'
p625
aS'kb2'
p626
aS'kc2'
p627
aS'as2'
p628
aS'dm2'
p629
aS'psi2'
p630
aS'stahl3'
p631
aS'zm3'
p632
aS'fsy3'
p633
aS'fsu3'
p634
aS'esu3'
p635
aS'esv3'
p636
aS'Es3'
p637
aS'ka3'
p638
aS'kb3'
p639
aS'kc3'
p640
aS'as3'
p641
aS'dm3'
p642
aS'psi3'
p643
aS'stahl4'
p644
aS'zm4'
p645
aS'fsy4'
p646
aS'fsu4'
p647
aS'esu4'
p648
aS'esv4'
p649
aS'Es4'
p650
aS'ka4'
p651
aS'kb4'
p652
aS'kc4'
p653
aS'as4'
p654
aS'dm4'
p655
aS'psi4'
p656
asS'E'
p657
(dp658
S'E'
p659
I200000
ssS'v'
p660
(dp661
S'v'
p662
F0.10000000000000001
ssS'G'
p663
(dp664
g565
F90909.090909090897
ssS'p'
p665
F2.5000000000000002e-06
sS'R_Rohr'
p666
(dp667
g584
I-1
ssS'rho'
p668
(dp669
g585
F2.5000000000000002e-06
ssS'oo'
p670
(dp671
g586
I30
ssS'uu'
p672
(dp673
g587
I30
ssS'beton'
p674
(dp675
g588
I2
ssS'fcc'
p676
(dp677
g589
I34
ssS'vc'
p678
(dp679
g590
I0
ssS'ecu'
p680
(dp681
g591
F-0.002
ssS'k_E'
p682
(dp683
g592
I10000
ssS'theta_b0'
p684
(dp685
g593
I2
ssS'theta_b1'
p686
(dp687
g594
I1
ssS'k_riss'
p688
(dp689
g595
I0
ssS'Entfestigung'
p690
(dp691
g596
I0
ssS'lambdaTS'
p692
(dp693
g597
F0.67000000000000004
ssS'srmx'
p694
(dp695
g598
I1
ssS'srmy'
p696
(dp697
g599
I1
ssS'Begrenzung'
p698
(dp699
g600
I2
ssS'KritQ'
p700
(dp701
g601
I0
ssS'winkelD'
p702
(dp703
g602
I45
ssS'k_vr'
p704
(dp705
g603
I1
ssS'fswy'
p706
(dp707
g604
I500
ssS'stahl1'
p708
(dp709
g605
I1
ssS'zm1'
p710
(dp711
g606
I2
ssS'fsy1'
p712
(dp713
g607
I332
ssS'fsu1'
p714
(dp715
g608
I358
ssS'esu1'
p716
(dp717
g609
F0.044999999999999998
ssS'esv1'
p718
(dp719
g610
F0.02
ssS'Es1'
p720
(dp721
g611
I200000
ssS'ka1'
p722
(dp723
g612
I-1
ssS'kb1'
p724
(dp725
g613
I-1
ssS'kc1'
p726
(dp727
g614
I-1
ssS'as1'
p728
(dp729
g615
F0.44173913378794566
ssS'dm1'
p730
(dp731
g616
F15.344901127685498
ssS'psi1'
p732
(dp733
g617
I90
ssS'stahl2'
p734
(dp735
g618
I1
ssS'zm2'
p736
(dp737
g619
I2
ssS'fsy2'
p738
(dp739
g620
I332
ssS'fsu2'
p740
(dp741
g621
I358
ssS'esu2'
p742
(dp743
g622
F0.044999999999999998
ssS'esv2'
p744
(dp745
g623
F0.02
ssS'Es2'
p746
(dp747
g624
I200000
ssS'ka2'
p748
(dp749
g625
I-1
ssS'kb2'
p750
(dp751
g626
I-1
ssS'kc2'
p752
(dp753
g627
I-1
ssS'as2'
p754
(dp755
g628
F0.27014701825258697
ssS'dm2'
p756
(dp757
g629
F12.0
ssS'psi2'
p758
(dp759
g630
I0
ssS'stahl3'
p760
(dp761
g631
I1
ssS'zm3'
p762
(dp763
g632
I2
ssS'fsy3'
p764
(dp765
g633
I332
ssS'fsu3'
p766
(dp767
g634
I358
ssS'esu3'
p768
(dp769
g635
F0.044999999999999998
ssS'esv3'
p770
(dp771
g636
F0.02
ssS'Es3'
p772
(dp773
g637
I200000
ssS'ka3'
p774
(dp775
g638
I-1
ssS'kb3'
p776
(dp777
g639
I-1
ssS'kc3'
p778
(dp779
g640
I-1
ssS'as3'
p780
(dp781
g641
F0.27014701825258697
ssS'dm3'
p782
(dp783
g642
F12.0
ssS'psi3'
p784
(dp785
g643
I0
ssS'stahl4'
p786
(dp787
g644
I1
ssS'zm4'
p788
(dp789
g645
I2
ssS'fsy4'
p790
(dp791
g646
I332
ssS'fsu4'
p792
(dp793
g647
I358
ssS'esu4'
p794
(dp795
g648
F0.044999999999999998
ssS'esv4'
p796
(dp797
g649
F0.02
ssS'Es4'
p798
(dp799
g650
I200000
ssS'ka4'
p800
(dp801
g651
I-1
ssS'kb4'
p802
(dp803
g652
I-1
ssS'kc4'
p804
(dp805
g653
I-1
ssS'as4'
p806
(dp807
g654
F0.19445443186483835
ssS'dm4'
p808
(dp809
g655
F10.180991613976646
ssS'psi4'
p810
(dp811
g656
I90
ssbsg380
g0
(g578
g2
Ntp812
Rp813
(dp814
g15
I0
sg558
g582
sg560
g380
sg561
(lp815
g499
ag563
ag564
ag565
ag566
ag584
ag585
ag586
ag587
ag588
ag589
ag590
ag591
ag592
ag593
ag594
ag595
ag596
ag597
ag598
ag599
ag600
ag601
ag602
ag603
ag604
ag605
ag606
ag607
ag608
ag609
ag610
ag611
ag612
ag613
ag614
ag615
ag616
ag617
ag618
ag619
ag620
ag621
ag622
ag623
ag624
ag625
ag626
ag627
ag628
ag629
ag630
ag631
ag632
ag633
ag634
ag635
ag636
ag637
ag638
ag639
ag640
ag641
ag642
ag643
ag644
ag645
ag646
ag647
ag648
ag649
ag650
ag651
ag652
ag653
ag654
ag655
ag656
asg657
(dp816
g659
I200000
ssg660
(dp817
g662
F0.10000000000000001
ssg663
(dp818
g565
F90909.090909090897
ssg665
F2.5000000000000002e-06
sg666
(dp819
g584
I-1
ssg668
(dp820
g585
F2.5000000000000002e-06
ssg670
(dp821
g586
I30
ssg672
(dp822
g587
I30
ssg674
(dp823
g588
I2
ssg676
(dp824
g589
I34
ssg678
(dp825
g590
I0
ssg680
(dp826
g591
F-0.002
ssg682
(dp827
g592
I10000
ssg684
(dp828
g593
I2
ssg686
(dp829
g594
I1
ssg688
(dp830
g595
I0
ssg690
(dp831
g596
I0
ssg692
(dp832
g597
F0.67000000000000004
ssg694
(dp833
g598
I1
ssg696
(dp834
g599
I1
ssg698
(dp835
g600
I2
ssg700
(dp836
g601
I0
ssg702
(dp837
g602
I45
ssg704
(dp838
g603
I1
ssg706
(dp839
g604
I500
ssg708
(dp840
g605
I1
ssg710
(dp841
g606
I2
ssg712
(dp842
g607
I332
ssg714
(dp843
g608
I358
ssg716
(dp844
g609
F0.044999999999999998
ssg718
(dp845
g610
F0.02
ssg720
(dp846
g611
I200000
ssg722
(dp847
g612
I-1
ssg724
(dp848
g613
I-1
ssg726
(dp849
g614
I-1
ssg728
(dp850
g615
F0.25850793033540237
ssg730
(dp851
g616
F10.554908885290725
ssg732
(dp852
g617
I90
ssg734
(dp853
g618
I1
ssg736
(dp854
g619
I2
ssg738
(dp855
g620
I332
ssg740
(dp856
g621
I358
ssg742
(dp857
g622
F0.044999999999999998
ssg744
(dp858
g623
F0.02
ssg746
(dp859
g624
I200000
ssg748
(dp860
g625
I-1
ssg750
(dp861
g626
I-1
ssg752
(dp862
g627
I-1
ssg754
(dp863
g628
F1.8754852230846972
ssg756
(dp864
g629
F28.429837455697569
ssg758
(dp865
g630
I0
ssg760
(dp866
g631
I1
ssg762
(dp867
g632
I2
ssg764
(dp868
g633
I332
ssg766
(dp869
g634
I358
ssg768
(dp870
g635
F0.044999999999999998
ssg770
(dp871
g636
F0.02
ssg772
(dp872
g637
I200000
ssg774
(dp873
g638
I-1
ssg776
(dp874
g639
I-1
ssg778
(dp875
g640
I-1
ssg780
(dp876
g641
F0.33413916689867917
ssg782
(dp877
g642
F12.0
ssg784
(dp878
g643
I0
ssg786
(dp879
g644
I1
ssg788
(dp880
g645
I2
ssg790
(dp881
g646
I332
ssg792
(dp882
g647
I358
ssg794
(dp883
g648
F0.044999999999999998
ssg796
(dp884
g649
F0.02
ssg798
(dp885
g650
I200000
ssg800
(dp886
g651
I-1
ssg802
(dp887
g652
I-1
ssg804
(dp888
g653
I-1
ssg806
(dp889
g654
F0.5985955861172757
ssg808
(dp890
g655
F16.061433665487932
ssg810
(dp891
g656
I90
ssbssS'misc'
p892
(dp893
sS'name'
p894
S'NLFE_CFB9'
p895
sS'nodes'
p896
(dp897
I0
g0
(ccompas_fea.structure.node
Node
p898
g2
Ntp899
Rp900
(dp901
S'__name__'
p902
S'Node'
p903
sS'key'
p904
I0
sS'x'
p905
F0.0
sS'y'
p906
F0.0
sS'z'
p907
F0.0
sS'ex'
p908
(lp909
I1
aI0
aI0
asS'ey'
p910
(lp911
I0
aI1
aI0
asS'ez'
p912
(lp913
I0
aI0
aI1
asS'mass'
p914
NsbsI1
g0
(g898
g2
Ntp915
Rp916
(dp917
g902
g903
sg904
I1
sg905
F1276.8117800868426
sg906
F0.0
sg907
F0.0
sg908
g909
sg910
g911
sg912
g913
sg914
NsbsI2
g0
(g898
g2
Ntp918
Rp919
(dp920
g902
g903
sg904
I2
sg905
F0.0
sg906
F2177.4570381608792
sg907
F0.0
sg908
g909
sg910
g911
sg912
g913
sg914
NsbsI3
g0
(g898
g2
Ntp921
Rp922
(dp923
g902
g903
sg904
I3
sg905
F1276.8117800868426
sg906
F2177.4570381608792
sg907
F0.0
sg908
g909
sg910
g911
sg912
g913
sg914
NsbsI4
g0
(g898
g2
Ntp924
Rp925
(dp926
g902
g903
sg904
I4
sg905
F0.0
sg906
F4354.9140763217583
sg907
F0.0
sg908
g909
sg910
g911
sg912
g913
sg914
NsbsI5
g0
(g898
g2
Ntp927
Rp928
(dp929
g902
g903
sg904
I5
sg905
F1276.8117800868426
sg906
F4354.9140763217583
sg907
F0.0
sg908
g909
sg910
g911
sg912
g913
sg914
NsbsI6
g0
(g898
g2
Ntp930
Rp931
(dp932
g902
g903
sg904
I6
sg905
F0.0
sg906
F8841.7952458653872
sg907
F0.0
sg908
g909
sg910
g911
sg912
g913
sg914
NsbsI7
g0
(g898
g2
Ntp933
Rp934
(dp935
g902
g903
sg904
I7
sg905
F1276.8117800868426
sg906
F8841.7952458653872
sg907
F0.0
sg908
g909
sg910
g911
sg912
g913
sg914
NsbsI8
g0
(g898
g2
Ntp936
Rp937
(dp938
g902
g903
sg904
I8
sg905
F0.0
sg906
F11019.252284026266
sg907
F0.0
sg908
g909
sg910
g911
sg912
g913
sg914
NsbsI9
g0
(g898
g2
Ntp939
Rp940
(dp941
g902
g903
sg904
I9
sg905
F1276.8117800868426
sg906
F11019.252284026266
sg907
F0.0
sg908
g909
sg910
g911
sg912
g913
sg914
NsbsI10
g0
(g898
g2
Ntp942
Rp943
(dp944
g902
g903
sg904
I10
sg905
F0.0
sg906
F13196.709322187146
sg907
F0.0
sg908
g909
sg910
g911
sg912
g913
sg914
NsbsI11
g0
(g898
g2
Ntp945
Rp946
(dp947
g902
g903
sg904
I11
sg905
F1276.8117800868426
sg906
F13196.709322187146
sg907
F0.0
sg908
g909
sg910
g911
sg912
g913
sg914
NsbsI12
g0
(g898
g2
Ntp948
Rp949
(dp950
g902
g903
sg904
I12
sg905
F2553.6235601736853
sg906
F0.0
sg907
F0.0
sg908
g909
sg910
g911
sg912
g913
sg914
NsbsI13
g0
(g898
g2
Ntp951
Rp952
(dp953
g902
g903
sg904
I13
sg905
F2553.6235601736853
sg906
F2177.4570381608792
sg907
F0.0
sg908
g909
sg910
g911
sg912
g913
sg914
NsbsI14
g0
(g898
g2
Ntp954
Rp955
(dp956
g902
g903
sg904
I14
sg905
F2553.6235601736853
sg906
F4354.9140763217583
sg907
F0.0
sg908
g909
sg910
g911
sg912
g913
sg914
NsbsI15
g0
(g898
g2
Ntp957
Rp958
(dp959
g902
g903
sg904
I15
sg905
F2553.6235601736853
sg906
F8841.7952458653872
sg907
F0.0
sg908
g909
sg910
g911
sg912
g913
sg914
NsbsI16
g0
(g898
g2
Ntp960
Rp961
(dp962
g902
g903
sg904
I16
sg905
F2553.6235601736853
sg906
F11019.252284026266
sg907
F0.0
sg908
g909
sg910
g911
sg912
g913
sg914
NsbsI17
g0
(g898
g2
Ntp963
Rp964
(dp965
g902
g903
sg904
I17
sg905
F2553.6235601736853
sg906
F13196.709322187146
sg907
F0.0
sg908
g909
sg910
g911
sg912
g913
sg914
NsbsI18
g0
(g898
g2
Ntp966
Rp967
(dp968
g902
g903
sg904
I18
sg905
F3869.1266063237654
sg906
F0.0
sg907
F0.0
sg908
g909
sg910
g911
sg912
g913
sg914
NsbsI19
g0
(g898
g2
Ntp969
Rp970
(dp971
g902
g903
sg904
I19
sg905
F3869.1266063237654
sg906
F2177.4570381608792
sg907
F0.0
sg908
g909
sg910
g911
sg912
g913
sg914
NsbsI20
g0
(g898
g2
Ntp972
Rp973
(dp974
g902
g903
sg904
I20
sg905
F3869.1266063237654
sg906
F4354.9140763217583
sg907
F0.0
sg908
g909
sg910
g911
sg912
g913
sg914
NsbsI21
g0
(g898
g2
Ntp975
Rp976
(dp977
g902
g903
sg904
I21
sg905
F3869.1266063237654
sg906
F8841.7952458653872
sg907
F0.0
sg908
g909
sg910
g911
sg912
g913
sg914
NsbsI22
g0
(g898
g2
Ntp978
Rp979
(dp980
g902
g903
sg904
I22
sg905
F3869.1266063237654
sg906
F11019.252284026266
sg907
F0.0
sg908
g909
sg910
g911
sg912
g913
sg914
NsbsI23
g0
(g898
g2
Ntp981
Rp982
(dp983
g902
g903
sg904
I23
sg905
F3869.1266063237654
sg906
F13196.709322187146
sg907
F0.0
sg908
g909
sg910
g911
sg912
g913
sg914
NsbsI24
g0
(g898
g2
Ntp984
Rp985
(dp986
g902
g903
sg904
I24
sg905
F0.0
sg906
F6598.3546610935718
sg907
F0.0
sg908
g909
sg910
g911
sg912
g913
sg914
NsbsI25
g0
(g898
g2
Ntp987
Rp988
(dp989
g902
g903
sg904
I25
sg905
F1276.8117800868424
sg906
F6598.3546610935718
sg907
F0.0
sg908
g909
sg910
g911
sg912
g913
sg914
NsbsI26
g0
(g898
g2
Ntp990
Rp991
(dp992
g902
g903
sg904
I26
sg905
F2553.6235601736848
sg906
F6598.3546610935718
sg907
F0.0
sg908
g909
sg910
g911
sg912
g913
sg914
NsbsI27
g0
(g898
g2
Ntp993
Rp994
(dp995
g902
g903
sg904
I27
sg905
F3869.1266063237649
sg906
F6598.3546610935718
sg907
F0.0
sg908
g909
sg910
g911
sg912
g913
sg914
NsbsI28
g0
(g898
g2
Ntp996
Rp997
(dp998
g902
g903
sg904
I28
sg905
F0.0
sg906
F0.0
sg907
F-1616.9495965027256
sg908
g909
sg910
g911
sg912
g913
sg914
NsbsI29
g0
(g898
g2
Ntp999
Rp1000
(dp1001
g902
g903
sg904
I29
sg905
F1276.8117800868399
sg906
F0.0
sg907
F-1616.9495965027256
sg908
g909
sg910
g911
sg912
g913
sg914
NsbsI30
g0
(g898
g2
Ntp1002
Rp1003
(dp1004
g902
g903
sg904
I30
sg905
F0.0
sg906
F0.0
sg907
F-947.73429097015151
sg908
g909
sg910
g911
sg912
g913
sg914
NsbsI31
g0
(g898
g2
Ntp1005
Rp1006
(dp1007
g902
g903
sg904
I31
sg905
F1276.8117800868399
sg906
F0.0
sg907
F-947.73429097015151
sg908
g909
sg910
g911
sg912
g913
sg914
NsbsI32
g0
(g898
g2
Ntp1008
Rp1009
(dp1010
g902
g903
sg904
I32
sg905
F2553.6235601736898
sg906
F0.0
sg907
F-1616.9495965027256
sg908
g909
sg910
g911
sg912
g913
sg914
NsbsI33
g0
(g898
g2
Ntp1011
Rp1012
(dp1013
g902
g903
sg904
I33
sg905
F2553.6235601736898
sg906
F0.0
sg907
F-947.73429097015151
sg908
g909
sg910
g911
sg912
g913
sg914
NsbsI34
g0
(g898
g2
Ntp1014
Rp1015
(dp1016
g902
g903
sg904
I34
sg905
F3869.1266063237699
sg906
F0.0
sg907
F-1616.9495965027256
sg908
g909
sg910
g911
sg912
g913
sg914
NsbsI35
g0
(g898
g2
Ntp1017
Rp1018
(dp1019
g902
g903
sg904
I35
sg905
F3869.1266063237699
sg906
F0.0
sg907
F-947.73429097015151
sg908
g909
sg910
g911
sg912
g913
sg914
NsbsI36
g0
(g898
g2
Ntp1020
Rp1021
(dp1022
g902
g903
sg904
I36
sg905
F0.0
sg906
F0.0
sg907
F-2306.4441537181046
sg908
g909
sg910
g911
sg912
g913
sg914
NsbsI37
g0
(g898
g2
Ntp1023
Rp1024
(dp1025
g902
g903
sg904
I37
sg905
F1276.8117800868399
sg906
F0.0
sg907
F-2306.4441537181046
sg908
g909
sg910
g911
sg912
g913
sg914
NsbsI38
g0
(g898
g2
Ntp1026
Rp1027
(dp1028
g902
g903
sg904
I38
sg905
F2553.6235601736898
sg906
F0.0
sg907
F-2306.4441537181046
sg908
g909
sg910
g911
sg912
g913
sg914
NsbsI39
g0
(g898
g2
Ntp1029
Rp1030
(dp1031
g902
g903
sg904
I39
sg905
F3869.1266063237699
sg906
F0.0
sg907
F-2306.4441537181046
sg908
g909
sg910
g911
sg912
g913
sg914
NsbsI40
g0
(g898
g2
Ntp1032
Rp1033
(dp1034
g902
g903
sg904
I40
sg905
F0.0
sg906
F0.0
sg907
F-2975.659459250679
sg908
g909
sg910
g911
sg912
g913
sg914
NsbsI41
g0
(g898
g2
Ntp1035
Rp1036
(dp1037
g902
g903
sg904
I41
sg905
F1276.8117800868399
sg906
F0.0
sg907
F-2975.659459250679
sg908
g909
sg910
g911
sg912
g913
sg914
NsbsI42
g0
(g898
g2
Ntp1038
Rp1039
(dp1040
g902
g903
sg904
I42
sg905
F2553.6235601736898
sg906
F0.0
sg907
F-2975.659459250679
sg908
g909
sg910
g911
sg912
g913
sg914
NsbsI43
g0
(g898
g2
Ntp1041
Rp1042
(dp1043
g902
g903
sg904
I43
sg905
F3869.1266063237699
sg906
F0.0
sg907
F-2975.659459250679
sg908
g909
sg910
g911
sg912
g913
sg914
NsbsI44
g0
(g898
g2
Ntp1044
Rp1045
(dp1046
g902
g903
sg904
I44
sg905
F0.0
sg906
F13196.709322187146
sg907
F-1616.9495965027256
sg908
g909
sg910
g911
sg912
g913
sg914
NsbsI45
g0
(g898
g2
Ntp1047
Rp1048
(dp1049
g902
g903
sg904
I45
sg905
F1276.8117800868399
sg906
F13196.709322187146
sg907
F-1616.9495965027256
sg908
g909
sg910
g911
sg912
g913
sg914
NsbsI46
g0
(g898
g2
Ntp1050
Rp1051
(dp1052
g902
g903
sg904
I46
sg905
F0.0
sg906
F13196.709322187146
sg907
F-947.73429097015151
sg908
g909
sg910
g911
sg912
g913
sg914
NsbsI47
g0
(g898
g2
Ntp1053
Rp1054
(dp1055
g902
g903
sg904
I47
sg905
F1276.8117800868399
sg906
F13196.709322187146
sg907
F-947.73429097015151
sg908
g909
sg910
g911
sg912
g913
sg914
NsbsI48
g0
(g898
g2
Ntp1056
Rp1057
(dp1058
g902
g903
sg904
I48
sg905
F2553.6235601736898
sg906
F13196.709322187146
sg907
F-1616.9495965027256
sg908
g909
sg910
g911
sg912
g913
sg914
NsbsI49
g0
(g898
g2
Ntp1059
Rp1060
(dp1061
g902
g903
sg904
I49
sg905
F2553.6235601736898
sg906
F13196.709322187146
sg907
F-947.73429097015151
sg908
g909
sg910
g911
sg912
g913
sg914
NsbsI50
g0
(g898
g2
Ntp1062
Rp1063
(dp1064
g902
g903
sg904
I50
sg905
F3869.1266063237699
sg906
F13196.709322187146
sg907
F-1616.9495965027256
sg908
g909
sg910
g911
sg912
g913
sg914
NsbsI51
g0
(g898
g2
Ntp1065
Rp1066
(dp1067
g902
g903
sg904
I51
sg905
F3869.1266063237699
sg906
F13196.709322187146
sg907
F-947.73429097015151
sg908
g909
sg910
g911
sg912
g913
sg914
NsbsI52
g0
(g898
g2
Ntp1068
Rp1069
(dp1070
g902
g903
sg904
I52
sg905
F0.0
sg906
F13196.709322187146
sg907
F-2306.4441537181046
sg908
g909
sg910
g911
sg912
g913
sg914
NsbsI53
g0
(g898
g2
Ntp1071
Rp1072
(dp1073
g902
g903
sg904
I53
sg905
F1276.8117800868399
sg906
F13196.709322187146
sg907
F-2306.4441537181046
sg908
g909
sg910
g911
sg912
g913
sg914
NsbsI54
g0
(g898
g2
Ntp1074
Rp1075
(dp1076
g902
g903
sg904
I54
sg905
F2553.6235601736898
sg906
F13196.709322187146
sg907
F-2306.4441537181046
sg908
g909
sg910
g911
sg912
g913
sg914
NsbsI55
g0
(g898
g2
Ntp1077
Rp1078
(dp1079
g902
g903
sg904
I55
sg905
F3869.1266063237699
sg906
F13196.709322187146
sg907
F-2306.4441537181046
sg908
g909
sg910
g911
sg912
g913
sg914
NsbsI56
g0
(g898
g2
Ntp1080
Rp1081
(dp1082
g902
g903
sg904
I56
sg905
F0.0
sg906
F13196.709322187146
sg907
F-2975.659459250679
sg908
g909
sg910
g911
sg912
g913
sg914
NsbsI57
g0
(g898
g2
Ntp1083
Rp1084
(dp1085
g902
g903
sg904
I57
sg905
F1276.8117800868399
sg906
F13196.709322187146
sg907
F-2975.659459250679
sg908
g909
sg910
g911
sg912
g913
sg914
NsbsI58
g0
(g898
g2
Ntp1086
Rp1087
(dp1088
g902
g903
sg904
I58
sg905
F2553.6235601736898
sg906
F13196.709322187146
sg907
F-2975.659459250679
sg908
g909
sg910
g911
sg912
g913
sg914
NsbsI59
g0
(g898
g2
Ntp1089
Rp1090
(dp1091
g902
g903
sg904
I59
sg905
F3869.1266063237699
sg906
F13196.709322187146
sg907
F-2975.659459250679
sg908
g909
sg910
g911
sg912
g913
sg914
NsbssS'node_index'
p1092
(dp1093
S'2553.624,13196.709,-2975.659'
p1094
I58
sS'3869.127,11019.252,0.000'
p1095
I22
sS'2553.624,13196.709,-947.734'
p1096
I49
sS'1276.812,4354.914,0.000'
p1097
I5
sS'3869.127,4354.914,0.000'
p1098
I20
sS'1276.812,8841.795,0.000'
p1099
I7
sS'1276.812,0.000,-947.734'
p1100
I31
sS'0.000,2177.457,0.000'
p1101
I2
sS'2553.624,8841.795,0.000'
p1102
I15
sS'1276.812,13196.709,-2975.659'
p1103
I57
sS'2553.624,6598.355,0.000'
p1104
I26
sS'1276.812,11019.252,0.000'
p1105
I9
sS'1276.812,0.000,-1616.950'
p1106
I29
sS'0.000,0.000,-947.734'
p1107
I30
sS'2553.624,0.000,-2306.444'
p1108
I38
sS'0.000,11019.252,0.000'
p1109
I8
sS'3869.127,8841.795,0.000'
p1110
I21
sS'3869.127,13196.709,-2975.659'
p1111
I59
sS'3869.127,0.000,-1616.950'
p1112
I34
sS'0.000,13196.709,-2306.444'
p1113
I52
sS'3869.127,13196.709,-2306.444'
p1114
I55
sS'0.000,4354.914,0.000'
p1115
I4
sS'2553.624,0.000,0.000'
p1116
I12
sS'1276.812,13196.709,-2306.444'
p1117
I53
sS'3869.127,13196.709,-947.734'
p1118
I51
sS'0.000,0.000,0.000'
p1119
I0
sS'3869.127,0.000,-2975.659'
p1120
I43
sS'2553.624,13196.709,0.000'
p1121
I17
sS'0.000,6598.355,0.000'
p1122
I24
sS'2553.624,13196.709,-2306.444'
p1123
I54
sS'1276.812,13196.709,0.000'
p1124
I11
sS'2553.624,0.000,-2975.659'
p1125
I42
sS'0.000,0.000,-2306.444'
p1126
I36
sS'1276.812,0.000,-2975.659'
p1127
I41
sS'1276.812,13196.709,-947.734'
p1128
I47
sS'0.000,13196.709,-947.734'
p1129
I46
sS'0.000,13196.709,-2975.659'
p1130
I56
sS'1276.812,0.000,0.000'
p1131
I1
sS'2553.624,0.000,-1616.950'
p1132
I32
sS'3869.127,0.000,-2306.444'
p1133
I39
sS'2553.624,2177.457,0.000'
p1134
I13
sS'0.000,13196.709,-1616.950'
p1135
I44
sS'3869.127,6598.355,0.000'
p1136
I27
sS'0.000,0.000,-1616.950'
p1137
I28
sS'0.000,8841.795,0.000'
p1138
I6
sS'2553.624,4354.914,0.000'
p1139
I14
sS'0.000,0.000,-2975.659'
p1140
I40
sS'1276.812,13196.709,-1616.950'
p1141
I45
sS'1276.812,0.000,-2306.444'
p1142
I37
sS'2553.624,13196.709,-1616.950'
p1143
I48
sS'2553.624,0.000,-947.734'
p1144
I33
sS'2553.624,11019.252,0.000'
p1145
I16
sS'1276.812,2177.457,0.000'
p1146
I3
sS'3869.127,0.000,0.000'
p1147
I18
sS'3869.127,2177.457,0.000'
p1148
I19
sS'3869.127,13196.709,-1616.950'
p1149
I50
sS'0.000,13196.709,0.000'
p1150
I10
sS'3869.127,13196.709,0.000'
p1151
I23
sS'1276.812,6598.355,0.000'
p1152
I25
sS'3869.127,0.000,-947.734'
p1153
I35
ssS'path'
p1154
S'C:\\Temp\\'
p1155
sS'results'
p1156
(dp1157
S'step_2'
p1158
S'ERROR'
p1159
sS'step_3'
p1160
g1159
sS'step_4'
p1161
g1159
sS'step_1'
p1162
g1159
ssS'sections'
p1163
(dp1164
g367
g0
(ccompas_fea.structure.section
ShellSection
p1165
g2
Ntp1166
Rp1167
(dp1168
g15
I1
sS'__name__'
p1169
S'ShellSection'
p1170
sS'name'
p1171
g367
sS'geometry'
p1172
(dp1173
S't'
p1174
F776.48246348670079
ssS'loc_coords_OR'
p1175
(dp1176
S'ORxyz'
p1177
(lp1178
I0
aI0
aF-2027.92516828
assS'loc_coords_XA'
p1179
(dp1180
S'XAxyz'
p1181
(lp1182
I1
aI0
aF-2027.92516828
assS'loc_coords_YA'
p1183
(dp1184
S'YAxyz'
p1185
(lp1186
F2027.92516828
aF-2027.92516828
aF-2026.92516828
assS'loc_coords_EV_XA'
p1187
(dp1188
S'EV_XA'
p1189
(lp1190
F1.0
aF0.0
aF0.0
assS'loc_coords_EV_YA'
p1191
(dp1192
S'EV_YA'
p1193
(lp1194
F0.70710673820113279
aF-0.70710673820113279
aF0.00034868482785332299
assS'loc_coords_EV_ZA'
p1195
(dp1196
S'EV_ZA'
p1197
(lp1198
F0.0
aF-1.0
aF0.0
assS'nr_layers'
p1199
(dp1200
S'nn'
p1201
F77.0
ssS'offset'
p1202
(dp1203
S'mode'
p1204
S'mid'
p1205
ssbsg381
g0
(g1165
g2
Ntp1206
Rp1207
(dp1208
g15
I0
sg1169
g1170
sg1171
g381
sg1172
(dp1209
g1174
F947.73429097015151
ssg1175
(dp1210
g1177
(lp1211
I0
aI0
aI0
assg1179
(dp1212
g1181
(lp1213
I1
aI0
aI0
assg1183
(dp1214
g1185
(lp1215
F0.0
aF1.0
aF0.0
assg1187
(dp1216
g1189
(lp1217
F1.0
aF0.0
aF0.0
assg1191
(dp1218
g1193
(lp1219
F0.0
aF1.0
aF0.0
assg1195
(dp1220
g1197
(lp1221
F0.0
aF0.0
aF1.0
assg1199
(dp1222
g1201
F74.0
ssg1202
(dp1223
g1204
S'top'
p1224
ssbsg358
g0
(g1165
g2
Ntp1225
Rp1226
(dp1227
g15
I2
sg1169
g1170
sg1171
g358
sg1172
(dp1228
g1174
F776.48246348670079
ssg1175
(dp1229
g1177
(lp1230
I0
aF13196.7093222
aF-2027.92516828
assg1179
(dp1231
g1181
(lp1232
I1
aF13196.7093222
aF-2027.92516828
assg1183
(dp1233
g1185
(lp1234
F-2027.9251682795584
aF11168.78415392
aF-15225.634490480001
assg1187
(dp1235
g1189
(lp1236
F1.0
aF0.0
aF0.0
assg1191
(dp1237
g1193
(lp1238
F-0.15015305065288195
aF-0.15015305065291468
aF-0.97719400466808859
assg1195
(dp1239
g1197
(lp1240
F0.0
aF1.0
aF0.0
assg1199
(dp1241
g1201
F77.0
ssg1202
(dp1242
g1204
g1205
ssbsg451
g0
(ccompas_fea.structure.section
MPCSection
p1243
g2
Ntp1244
Rp1245
(dp1246
g545
I3
sg1169
S'MPCSection'
p1247
sg1171
g451
sg1172
NsS'nr_layers'
p1248
NsbssS'sets'
p1249
(dp1250
g476
g0
(ccompas_fea.structure.set
Set
p1251
g2
Ntp1252
Rp1253
(dp1254
S'__name__'
p1255
S'Set'
p1256
sS'name'
p1257
g476
sS'type'
p1258
S'element'
p1259
sS'selection'
p1260
(lp1261
I22
asS'index'
p1262
I13
sbsg452
g0
(g1251
g2
Ntp1263
Rp1264
(dp1265
g1255
g1256
sg1257
g452
sg1258
g1259
sg1260
(lp1266
I36
aI37
aI38
aI39
aI40
aI41
aI42
aI43
asg1262
I27
sbsg360
g0
(g1251
g2
Ntp1267
Rp1268
(dp1269
g1255
g1256
sg1257
g360
sg1258
g1259
sg1260
(lp1270
I30
asg1262
I21
sbsg406
g0
(g1251
g2
Ntp1271
Rp1272
(dp1273
g1255
g1256
sg1257
g406
sg1258
g1259
sg1260
(lp1274
I4
aI5
asg1262
I2
sbsg372
g0
(g1251
g2
Ntp1275
Rp1276
(dp1277
g1255
g1256
sg1257
g372
sg1258
g1259
sg1260
(lp1278
I25
asg1262
I16
sbsg468
g0
(g1251
g2
Ntp1279
Rp1280
(dp1281
g1255
g1256
sg1257
g468
sg1258
g1259
sg1260
(lp1282
I27
asg1262
I18
sbsg446
g0
(g1251
g2
Ntp1283
Rp1284
(dp1285
g1255
g1256
sg1257
g446
sg1258
g1259
sg1260
(lp1286
I2
aI3
asg1262
I1
sbsg382
g0
(g1251
g2
Ntp1287
Rp1288
(dp1289
g1255
g1256
sg1257
g382
sg1258
g1259
sg1260
(lp1290
I0
aI1
asg1262
I0
sbsg434
g0
(g1251
g2
Ntp1291
Rp1292
(dp1293
g1255
g1256
sg1257
g434
sg1258
g1259
sg1260
(lp1294
I12
aI13
asg1262
I6
sbsg472
g0
(g1251
g2
Ntp1295
Rp1296
(dp1297
g1255
g1256
sg1257
g472
sg1258
g1259
sg1260
(lp1298
I10
aI11
asg1262
I5
sbsg398
g0
(g1251
g2
Ntp1299
Rp1300
(dp1301
g1255
g1256
sg1257
g398
sg1258
g1259
sg1260
(lp1302
I8
aI9
asg1262
I4
sbsg442
g0
(g1251
g2
Ntp1303
Rp1304
(dp1305
g1255
g1256
sg1257
g442
sg1258
g1259
sg1260
(lp1306
I6
aI7
asg1262
I3
sbsg390
g0
(g1251
g2
Ntp1307
Rp1308
(dp1309
g1255
g1256
sg1257
g390
sg1258
g1259
sg1260
(lp1310
I16
aI17
asg1262
I8
sbsg426
g0
(g1251
g2
Ntp1311
Rp1312
(dp1313
g1255
g1256
sg1257
g426
sg1258
g1259
sg1260
(lp1314
I14
aI15
asg1262
I7
sbsg402
g0
(g1251
g2
Ntp1315
Rp1316
(dp1317
g1255
g1256
sg1257
g402
sg1258
g1259
sg1260
(lp1318
I20
asg1262
I11
sbsg464
g0
(g1251
g2
Ntp1319
Rp1320
(dp1321
g1255
g1256
sg1257
g464
sg1258
g1259
sg1260
(lp1322
I35
asg1262
I26
sbsg414
g0
(g1251
g2
Ntp1323
Rp1324
(dp1325
g1255
g1256
sg1257
g414
sg1258
g1259
sg1260
(lp1326
I32
asg1262
I23
sbsg394
g0
(g1251
g2
Ntp1327
Rp1328
(dp1329
g1255
g1256
sg1257
g394
sg1258
g1259
sg1260
(lp1330
I23
asg1262
I14
sbsg410
g0
(g1251
g2
Ntp1331
Rp1332
(dp1333
g1255
g1256
sg1257
g410
sg1258
g1259
sg1260
(lp1334
I29
asg1262
I20
sbsg430
g0
(g1251
g2
Ntp1335
Rp1336
(dp1337
g1255
g1256
sg1257
g430
sg1258
g1259
sg1260
(lp1338
I18
asg1262
I9
sbsg422
g0
(g1251
g2
Ntp1339
Rp1340
(dp1341
g1255
g1256
sg1257
g422
sg1258
g1259
sg1260
(lp1342
I26
asg1262
I17
sbsg35
g0
(g1251
g2
Ntp1343
Rp1344
(dp1345
g1255
g1256
sg1257
g35
sg1258
S'node'
p1346
sg1260
(lp1347
I59
aI58
aI57
aI56
asg1262
I29
sbsg418
g0
(g1251
g2
Ntp1348
Rp1349
(dp1350
g1255
g1256
sg1257
g418
sg1258
g1259
sg1260
(lp1351
I21
asg1262
I12
sbsg438
g0
(g1251
g2
Ntp1352
Rp1353
(dp1354
g1255
g1256
sg1257
g438
sg1258
g1259
sg1260
(lp1355
I34
asg1262
I25
sbsg386
g0
(g1251
g2
Ntp1356
Rp1357
(dp1358
g1255
g1256
sg1257
g386
sg1258
g1259
sg1260
(lp1359
I31
asg1262
I22
sbsg20
g0
(g1251
g2
Ntp1360
Rp1361
(dp1362
g1255
g1256
sg1257
g20
sg1258
g1346
sg1260
(lp1363
I43
aI42
aI41
aI40
asg1262
I28
sbsg456
g0
(g1251
g2
Ntp1364
Rp1365
(dp1366
g1255
g1256
sg1257
g456
sg1258
g1259
sg1260
(lp1367
I24
asg1262
I15
sbsg376
g0
(g1251
g2
Ntp1368
Rp1369
(dp1370
g1255
g1256
sg1257
g376
sg1258
g1259
sg1260
(lp1371
I28
asg1262
I19
sbsg368
g0
(g1251
g2
Ntp1372
Rp1373
(dp1374
g1255
g1256
sg1257
g368
sg1258
g1259
sg1260
(lp1375
I19
asg1262
I10
sbsg460
g0
(g1251
g2
Ntp1376
Rp1377
(dp1378
g1255
g1256
sg1257
g460
sg1258
g1259
sg1260
(lp1379
I33
asg1262
I24
sbssS'steps'
p1380
(dp1381
g1158
g0
(ccompas_fea.structure.step
GeneralStep
p1382
g2
Ntp1383
Rp1384
(dp1385
g15
I1
sS'__name__'
p1386
S'GeneralStep'
p1387
sS'name'
p1388
g1158
sS'attr_list'
p1389
(lp1390
g499
aS'increments'
p1391
aS'iterations'
p1392
aS'factor'
p1393
aS'nlgeom'
p1394
aS'nlmat'
p1395
aS'displacements'
p1396
aS'loads'
p1397
aS'type'
p1398
aS'tolerance'
p1399
aS'modify'
p1400
asS'increments'
p1401
I1
sS'iterations'
p1402
I100
sS'tolerance'
p1403
F0.01
sS'factor'
p1404
F1.0
sS'nlgeom'
p1405
I00
sS'nlmat'
p1406
I01
sS'displacements'
p1407
(lp1408
sS'loads'
p1409
(lp1410
g540
asS'modify'
p1411
I01
sS'type'
p1412
S'static'
p1413
sbsg1160
g0
(g1382
g2
Ntp1414
Rp1415
(dp1416
g15
I2
sg1386
g1387
sg1388
g1160
sg1389
(lp1417
g499
ag1391
ag1392
ag1393
ag1394
ag1395
ag1396
ag1397
ag1398
ag1399
ag1400
asg1401
I1
sg1402
I100
sg1403
F0.01
sg1404
F1.0
sg1405
I00
sg1406
I01
sg1407
(lp1418
sg1409
(lp1419
g533
ag526
ag519
asg1411
I01
sg1412
g1413
sbsg1161
g0
(g1382
g2
Ntp1420
Rp1421
(dp1422
g15
I3
sg1386
g1387
sg1388
g1161
sg1389
(lp1423
g499
ag1391
ag1392
ag1393
ag1394
ag1395
ag1396
ag1397
ag1398
ag1399
ag1400
asg1401
I1
sg1402
I100
sg1403
F0.01
sg1404
F1.0
sg1405
I00
sg1406
I01
sg1407
(lp1424
sg1409
(lp1425
g512
ag481
ag504
asg1411
I01
sg1412
g1413
sbsg1162
g0
(g1382
g2
Ntp1426
Rp1427
(dp1428
g15
I0
sg1386
g1387
sg1388
g1162
sg1389
(lp1429
g499
ag1391
ag1392
ag1393
ag1394
ag1395
ag1396
ag1397
ag1398
ag1399
ag1400
asg1401
I1
sg1402
I100
sg1403
F0.01
sg1404
F1.0
sg1405
I00
sg1406
I01
sg1407
(lp1430
g10
ag31
asg1409
(lp1431
sg1411
I01
sg1412
g1413
sbssS'loc_coor'
p1432
(dp1433
sS'steps_order'
p1434
(lp1435
g1162
ag1158
ag1160
ag1161
asS'tol'
p1436
S'3'
p1437
sS'virtual_nodes'
p1438
(dp1439
sS'virtual_node_index'
p1440
(dp1441
sS'virtual_elements'
p1442
(dp1443
sS'virtual_element_index'
p1444
(dp1445
sb.