ccopy_reg
_reconstructor
p0
(ccompas_fea.structure.structure
Structure
p1
c__builtin__
object
p2
Ntp3
Rp4
(dp5
S'constraints'
p6
(dp7
sS'displacements'
p8
(dp9
S'nset_pinned_set_disp_1'
p10
g0
(ccompas_fea.structure.displacement
GeneralDisplacement
p11
g2
Ntp12
Rp13
(dp14
S'index'
p15
I0
sS'__name__'
p16
S'GeneralDisplacement'
p17
sS'name'
p18
g10
sS'nodes'
p19
S'nset_support_wall1'
p20
sS'components'
p21
(dp22
S'z'
p23
I0
sS'xx'
p24
I0
sS'zz'
p25
I0
sS'yy'
p26
I0
sS'y'
p27
I0
sS'x'
p28
I0
ssS'axes'
p29
S'global'
p30
sbsS'nset_pinned_set_disp_2'
p31
g0
(g11
g2
Ntp32
Rp33
(dp34
g15
I1
sg16
g17
sg18
g31
sg19
S'nset_support_wall2'
p35
sg21
(dp36
g23
I0
sg24
I0
sg25
I0
sg26
I0
sg27
I0
sg28
I0
ssg29
g30
sbssS'elements'
p37
(dp38
I0
g0
(ccompas_fea.structure.element
ShellElement
p39
g2
Ntp40
Rp41
(dp42
S'mass'
p43
NsS'__name__'
p44
S'ShellElement'
p45
sS'nodes'
p46
(lp47
I0
aI1
aI3
aI2
asS'number'
p48
I0
sS'thermal'
p49
I00
sS'axes'
p50
(dp51
S'ey'
p52
NsS'ez'
p53
NsS'ex'
p54
NssS'element_property'
p55
S'elset_plate_1_element_prop'
p56
sbsI1
g0
(g39
g2
Ntp57
Rp58
(dp59
g43
Nsg44
g45
sg46
(lp60
I2
aI3
aI5
aI4
asg48
I1
sg49
I00
sg50
g51
sg55
g56
sbsI2
g0
(g39
g2
Ntp61
Rp62
(dp63
g43
Nsg44
g45
sg46
(lp64
I4
aI5
aI7
aI6
asg48
I2
sg49
I00
sg50
g51
sg55
g56
sbsI3
g0
(g39
g2
Ntp65
Rp66
(dp67
g43
Nsg44
g45
sg46
(lp68
I6
aI7
aI9
aI8
asg48
I3
sg49
I00
sg50
g51
sg55
g56
sbsI4
g0
(g39
g2
Ntp69
Rp70
(dp71
g43
Nsg44
g45
sg46
(lp72
I8
aI9
aI11
aI10
asg48
I4
sg49
I00
sg50
g51
sg55
g56
sbsI5
g0
(g39
g2
Ntp73
Rp74
(dp75
g43
Nsg44
g45
sg46
(lp76
I12
aI13
aI15
aI14
asg48
I5
sg49
I00
sg50
(dp77
g52
Nsg53
Nsg54
Nssg55
S'elset_plate_2_element_prop'
p78
sbsI6
g0
(g39
g2
Ntp79
Rp80
(dp81
g43
Nsg44
g45
sg46
(lp82
I14
aI15
aI17
aI16
asg48
I6
sg49
I00
sg50
g77
sg55
g78
sbsI7
g0
(g39
g2
Ntp83
Rp84
(dp85
g43
Nsg44
g45
sg46
(lp86
I16
aI17
aI19
aI18
asg48
I7
sg49
I00
sg50
g77
sg55
g78
sbsI8
g0
(g39
g2
Ntp87
Rp88
(dp89
g43
Nsg44
g45
sg46
(lp90
I18
aI19
aI21
aI20
asg48
I8
sg49
I00
sg50
g77
sg55
g78
sbsI9
g0
(g39
g2
Ntp91
Rp92
(dp93
g43
Nsg44
g45
sg46
(lp94
I20
aI21
aI23
aI22
asg48
I9
sg49
I00
sg50
g77
sg55
g78
sbsI10
g0
(g39
g2
Ntp95
Rp96
(dp97
g43
Nsg44
g45
sg46
(lp98
I1
aI24
aI25
aI3
asg48
I10
sg49
I00
sg50
(dp99
g52
Nsg53
Nsg54
Nssg55
S'elset_plate_3_element_prop'
p100
sbsI11
g0
(g39
g2
Ntp101
Rp102
(dp103
g43
Nsg44
g45
sg46
(lp104
I3
aI25
aI26
aI5
asg48
I11
sg49
I00
sg50
g99
sg55
g100
sbsI12
g0
(g39
g2
Ntp105
Rp106
(dp107
g43
Nsg44
g45
sg46
(lp108
I5
aI26
aI27
aI7
asg48
I12
sg49
I00
sg50
g99
sg55
g100
sbsI13
g0
(g39
g2
Ntp109
Rp110
(dp111
g43
Nsg44
g45
sg46
(lp112
I7
aI27
aI28
aI9
asg48
I13
sg49
I00
sg50
g99
sg55
g100
sbsI14
g0
(g39
g2
Ntp113
Rp114
(dp115
g43
Nsg44
g45
sg46
(lp116
I9
aI28
aI29
aI11
asg48
I14
sg49
I00
sg50
g99
sg55
g100
sbsI15
g0
(g39
g2
Ntp117
Rp118
(dp119
g43
Nsg44
g45
sg46
(lp120
I13
aI30
aI31
aI15
asg48
I15
sg49
I00
sg50
(dp121
g52
Nsg53
Nsg54
Nssg55
S'elset_plate_4_element_prop'
p122
sbsI16
g0
(g39
g2
Ntp123
Rp124
(dp125
g43
Nsg44
g45
sg46
(lp126
I15
aI31
aI32
aI17
asg48
I16
sg49
I00
sg50
g121
sg55
g122
sbsI17
g0
(g39
g2
Ntp127
Rp128
(dp129
g43
Nsg44
g45
sg46
(lp130
I17
aI32
aI33
aI19
asg48
I17
sg49
I00
sg50
g121
sg55
g122
sbsI18
g0
(g39
g2
Ntp131
Rp132
(dp133
g43
Nsg44
g45
sg46
(lp134
I19
aI33
aI34
aI21
asg48
I18
sg49
I00
sg50
g121
sg55
g122
sbsI19
g0
(g39
g2
Ntp135
Rp136
(dp137
g43
Nsg44
g45
sg46
(lp138
I21
aI34
aI35
aI23
asg48
I19
sg49
I00
sg50
g121
sg55
g122
sbsI20
g0
(g39
g2
Ntp139
Rp140
(dp141
g43
Nsg44
g45
sg46
(lp142
I24
aI36
aI37
aI25
asg48
I20
sg49
I00
sg50
(dp143
g52
Nsg53
Nsg54
Nssg55
S'elset_plate_5_element_prop'
p144
sbsI21
g0
(g39
g2
Ntp145
Rp146
(dp147
g43
Nsg44
g45
sg46
(lp148
I25
aI37
aI38
aI26
asg48
I21
sg49
I00
sg50
g143
sg55
g144
sbsI22
g0
(g39
g2
Ntp149
Rp150
(dp151
g43
Nsg44
g45
sg46
(lp152
I26
aI38
aI39
aI27
asg48
I22
sg49
I00
sg50
g143
sg55
g144
sbsI23
g0
(g39
g2
Ntp153
Rp154
(dp155
g43
Nsg44
g45
sg46
(lp156
I27
aI39
aI40
aI28
asg48
I23
sg49
I00
sg50
g143
sg55
g144
sbsI24
g0
(g39
g2
Ntp157
Rp158
(dp159
g43
Nsg44
g45
sg46
(lp160
I28
aI40
aI41
aI29
asg48
I24
sg49
I00
sg50
g143
sg55
g144
sbsI25
g0
(g39
g2
Ntp161
Rp162
(dp163
g43
Nsg44
g45
sg46
(lp164
I30
aI42
aI43
aI31
asg48
I25
sg49
I00
sg50
(dp165
g52
Nsg53
Nsg54
Nssg55
S'elset_plate_6_element_prop'
p166
sbsI26
g0
(g39
g2
Ntp167
Rp168
(dp169
g43
Nsg44
g45
sg46
(lp170
I31
aI43
aI44
aI32
asg48
I26
sg49
I00
sg50
g165
sg55
g166
sbsI27
g0
(g39
g2
Ntp171
Rp172
(dp173
g43
Nsg44
g45
sg46
(lp174
I32
aI44
aI45
aI33
asg48
I27
sg49
I00
sg50
g165
sg55
g166
sbsI28
g0
(g39
g2
Ntp175
Rp176
(dp177
g43
Nsg44
g45
sg46
(lp178
I33
aI45
aI46
aI34
asg48
I28
sg49
I00
sg50
g165
sg55
g166
sbsI29
g0
(g39
g2
Ntp179
Rp180
(dp181
g43
Nsg44
g45
sg46
(lp182
I34
aI46
aI47
aI35
asg48
I29
sg49
I00
sg50
g165
sg55
g166
sbsI30
g0
(g39
g2
Ntp183
Rp184
(dp185
g43
Nsg44
g45
sg46
(lp186
I10
aI11
aI49
aI48
asg48
I30
sg49
I00
sg50
(dp187
g52
Nsg53
Nsg54
Nssg55
S'elset_plate_7_element_prop'
p188
sbsI31
g0
(g39
g2
Ntp189
Rp190
(dp191
g43
Nsg44
g45
sg46
(lp192
I48
aI49
aI51
aI50
asg48
I31
sg49
I00
sg50
g187
sg55
g188
sbsI32
g0
(g39
g2
Ntp193
Rp194
(dp195
g43
Nsg44
g45
sg46
(lp196
I50
aI51
aI53
aI52
asg48
I32
sg49
I00
sg50
g187
sg55
g188
sbsI33
g0
(g39
g2
Ntp197
Rp198
(dp199
g43
Nsg44
g45
sg46
(lp200
I52
aI53
aI55
aI54
asg48
I33
sg49
I00
sg50
g187
sg55
g188
sbsI34
g0
(g39
g2
Ntp201
Rp202
(dp203
g43
Nsg44
g45
sg46
(lp204
I54
aI55
aI13
aI12
asg48
I34
sg49
I00
sg50
g187
sg55
g188
sbsI35
g0
(g39
g2
Ntp205
Rp206
(dp207
g43
Nsg44
g45
sg46
(lp208
I11
aI29
aI56
aI49
asg48
I35
sg49
I00
sg50
(dp209
g52
Nsg53
Nsg54
Nssg55
S'elset_plate_8_element_prop'
p210
sbsI36
g0
(g39
g2
Ntp211
Rp212
(dp213
g43
Nsg44
g45
sg46
(lp214
I49
aI56
aI57
aI51
asg48
I36
sg49
I00
sg50
g209
sg55
g210
sbsI37
g0
(g39
g2
Ntp215
Rp216
(dp217
g43
Nsg44
g45
sg46
(lp218
I51
aI57
aI58
aI53
asg48
I37
sg49
I00
sg50
g209
sg55
g210
sbsI38
g0
(g39
g2
Ntp219
Rp220
(dp221
g43
Nsg44
g45
sg46
(lp222
I53
aI58
aI59
aI55
asg48
I38
sg49
I00
sg50
g209
sg55
g210
sbsI39
g0
(g39
g2
Ntp223
Rp224
(dp225
g43
Nsg44
g45
sg46
(lp226
I55
aI59
aI30
aI13
asg48
I39
sg49
I00
sg50
g209
sg55
g210
sbsI40
g0
(g39
g2
Ntp227
Rp228
(dp229
g43
Nsg44
g45
sg46
(lp230
I29
aI41
aI60
aI56
asg48
I40
sg49
I00
sg50
(dp231
g52
Nsg53
Nsg54
Nssg55
S'elset_plate_9_element_prop'
p232
sbsI41
g0
(g39
g2
Ntp233
Rp234
(dp235
g43
Nsg44
g45
sg46
(lp236
I56
aI60
aI61
aI57
asg48
I41
sg49
I00
sg50
g231
sg55
g232
sbsI42
g0
(g39
g2
Ntp237
Rp238
(dp239
g43
Nsg44
g45
sg46
(lp240
I57
aI61
aI62
aI58
asg48
I42
sg49
I00
sg50
g231
sg55
g232
sbsI43
g0
(g39
g2
Ntp241
Rp242
(dp243
g43
Nsg44
g45
sg46
(lp244
I58
aI62
aI63
aI59
asg48
I43
sg49
I00
sg50
g231
sg55
g232
sbsI44
g0
(g39
g2
Ntp245
Rp246
(dp247
g43
Nsg44
g45
sg46
(lp248
I59
aI63
aI42
aI30
asg48
I44
sg49
I00
sg50
g231
sg55
g232
sbsI45
g0
(g39
g2
Ntp249
Rp250
(dp251
g43
Nsg44
g45
sg46
(lp252
I64
aI65
aI67
aI66
asg48
I45
sg49
I00
sg50
(dp253
g52
Nsg53
Nsg54
Nssg55
S'elset_wall_1_1_element_prop'
p254
sbsI46
g0
(g39
g2
Ntp255
Rp256
(dp257
g43
Nsg44
g45
sg46
(lp258
I65
aI68
aI69
aI67
asg48
I46
sg49
I00
sg50
(dp259
g52
Nsg53
Nsg54
Nssg55
S'elset_wall_1_2_element_prop'
p260
sbsI47
g0
(g39
g2
Ntp261
Rp262
(dp263
g43
Nsg44
g45
sg46
(lp264
I68
aI70
aI71
aI69
asg48
I47
sg49
I00
sg50
(dp265
g52
Nsg53
Nsg54
Nssg55
S'elset_wall_1_3_element_prop'
p266
sbsI48
g0
(g39
g2
Ntp267
Rp268
(dp269
g43
Nsg44
g45
sg46
(lp270
I72
aI73
aI65
aI64
asg48
I48
sg49
I00
sg50
(dp271
g52
Nsg53
Nsg54
Nssg55
S'elset_wall_1_4_element_prop'
p272
sbsI49
g0
(g39
g2
Ntp273
Rp274
(dp275
g43
Nsg44
g45
sg46
(lp276
I73
aI74
aI68
aI65
asg48
I49
sg49
I00
sg50
(dp277
g52
Nsg53
Nsg54
Nssg55
S'elset_wall_1_5_element_prop'
p278
sbsI50
g0
(g39
g2
Ntp279
Rp280
(dp281
g43
Nsg44
g45
sg46
(lp282
I74
aI75
aI70
aI68
asg48
I50
sg49
I00
sg50
(dp283
g52
Nsg53
Nsg54
Nssg55
S'elset_wall_1_6_element_prop'
p284
sbsI51
g0
(g39
g2
Ntp285
Rp286
(dp287
g43
Nsg44
g45
sg46
(lp288
I76
aI77
aI73
aI72
asg48
I51
sg49
I00
sg50
(dp289
g52
Nsg53
Nsg54
Nssg55
S'elset_wall_1_7_element_prop'
p290
sbsI52
g0
(g39
g2
Ntp291
Rp292
(dp293
g43
Nsg44
g45
sg46
(lp294
I77
aI78
aI74
aI73
asg48
I52
sg49
I00
sg50
(dp295
g52
Nsg53
Nsg54
Nssg55
S'elset_wall_1_8_element_prop'
p296
sbsI53
g0
(g39
g2
Ntp297
Rp298
(dp299
g43
Nsg44
g45
sg46
(lp300
I78
aI79
aI75
aI74
asg48
I53
sg49
I00
sg50
(dp301
g52
Nsg53
Nsg54
Nssg55
S'elset_wall_1_9_element_prop'
p302
sbsI54
g0
(g39
g2
Ntp303
Rp304
(dp305
g43
Nsg44
g45
sg46
(lp306
I80
aI82
aI83
aI81
asg48
I54
sg49
I00
sg50
(dp307
g52
Nsg53
Nsg54
Nssg55
S'elset_wall_2_1_element_prop'
p308
sbsI55
g0
(g39
g2
Ntp309
Rp310
(dp311
g43
Nsg44
g45
sg46
(lp312
I81
aI83
aI85
aI84
asg48
I55
sg49
I00
sg50
(dp313
g52
Nsg53
Nsg54
Nssg55
S'elset_wall_2_2_element_prop'
p314
sbsI56
g0
(g39
g2
Ntp315
Rp316
(dp317
g43
Nsg44
g45
sg46
(lp318
I84
aI85
aI87
aI86
asg48
I56
sg49
I00
sg50
(dp319
g52
Nsg53
Nsg54
Nssg55
S'elset_wall_2_3_element_prop'
p320
sbsI57
g0
(g39
g2
Ntp321
Rp322
(dp323
g43
Nsg44
g45
sg46
(lp324
I88
aI80
aI81
aI89
asg48
I57
sg49
I00
sg50
(dp325
g52
Nsg53
Nsg54
Nssg55
S'elset_wall_2_4_element_prop'
p326
sbsI58
g0
(g39
g2
Ntp327
Rp328
(dp329
g43
Nsg44
g45
sg46
(lp330
I89
aI81
aI84
aI90
asg48
I58
sg49
I00
sg50
(dp331
g52
Nsg53
Nsg54
Nssg55
S'elset_wall_2_5_element_prop'
p332
sbsI59
g0
(g39
g2
Ntp333
Rp334
(dp335
g43
Nsg44
g45
sg46
(lp336
I90
aI84
aI86
aI91
asg48
I59
sg49
I00
sg50
(dp337
g52
Nsg53
Nsg54
Nssg55
S'elset_wall_2_6_element_prop'
p338
sbsI60
g0
(g39
g2
Ntp339
Rp340
(dp341
g43
Nsg44
g45
sg46
(lp342
I92
aI88
aI89
aI93
asg48
I60
sg49
I00
sg50
(dp343
g52
Nsg53
Nsg54
Nssg55
S'elset_wall_2_7_element_prop'
p344
sbsI61
g0
(g39
g2
Ntp345
Rp346
(dp347
g43
Nsg44
g45
sg46
(lp348
I93
aI89
aI90
aI94
asg48
I61
sg49
I00
sg50
(dp349
g52
Nsg53
Nsg54
Nssg55
S'elset_wall_2_8_element_prop'
p350
sbsI62
g0
(g39
g2
Ntp351
Rp352
(dp353
g43
Nsg44
g45
sg46
(lp354
I94
aI90
aI91
aI95
asg48
I62
sg49
I00
sg50
(dp355
g52
Nsg53
Nsg54
Nssg55
S'elset_wall_2_9_element_prop'
p356
sbsI63
g0
(ccompas_fea.structure.element
MPCElement
p357
g2
Ntp358
Rp359
(dp360
g43
Nsg44
S'MPCElement'
p361
sg46
(lp362
I87
aI47
asg48
I63
sg49
I00
sg50
(dp363
g52
Nsg53
(lp364
F4.5474735088646412e-13
aF0.0
aF376.38740862857247
asg54
Nssg55
S'elset_mpc_element_prop'
p365
sbsI64
g0
(g357
g2
Ntp366
Rp367
(dp368
g43
Nsg44
g361
sg46
(lp369
I85
aI35
asg48
I64
sg49
I00
sg50
(dp370
g52
Nsg53
(lp371
F2.7284841053187847e-12
aF0.0
aF376.38740862857247
asg54
Nssg55
g365
sbsI65
g0
(g357
g2
Ntp372
Rp373
(dp374
g43
Nsg44
g361
sg46
(lp375
I83
aI23
asg48
I65
sg49
I00
sg50
(dp376
g52
Nsg53
(lp377
F-3.637978807091713e-12
aF0.0
aF376.38740862857247
asg54
Nssg55
g365
sbsI66
g0
(g357
g2
Ntp378
Rp379
(dp380
g43
Nsg44
g361
sg46
(lp381
I82
aI22
asg48
I66
sg49
I00
sg50
(dp382
g52
Nsg53
(lp383
F0.0
aF0.0
aF376.38740862857247
asg54
Nssg55
g365
sbsI67
g0
(g357
g2
Ntp384
Rp385
(dp386
g43
Nsg44
g361
sg46
(lp387
I71
aI36
asg48
I67
sg49
I00
sg50
(dp388
g52
Nsg53
(lp389
F4.5474735088646412e-13
aF0.0
aF376.38740862857247
asg54
Nssg55
g365
sbsI68
g0
(g357
g2
Ntp390
Rp391
(dp392
g43
Nsg44
g361
sg46
(lp393
I69
aI24
asg48
I68
sg49
I00
sg50
(dp394
g52
Nsg53
(lp395
F2.7284841053187847e-12
aF0.0
aF376.38740862857247
asg54
Nssg55
g365
sbsI69
g0
(g357
g2
Ntp396
Rp397
(dp398
g43
Nsg44
g361
sg46
(lp399
I67
aI1
asg48
I69
sg49
I00
sg50
(dp400
g52
Nsg53
(lp401
F-3.637978807091713e-12
aF0.0
aF376.38740862857247
asg54
Nssg55
g365
sbsI70
g0
(g357
g2
Ntp402
Rp403
(dp404
g43
Nsg44
g361
sg46
(lp405
I66
aI0
asg48
I70
sg49
I00
sg50
(dp406
g52
Nsg53
(lp407
F0.0
aF0.0
aF376.38740862857247
asg54
Nssg55
g365
sbssS'element_index'
p408
(dp409
S'2685.723,16471.017,-1877.895'
p410
I59
sS'3235.811,16471.017,-188.194'
p411
I63
sS'533.909,4891.892,0.000'
p412
I4
sS'533.909,0.000,-871.885'
p413
I45
sS'1601.726,16471.017,-871.885'
p414
I55
sS'1601.726,12666.212,0.000'
p415
I16
sS'533.909,5995.450,0.000'
p416
I30
sS'2135.635,16471.017,-188.194'
p417
I64
sS'2685.723,0.000,-1877.895'
p418
I50
sS'1067.818,16471.017,-188.194'
p419
I65
sS'0.000,0.000,-188.194'
p420
I70
sS'1601.726,15927.473,0.000'
p421
I19
sS'1601.726,10475.567,0.000'
p422
I39
sS'533.909,7115.479,0.000'
p423
I31
sS'1601.726,0.000,-871.885'
p424
I46
sS'2685.723,0.000,-871.885'
p425
I47
sS'2685.723,13753.299,0.000'
p426
I27
sS'2685.723,8235.508,0.000'
p427
I42
sS'2685.723,7115.479,0.000'
p428
I41
sS'3235.811,0.000,-188.194'
p429
I67
sS'2685.723,3804.805,0.000'
p430
I23
sS'533.909,11579.125,0.000'
p431
I5
sS'2135.635,0.000,-188.194'
p432
I68
sS'2685.723,0.000,-2883.905'
p433
I53
sS'2685.723,9355.537,0.000'
p434
I43
sS'533.909,15927.473,0.000'
p435
I9
sS'1601.726,4891.892,0.000'
p436
I14
sS'1601.726,5995.450,0.000'
p437
I35
sS'2685.723,543.544,0.000'
p438
I20
sS'533.909,13753.299,0.000'
p439
I7
sS'2685.723,14840.386,0.000'
p440
I28
sS'2685.723,12666.212,0.000'
p441
I26
sS'533.909,0.000,-1877.895'
p442
I48
sS'1601.726,14840.386,0.000'
p443
I18
sS'1601.726,7115.479,0.000'
p444
I36
sS'533.909,12666.212,0.000'
p445
I6
sS'533.909,2717.718,0.000'
p446
I2
sS'1601.726,13753.299,0.000'
p447
I17
sS'533.909,3804.805,0.000'
p448
I3
sS'1601.726,8235.508,0.000'
p449
I37
sS'2685.723,2717.718,0.000'
p450
I22
sS'1601.726,1630.631,0.000'
p451
I11
sS'533.909,8235.508,0.000'
p452
I32
sS'533.909,14840.386,0.000'
p453
I8
sS'533.909,16471.017,-2883.905'
p454
I60
sS'1601.726,3804.805,0.000'
p455
I13
sS'2685.723,10475.567,0.000'
p456
I44
sS'2685.723,4891.892,0.000'
p457
I24
sS'1601.726,16471.017,-2883.905'
p458
I61
sS'533.909,16471.017,-1877.895'
p459
I57
sS'1601.726,9355.537,0.000'
p460
I38
sS'2685.723,11579.125,0.000'
p461
I25
sS'2685.723,16471.017,-871.885'
p462
I56
sS'1601.726,16471.017,-1877.895'
p463
I58
sS'0.000,16471.017,-188.194'
p464
I66
sS'533.909,1630.631,0.000'
p465
I1
sS'1601.726,11579.125,0.000'
p466
I15
sS'1601.726,2717.718,0.000'
p467
I12
sS'1601.726,543.544,0.000'
p468
I10
sS'533.909,10475.567,0.000'
p469
I34
sS'1601.726,0.000,-1877.895'
p470
I49
sS'2685.723,15927.473,0.000'
p471
I29
sS'1601.726,0.000,-2883.905'
p472
I52
sS'1067.818,0.000,-188.194'
p473
I69
sS'2685.723,16471.017,-2883.905'
p474
I62
sS'533.909,0.000,-2883.905'
p475
I51
sS'533.909,9355.537,0.000'
p476
I33
sS'2685.723,5995.450,0.000'
p477
I40
sS'2685.723,1630.631,0.000'
p478
I21
sS'533.909,543.544,0.000'
p479
I0
sS'533.909,16471.017,-871.885'
p480
I54
ssS'element_properties'
p481
(dp482
g326
g0
(ccompas_fea.structure.element_properties
ElementProperties
p483
g2
Ntp484
Rp485
(dp486
g15
I21
sS'__name__'
p487
S'ElementProperties'
p488
sS'name'
p489
g326
sS'material'
p490
S'wall_element_mat'
p491
sS'section'
p492
S'wall2_element_sec'
p493
sS'elset'
p494
S'elset_wall_2_4'
p495
sS'elements'
p496
NsS'rebar'
p497
(dp498
sbsg260
g0
(g483
g2
Ntp499
Rp500
(dp501
g15
I10
sg487
g488
sg489
g260
sg490
g491
sg492
S'wall1_element_sec'
p502
sg494
S'elset_wall_1_2'
p503
sg496
Nsg497
g498
sbsg296
g0
(g483
g2
Ntp504
Rp505
(dp506
g15
I16
sg487
g488
sg489
g296
sg490
g491
sg492
g502
sg494
S'elset_wall_1_8'
p507
sg496
Nsg497
g498
sbsg314
g0
(g483
g2
Ntp508
Rp509
(dp510
g15
I19
sg487
g488
sg489
g314
sg490
g491
sg492
g493
sg494
S'elset_wall_2_2'
p511
sg496
Nsg497
g498
sbsg56
g0
(g483
g2
Ntp512
Rp513
(dp514
g15
I0
sg487
g488
sg489
g56
sg490
S'plate_element_mat'
p515
sg492
S'plate_element_sec'
p516
sg494
S'elset_plate_1'
p517
sg496
Nsg497
g498
sbsg332
g0
(g483
g2
Ntp518
Rp519
(dp520
g15
I22
sg487
g488
sg489
g332
sg490
g491
sg492
g493
sg494
S'elset_wall_2_5'
p521
sg496
Nsg497
g498
sbsg232
g0
(g483
g2
Ntp522
Rp523
(dp524
g15
I8
sg487
g488
sg489
g232
sg490
g515
sg492
g516
sg494
S'elset_plate_9'
p525
sg496
Nsg497
g498
sbsg284
g0
(g483
g2
Ntp526
Rp527
(dp528
g15
I14
sg487
g488
sg489
g284
sg490
g491
sg492
g502
sg494
S'elset_wall_1_6'
p529
sg496
Nsg497
g498
sbsg144
g0
(g483
g2
Ntp530
Rp531
(dp532
g15
I4
sg487
g488
sg489
g144
sg490
g515
sg492
g516
sg494
S'elset_plate_5'
p533
sg496
Nsg497
g498
sbsg266
g0
(g483
g2
Ntp534
Rp535
(dp536
g15
I11
sg487
g488
sg489
g266
sg490
g491
sg492
g502
sg494
S'elset_wall_1_3'
p537
sg496
Nsg497
g498
sbsg100
g0
(g483
g2
Ntp538
Rp539
(dp540
g15
I2
sg487
g488
sg489
g100
sg490
g515
sg492
g516
sg494
S'elset_plate_3'
p541
sg496
Nsg497
g498
sbsg320
g0
(g483
g2
Ntp542
Rp543
(dp544
g15
I20
sg487
g488
sg489
g320
sg490
g491
sg492
g493
sg494
S'elset_wall_2_3'
p545
sg496
Nsg497
g498
sbsg338
g0
(g483
g2
Ntp546
Rp547
(dp548
g15
I23
sg487
g488
sg489
g338
sg490
g491
sg492
g493
sg494
S'elset_wall_2_6'
p549
sg496
Nsg497
g498
sbsg272
g0
(g483
g2
Ntp550
Rp551
(dp552
g15
I12
sg487
g488
sg489
g272
sg490
g491
sg492
g502
sg494
S'elset_wall_1_4'
p553
sg496
Nsg497
g498
sbsg302
g0
(g483
g2
Ntp554
Rp555
(dp556
g15
I17
sg487
g488
sg489
g302
sg490
g491
sg492
g502
sg494
S'elset_wall_1_9'
p557
sg496
Nsg497
g498
sbsg210
g0
(g483
g2
Ntp558
Rp559
(dp560
g15
I7
sg487
g488
sg489
g210
sg490
g515
sg492
g516
sg494
S'elset_plate_8'
p561
sg496
Nsg497
g498
sbsg254
g0
(g483
g2
Ntp562
Rp563
(dp564
g15
I9
sg487
g488
sg489
g254
sg490
g491
sg492
g502
sg494
S'elset_wall_1_1'
p565
sg496
Nsg497
g498
sbsg188
g0
(g483
g2
Ntp566
Rp567
(dp568
g15
I6
sg487
g488
sg489
g188
sg490
g515
sg492
g516
sg494
S'elset_plate_7'
p569
sg496
Nsg497
g498
sbsg350
g0
(g483
g2
Ntp570
Rp571
(dp572
g15
I25
sg487
g488
sg489
g350
sg490
g491
sg492
g493
sg494
S'elset_wall_2_8'
p573
sg496
Nsg497
g498
sbsg122
g0
(g483
g2
Ntp574
Rp575
(dp576
g15
I3
sg487
g488
sg489
g122
sg490
g515
sg492
g516
sg494
S'elset_plate_4'
p577
sg496
Nsg497
g498
sbsg78
g0
(g483
g2
Ntp578
Rp579
(dp580
g15
I1
sg487
g488
sg489
g78
sg490
g515
sg492
g516
sg494
S'elset_plate_2'
p581
sg496
Nsg497
g498
sbsg365
g0
(g483
g2
Ntp582
Rp583
(dp584
g15
I27
sg487
g488
sg489
g365
sg490
S'elset_mpc_element_mat'
p585
sg492
S'sec_mpc'
p586
sg494
S'elset_mpcs'
p587
sg496
Nsg497
g498
sbsg290
g0
(g483
g2
Ntp588
Rp589
(dp590
g15
I15
sg487
g488
sg489
g290
sg490
g491
sg492
g502
sg494
S'elset_wall_1_7'
p591
sg496
Nsg497
g498
sbsg344
g0
(g483
g2
Ntp592
Rp593
(dp594
g15
I24
sg487
g488
sg489
g344
sg490
g491
sg492
g493
sg494
S'elset_wall_2_7'
p595
sg496
Nsg497
g498
sbsg356
g0
(g483
g2
Ntp596
Rp597
(dp598
g15
I26
sg487
g488
sg489
g356
sg490
g491
sg492
g493
sg494
S'elset_wall_2_9'
p599
sg496
Nsg497
g498
sbsg308
g0
(g483
g2
Ntp600
Rp601
(dp602
g15
I18
sg487
g488
sg489
g308
sg490
g491
sg492
g493
sg494
S'elset_wall_2_1'
p603
sg496
Nsg497
g498
sbsg166
g0
(g483
g2
Ntp604
Rp605
(dp606
g15
I5
sg487
g488
sg489
g166
sg490
g515
sg492
g516
sg494
S'elset_plate_6'
p607
sg496
Nsg497
g498
sbsg278
g0
(g483
g2
Ntp608
Rp609
(dp610
g15
I13
sg487
g488
sg489
g278
sg490
g491
sg492
g502
sg494
S'elset_wall_1_5'
p611
sg496
Nsg497
g498
sbssS'interactions'
p612
(dp613
sS'loads'
p614
(dp615
S'Gleis1_BAHNLASTEN_Lasteinzugsflache_Lastblock_-3'
p616
g0
(ccompas_fea.structure.load
AreaLoad
p617
g2
Ntp618
Rp619
(dp620
g15
I5
sS'__name__'
p621
S'AreaLoad'
p622
sS'name'
p623
g616
sS'axes'
p624
S'global'
p625
sS'components'
p626
(dp627
g23
F0.10514098055124318
sg27
I0
sg28
I0
ssS'nodes'
p628
(lp629
sS'elements'
p630
(lp631
I2
aI3
aI13
asS'attr_list'
p632
(lp633
S'name'
p634
aS'axes'
p635
aS'components'
p636
aS'nodes'
p637
aS'elements'
p638
asbsS'earthPressure_liveLoad'
p639
g0
(g617
g2
Ntp640
Rp641
(dp642
g15
I7
sg621
g622
sg623
g639
sg624
S'local'
p643
sg626
(dp644
g23
F0.037699999999999997
sg27
I0
sg28
I0
ssg628
g629
sg630
(lp645
I46
aI47
aI48
aI49
aI50
aI51
aI52
aI53
aI54
asg632
(lp646
g634
ag635
ag636
ag637
ag638
asbsS'Gleis1_BAHNLASTEN_Lasteinzugsflache_Lastblock_-2'
p647
g0
(g617
g2
Ntp648
Rp649
(dp650
g15
I4
sg621
g622
sg623
g647
sg624
g625
sg626
(dp651
g23
F0.10514098055124318
sg27
I0
sg28
I0
ssg628
g629
sg630
(lp652
I4
asg632
(lp653
g634
ag635
ag636
ag637
ag638
asbsS'Gleis1_EIGENGEWICHTE_SCHIENE_Lasteinzugsflache'
p654
g0
(g617
g2
Ntp655
Rp656
(dp657
g15
I3
sg621
g622
sg623
g654
sg624
g625
sg626
(dp658
g23
F0.0025989316206946307
sg27
I0
sg28
I0
ssg628
g629
sg630
(lp659
I1
aI2
aI3
aI4
aI11
aI12
aI13
aI21
aI22
asg632
(lp660
g634
ag635
ag636
ag637
ag638
asbsS'Gleis1_BAHNLASTEN_Lasteinzugsflache_Lastblock_-4'
p661
g0
(g617
g2
Ntp662
Rp663
(dp664
g15
I6
sg621
g622
sg623
g661
sg624
g625
sg626
(dp665
g23
F0.10514098055124318
sg27
I0
sg28
I0
ssg628
g629
sg630
(lp666
I21
asg632
(lp667
g634
ag635
ag636
ag637
ag638
asbsS'earthPressure_backfill'
p668
g0
(g617
g2
Ntp669
Rp670
(dp671
g15
I2
sg621
g622
sg623
g668
sg624
g643
sg626
(dp672
g23
F0.040862059441065253
sg27
I0
sg28
I0
ssg628
g629
sg630
(lp673
g565
ag503
ag537
ag553
ag611
ag529
ag591
ag507
ag557
ag603
ag511
ag545
ag495
ag521
ag549
ag595
ag573
ag599
asg632
(lp674
g634
ag635
ag636
ag637
ag638
asbsS'earthPressure_gravel'
p675
g0
(g617
g2
Ntp676
Rp677
(dp678
g15
I1
sg621
g622
sg623
g675
sg624
g625
sg626
(dp679
g23
F0.013500000000000002
sg27
I0
sg28
I0
ssg628
g629
sg630
(lp680
g517
ag581
ag541
ag577
ag533
ag607
ag569
ag561
ag525
asg632
(lp681
g634
ag635
ag636
ag637
ag638
asbsS'load_gravity'
p682
g0
(ccompas_fea.structure.load
GravityLoad
p683
g2
Ntp684
Rp685
(dp686
S'index'
p687
I0
sg621
S'GravityLoad'
p688
sg623
g682
sg624
g625
sg626
(dp689
g23
F1.3500000000000001
sg27
F0.0
sg28
F0.0
ssg628
g629
sg630
(lp690
g517
ag581
ag541
ag577
ag533
ag607
ag569
ag561
ag525
ag565
ag503
ag537
ag553
ag611
ag529
ag591
ag507
ag557
ag603
ag511
ag545
ag495
ag521
ag549
ag595
ag573
ag599
asg632
(lp691
g634
ag635
ag636
ag637
ag638
aS'g'
p692
asS'g'
p693
F-9.8100000000000005
sbssS'materials'
p694
(dp695
g585
g0
(ccompas_fea.structure.material
MPCStiff
p696
g2
Ntp697
Rp698
(dp699
g687
I2
sS'__name__'
p700
S'MPCStiff'
p701
sS'name'
p702
g585
sS'attr_list'
p703
(lp704
g634
aS'E'
p705
aS'v'
p706
aS'G'
p707
aS'p'
p708
aS'tension'
p709
aS'compression'
p710
asS'E'
p711
(dp712
g705
L10000000000000L
ssS'v'
p713
(dp714
g706
F0.29999999999999999
ssS'G'
p715
(dp716
g707
F3846153846153.8462
ssS'p'
p717
F0.10000000000000001
sS'tension'
p718
I01
sS'compression'
p719
I01
sbsg491
g0
(ccompas_fea.structure.material
CMMUsermat
p720
g2
Ntp721
Rp722
(dp723
g15
I1
sg700
S'CMMUsermat'
p724
sg702
g491
sg703
(lp725
g634
ag705
ag706
ag707
ag708
aS'R_Rohr'
p726
aS'rho'
p727
aS'oo'
p728
aS'uu'
p729
aS'beton'
p730
aS'fcc'
p731
aS'vc'
p732
aS'ecu'
p733
aS'k_E'
p734
aS'theta_b0'
p735
aS'theta_b1'
p736
aS'k_riss'
p737
aS'Entfestigung'
p738
aS'lambdaTS'
p739
aS'srmx'
p740
aS'srmy'
p741
aS'Begrenzung'
p742
aS'KritQ'
p743
aS'winkelD'
p744
aS'k_vr'
p745
aS'fswy'
p746
aS'stahl1'
p747
aS'zm1'
p748
aS'fsy1'
p749
aS'fsu1'
p750
aS'esu1'
p751
aS'esv1'
p752
aS'Es1'
p753
aS'ka1'
p754
aS'kb1'
p755
aS'kc1'
p756
aS'as1'
p757
aS'dm1'
p758
aS'psi1'
p759
aS'stahl2'
p760
aS'zm2'
p761
aS'fsy2'
p762
aS'fsu2'
p763
aS'esu2'
p764
aS'esv2'
p765
aS'Es2'
p766
aS'ka2'
p767
aS'kb2'
p768
aS'kc2'
p769
aS'as2'
p770
aS'dm2'
p771
aS'psi2'
p772
aS'stahl3'
p773
aS'zm3'
p774
aS'fsy3'
p775
aS'fsu3'
p776
aS'esu3'
p777
aS'esv3'
p778
aS'Es3'
p779
aS'ka3'
p780
aS'kb3'
p781
aS'kc3'
p782
aS'as3'
p783
aS'dm3'
p784
aS'psi3'
p785
aS'stahl4'
p786
aS'zm4'
p787
aS'fsy4'
p788
aS'fsu4'
p789
aS'esu4'
p790
aS'esv4'
p791
aS'Es4'
p792
aS'ka4'
p793
aS'kb4'
p794
aS'kc4'
p795
aS'as4'
p796
aS'dm4'
p797
aS'psi4'
p798
asS'E'
p799
(dp800
S'E'
p801
I200000
ssS'v'
p802
(dp803
S'v'
p804
F0.10000000000000001
ssS'G'
p805
(dp806
g707
F90909.090909090897
ssS'p'
p807
F2.5000000000000002e-06
sS'R_Rohr'
p808
(dp809
g726
I-1
ssS'rho'
p810
(dp811
g727
F2.5000000000000002e-06
ssS'oo'
p812
(dp813
g728
I30
ssS'uu'
p814
(dp815
g729
I30
ssS'beton'
p816
(dp817
g730
I2
ssS'fcc'
p818
(dp819
g731
I32
ssS'vc'
p820
(dp821
g732
I0
ssS'ecu'
p822
(dp823
g733
F-0.002
ssS'k_E'
p824
(dp825
g734
I10000
ssS'theta_b0'
p826
(dp827
g735
I2
ssS'theta_b1'
p828
(dp829
g736
I1
ssS'k_riss'
p830
(dp831
g737
I0
ssS'Entfestigung'
p832
(dp833
g738
I0
ssS'lambdaTS'
p834
(dp835
g739
F0.67000000000000004
ssS'srmx'
p836
(dp837
g740
I1
ssS'srmy'
p838
(dp839
g741
I1
ssS'Begrenzung'
p840
(dp841
g742
I2
ssS'KritQ'
p842
(dp843
g743
I0
ssS'winkelD'
p844
(dp845
g744
I45
ssS'k_vr'
p846
(dp847
g745
I1
ssS'fswy'
p848
(dp849
g746
I500
ssS'stahl1'
p850
(dp851
g747
I1
ssS'zm1'
p852
(dp853
g748
I2
ssS'fsy1'
p854
(dp855
g749
I409
ssS'fsu1'
p856
(dp857
g750
I441
ssS'esu1'
p858
(dp859
g751
F0.044999999999999998
ssS'esv1'
p860
(dp861
g752
F0.02
ssS'Es1'
p862
(dp863
g753
I200000
ssS'ka1'
p864
(dp865
g754
I-1
ssS'kb1'
p866
(dp867
g755
I-1
ssS'kc1'
p868
(dp869
g756
I-1
ssS'as1'
p870
(dp871
g757
F3.1075690822193445
ssS'dm1'
p872
(dp873
g758
F26.241896310396957
ssS'psi1'
p874
(dp875
g759
I90
ssS'stahl2'
p876
(dp877
g760
I1
ssS'zm2'
p878
(dp879
g761
I2
ssS'fsy2'
p880
(dp881
g762
I409
ssS'fsu2'
p882
(dp883
g763
I441
ssS'esu2'
p884
(dp885
g764
F0.044999999999999998
ssS'esv2'
p886
(dp887
g765
F0.02
ssS'Es2'
p888
(dp889
g766
I200000
ssS'ka2'
p890
(dp891
g767
I-1
ssS'kb2'
p892
(dp893
g768
I-1
ssS'kc2'
p894
(dp895
g769
I-1
ssS'as2'
p896
(dp897
g770
F0.64981967071755231
ssS'dm2'
p898
(dp899
g771
F12.0
ssS'psi2'
p900
(dp901
g772
I0
ssS'stahl3'
p902
(dp903
g773
I1
ssS'zm3'
p904
(dp905
g774
I2
ssS'fsy3'
p906
(dp907
g775
I409
ssS'fsu3'
p908
(dp909
g776
I441
ssS'esu3'
p910
(dp911
g777
F0.044999999999999998
ssS'esv3'
p912
(dp913
g778
F0.02
ssS'Es3'
p914
(dp915
g779
I200000
ssS'ka3'
p916
(dp917
g780
I-1
ssS'kb3'
p918
(dp919
g781
I-1
ssS'kc3'
p920
(dp921
g782
I-1
ssS'as3'
p922
(dp923
g783
F0.64981967071755231
ssS'dm3'
p924
(dp925
g784
F12.0
ssS'psi3'
p926
(dp927
g785
I0
ssS'stahl4'
p928
(dp929
g786
I1
ssS'zm4'
p930
(dp931
g787
I2
ssS'fsy4'
p932
(dp933
g788
I409
ssS'fsu4'
p934
(dp935
g789
I441
ssS'esu4'
p936
(dp937
g790
F0.044999999999999998
ssS'esv4'
p938
(dp939
g791
F0.02
ssS'Es4'
p940
(dp941
g792
I200000
ssS'ka4'
p942
(dp943
g793
I-1
ssS'kb4'
p944
(dp945
g794
I-1
ssS'kc4'
p946
(dp947
g795
I-1
ssS'as4'
p948
(dp949
g796
F3.5349189765957583
ssS'dm4'
p950
(dp951
g797
F27.988173089555815
ssS'psi4'
p952
(dp953
g798
I90
ssbsg515
g0
(g720
g2
Ntp954
Rp955
(dp956
g15
I0
sg700
g724
sg702
g515
sg703
(lp957
g634
ag705
ag706
ag707
ag708
ag726
ag727
ag728
ag729
ag730
ag731
ag732
ag733
ag734
ag735
ag736
ag737
ag738
ag739
ag740
ag741
ag742
ag743
ag744
ag745
ag746
ag747
ag748
ag749
ag750
ag751
ag752
ag753
ag754
ag755
ag756
ag757
ag758
ag759
ag760
ag761
ag762
ag763
ag764
ag765
ag766
ag767
ag768
ag769
ag770
ag771
ag772
ag773
ag774
ag775
ag776
ag777
ag778
ag779
ag780
ag781
ag782
ag783
ag784
ag785
ag786
ag787
ag788
ag789
ag790
ag791
ag792
ag793
ag794
ag795
ag796
ag797
ag798
asg799
(dp958
g801
I200000
ssg802
(dp959
g804
F0.10000000000000001
ssg805
(dp960
g707
F90909.090909090897
ssg807
F2.5000000000000002e-06
sg808
(dp961
g726
I-1
ssg810
(dp962
g727
F2.5000000000000002e-06
ssg812
(dp963
g728
I30
ssg814
(dp964
g729
I30
ssg816
(dp965
g730
I2
ssg818
(dp966
g731
I32
ssg820
(dp967
g732
I0
ssg822
(dp968
g733
F-0.002
ssg824
(dp969
g734
I10000
ssg826
(dp970
g735
I2
ssg828
(dp971
g736
I1
ssg830
(dp972
g737
I0
ssg832
(dp973
g738
I0
ssg834
(dp974
g739
F0.67000000000000004
ssg836
(dp975
g740
I1
ssg838
(dp976
g741
I1
ssg840
(dp977
g742
I2
ssg842
(dp978
g743
I0
ssg844
(dp979
g744
I45
ssg846
(dp980
g745
I1
ssg848
(dp981
g746
I500
ssg850
(dp982
g747
I1
ssg852
(dp983
g748
I2
ssg854
(dp984
g749
I409
ssg856
(dp985
g750
I441
ssg858
(dp986
g751
F0.044999999999999998
ssg860
(dp987
g752
F0.02
ssg862
(dp988
g753
I200000
ssg864
(dp989
g754
I-1
ssg866
(dp990
g755
I-1
ssg868
(dp991
g756
I-1
ssg870
(dp992
g757
F0.52142509269052562
ssg872
(dp993
g758
F15.177719329882635
ssg874
(dp994
g759
I90
ssg876
(dp995
g760
I1
ssg878
(dp996
g761
I2
ssg880
(dp997
g762
I409
ssg882
(dp998
g763
I441
ssg884
(dp999
g764
F0.044999999999999998
ssg886
(dp1000
g765
F0.02
ssg888
(dp1001
g766
I200000
ssg890
(dp1002
g767
I-1
ssg892
(dp1003
g768
I-1
ssg894
(dp1004
g769
I-1
ssg896
(dp1005
g770
F0.35148179816758113
ssg898
(dp1006
g771
F12.461260465962035
ssg900
(dp1007
g772
I0
ssg902
(dp1008
g773
I1
ssg904
(dp1009
g774
I2
ssg906
(dp1010
g775
I409
ssg908
(dp1011
g776
I441
ssg910
(dp1012
g777
F0.044999999999999998
ssg912
(dp1013
g778
F0.02
ssg914
(dp1014
g779
I200000
ssg916
(dp1015
g780
I-1
ssg918
(dp1016
g781
I-1
ssg920
(dp1017
g782
I-1
ssg922
(dp1018
g783
F0.32594279408732646
ssg924
(dp1019
g784
F12.0
ssg926
(dp1020
g785
I0
ssg928
(dp1021
g786
I1
ssg930
(dp1022
g787
I2
ssg932
(dp1023
g788
I409
ssg934
(dp1024
g789
I441
ssg936
(dp1025
g790
F0.044999999999999998
ssg938
(dp1026
g791
F0.02
ssg940
(dp1027
g792
I200000
ssg942
(dp1028
g793
I-1
ssg944
(dp1029
g794
I-1
ssg946
(dp1030
g795
I-1
ssg948
(dp1031
g796
F1.2130103391904576
ssg950
(dp1032
g797
F23.149563434041525
ssg952
(dp1033
g798
I90
ssbssS'misc'
p1034
(dp1035
sS'name'
p1036
S'NLFE_CFB5'
p1037
sS'nodes'
p1038
(dp1039
I0
g0
(ccompas_fea.structure.node
Node
p1040
g2
Ntp1041
Rp1042
(dp1043
S'__name__'
p1044
S'Node'
p1045
sS'key'
p1046
I0
sS'x'
p1047
F0.0
sS'y'
p1048
F0.0
sS'z'
p1049
F0.0
sS'ex'
p1050
(lp1051
I1
aI0
aI0
asS'ey'
p1052
(lp1053
I0
aI1
aI0
asS'ez'
p1054
(lp1055
I0
aI0
aI1
asS'mass'
p1056
NsbsI1
g0
(g1040
g2
Ntp1057
Rp1058
(dp1059
g1044
g1045
sg1046
I1
sg1047
F1067.8175240215264
sg1048
F0.0
sg1049
F0.0
sg1050
g1051
sg1052
g1053
sg1054
g1055
sg1056
NsbsI2
g0
(g1040
g2
Ntp1060
Rp1061
(dp1062
g1044
g1045
sg1046
I2
sg1047
F0.0
sg1048
F1087.0870967150979
sg1049
F0.0
sg1050
g1051
sg1052
g1053
sg1054
g1055
sg1056
NsbsI3
g0
(g1040
g2
Ntp1063
Rp1064
(dp1065
g1044
g1045
sg1046
I3
sg1047
F1067.8175240215264
sg1048
F1087.0870967150979
sg1049
F0.0
sg1050
g1051
sg1052
g1053
sg1054
g1055
sg1056
NsbsI4
g0
(g1040
g2
Ntp1066
Rp1067
(dp1068
g1044
g1045
sg1046
I4
sg1047
F0.0
sg1048
F2174.1741934301958
sg1049
F0.0
sg1050
g1051
sg1052
g1053
sg1054
g1055
sg1056
NsbsI5
g0
(g1040
g2
Ntp1069
Rp1070
(dp1071
g1044
g1045
sg1046
I5
sg1047
F1067.8175240215264
sg1048
F2174.1741934301958
sg1049
F0.0
sg1050
g1051
sg1052
g1053
sg1054
g1055
sg1056
NsbsI6
g0
(g1040
g2
Ntp1072
Rp1073
(dp1074
g1044
g1045
sg1046
I6
sg1047
F0.0
sg1048
F3261.2612901452935
sg1049
F0.0
sg1050
g1051
sg1052
g1053
sg1054
g1055
sg1056
NsbsI7
g0
(g1040
g2
Ntp1075
Rp1076
(dp1077
g1044
g1045
sg1046
I7
sg1047
F1067.8175240215264
sg1048
F3261.2612901452935
sg1049
F0.0
sg1050
g1051
sg1052
g1053
sg1054
g1055
sg1056
NsbsI8
g0
(g1040
g2
Ntp1078
Rp1079
(dp1080
g1044
g1045
sg1046
I8
sg1047
F0.0
sg1048
F4348.3483868603917
sg1049
F0.0
sg1050
g1051
sg1052
g1053
sg1054
g1055
sg1056
NsbsI9
g0
(g1040
g2
Ntp1081
Rp1082
(dp1083
g1044
g1045
sg1046
I9
sg1047
F1067.8175240215264
sg1048
F4348.3483868603917
sg1049
F0.0
sg1050
g1051
sg1052
g1053
sg1054
g1055
sg1056
NsbsI10
g0
(g1040
g2
Ntp1084
Rp1085
(dp1086
g1044
g1045
sg1046
I10
sg1047
F0.0
sg1048
F5435.4354835754893
sg1049
F0.0
sg1050
g1051
sg1052
g1053
sg1054
g1055
sg1056
NsbsI11
g0
(g1040
g2
Ntp1087
Rp1088
(dp1089
g1044
g1045
sg1046
I11
sg1047
F1067.8175240215264
sg1048
F5435.4354835754893
sg1049
F0.0
sg1050
g1051
sg1052
g1053
sg1054
g1055
sg1056
NsbsI12
g0
(g1040
g2
Ntp1090
Rp1091
(dp1092
g1044
g1045
sg1046
I12
sg1047
F0.0
sg1048
F11035.581133319931
sg1049
F0.0
sg1050
g1051
sg1052
g1053
sg1054
g1055
sg1056
NsbsI13
g0
(g1040
g2
Ntp1093
Rp1094
(dp1095
g1044
g1045
sg1046
I13
sg1047
F1067.8175240215264
sg1048
F11035.581133319931
sg1049
F0.0
sg1050
g1051
sg1052
g1053
sg1054
g1055
sg1056
NsbsI14
g0
(g1040
g2
Ntp1096
Rp1097
(dp1098
g1044
g1045
sg1046
I14
sg1047
F0.0
sg1048
F12122.668230035029
sg1049
F0.0
sg1050
g1051
sg1052
g1053
sg1054
g1055
sg1056
NsbsI15
g0
(g1040
g2
Ntp1099
Rp1100
(dp1101
g1044
g1045
sg1046
I15
sg1047
F1067.8175240215264
sg1048
F12122.668230035029
sg1049
F0.0
sg1050
g1051
sg1052
g1053
sg1054
g1055
sg1056
NsbsI16
g0
(g1040
g2
Ntp1102
Rp1103
(dp1104
g1044
g1045
sg1046
I16
sg1047
F0.0
sg1048
F13209.755326750128
sg1049
F0.0
sg1050
g1051
sg1052
g1053
sg1054
g1055
sg1056
NsbsI17
g0
(g1040
g2
Ntp1105
Rp1106
(dp1107
g1044
g1045
sg1046
I17
sg1047
F1067.8175240215264
sg1048
F13209.755326750128
sg1049
F0.0
sg1050
g1051
sg1052
g1053
sg1054
g1055
sg1056
NsbsI18
g0
(g1040
g2
Ntp1108
Rp1109
(dp1110
g1044
g1045
sg1046
I18
sg1047
F0.0
sg1048
F14296.842423465223
sg1049
F0.0
sg1050
g1051
sg1052
g1053
sg1054
g1055
sg1056
NsbsI19
g0
(g1040
g2
Ntp1111
Rp1112
(dp1113
g1044
g1045
sg1046
I19
sg1047
F1067.8175240215264
sg1048
F14296.842423465223
sg1049
F0.0
sg1050
g1051
sg1052
g1053
sg1054
g1055
sg1056
NsbsI20
g0
(g1040
g2
Ntp1114
Rp1115
(dp1116
g1044
g1045
sg1046
I20
sg1047
F0.0
sg1048
F15383.929520180323
sg1049
F0.0
sg1050
g1051
sg1052
g1053
sg1054
g1055
sg1056
NsbsI21
g0
(g1040
g2
Ntp1117
Rp1118
(dp1119
g1044
g1045
sg1046
I21
sg1047
F1067.8175240215264
sg1048
F15383.929520180323
sg1049
F0.0
sg1050
g1051
sg1052
g1053
sg1054
g1055
sg1056
NsbsI22
g0
(g1040
g2
Ntp1120
Rp1121
(dp1122
g1044
g1045
sg1046
I22
sg1047
F0.0
sg1048
F16471.01661689542
sg1049
F0.0
sg1050
g1051
sg1052
g1053
sg1054
g1055
sg1056
NsbsI23
g0
(g1040
g2
Ntp1123
Rp1124
(dp1125
g1044
g1045
sg1046
I23
sg1047
F1067.8175240215264
sg1048
F16471.01661689542
sg1049
F0.0
sg1050
g1051
sg1052
g1053
sg1054
g1055
sg1056
NsbsI24
g0
(g1040
g2
Ntp1126
Rp1127
(dp1128
g1044
g1045
sg1046
I24
sg1047
F2135.6350480430528
sg1048
F0.0
sg1049
F0.0
sg1050
g1051
sg1052
g1053
sg1054
g1055
sg1056
NsbsI25
g0
(g1040
g2
Ntp1129
Rp1130
(dp1131
g1044
g1045
sg1046
I25
sg1047
F2135.6350480430528
sg1048
F1087.0870967150979
sg1049
F0.0
sg1050
g1051
sg1052
g1053
sg1054
g1055
sg1056
NsbsI26
g0
(g1040
g2
Ntp1132
Rp1133
(dp1134
g1044
g1045
sg1046
I26
sg1047
F2135.6350480430528
sg1048
F2174.1741934301958
sg1049
F0.0
sg1050
g1051
sg1052
g1053
sg1054
g1055
sg1056
NsbsI27
g0
(g1040
g2
Ntp1135
Rp1136
(dp1137
g1044
g1045
sg1046
I27
sg1047
F2135.6350480430528
sg1048
F3261.2612901452935
sg1049
F0.0
sg1050
g1051
sg1052
g1053
sg1054
g1055
sg1056
NsbsI28
g0
(g1040
g2
Ntp1138
Rp1139
(dp1140
g1044
g1045
sg1046
I28
sg1047
F2135.6350480430528
sg1048
F4348.3483868603917
sg1049
F0.0
sg1050
g1051
sg1052
g1053
sg1054
g1055
sg1056
NsbsI29
g0
(g1040
g2
Ntp1141
Rp1142
(dp1143
g1044
g1045
sg1046
I29
sg1047
F2135.6350480430528
sg1048
F5435.4354835754893
sg1049
F0.0
sg1050
g1051
sg1052
g1053
sg1054
g1055
sg1056
NsbsI30
g0
(g1040
g2
Ntp1144
Rp1145
(dp1146
g1044
g1045
sg1046
I30
sg1047
F2135.6350480430528
sg1048
F11035.581133319931
sg1049
F0.0
sg1050
g1051
sg1052
g1053
sg1054
g1055
sg1056
NsbsI31
g0
(g1040
g2
Ntp1147
Rp1148
(dp1149
g1044
g1045
sg1046
I31
sg1047
F2135.6350480430528
sg1048
F12122.668230035029
sg1049
F0.0
sg1050
g1051
sg1052
g1053
sg1054
g1055
sg1056
NsbsI32
g0
(g1040
g2
Ntp1150
Rp1151
(dp1152
g1044
g1045
sg1046
I32
sg1047
F2135.6350480430528
sg1048
F13209.755326750128
sg1049
F0.0
sg1050
g1051
sg1052
g1053
sg1054
g1055
sg1056
NsbsI33
g0
(g1040
g2
Ntp1153
Rp1154
(dp1155
g1044
g1045
sg1046
I33
sg1047
F2135.6350480430528
sg1048
F14296.842423465223
sg1049
F0.0
sg1050
g1051
sg1052
g1053
sg1054
g1055
sg1056
NsbsI34
g0
(g1040
g2
Ntp1156
Rp1157
(dp1158
g1044
g1045
sg1046
I34
sg1047
F2135.6350480430528
sg1048
F15383.929520180323
sg1049
F0.0
sg1050
g1051
sg1052
g1053
sg1054
g1055
sg1056
NsbsI35
g0
(g1040
g2
Ntp1159
Rp1160
(dp1161
g1044
g1045
sg1046
I35
sg1047
F2135.6350480430528
sg1048
F16471.01661689542
sg1049
F0.0
sg1050
g1051
sg1052
g1053
sg1054
g1055
sg1056
NsbsI36
g0
(g1040
g2
Ntp1162
Rp1163
(dp1164
g1044
g1045
sg1046
I36
sg1047
F3235.8106788531104
sg1048
F0.0
sg1049
F0.0
sg1050
g1051
sg1052
g1053
sg1054
g1055
sg1056
NsbsI37
g0
(g1040
g2
Ntp1165
Rp1166
(dp1167
g1044
g1045
sg1046
I37
sg1047
F3235.8106788531109
sg1048
F1087.0870967150979
sg1049
F0.0
sg1050
g1051
sg1052
g1053
sg1054
g1055
sg1056
NsbsI38
g0
(g1040
g2
Ntp1168
Rp1169
(dp1170
g1044
g1045
sg1046
I38
sg1047
F3235.8106788531104
sg1048
F2174.1741934301958
sg1049
F0.0
sg1050
g1051
sg1052
g1053
sg1054
g1055
sg1056
NsbsI39
g0
(g1040
g2
Ntp1171
Rp1172
(dp1173
g1044
g1045
sg1046
I39
sg1047
F3235.8106788531104
sg1048
F3261.2612901452935
sg1049
F0.0
sg1050
g1051
sg1052
g1053
sg1054
g1055
sg1056
NsbsI40
g0
(g1040
g2
Ntp1174
Rp1175
(dp1176
g1044
g1045
sg1046
I40
sg1047
F3235.8106788531109
sg1048
F4348.3483868603917
sg1049
F0.0
sg1050
g1051
sg1052
g1053
sg1054
g1055
sg1056
NsbsI41
g0
(g1040
g2
Ntp1177
Rp1178
(dp1179
g1044
g1045
sg1046
I41
sg1047
F3235.8106788531104
sg1048
F5435.4354835754893
sg1049
F0.0
sg1050
g1051
sg1052
g1053
sg1054
g1055
sg1056
NsbsI42
g0
(g1040
g2
Ntp1180
Rp1181
(dp1182
g1044
g1045
sg1046
I42
sg1047
F3235.8106788531104
sg1048
F11035.581133319931
sg1049
F0.0
sg1050
g1051
sg1052
g1053
sg1054
g1055
sg1056
NsbsI43
g0
(g1040
g2
Ntp1183
Rp1184
(dp1185
g1044
g1045
sg1046
I43
sg1047
F3235.8106788531109
sg1048
F12122.668230035029
sg1049
F0.0
sg1050
g1051
sg1052
g1053
sg1054
g1055
sg1056
NsbsI44
g0
(g1040
g2
Ntp1186
Rp1187
(dp1188
g1044
g1045
sg1046
I44
sg1047
F3235.8106788531104
sg1048
F13209.755326750128
sg1049
F0.0
sg1050
g1051
sg1052
g1053
sg1054
g1055
sg1056
NsbsI45
g0
(g1040
g2
Ntp1189
Rp1190
(dp1191
g1044
g1045
sg1046
I45
sg1047
F3235.8106788531104
sg1048
F14296.842423465223
sg1049
F0.0
sg1050
g1051
sg1052
g1053
sg1054
g1055
sg1056
NsbsI46
g0
(g1040
g2
Ntp1192
Rp1193
(dp1194
g1044
g1045
sg1046
I46
sg1047
F3235.8106788531109
sg1048
F15383.929520180323
sg1049
F0.0
sg1050
g1051
sg1052
g1053
sg1054
g1055
sg1056
NsbsI47
g0
(g1040
g2
Ntp1195
Rp1196
(dp1197
g1044
g1045
sg1046
I47
sg1047
F3235.8106788531104
sg1048
F16471.01661689542
sg1049
F0.0
sg1050
g1051
sg1052
g1053
sg1054
g1055
sg1056
NsbsI48
g0
(g1040
g2
Ntp1198
Rp1199
(dp1200
g1044
g1045
sg1046
I48
sg1047
F0.0
sg1048
F6555.4646135243784
sg1049
F0.0
sg1050
g1051
sg1052
g1053
sg1054
g1055
sg1056
NsbsI49
g0
(g1040
g2
Ntp1201
Rp1202
(dp1203
g1044
g1045
sg1046
I49
sg1047
F1067.8175240215264
sg1048
F6555.4646135243784
sg1049
F0.0
sg1050
g1051
sg1052
g1053
sg1054
g1055
sg1056
NsbsI50
g0
(g1040
g2
Ntp1204
Rp1205
(dp1206
g1044
g1045
sg1046
I50
sg1047
F0.0
sg1048
F7675.4937434732656
sg1049
F0.0
sg1050
g1051
sg1052
g1053
sg1054
g1055
sg1056
NsbsI51
g0
(g1040
g2
Ntp1207
Rp1208
(dp1209
g1044
g1045
sg1046
I51
sg1047
F1067.8175240215264
sg1048
F7675.4937434732656
sg1049
F0.0
sg1050
g1051
sg1052
g1053
sg1054
g1055
sg1056
NsbsI52
g0
(g1040
g2
Ntp1210
Rp1211
(dp1212
g1044
g1045
sg1046
I52
sg1047
F0.0
sg1048
F8795.5228734221546
sg1049
F0.0
sg1050
g1051
sg1052
g1053
sg1054
g1055
sg1056
NsbsI53
g0
(g1040
g2
Ntp1213
Rp1214
(dp1215
g1044
g1045
sg1046
I53
sg1047
F1067.8175240215264
sg1048
F8795.5228734221546
sg1049
F0.0
sg1050
g1051
sg1052
g1053
sg1054
g1055
sg1056
NsbsI54
g0
(g1040
g2
Ntp1216
Rp1217
(dp1218
g1044
g1045
sg1046
I54
sg1047
F0.0
sg1048
F9915.5520033710418
sg1049
F0.0
sg1050
g1051
sg1052
g1053
sg1054
g1055
sg1056
NsbsI55
g0
(g1040
g2
Ntp1219
Rp1220
(dp1221
g1044
g1045
sg1046
I55
sg1047
F1067.8175240215264
sg1048
F9915.5520033710418
sg1049
F0.0
sg1050
g1051
sg1052
g1053
sg1054
g1055
sg1056
NsbsI56
g0
(g1040
g2
Ntp1222
Rp1223
(dp1224
g1044
g1045
sg1046
I56
sg1047
F2135.6350480430528
sg1048
F6555.4646135243784
sg1049
F0.0
sg1050
g1051
sg1052
g1053
sg1054
g1055
sg1056
NsbsI57
g0
(g1040
g2
Ntp1225
Rp1226
(dp1227
g1044
g1045
sg1046
I57
sg1047
F2135.6350480430528
sg1048
F7675.4937434732656
sg1049
F0.0
sg1050
g1051
sg1052
g1053
sg1054
g1055
sg1056
NsbsI58
g0
(g1040
g2
Ntp1228
Rp1229
(dp1230
g1044
g1045
sg1046
I58
sg1047
F2135.6350480430528
sg1048
F8795.5228734221546
sg1049
F0.0
sg1050
g1051
sg1052
g1053
sg1054
g1055
sg1056
NsbsI59
g0
(g1040
g2
Ntp1231
Rp1232
(dp1233
g1044
g1045
sg1046
I59
sg1047
F2135.6350480430528
sg1048
F9915.5520033710418
sg1049
F0.0
sg1050
g1051
sg1052
g1053
sg1054
g1055
sg1056
NsbsI60
g0
(g1040
g2
Ntp1234
Rp1235
(dp1236
g1044
g1045
sg1046
I60
sg1047
F3235.8106788531109
sg1048
F6555.4646135243784
sg1049
F0.0
sg1050
g1051
sg1052
g1053
sg1054
g1055
sg1056
NsbsI61
g0
(g1040
g2
Ntp1237
Rp1238
(dp1239
g1044
g1045
sg1046
I61
sg1047
F3235.8106788531104
sg1048
F7675.4937434732656
sg1049
F0.0
sg1050
g1051
sg1052
g1053
sg1054
g1055
sg1056
NsbsI62
g0
(g1040
g2
Ntp1240
Rp1241
(dp1242
g1044
g1045
sg1046
I62
sg1047
F3235.8106788531104
sg1048
F8795.5228734221546
sg1049
F0.0
sg1050
g1051
sg1052
g1053
sg1054
g1055
sg1056
NsbsI63
g0
(g1040
g2
Ntp1243
Rp1244
(dp1245
g1044
g1045
sg1046
I63
sg1047
F3235.8106788531109
sg1048
F9915.5520033710418
sg1049
F0.0
sg1050
g1051
sg1052
g1053
sg1054
g1055
sg1056
NsbsI64
g0
(g1040
g2
Ntp1246
Rp1247
(dp1248
g1044
g1045
sg1046
I64
sg1047
F0.0
sg1048
F0.0
sg1049
F-1367.3825501902329
sg1050
g1051
sg1052
g1053
sg1054
g1055
sg1056
NsbsI65
g0
(g1040
g2
Ntp1249
Rp1250
(dp1251
g1044
g1045
sg1046
I65
sg1047
F1067.8175240215301
sg1048
F0.0
sg1049
F-1367.3825501902329
sg1050
g1051
sg1052
g1053
sg1054
g1055
sg1056
NsbsI66
g0
(g1040
g2
Ntp1252
Rp1253
(dp1254
g1044
g1045
sg1046
I66
sg1047
F0.0
sg1048
F0.0
sg1049
F-376.38740862857247
sg1050
g1051
sg1052
g1053
sg1054
g1055
sg1056
NsbsI67
g0
(g1040
g2
Ntp1255
Rp1256
(dp1257
g1044
g1045
sg1046
I67
sg1047
F1067.8175240215301
sg1048
F0.0
sg1049
F-376.38740862857247
sg1050
g1051
sg1052
g1053
sg1054
g1055
sg1056
NsbsI68
g0
(g1040
g2
Ntp1258
Rp1259
(dp1260
g1044
g1045
sg1046
I68
sg1047
F2135.6350480430501
sg1048
F0.0
sg1049
F-1367.3825501902329
sg1050
g1051
sg1052
g1053
sg1054
g1055
sg1056
NsbsI69
g0
(g1040
g2
Ntp1261
Rp1262
(dp1263
g1044
g1045
sg1046
I69
sg1047
F2135.6350480430501
sg1048
F0.0
sg1049
F-376.38740862857247
sg1050
g1051
sg1052
g1053
sg1054
g1055
sg1056
NsbsI70
g0
(g1040
g2
Ntp1264
Rp1265
(dp1266
g1044
g1045
sg1046
I70
sg1047
F3235.8106788531099
sg1048
F0.0
sg1049
F-1367.3825501902329
sg1050
g1051
sg1052
g1053
sg1054
g1055
sg1056
NsbsI71
g0
(g1040
g2
Ntp1267
Rp1268
(dp1269
g1044
g1045
sg1046
I71
sg1047
F3235.8106788531099
sg1048
F0.0
sg1049
F-376.38740862857247
sg1050
g1051
sg1052
g1053
sg1054
g1055
sg1056
NsbsI72
g0
(g1040
g2
Ntp1270
Rp1271
(dp1272
g1044
g1045
sg1046
I72
sg1047
F0.0
sg1048
F0.0
sg1049
F-2388.4078475567917
sg1050
g1051
sg1052
g1053
sg1054
g1055
sg1056
NsbsI73
g0
(g1040
g2
Ntp1273
Rp1274
(dp1275
g1044
g1045
sg1046
I73
sg1047
F1067.8175240215301
sg1048
F0.0
sg1049
F-2388.4078475567917
sg1050
g1051
sg1052
g1053
sg1054
g1055
sg1056
NsbsI74
g0
(g1040
g2
Ntp1276
Rp1277
(dp1278
g1044
g1045
sg1046
I74
sg1047
F2135.6350480430501
sg1048
F0.0
sg1049
F-2388.4078475567917
sg1050
g1051
sg1052
g1053
sg1054
g1055
sg1056
NsbsI75
g0
(g1040
g2
Ntp1279
Rp1280
(dp1281
g1044
g1045
sg1046
I75
sg1047
F3235.8106788531099
sg1048
F0.0
sg1049
F-2388.4078475567917
sg1050
g1051
sg1052
g1053
sg1054
g1055
sg1056
NsbsI76
g0
(g1040
g2
Ntp1282
Rp1283
(dp1284
g1044
g1045
sg1046
I76
sg1047
F0.0
sg1048
F0.0
sg1049
F-3379.4029891184523
sg1050
g1051
sg1052
g1053
sg1054
g1055
sg1056
NsbsI77
g0
(g1040
g2
Ntp1285
Rp1286
(dp1287
g1044
g1045
sg1046
I77
sg1047
F1067.8175240215301
sg1048
F0.0
sg1049
F-3379.4029891184523
sg1050
g1051
sg1052
g1053
sg1054
g1055
sg1056
NsbsI78
g0
(g1040
g2
Ntp1288
Rp1289
(dp1290
g1044
g1045
sg1046
I78
sg1047
F2135.6350480430501
sg1048
F0.0
sg1049
F-3379.4029891184523
sg1050
g1051
sg1052
g1053
sg1054
g1055
sg1056
NsbsI79
g0
(g1040
g2
Ntp1291
Rp1292
(dp1293
g1044
g1045
sg1046
I79
sg1047
F3235.8106788531099
sg1048
F0.0
sg1049
F-3379.4029891184523
sg1050
g1051
sg1052
g1053
sg1054
g1055
sg1056
NsbsI80
g0
(g1040
g2
Ntp1294
Rp1295
(dp1296
g1044
g1045
sg1046
I80
sg1047
F0.0
sg1048
F16471.01661689542
sg1049
F-1367.3825501902329
sg1050
g1051
sg1052
g1053
sg1054
g1055
sg1056
NsbsI81
g0
(g1040
g2
Ntp1297
Rp1298
(dp1299
g1044
g1045
sg1046
I81
sg1047
F1067.8175240215301
sg1048
F16471.01661689542
sg1049
F-1367.3825501902329
sg1050
g1051
sg1052
g1053
sg1054
g1055
sg1056
NsbsI82
g0
(g1040
g2
Ntp1300
Rp1301
(dp1302
g1044
g1045
sg1046
I82
sg1047
F0.0
sg1048
F16471.01661689542
sg1049
F-376.38740862857247
sg1050
g1051
sg1052
g1053
sg1054
g1055
sg1056
NsbsI83
g0
(g1040
g2
Ntp1303
Rp1304
(dp1305
g1044
g1045
sg1046
I83
sg1047
F1067.8175240215301
sg1048
F16471.01661689542
sg1049
F-376.38740862857247
sg1050
g1051
sg1052
g1053
sg1054
g1055
sg1056
NsbsI84
g0
(g1040
g2
Ntp1306
Rp1307
(dp1308
g1044
g1045
sg1046
I84
sg1047
F2135.6350480430501
sg1048
F16471.01661689542
sg1049
F-1367.3825501902329
sg1050
g1051
sg1052
g1053
sg1054
g1055
sg1056
NsbsI85
g0
(g1040
g2
Ntp1309
Rp1310
(dp1311
g1044
g1045
sg1046
I85
sg1047
F2135.6350480430501
sg1048
F16471.01661689542
sg1049
F-376.38740862857247
sg1050
g1051
sg1052
g1053
sg1054
g1055
sg1056
NsbsI86
g0
(g1040
g2
Ntp1312
Rp1313
(dp1314
g1044
g1045
sg1046
I86
sg1047
F3235.8106788531099
sg1048
F16471.01661689542
sg1049
F-1367.3825501902329
sg1050
g1051
sg1052
g1053
sg1054
g1055
sg1056
NsbsI87
g0
(g1040
g2
Ntp1315
Rp1316
(dp1317
g1044
g1045
sg1046
I87
sg1047
F3235.8106788531099
sg1048
F16471.01661689542
sg1049
F-376.38740862857247
sg1050
g1051
sg1052
g1053
sg1054
g1055
sg1056
NsbsI88
g0
(g1040
g2
Ntp1318
Rp1319
(dp1320
g1044
g1045
sg1046
I88
sg1047
F0.0
sg1048
F16471.01661689542
sg1049
F-2388.4078475567917
sg1050
g1051
sg1052
g1053
sg1054
g1055
sg1056
NsbsI89
g0
(g1040
g2
Ntp1321
Rp1322
(dp1323
g1044
g1045
sg1046
I89
sg1047
F1067.8175240215301
sg1048
F16471.01661689542
sg1049
F-2388.4078475567917
sg1050
g1051
sg1052
g1053
sg1054
g1055
sg1056
NsbsI90
g0
(g1040
g2
Ntp1324
Rp1325
(dp1326
g1044
g1045
sg1046
I90
sg1047
F2135.6350480430501
sg1048
F16471.01661689542
sg1049
F-2388.4078475567917
sg1050
g1051
sg1052
g1053
sg1054
g1055
sg1056
NsbsI91
g0
(g1040
g2
Ntp1327
Rp1328
(dp1329
g1044
g1045
sg1046
I91
sg1047
F3235.8106788531099
sg1048
F16471.01661689542
sg1049
F-2388.4078475567917
sg1050
g1051
sg1052
g1053
sg1054
g1055
sg1056
NsbsI92
g0
(g1040
g2
Ntp1330
Rp1331
(dp1332
g1044
g1045
sg1046
I92
sg1047
F0.0
sg1048
F16471.01661689542
sg1049
F-3379.4029891184523
sg1050
g1051
sg1052
g1053
sg1054
g1055
sg1056
NsbsI93
g0
(g1040
g2
Ntp1333
Rp1334
(dp1335
g1044
g1045
sg1046
I93
sg1047
F1067.8175240215301
sg1048
F16471.01661689542
sg1049
F-3379.4029891184523
sg1050
g1051
sg1052
g1053
sg1054
g1055
sg1056
NsbsI94
g0
(g1040
g2
Ntp1336
Rp1337
(dp1338
g1044
g1045
sg1046
I94
sg1047
F2135.6350480430501
sg1048
F16471.01661689542
sg1049
F-3379.4029891184523
sg1050
g1051
sg1052
g1053
sg1054
g1055
sg1056
NsbsI95
g0
(g1040
g2
Ntp1339
Rp1340
(dp1341
g1044
g1045
sg1046
I95
sg1047
F3235.8106788531099
sg1048
F16471.01661689542
sg1049
F-3379.4029891184523
sg1050
g1051
sg1052
g1053
sg1054
g1055
sg1056
NsbssS'node_index'
p1342
(dp1343
S'0.000,16471.017,-376.387'
p1344
I82
sS'3235.811,1087.087,0.000'
p1345
I37
sS'0.000,16471.017,-2388.408'
p1346
I88
sS'2135.635,6555.465,0.000'
p1347
I56
sS'1067.818,0.000,-1367.383'
p1348
I65
sS'2135.635,16471.017,-1367.383'
p1349
I84
sS'2135.635,16471.017,-376.387'
p1350
I85
sS'2135.635,1087.087,0.000'
p1351
I25
sS'0.000,9915.552,0.000'
p1352
I54
sS'1067.818,12122.668,0.000'
p1353
I15
sS'1067.818,16471.017,-2388.408'
p1354
I89
sS'2135.635,11035.581,0.000'
p1355
I30
sS'3235.811,0.000,-2388.408'
p1356
I75
sS'2135.635,16471.017,0.000'
p1357
I35
sS'0.000,13209.755,0.000'
p1358
I16
sS'3235.811,16471.017,-1367.383'
p1359
I86
sS'3235.811,14296.842,0.000'
p1360
I45
sS'0.000,0.000,0.000'
p1361
I0
sS'2135.635,0.000,-376.387'
p1362
I69
sS'2135.635,2174.174,0.000'
p1363
I26
sS'1067.818,6555.465,0.000'
p1364
I49
sS'2135.635,0.000,0.000'
p1365
I24
sS'0.000,2174.174,0.000'
p1366
I4
sS'3235.811,2174.174,0.000'
p1367
I38
sS'2135.635,16471.017,-3379.403'
p1368
I94
sS'0.000,14296.842,0.000'
p1369
I18
sS'3235.811,6555.465,0.000'
p1370
I60
sS'1067.818,1087.087,0.000'
p1371
I3
sS'0.000,0.000,-1367.383'
p1372
I64
sS'3235.811,16471.017,-2388.408'
p1373
I91
sS'3235.811,0.000,0.000'
p1374
I36
sS'1067.818,4348.348,0.000'
p1375
I9
sS'0.000,15383.930,0.000'
p1376
I20
sS'3235.811,8795.523,0.000'
p1377
I62
sS'2135.635,8795.523,0.000'
p1378
I58
sS'1067.818,11035.581,0.000'
p1379
I13
sS'2135.635,13209.755,0.000'
p1380
I32
sS'1067.818,3261.261,0.000'
p1381
I7
sS'3235.811,0.000,-1367.383'
p1382
I70
sS'0.000,8795.523,0.000'
p1383
I52
sS'2135.635,3261.261,0.000'
p1384
I27
sS'0.000,16471.017,-3379.403'
p1385
I92
sS'0.000,7675.494,0.000'
p1386
I50
sS'1067.818,14296.842,0.000'
p1387
I19
sS'3235.811,12122.668,0.000'
p1388
I43
sS'3235.811,9915.552,0.000'
p1389
I63
sS'2135.635,7675.494,0.000'
p1390
I57
sS'0.000,0.000,-3379.403'
p1391
I76
sS'2135.635,12122.668,0.000'
p1392
I31
sS'1067.818,16471.017,-376.387'
p1393
I83
sS'2135.635,16471.017,-2388.408'
p1394
I90
sS'1067.818,0.000,-3379.403'
p1395
I77
sS'1067.818,0.000,-376.387'
p1396
I67
sS'1067.818,5435.435,0.000'
p1397
I11
sS'0.000,16471.017,-1367.383'
p1398
I80
sS'0.000,12122.668,0.000'
p1399
I14
sS'0.000,0.000,-376.387'
p1400
I66
sS'1067.818,2174.174,0.000'
p1401
I5
sS'3235.811,16471.017,0.000'
p1402
I47
sS'3235.811,7675.494,0.000'
p1403
I61
sS'2135.635,15383.930,0.000'
p1404
I34
sS'2135.635,9915.552,0.000'
p1405
I59
sS'2135.635,0.000,-3379.403'
p1406
I78
sS'3235.811,11035.581,0.000'
p1407
I42
sS'0.000,11035.581,0.000'
p1408
I12
sS'3235.811,16471.017,-376.387'
p1409
I87
sS'0.000,0.000,-2388.408'
p1410
I72
sS'2135.635,4348.348,0.000'
p1411
I28
sS'1067.818,16471.017,0.000'
p1412
I23
sS'0.000,4348.348,0.000'
p1413
I8
sS'1067.818,16471.017,-3379.403'
p1414
I93
sS'1067.818,8795.523,0.000'
p1415
I53
sS'1067.818,13209.755,0.000'
p1416
I17
sS'3235.811,3261.261,0.000'
p1417
I39
sS'2135.635,0.000,-2388.408'
p1418
I74
sS'0.000,16471.017,0.000'
p1419
I22
sS'2135.635,0.000,-1367.383'
p1420
I68
sS'2135.635,5435.435,0.000'
p1421
I29
sS'1067.818,9915.552,0.000'
p1422
I55
sS'3235.811,15383.930,0.000'
p1423
I46
sS'3235.811,4348.348,0.000'
p1424
I40
sS'0.000,6555.465,0.000'
p1425
I48
sS'3235.811,0.000,-376.387'
p1426
I71
sS'3235.811,0.000,-3379.403'
p1427
I79
sS'1067.818,15383.930,0.000'
p1428
I21
sS'1067.818,16471.017,-1367.383'
p1429
I81
sS'0.000,5435.435,0.000'
p1430
I10
sS'2135.635,14296.842,0.000'
p1431
I33
sS'0.000,3261.261,0.000'
p1432
I6
sS'1067.818,0.000,-2388.408'
p1433
I73
sS'1067.818,7675.494,0.000'
p1434
I51
sS'3235.811,16471.017,-3379.403'
p1435
I95
sS'0.000,1087.087,0.000'
p1436
I2
sS'3235.811,13209.755,0.000'
p1437
I44
sS'1067.818,0.000,0.000'
p1438
I1
sS'3235.811,5435.435,0.000'
p1439
I41
ssS'path'
p1440
S'C:\\Temp\\'
p1441
sS'results'
p1442
(dp1443
S'step_2'
p1444
S'ERROR'
p1445
sS'step_3'
p1446
g1445
sS'step_4'
p1447
g1445
sS'step_1'
p1448
g1445
ssS'sections'
p1449
(dp1450
g502
g0
(ccompas_fea.structure.section
ShellSection
p1451
g2
Ntp1452
Rp1453
(dp1454
g15
I1
sS'__name__'
p1455
S'ShellSection'
p1456
sS'name'
p1457
g502
sS'geometry'
p1458
(dp1459
S't'
p1460
F918.5091771885468
ssS'loc_coords_OR'
p1461
(dp1462
S'ORxyz'
p1463
(lp1464
I0
aI0
aF-3003.01558049
assS'loc_coords_XA'
p1465
(dp1466
S'XAxyz'
p1467
(lp1468
I1
aI0
aF-3003.01558049
assS'loc_coords_YA'
p1469
(dp1470
S'YAxyz'
p1471
(lp1472
F3003.01558049
aF-3003.01558049
aF-3002.01558049
assS'loc_coords_EV_XA'
p1473
(dp1474
S'EV_XA'
p1475
(lp1476
F1.0
aF0.0
aF0.0
assS'loc_coords_EV_YA'
p1477
(dp1478
S'EV_YA'
p1479
(lp1480
F0.70710676158412156
aF-0.70710676158412156
aF0.00023546556540633847
assS'loc_coords_EV_ZA'
p1481
(dp1482
S'EV_ZA'
p1483
(lp1484
F0.0
aF-1.0
aF0.0
assS'nr_layers'
p1485
(dp1486
S'nn'
p1487
F32.0
ssS'offset'
p1488
(dp1489
S'mode'
p1490
S'mid'
p1491
ssbsg516
g0
(g1451
g2
Ntp1492
Rp1493
(dp1494
g15
I0
sg1455
g1456
sg1457
g516
sg1458
(dp1495
g1460
F376.38740862857247
ssg1461
(dp1496
g1463
(lp1497
I0
aI0
aI0
assg1465
(dp1498
g1467
(lp1499
I1
aI0
aI0
assg1469
(dp1500
g1471
(lp1501
F0.0
aF1.0
aF0.0
assg1473
(dp1502
g1475
(lp1503
F1.0
aF0.0
aF0.0
assg1477
(dp1504
g1479
(lp1505
F0.0
aF1.0
aF0.0
assg1481
(dp1506
g1483
(lp1507
F0.0
aF0.0
aF1.0
assg1485
(dp1508
g1487
F32.0
ssg1488
(dp1509
g1490
S'top'
p1510
ssbsg493
g0
(g1451
g2
Ntp1511
Rp1512
(dp1513
g15
I2
sg1455
g1456
sg1457
g493
sg1458
(dp1514
g1460
F918.5091771885468
ssg1461
(dp1515
g1463
(lp1516
I0
aF16471.0166169
aF-3003.01558049
assg1465
(dp1517
g1467
(lp1518
I1
aF16471.0166169
aF-3003.01558049
assg1469
(dp1519
g1471
(lp1520
F-3003.0155804902315
aF13468.00103641
aF-19475.032197389999
assg1473
(dp1521
g1475
(lp1522
F1.0
aF0.0
aF0.0
assg1477
(dp1523
g1479
(lp1524
F-0.17653697622444375
aF-0.17653697622443018
aF-0.96833330627995295
assg1481
(dp1525
g1483
(lp1526
F0.0
aF1.0
aF0.0
assg1485
(dp1527
g1487
F32.0
ssg1488
(dp1528
g1490
g1491
ssbsg586
g0
(ccompas_fea.structure.section
MPCSection
p1529
g2
Ntp1530
Rp1531
(dp1532
g687
I3
sg1455
S'MPCSection'
p1533
sg1457
g586
sg1458
NsS'nr_layers'
p1534
NsbssS'sets'
p1535
(dp1536
g611
g0
(ccompas_fea.structure.set
Set
p1537
g2
Ntp1538
Rp1539
(dp1540
S'__name__'
p1541
S'Set'
p1542
sS'name'
p1543
g611
sS'type'
p1544
S'element'
p1545
sS'selection'
p1546
(lp1547
I49
asS'index'
p1548
I13
sbsg587
g0
(g1537
g2
Ntp1549
Rp1550
(dp1551
g1541
g1542
sg1543
g587
sg1544
g1545
sg1546
(lp1552
I64
aI65
aI66
aI67
aI68
aI69
aI70
aI63
asg1548
I27
sbsg495
g0
(g1537
g2
Ntp1553
Rp1554
(dp1555
g1541
g1542
sg1543
g495
sg1544
g1545
sg1546
(lp1556
I57
asg1548
I21
sbsg541
g0
(g1537
g2
Ntp1557
Rp1558
(dp1559
g1541
g1542
sg1543
g541
sg1544
g1545
sg1546
(lp1560
I10
aI11
aI12
aI13
aI14
asg1548
I2
sbsg507
g0
(g1537
g2
Ntp1561
Rp1562
(dp1563
g1541
g1542
sg1543
g507
sg1544
g1545
sg1546
(lp1564
I52
asg1548
I16
sbsg603
g0
(g1537
g2
Ntp1565
Rp1566
(dp1567
g1541
g1542
sg1543
g603
sg1544
g1545
sg1546
(lp1568
I54
asg1548
I18
sbsg581
g0
(g1537
g2
Ntp1569
Rp1570
(dp1571
g1541
g1542
sg1543
g581
sg1544
g1545
sg1546
(lp1572
I8
aI9
aI5
aI6
aI7
asg1548
I1
sbsg517
g0
(g1537
g2
Ntp1573
Rp1574
(dp1575
g1541
g1542
sg1543
g517
sg1544
g1545
sg1546
(lp1576
I0
aI1
aI2
aI3
aI4
asg1548
I0
sbsg569
g0
(g1537
g2
Ntp1577
Rp1578
(dp1579
g1541
g1542
sg1543
g569
sg1544
g1545
sg1546
(lp1580
I32
aI33
aI34
aI30
aI31
asg1548
I6
sbsg607
g0
(g1537
g2
Ntp1581
Rp1582
(dp1583
g1541
g1542
sg1543
g607
sg1544
g1545
sg1546
(lp1584
I25
aI26
aI27
aI28
aI29
asg1548
I5
sbsg533
g0
(g1537
g2
Ntp1585
Rp1586
(dp1587
g1541
g1542
sg1543
g533
sg1544
g1545
sg1546
(lp1588
I24
aI20
aI21
aI22
aI23
asg1548
I4
sbsg577
g0
(g1537
g2
Ntp1589
Rp1590
(dp1591
g1541
g1542
sg1543
g577
sg1544
g1545
sg1546
(lp1592
I16
aI17
aI18
aI19
aI15
asg1548
I3
sbsg525
g0
(g1537
g2
Ntp1593
Rp1594
(dp1595
g1541
g1542
sg1543
g525
sg1544
g1545
sg1546
(lp1596
I40
aI41
aI42
aI43
aI44
asg1548
I8
sbsg561
g0
(g1537
g2
Ntp1597
Rp1598
(dp1599
g1541
g1542
sg1543
g561
sg1544
g1545
sg1546
(lp1600
I35
aI36
aI37
aI38
aI39
asg1548
I7
sbsg537
g0
(g1537
g2
Ntp1601
Rp1602
(dp1603
g1541
g1542
sg1543
g537
sg1544
g1545
sg1546
(lp1604
I47
asg1548
I11
sbsg599
g0
(g1537
g2
Ntp1605
Rp1606
(dp1607
g1541
g1542
sg1543
g599
sg1544
g1545
sg1546
(lp1608
I62
asg1548
I26
sbsg549
g0
(g1537
g2
Ntp1609
Rp1610
(dp1611
g1541
g1542
sg1543
g549
sg1544
g1545
sg1546
(lp1612
I59
asg1548
I23
sbsg529
g0
(g1537
g2
Ntp1613
Rp1614
(dp1615
g1541
g1542
sg1543
g529
sg1544
g1545
sg1546
(lp1616
I50
asg1548
I14
sbsg545
g0
(g1537
g2
Ntp1617
Rp1618
(dp1619
g1541
g1542
sg1543
g545
sg1544
g1545
sg1546
(lp1620
I56
asg1548
I20
sbsg565
g0
(g1537
g2
Ntp1621
Rp1622
(dp1623
g1541
g1542
sg1543
g565
sg1544
g1545
sg1546
(lp1624
I45
asg1548
I9
sbsg557
g0
(g1537
g2
Ntp1625
Rp1626
(dp1627
g1541
g1542
sg1543
g557
sg1544
g1545
sg1546
(lp1628
I53
asg1548
I17
sbsg35
g0
(g1537
g2
Ntp1629
Rp1630
(dp1631
g1541
g1542
sg1543
g35
sg1544
S'node'
p1632
sg1546
(lp1633
I95
aI94
aI93
aI92
asg1548
I29
sbsg553
g0
(g1537
g2
Ntp1634
Rp1635
(dp1636
g1541
g1542
sg1543
g553
sg1544
g1545
sg1546
(lp1637
I48
asg1548
I12
sbsg573
g0
(g1537
g2
Ntp1638
Rp1639
(dp1640
g1541
g1542
sg1543
g573
sg1544
g1545
sg1546
(lp1641
I61
asg1548
I25
sbsg521
g0
(g1537
g2
Ntp1642
Rp1643
(dp1644
g1541
g1542
sg1543
g521
sg1544
g1545
sg1546
(lp1645
I58
asg1548
I22
sbsg20
g0
(g1537
g2
Ntp1646
Rp1647
(dp1648
g1541
g1542
sg1543
g20
sg1544
g1632
sg1546
(lp1649
I79
aI78
aI77
aI76
asg1548
I28
sbsg591
g0
(g1537
g2
Ntp1650
Rp1651
(dp1652
g1541
g1542
sg1543
g591
sg1544
g1545
sg1546
(lp1653
I51
asg1548
I15
sbsg511
g0
(g1537
g2
Ntp1654
Rp1655
(dp1656
g1541
g1542
sg1543
g511
sg1544
g1545
sg1546
(lp1657
I55
asg1548
I19
sbsg503
g0
(g1537
g2
Ntp1658
Rp1659
(dp1660
g1541
g1542
sg1543
g503
sg1544
g1545
sg1546
(lp1661
I46
asg1548
I10
sbsg595
g0
(g1537
g2
Ntp1662
Rp1663
(dp1664
g1541
g1542
sg1543
g595
sg1544
g1545
sg1546
(lp1665
I60
asg1548
I24
sbssS'steps'
p1666
(dp1667
g1444
g0
(ccompas_fea.structure.step
GeneralStep
p1668
g2
Ntp1669
Rp1670
(dp1671
g15
I1
sS'__name__'
p1672
S'GeneralStep'
p1673
sS'name'
p1674
g1444
sS'attr_list'
p1675
(lp1676
g634
aS'increments'
p1677
aS'iterations'
p1678
aS'factor'
p1679
aS'nlgeom'
p1680
aS'nlmat'
p1681
aS'displacements'
p1682
aS'loads'
p1683
aS'type'
p1684
aS'tolerance'
p1685
aS'modify'
p1686
asS'increments'
p1687
I1
sS'iterations'
p1688
I100
sS'tolerance'
p1689
F0.01
sS'factor'
p1690
F1.0
sS'nlgeom'
p1691
I00
sS'nlmat'
p1692
I01
sS'displacements'
p1693
(lp1694
sS'loads'
p1695
(lp1696
g682
asS'modify'
p1697
I01
sS'type'
p1698
S'static'
p1699
sbsg1446
g0
(g1668
g2
Ntp1700
Rp1701
(dp1702
g15
I2
sg1672
g1673
sg1674
g1446
sg1675
(lp1703
g634
ag1677
ag1678
ag1679
ag1680
ag1681
ag1682
ag1683
ag1684
ag1685
ag1686
asg1687
I1
sg1688
I100
sg1689
F0.01
sg1690
F1.0
sg1691
I00
sg1692
I01
sg1693
(lp1704
sg1695
(lp1705
g675
ag668
ag654
asg1697
I01
sg1698
g1699
sbsg1447
g0
(g1668
g2
Ntp1706
Rp1707
(dp1708
g15
I3
sg1672
g1673
sg1674
g1447
sg1675
(lp1709
g634
ag1677
ag1678
ag1679
ag1680
ag1681
ag1682
ag1683
ag1684
ag1685
ag1686
asg1687
I1
sg1688
I100
sg1689
F0.01
sg1690
F1.0
sg1691
I00
sg1692
I01
sg1693
(lp1710
sg1695
(lp1711
g647
ag616
ag661
ag639
asg1697
I01
sg1698
g1699
sbsg1448
g0
(g1668
g2
Ntp1712
Rp1713
(dp1714
g15
I0
sg1672
g1673
sg1674
g1448
sg1675
(lp1715
g634
ag1677
ag1678
ag1679
ag1680
ag1681
ag1682
ag1683
ag1684
ag1685
ag1686
asg1687
I1
sg1688
I100
sg1689
F0.01
sg1690
F1.0
sg1691
I00
sg1692
I01
sg1693
(lp1716
g10
ag31
asg1695
(lp1717
sg1697
I01
sg1698
g1699
sbssS'loc_coor'
p1718
(dp1719
sS'steps_order'
p1720
(lp1721
g1448
ag1444
ag1446
ag1447
asS'tol'
p1722
S'3'
p1723
sS'virtual_nodes'
p1724
(dp1725
sS'virtual_node_index'
p1726
(dp1727
sS'virtual_elements'
p1728
(dp1729
sS'virtual_element_index'
p1730
(dp1731
sb.