ccopy_reg
_reconstructor
p0
(ccompas_fea.structure.structure
Structure
p1
c__builtin__
object
p2
Ntp3
Rp4
(dp5
S'constraints'
p6
(dp7
sS'displacements'
p8
(dp9
S'nset_pinned_set_disp_1'
p10
g0
(ccompas_fea.structure.displacement
GeneralDisplacement
p11
g2
Ntp12
Rp13
(dp14
S'index'
p15
I0
sS'__name__'
p16
S'GeneralDisplacement'
p17
sS'name'
p18
g10
sS'nodes'
p19
S'nset_support_wall1'
p20
sS'components'
p21
(dp22
S'z'
p23
I0
sS'xx'
p24
I0
sS'zz'
p25
I0
sS'yy'
p26
I0
sS'y'
p27
I0
sS'x'
p28
I0
ssS'axes'
p29
S'global'
p30
sbsS'nset_pinned_set_disp_2'
p31
g0
(g11
g2
Ntp32
Rp33
(dp34
g15
I1
sg16
g17
sg18
g31
sg19
S'nset_support_wall2'
p35
sg21
(dp36
g23
I0
sg24
I0
sg25
I0
sg26
I0
sg27
I0
sg28
I0
ssg29
g30
sbssS'elements'
p37
(dp38
I0
g0
(ccompas_fea.structure.element
ShellElement
p39
g2
Ntp40
Rp41
(dp42
S'mass'
p43
NsS'__name__'
p44
S'ShellElement'
p45
sS'nodes'
p46
(lp47
I0
aI1
aI3
aI2
asS'number'
p48
I0
sS'thermal'
p49
I00
sS'axes'
p50
(dp51
S'ey'
p52
NsS'ez'
p53
NsS'ex'
p54
NssS'element_property'
p55
S'elset_plate_1_element_prop'
p56
sbsI1
g0
(g39
g2
Ntp57
Rp58
(dp59
g43
Nsg44
g45
sg46
(lp60
I2
aI3
aI5
aI4
asg48
I1
sg49
I00
sg50
g51
sg55
g56
sbsI2
g0
(g39
g2
Ntp61
Rp62
(dp63
g43
Nsg44
g45
sg46
(lp64
I4
aI5
aI7
aI6
asg48
I2
sg49
I00
sg50
g51
sg55
g56
sbsI3
g0
(g39
g2
Ntp65
Rp66
(dp67
g43
Nsg44
g45
sg46
(lp68
I8
aI9
aI11
aI10
asg48
I3
sg49
I00
sg50
(dp69
g52
Nsg53
Nsg54
Nssg55
S'elset_plate_2_element_prop'
p70
sbsI4
g0
(g39
g2
Ntp71
Rp72
(dp73
g43
Nsg44
g45
sg46
(lp74
I10
aI11
aI13
aI12
asg48
I4
sg49
I00
sg50
g69
sg55
g70
sbsI5
g0
(g39
g2
Ntp75
Rp76
(dp77
g43
Nsg44
g45
sg46
(lp78
I12
aI13
aI15
aI14
asg48
I5
sg49
I00
sg50
g69
sg55
g70
sbsI6
g0
(g39
g2
Ntp79
Rp80
(dp81
g43
Nsg44
g45
sg46
(lp82
I1
aI16
aI17
aI3
asg48
I6
sg49
I00
sg50
(dp83
g52
Nsg53
Nsg54
Nssg55
S'elset_plate_3_element_prop'
p84
sbsI7
g0
(g39
g2
Ntp85
Rp86
(dp87
g43
Nsg44
g45
sg46
(lp88
I3
aI17
aI18
aI5
asg48
I7
sg49
I00
sg50
g83
sg55
g84
sbsI8
g0
(g39
g2
Ntp89
Rp90
(dp91
g43
Nsg44
g45
sg46
(lp92
I5
aI18
aI19
aI7
asg48
I8
sg49
I00
sg50
g83
sg55
g84
sbsI9
g0
(g39
g2
Ntp93
Rp94
(dp95
g43
Nsg44
g45
sg46
(lp96
I9
aI20
aI21
aI11
asg48
I9
sg49
I00
sg50
(dp97
g52
Nsg53
Nsg54
Nssg55
S'elset_plate_4_element_prop'
p98
sbsI10
g0
(g39
g2
Ntp99
Rp100
(dp101
g43
Nsg44
g45
sg46
(lp102
I11
aI21
aI22
aI13
asg48
I10
sg49
I00
sg50
g97
sg55
g98
sbsI11
g0
(g39
g2
Ntp103
Rp104
(dp105
g43
Nsg44
g45
sg46
(lp106
I13
aI22
aI23
aI15
asg48
I11
sg49
I00
sg50
g97
sg55
g98
sbsI12
g0
(g39
g2
Ntp107
Rp108
(dp109
g43
Nsg44
g45
sg46
(lp110
I16
aI24
aI25
aI17
asg48
I12
sg49
I00
sg50
(dp111
g52
Nsg53
Nsg54
Nssg55
S'elset_plate_5_element_prop'
p112
sbsI13
g0
(g39
g2
Ntp113
Rp114
(dp115
g43
Nsg44
g45
sg46
(lp116
I17
aI25
aI26
aI18
asg48
I13
sg49
I00
sg50
g111
sg55
g112
sbsI14
g0
(g39
g2
Ntp117
Rp118
(dp119
g43
Nsg44
g45
sg46
(lp120
I18
aI26
aI27
aI19
asg48
I14
sg49
I00
sg50
g111
sg55
g112
sbsI15
g0
(g39
g2
Ntp121
Rp122
(dp123
g43
Nsg44
g45
sg46
(lp124
I20
aI28
aI29
aI21
asg48
I15
sg49
I00
sg50
(dp125
g52
Nsg53
Nsg54
Nssg55
S'elset_plate_6_element_prop'
p126
sbsI16
g0
(g39
g2
Ntp127
Rp128
(dp129
g43
Nsg44
g45
sg46
(lp130
I21
aI29
aI30
aI22
asg48
I16
sg49
I00
sg50
g125
sg55
g126
sbsI17
g0
(g39
g2
Ntp131
Rp132
(dp133
g43
Nsg44
g45
sg46
(lp134
I22
aI30
aI31
aI23
asg48
I17
sg49
I00
sg50
g125
sg55
g126
sbsI18
g0
(g39
g2
Ntp135
Rp136
(dp137
g43
Nsg44
g45
sg46
(lp138
I6
aI7
aI33
aI32
asg48
I18
sg49
I00
sg50
(dp139
g52
Nsg53
Nsg54
Nssg55
S'elset_plate_7_element_prop'
p140
sbsI19
g0
(g39
g2
Ntp141
Rp142
(dp143
g43
Nsg44
g45
sg46
(lp144
I32
aI33
aI35
aI34
asg48
I19
sg49
I00
sg50
g139
sg55
g140
sbsI20
g0
(g39
g2
Ntp145
Rp146
(dp147
g43
Nsg44
g45
sg46
(lp148
I34
aI35
aI9
aI8
asg48
I20
sg49
I00
sg50
g139
sg55
g140
sbsI21
g0
(g39
g2
Ntp149
Rp150
(dp151
g43
Nsg44
g45
sg46
(lp152
I7
aI19
aI36
aI33
asg48
I21
sg49
I00
sg50
(dp153
g52
Nsg53
Nsg54
Nssg55
S'elset_plate_8_element_prop'
p154
sbsI22
g0
(g39
g2
Ntp155
Rp156
(dp157
g43
Nsg44
g45
sg46
(lp158
I33
aI36
aI37
aI35
asg48
I22
sg49
I00
sg50
g153
sg55
g154
sbsI23
g0
(g39
g2
Ntp159
Rp160
(dp161
g43
Nsg44
g45
sg46
(lp162
I35
aI37
aI20
aI9
asg48
I23
sg49
I00
sg50
g153
sg55
g154
sbsI24
g0
(g39
g2
Ntp163
Rp164
(dp165
g43
Nsg44
g45
sg46
(lp166
I19
aI27
aI38
aI36
asg48
I24
sg49
I00
sg50
(dp167
g52
Nsg53
Nsg54
Nssg55
S'elset_plate_9_element_prop'
p168
sbsI25
g0
(g39
g2
Ntp169
Rp170
(dp171
g43
Nsg44
g45
sg46
(lp172
I36
aI38
aI39
aI37
asg48
I25
sg49
I00
sg50
g167
sg55
g168
sbsI26
g0
(g39
g2
Ntp173
Rp174
(dp175
g43
Nsg44
g45
sg46
(lp176
I37
aI39
aI28
aI20
asg48
I26
sg49
I00
sg50
g167
sg55
g168
sbsI27
g0
(g39
g2
Ntp177
Rp178
(dp179
g43
Nsg44
g45
sg46
(lp180
I40
aI41
aI43
aI42
asg48
I27
sg49
I00
sg50
(dp181
g52
Nsg53
Nsg54
Nssg55
S'elset_wall_1_1_element_prop'
p182
sbsI28
g0
(g39
g2
Ntp183
Rp184
(dp185
g43
Nsg44
g45
sg46
(lp186
I41
aI44
aI45
aI43
asg48
I28
sg49
I00
sg50
(dp187
g52
Nsg53
Nsg54
Nssg55
S'elset_wall_1_2_element_prop'
p188
sbsI29
g0
(g39
g2
Ntp189
Rp190
(dp191
g43
Nsg44
g45
sg46
(lp192
I44
aI46
aI47
aI45
asg48
I29
sg49
I00
sg50
(dp193
g52
Nsg53
Nsg54
Nssg55
S'elset_wall_1_3_element_prop'
p194
sbsI30
g0
(g39
g2
Ntp195
Rp196
(dp197
g43
Nsg44
g45
sg46
(lp198
I48
aI49
aI41
aI40
asg48
I30
sg49
I00
sg50
(dp199
g52
Nsg53
Nsg54
Nssg55
S'elset_wall_1_4_element_prop'
p200
sbsI31
g0
(g39
g2
Ntp201
Rp202
(dp203
g43
Nsg44
g45
sg46
(lp204
I49
aI50
aI44
aI41
asg48
I31
sg49
I00
sg50
(dp205
g52
Nsg53
Nsg54
Nssg55
S'elset_wall_1_5_element_prop'
p206
sbsI32
g0
(g39
g2
Ntp207
Rp208
(dp209
g43
Nsg44
g45
sg46
(lp210
I50
aI51
aI46
aI44
asg48
I32
sg49
I00
sg50
(dp211
g52
Nsg53
Nsg54
Nssg55
S'elset_wall_1_6_element_prop'
p212
sbsI33
g0
(g39
g2
Ntp213
Rp214
(dp215
g43
Nsg44
g45
sg46
(lp216
I52
aI53
aI49
aI48
asg48
I33
sg49
I00
sg50
(dp217
g52
Nsg53
Nsg54
Nssg55
S'elset_wall_1_7_element_prop'
p218
sbsI34
g0
(g39
g2
Ntp219
Rp220
(dp221
g43
Nsg44
g45
sg46
(lp222
I53
aI54
aI50
aI49
asg48
I34
sg49
I00
sg50
(dp223
g52
Nsg53
Nsg54
Nssg55
S'elset_wall_1_8_element_prop'
p224
sbsI35
g0
(g39
g2
Ntp225
Rp226
(dp227
g43
Nsg44
g45
sg46
(lp228
I54
aI55
aI51
aI50
asg48
I35
sg49
I00
sg50
(dp229
g52
Nsg53
Nsg54
Nssg55
S'elset_wall_1_9_element_prop'
p230
sbsI36
g0
(g39
g2
Ntp231
Rp232
(dp233
g43
Nsg44
g45
sg46
(lp234
I56
aI58
aI59
aI57
asg48
I36
sg49
I00
sg50
(dp235
g52
Nsg53
Nsg54
Nssg55
S'elset_wall_2_1_element_prop'
p236
sbsI37
g0
(g39
g2
Ntp237
Rp238
(dp239
g43
Nsg44
g45
sg46
(lp240
I57
aI59
aI61
aI60
asg48
I37
sg49
I00
sg50
(dp241
g52
Nsg53
Nsg54
Nssg55
S'elset_wall_2_2_element_prop'
p242
sbsI38
g0
(g39
g2
Ntp243
Rp244
(dp245
g43
Nsg44
g45
sg46
(lp246
I60
aI61
aI63
aI62
asg48
I38
sg49
I00
sg50
(dp247
g52
Nsg53
Nsg54
Nssg55
S'elset_wall_2_3_element_prop'
p248
sbsI39
g0
(g39
g2
Ntp249
Rp250
(dp251
g43
Nsg44
g45
sg46
(lp252
I64
aI56
aI57
aI65
asg48
I39
sg49
I00
sg50
(dp253
g52
Nsg53
Nsg54
Nssg55
S'elset_wall_2_4_element_prop'
p254
sbsI40
g0
(g39
g2
Ntp255
Rp256
(dp257
g43
Nsg44
g45
sg46
(lp258
I65
aI57
aI60
aI66
asg48
I40
sg49
I00
sg50
(dp259
g52
Nsg53
Nsg54
Nssg55
S'elset_wall_2_5_element_prop'
p260
sbsI41
g0
(g39
g2
Ntp261
Rp262
(dp263
g43
Nsg44
g45
sg46
(lp264
I66
aI60
aI62
aI67
asg48
I41
sg49
I00
sg50
(dp265
g52
Nsg53
Nsg54
Nssg55
S'elset_wall_2_6_element_prop'
p266
sbsI42
g0
(g39
g2
Ntp267
Rp268
(dp269
g43
Nsg44
g45
sg46
(lp270
I68
aI64
aI65
aI69
asg48
I42
sg49
I00
sg50
(dp271
g52
Nsg53
Nsg54
Nssg55
S'elset_wall_2_7_element_prop'
p272
sbsI43
g0
(g39
g2
Ntp273
Rp274
(dp275
g43
Nsg44
g45
sg46
(lp276
I69
aI65
aI66
aI70
asg48
I43
sg49
I00
sg50
(dp277
g52
Nsg53
Nsg54
Nssg55
S'elset_wall_2_8_element_prop'
p278
sbsI44
g0
(g39
g2
Ntp279
Rp280
(dp281
g43
Nsg44
g45
sg46
(lp282
I70
aI66
aI67
aI71
asg48
I44
sg49
I00
sg50
(dp283
g52
Nsg53
Nsg54
Nssg55
S'elset_wall_2_9_element_prop'
p284
sbsI45
g0
(ccompas_fea.structure.element
MPCElement
p285
g2
Ntp286
Rp287
(dp288
g43
Nsg44
S'MPCElement'
p289
sg46
(lp290
I63
aI31
asg48
I45
sg49
I00
sg50
(dp291
g52
Nsg53
(lp292
F9.0949470177292824e-13
aF0.0
aF739.21869549830535
asg54
Nssg55
S'elset_mpc_element_prop'
p293
sbsI46
g0
(g285
g2
Ntp294
Rp295
(dp296
g43
Nsg44
g289
sg46
(lp297
I61
aI23
asg48
I46
sg49
I00
sg50
(dp298
g52
Nsg53
(lp299
F5.0022208597511053e-12
aF0.0
aF739.21869549830535
asg54
Nssg55
g293
sbsI47
g0
(g285
g2
Ntp300
Rp301
(dp302
g43
Nsg44
g289
sg46
(lp303
I59
aI15
asg48
I47
sg49
I00
sg50
(dp304
g52
Nsg53
(lp305
F-2.5011104298755527e-12
aF0.0
aF739.21869549830535
asg54
Nssg55
g293
sbsI48
g0
(g285
g2
Ntp306
Rp307
(dp308
g43
Nsg44
g289
sg46
(lp309
I58
aI14
asg48
I48
sg49
I00
sg50
(dp310
g52
Nsg53
(lp311
F0.0
aF0.0
aF739.21869549830535
asg54
Nssg55
g293
sbsI49
g0
(g285
g2
Ntp312
Rp313
(dp314
g43
Nsg44
g289
sg46
(lp315
I47
aI24
asg48
I49
sg49
I00
sg50
(dp316
g52
Nsg53
(lp317
F9.0949470177292824e-13
aF0.0
aF739.21869549830535
asg54
Nssg55
g293
sbsI50
g0
(g285
g2
Ntp318
Rp319
(dp320
g43
Nsg44
g289
sg46
(lp321
I45
aI16
asg48
I50
sg49
I00
sg50
(dp322
g52
Nsg53
(lp323
F5.0022208597511053e-12
aF0.0
aF739.21869549830535
asg54
Nssg55
g293
sbsI51
g0
(g285
g2
Ntp324
Rp325
(dp326
g43
Nsg44
g289
sg46
(lp327
I43
aI1
asg48
I51
sg49
I00
sg50
(dp328
g52
Nsg53
(lp329
F-2.5011104298755527e-12
aF0.0
aF739.21869549830535
asg54
Nssg55
g293
sbsI52
g0
(g285
g2
Ntp330
Rp331
(dp332
g43
Nsg44
g289
sg46
(lp333
I42
aI0
asg48
I52
sg49
I00
sg50
(dp334
g52
Nsg53
(lp335
F0.0
aF0.0
aF739.21869549830535
asg54
Nssg55
g293
sbssS'element_index'
p336
(dp337
S'3256.005,11711.175,0.000'
p338
I15
sS'647.278,6245.960,0.000'
p339
I18
sS'3256.005,0.000,-1224.544'
p340
I29
sS'3256.005,0.000,-2209.900'
p341
I32
sS'1941.834,13488.043,0.000'
p342
I10
sS'647.278,0.000,-1224.544'
p343
I27
sS'2589.113,0.000,-369.609'
p344
I50
sS'3256.005,888.434,0.000'
p345
I12
sS'647.278,4442.170,0.000'
p346
I2
sS'3256.005,16153.345,-2209.900'
p347
I41
sS'1941.834,11711.175,0.000'
p348
I9
sS'3256.005,9907.385,0.000'
p349
I26
sS'1294.556,16153.345,-369.609'
p350
I47
sS'647.278,13488.043,0.000'
p351
I4
sS'1941.834,9907.385,0.000'
p352
I23
sS'647.278,16153.345,-1224.544'
p353
I36
sS'647.278,0.000,-3195.257'
p354
I33
sS'0.000,16153.345,-369.609'
p355
I48
sS'3256.005,6245.960,0.000'
p356
I24
sS'647.278,11711.175,0.000'
p357
I3
sS'1941.834,2665.302,0.000'
p358
I7
sS'1941.834,16153.345,-2209.900'
p359
I40
sS'647.278,2665.302,0.000'
p360
I1
sS'2589.113,16153.345,-369.609'
p361
I46
sS'1941.834,0.000,-1224.544'
p362
I28
sS'647.278,0.000,-2209.900'
p363
I30
sS'1941.834,0.000,-2209.900'
p364
I31
sS'3256.005,4442.170,0.000'
p365
I14
sS'1941.834,6245.960,0.000'
p366
I21
sS'3256.005,13488.043,0.000'
p367
I16
sS'647.278,16153.345,-2209.900'
p368
I39
sS'647.278,9907.385,0.000'
p369
I20
sS'3922.898,16153.345,-369.609'
p370
I45
sS'1941.834,16153.345,-3195.257'
p371
I43
sS'647.278,8076.672,0.000'
p372
I19
sS'1941.834,0.000,-3195.257'
p373
I34
sS'3256.005,16153.345,-1224.544'
p374
I38
sS'3922.898,0.000,-369.609'
p375
I49
sS'1294.556,0.000,-369.609'
p376
I51
sS'1941.834,888.434,0.000'
p377
I6
sS'647.278,15264.911,0.000'
p378
I5
sS'3256.005,0.000,-3195.257'
p379
I35
sS'3256.005,8076.672,0.000'
p380
I25
sS'1941.834,8076.672,0.000'
p381
I22
sS'0.000,0.000,-369.609'
p382
I52
sS'3256.005,16153.345,-3195.257'
p383
I44
sS'1941.834,15264.911,0.000'
p384
I11
sS'1941.834,4442.170,0.000'
p385
I8
sS'1941.834,16153.345,-1224.544'
p386
I37
sS'3256.005,2665.302,0.000'
p387
I13
sS'647.278,888.434,0.000'
p388
I0
sS'647.278,16153.345,-3195.257'
p389
I42
sS'3256.005,15264.911,0.000'
p390
I17
ssS'element_properties'
p391
(dp392
g254
g0
(ccompas_fea.structure.element_properties
ElementProperties
p393
g2
Ntp394
Rp395
(dp396
g15
I21
sS'__name__'
p397
S'ElementProperties'
p398
sS'name'
p399
g254
sS'material'
p400
S'wall_element_mat'
p401
sS'section'
p402
S'wall2_element_sec'
p403
sS'elset'
p404
S'elset_wall_2_4'
p405
sS'elements'
p406
NsS'rebar'
p407
(dp408
sbsg188
g0
(g393
g2
Ntp409
Rp410
(dp411
g15
I10
sg397
g398
sg399
g188
sg400
g401
sg402
S'wall1_element_sec'
p412
sg404
S'elset_wall_1_2'
p413
sg406
Nsg407
g408
sbsg224
g0
(g393
g2
Ntp414
Rp415
(dp416
g15
I16
sg397
g398
sg399
g224
sg400
g401
sg402
g412
sg404
S'elset_wall_1_8'
p417
sg406
Nsg407
g408
sbsg242
g0
(g393
g2
Ntp418
Rp419
(dp420
g15
I19
sg397
g398
sg399
g242
sg400
g401
sg402
g403
sg404
S'elset_wall_2_2'
p421
sg406
Nsg407
g408
sbsg56
g0
(g393
g2
Ntp422
Rp423
(dp424
g15
I0
sg397
g398
sg399
g56
sg400
S'plate_element_mat'
p425
sg402
S'plate_element_sec'
p426
sg404
S'elset_plate_1'
p427
sg406
Nsg407
g408
sbsg260
g0
(g393
g2
Ntp428
Rp429
(dp430
g15
I22
sg397
g398
sg399
g260
sg400
g401
sg402
g403
sg404
S'elset_wall_2_5'
p431
sg406
Nsg407
g408
sbsg168
g0
(g393
g2
Ntp432
Rp433
(dp434
g15
I8
sg397
g398
sg399
g168
sg400
g425
sg402
g426
sg404
S'elset_plate_9'
p435
sg406
Nsg407
g408
sbsg212
g0
(g393
g2
Ntp436
Rp437
(dp438
g15
I14
sg397
g398
sg399
g212
sg400
g401
sg402
g412
sg404
S'elset_wall_1_6'
p439
sg406
Nsg407
g408
sbsg112
g0
(g393
g2
Ntp440
Rp441
(dp442
g15
I4
sg397
g398
sg399
g112
sg400
g425
sg402
g426
sg404
S'elset_plate_5'
p443
sg406
Nsg407
g408
sbsg194
g0
(g393
g2
Ntp444
Rp445
(dp446
g15
I11
sg397
g398
sg399
g194
sg400
g401
sg402
g412
sg404
S'elset_wall_1_3'
p447
sg406
Nsg407
g408
sbsg84
g0
(g393
g2
Ntp448
Rp449
(dp450
g15
I2
sg397
g398
sg399
g84
sg400
g425
sg402
g426
sg404
S'elset_plate_3'
p451
sg406
Nsg407
g408
sbsg248
g0
(g393
g2
Ntp452
Rp453
(dp454
g15
I20
sg397
g398
sg399
g248
sg400
g401
sg402
g403
sg404
S'elset_wall_2_3'
p455
sg406
Nsg407
g408
sbsg266
g0
(g393
g2
Ntp456
Rp457
(dp458
g15
I23
sg397
g398
sg399
g266
sg400
g401
sg402
g403
sg404
S'elset_wall_2_6'
p459
sg406
Nsg407
g408
sbsg200
g0
(g393
g2
Ntp460
Rp461
(dp462
g15
I12
sg397
g398
sg399
g200
sg400
g401
sg402
g412
sg404
S'elset_wall_1_4'
p463
sg406
Nsg407
g408
sbsg230
g0
(g393
g2
Ntp464
Rp465
(dp466
g15
I17
sg397
g398
sg399
g230
sg400
g401
sg402
g412
sg404
S'elset_wall_1_9'
p467
sg406
Nsg407
g408
sbsg154
g0
(g393
g2
Ntp468
Rp469
(dp470
g15
I7
sg397
g398
sg399
g154
sg400
g425
sg402
g426
sg404
S'elset_plate_8'
p471
sg406
Nsg407
g408
sbsg182
g0
(g393
g2
Ntp472
Rp473
(dp474
g15
I9
sg397
g398
sg399
g182
sg400
g401
sg402
g412
sg404
S'elset_wall_1_1'
p475
sg406
Nsg407
g408
sbsg140
g0
(g393
g2
Ntp476
Rp477
(dp478
g15
I6
sg397
g398
sg399
g140
sg400
g425
sg402
g426
sg404
S'elset_plate_7'
p479
sg406
Nsg407
g408
sbsg278
g0
(g393
g2
Ntp480
Rp481
(dp482
g15
I25
sg397
g398
sg399
g278
sg400
g401
sg402
g403
sg404
S'elset_wall_2_8'
p483
sg406
Nsg407
g408
sbsg98
g0
(g393
g2
Ntp484
Rp485
(dp486
g15
I3
sg397
g398
sg399
g98
sg400
g425
sg402
g426
sg404
S'elset_plate_4'
p487
sg406
Nsg407
g408
sbsg70
g0
(g393
g2
Ntp488
Rp489
(dp490
g15
I1
sg397
g398
sg399
g70
sg400
g425
sg402
g426
sg404
S'elset_plate_2'
p491
sg406
Nsg407
g408
sbsg293
g0
(g393
g2
Ntp492
Rp493
(dp494
g15
I27
sg397
g398
sg399
g293
sg400
S'elset_mpc_element_mat'
p495
sg402
S'sec_mpc'
p496
sg404
S'elset_mpcs'
p497
sg406
Nsg407
g408
sbsg218
g0
(g393
g2
Ntp498
Rp499
(dp500
g15
I15
sg397
g398
sg399
g218
sg400
g401
sg402
g412
sg404
S'elset_wall_1_7'
p501
sg406
Nsg407
g408
sbsg272
g0
(g393
g2
Ntp502
Rp503
(dp504
g15
I24
sg397
g398
sg399
g272
sg400
g401
sg402
g403
sg404
S'elset_wall_2_7'
p505
sg406
Nsg407
g408
sbsg284
g0
(g393
g2
Ntp506
Rp507
(dp508
g15
I26
sg397
g398
sg399
g284
sg400
g401
sg402
g403
sg404
S'elset_wall_2_9'
p509
sg406
Nsg407
g408
sbsg236
g0
(g393
g2
Ntp510
Rp511
(dp512
g15
I18
sg397
g398
sg399
g236
sg400
g401
sg402
g403
sg404
S'elset_wall_2_1'
p513
sg406
Nsg407
g408
sbsg126
g0
(g393
g2
Ntp514
Rp515
(dp516
g15
I5
sg397
g398
sg399
g126
sg400
g425
sg402
g426
sg404
S'elset_plate_6'
p517
sg406
Nsg407
g408
sbsg206
g0
(g393
g2
Ntp518
Rp519
(dp520
g15
I13
sg397
g398
sg399
g206
sg400
g401
sg402
g412
sg404
S'elset_wall_1_5'
p521
sg406
Nsg407
g408
sbssS'interactions'
p522
(dp523
sS'loads'
p524
(dp525
S'earthPressure_liveLoad'
p526
g0
(ccompas_fea.structure.load
AreaLoad
p527
g2
Ntp528
Rp529
(dp530
g15
I9
sS'__name__'
p531
S'AreaLoad'
p532
sS'name'
p533
g526
sS'axes'
p534
S'local'
p535
sS'components'
p536
(dp537
g23
F0.037699999999999997
sg27
I0
sg28
I0
ssS'nodes'
p538
(lp539
sS'elements'
p540
(lp541
I28
aI29
aI31
aI32
aI34
aI35
asS'attr_list'
p542
(lp543
S'name'
p544
aS'axes'
p545
aS'components'
p546
aS'nodes'
p547
aS'elements'
p548
asbsS'Gleis1_BAHNLASTEN_Lasteinzugsflache_Lastblock_-2'
p549
g0
(g527
g2
Ntp550
Rp551
(dp552
g15
I8
sg531
g532
sg533
g549
sg534
S'global'
p553
sg536
(dp554
g23
F0.076608379133743354
sg27
I0
sg28
I0
ssg538
g539
sg540
(lp555
I1
aI7
asg542
(lp556
g544
ag545
ag546
ag547
ag548
asbsS'Gleis1_EIGENGEWICHTE_SCHIENE_Lasteinzugsflache'
p557
g0
(g527
g2
Ntp558
Rp559
(dp560
g15
I3
sg531
g532
sg533
g557
sg534
g553
sg536
(dp561
g23
F0.0023467469315352802
sg27
I0
sg28
I0
ssg538
g539
sg540
(lp562
I1
aI2
aI3
aI4
aI5
aI6
aI7
aI8
aI9
aI10
aI11
aI12
aI19
aI20
aI21
aI22
aI23
aI24
asg542
(lp563
g544
ag545
ag546
ag547
ag548
asbsS'earthPressure_backfill'
p564
g0
(g527
g2
Ntp565
Rp566
(dp567
g15
I2
sg531
g532
sg533
g564
sg534
g535
sg536
(dp568
g23
F0.047980460213423247
sg27
I0
sg28
I0
ssg538
g539
sg540
(lp569
g475
ag413
ag447
ag463
ag521
ag439
ag501
ag417
ag467
ag513
ag421
ag455
ag405
ag431
ag459
ag505
ag483
ag509
asg542
(lp570
g544
ag545
ag546
ag547
ag548
asbsS'Gleis1_BAHNLASTEN_Lasteinzugsflache_Lastblock_2'
p571
g0
(g527
g2
Ntp572
Rp573
(dp574
g15
I5
sg531
g532
sg533
g571
sg534
g553
sg536
(dp575
g23
F0.076608379133743354
sg27
I0
sg28
I0
ssg538
g539
sg540
(lp576
I4
aI10
asg542
(lp577
g544
ag545
ag546
ag547
ag548
asbsS'earthPressure_gravel'
p578
g0
(g527
g2
Ntp579
Rp580
(dp581
g15
I1
sg531
g532
sg533
g578
sg534
g553
sg536
(dp582
g23
F0.013500000000000002
sg27
I0
sg28
I0
ssg538
g539
sg540
(lp583
g427
ag491
ag451
ag487
ag443
ag517
ag479
ag471
ag435
asg542
(lp584
g544
ag545
ag546
ag547
ag548
asbsS'Gleis1_BAHNLASTEN_Lasteinzugsflache_Lastblock_3'
p585
g0
(g527
g2
Ntp586
Rp587
(dp588
g15
I6
sg531
g532
sg533
g585
sg534
g553
sg536
(dp589
g23
F0.076608379133743354
sg27
I0
sg28
I0
ssg538
g539
sg540
(lp590
I5
aI11
asg542
(lp591
g544
ag545
ag546
ag547
ag548
asbsS'Gleis1_BAHNLASTEN_Lasteinzugsflache_Lastblock_1'
p592
g0
(g527
g2
Ntp593
Rp594
(dp595
g15
I4
sg531
g532
sg533
g592
sg534
g553
sg536
(dp596
g23
F0.076608379133743354
sg27
I0
sg28
I0
ssg538
g539
sg540
(lp597
I20
aI23
asg542
(lp598
g544
ag545
ag546
ag547
ag548
asbsS'load_gravity'
p599
g0
(ccompas_fea.structure.load
GravityLoad
p600
g2
Ntp601
Rp602
(dp603
g15
I0
sg531
S'GravityLoad'
p604
sg533
g599
sg534
g553
sg536
(dp605
g23
F1.3500000000000001
sg27
F0.0
sg28
F0.0
ssg538
g539
sg540
(lp606
g427
ag491
ag451
ag487
ag443
ag517
ag479
ag471
ag435
ag475
ag413
ag447
ag463
ag521
ag439
ag501
ag417
ag467
ag513
ag421
ag455
ag405
ag431
ag459
ag505
ag483
ag509
asg542
(lp607
g544
ag545
ag546
ag547
ag548
aS'g'
p608
asS'g'
p609
F-9.8100000000000005
sbsS'Gleis1_BAHNLASTEN_Lasteinzugsflache_Lastblock_-1'
p610
g0
(g527
g2
Ntp611
Rp612
(dp613
g15
I7
sg531
g532
sg533
g610
sg534
g553
sg536
(dp614
g23
F0.076608379133743354
sg27
I0
sg28
I0
ssg538
g539
sg540
(lp615
I19
aI22
asg542
(lp616
g544
ag545
ag546
ag547
ag548
asbssS'materials'
p617
(dp618
g495
g0
(ccompas_fea.structure.material
MPCStiff
p619
g2
Ntp620
Rp621
(dp622
g15
I2
sS'__name__'
p623
S'MPCStiff'
p624
sS'name'
p625
g495
sS'attr_list'
p626
(lp627
g544
aS'E'
p628
aS'v'
p629
aS'G'
p630
aS'p'
p631
aS'tension'
p632
aS'compression'
p633
asS'E'
p634
(dp635
g628
L10000000000000L
ssS'v'
p636
(dp637
g629
F0.29999999999999999
ssS'G'
p638
(dp639
g630
F3846153846153.8462
ssS'p'
p640
F0.10000000000000001
sS'tension'
p641
I01
sS'compression'
p642
I01
sbsg401
g0
(ccompas_fea.structure.material
CMMUsermat
p643
g2
Ntp644
Rp645
(dp646
g15
I1
sg623
S'CMMUsermat'
p647
sg625
g401
sg626
(lp648
g544
ag628
ag629
ag630
ag631
aS'R_Rohr'
p649
aS'rho'
p650
aS'oo'
p651
aS'uu'
p652
aS'beton'
p653
aS'fcc'
p654
aS'vc'
p655
aS'ecu'
p656
aS'k_E'
p657
aS'theta_b0'
p658
aS'theta_b1'
p659
aS'k_riss'
p660
aS'Entfestigung'
p661
aS'lambdaTS'
p662
aS'srmx'
p663
aS'srmy'
p664
aS'Begrenzung'
p665
aS'KritQ'
p666
aS'winkelD'
p667
aS'k_vr'
p668
aS'fswy'
p669
aS'stahl1'
p670
aS'zm1'
p671
aS'fsy1'
p672
aS'fsu1'
p673
aS'esu1'
p674
aS'esv1'
p675
aS'Es1'
p676
aS'ka1'
p677
aS'kb1'
p678
aS'kc1'
p679
aS'as1'
p680
aS'dm1'
p681
aS'psi1'
p682
aS'stahl2'
p683
aS'zm2'
p684
aS'fsy2'
p685
aS'fsu2'
p686
aS'esu2'
p687
aS'esv2'
p688
aS'Es2'
p689
aS'ka2'
p690
aS'kb2'
p691
aS'kc2'
p692
aS'as2'
p693
aS'dm2'
p694
aS'psi2'
p695
aS'stahl3'
p696
aS'zm3'
p697
aS'fsy3'
p698
aS'fsu3'
p699
aS'esu3'
p700
aS'esv3'
p701
aS'Es3'
p702
aS'ka3'
p703
aS'kb3'
p704
aS'kc3'
p705
aS'as3'
p706
aS'dm3'
p707
aS'psi3'
p708
aS'stahl4'
p709
aS'zm4'
p710
aS'fsy4'
p711
aS'fsu4'
p712
aS'esu4'
p713
aS'esv4'
p714
aS'Es4'
p715
aS'ka4'
p716
aS'kb4'
p717
aS'kc4'
p718
aS'as4'
p719
aS'dm4'
p720
aS'psi4'
p721
asS'E'
p722
(dp723
S'E'
p724
I200000
ssS'v'
p725
(dp726
S'v'
p727
F0.10000000000000001
ssS'G'
p728
(dp729
g630
F90909.090909090897
ssS'p'
p730
F2.5000000000000002e-06
sS'R_Rohr'
p731
(dp732
g649
I-1
ssS'rho'
p733
(dp734
g650
F2.5000000000000002e-06
ssS'oo'
p735
(dp736
g651
I30
ssS'uu'
p737
(dp738
g652
I30
ssS'beton'
p739
(dp740
g653
I2
ssS'fcc'
p741
(dp742
g654
I36
ssS'vc'
p743
(dp744
g655
I0
ssS'ecu'
p745
(dp746
g656
F-0.002
ssS'k_E'
p747
(dp748
g657
I10000
ssS'theta_b0'
p749
(dp750
g658
I2
ssS'theta_b1'
p751
(dp752
g659
I1
ssS'k_riss'
p753
(dp754
g660
I0
ssS'Entfestigung'
p755
(dp756
g661
I0
ssS'lambdaTS'
p757
(dp758
g662
F0.67000000000000004
ssS'srmx'
p759
(dp760
g663
I1
ssS'srmy'
p761
(dp762
g664
I1
ssS'Begrenzung'
p763
(dp764
g665
I2
ssS'KritQ'
p765
(dp766
g666
I0
ssS'winkelD'
p767
(dp768
g667
I45
ssS'k_vr'
p769
(dp770
g668
I1
ssS'fswy'
p771
(dp772
g669
I500
ssS'stahl1'
p773
(dp774
g670
I1
ssS'zm1'
p775
(dp776
g671
I2
ssS'fsy1'
p777
(dp778
g672
I317
ssS'fsu1'
p779
(dp780
g673
I343
ssS'esu1'
p781
(dp782
g674
F0.044999999999999998
ssS'esv1'
p783
(dp784
g675
F0.02
ssS'Es1'
p785
(dp786
g676
I200000
ssS'ka1'
p787
(dp788
g677
I-1
ssS'kb1'
p789
(dp790
g678
I-1
ssS'kc1'
p791
(dp792
g679
I-1
ssS'as1'
p793
(dp794
g680
F1.6617652522112452
ssS'dm1'
p795
(dp796
g681
F29.989724358858911
ssS'psi1'
p797
(dp798
g682
I90
ssS'stahl2'
p799
(dp800
g683
I1
ssS'zm2'
p801
(dp802
g684
I2
ssS'fsy2'
p803
(dp804
g685
I317
ssS'fsu2'
p805
(dp806
g686
I343
ssS'esu2'
p807
(dp808
g687
F0.044999999999999998
ssS'esv2'
p809
(dp810
g688
F0.02
ssS'Es2'
p811
(dp812
g689
I200000
ssS'ka2'
p813
(dp814
g690
I-1
ssS'kb2'
p815
(dp816
g691
I-1
ssS'kc2'
p817
(dp818
g692
I-1
ssS'as2'
p819
(dp820
g693
F0.26606467481343504
ssS'dm2'
p821
(dp822
g694
F12.0
ssS'psi2'
p823
(dp824
g695
I0
ssS'stahl3'
p825
(dp826
g696
I1
ssS'zm3'
p827
(dp828
g697
I2
ssS'fsy3'
p829
(dp830
g698
I317
ssS'fsu3'
p831
(dp832
g699
I343
ssS'esu3'
p833
(dp834
g700
F0.044999999999999998
ssS'esv3'
p835
(dp836
g701
F0.02
ssS'Es3'
p837
(dp838
g702
I200000
ssS'ka3'
p839
(dp840
g703
I-1
ssS'kb3'
p841
(dp842
g704
I-1
ssS'kc3'
p843
(dp844
g705
I-1
ssS'as3'
p845
(dp846
g706
F0.26606467481343504
ssS'dm3'
p847
(dp848
g707
F12.0
ssS'psi3'
p849
(dp850
g708
I0
ssS'stahl4'
p851
(dp852
g709
I1
ssS'zm4'
p853
(dp854
g710
I2
ssS'fsy4'
p855
(dp856
g711
I317
ssS'fsu4'
p857
(dp858
g712
I343
ssS'esu4'
p859
(dp860
g713
F0.044999999999999998
ssS'esv4'
p861
(dp862
g714
F0.02
ssS'Es4'
p863
(dp864
g715
I200000
ssS'ka4'
p865
(dp866
g716
I-1
ssS'kb4'
p867
(dp868
g717
I-1
ssS'kc4'
p869
(dp870
g718
I-1
ssS'as4'
p871
(dp872
g719
F1.0244908244730975
ssS'dm4'
p873
(dp874
g720
F23.547330200273333
ssS'psi4'
p875
(dp876
g721
I90
ssbsg425
g0
(g643
g2
Ntp877
Rp878
(dp879
g15
I0
sg623
g647
sg625
g425
sg626
(lp880
g544
ag628
ag629
ag630
ag631
ag649
ag650
ag651
ag652
ag653
ag654
ag655
ag656
ag657
ag658
ag659
ag660
ag661
ag662
ag663
ag664
ag665
ag666
ag667
ag668
ag669
ag670
ag671
ag672
ag673
ag674
ag675
ag676
ag677
ag678
ag679
ag680
ag681
ag682
ag683
ag684
ag685
ag686
ag687
ag688
ag689
ag690
ag691
ag692
ag693
ag694
ag695
ag696
ag697
ag698
ag699
ag700
ag701
ag702
ag703
ag704
ag705
ag706
ag707
ag708
ag709
ag710
ag711
ag712
ag713
ag714
ag715
ag716
ag717
ag718
ag719
ag720
ag721
asg722
(dp881
g724
I200000
ssg725
(dp882
g727
F0.10000000000000001
ssg728
(dp883
g630
F90909.090909090897
ssg730
F2.5000000000000002e-06
sg731
(dp884
g649
I-1
ssg733
(dp885
g650
F2.5000000000000002e-06
ssg735
(dp886
g651
I30
ssg737
(dp887
g652
I30
ssg739
(dp888
g653
I2
ssg741
(dp889
g654
I36
ssg743
(dp890
g655
I0
ssg745
(dp891
g656
F-0.002
ssg747
(dp892
g657
I10000
ssg749
(dp893
g658
I2
ssg751
(dp894
g659
I1
ssg753
(dp895
g660
I0
ssg755
(dp896
g661
I0
ssg757
(dp897
g662
F0.67000000000000004
ssg759
(dp898
g663
I1
ssg761
(dp899
g664
I1
ssg763
(dp900
g665
I2
ssg765
(dp901
g666
I0
ssg767
(dp902
g667
I45
ssg769
(dp903
g668
I1
ssg771
(dp904
g669
I500
ssg773
(dp905
g670
I1
ssg775
(dp906
g671
I2
ssg777
(dp907
g672
I317
ssg779
(dp908
g673
I343
ssg781
(dp909
g674
F0.044999999999999998
ssg783
(dp910
g675
F0.02
ssg785
(dp911
g676
I200000
ssg787
(dp912
g677
I-1
ssg789
(dp913
g678
I-1
ssg791
(dp914
g679
I-1
ssg793
(dp915
g680
F0.79231899566889274
ssg795
(dp916
g681
F14.675445221776901
ssg797
(dp917
g682
I90
ssg799
(dp918
g683
I1
ssg801
(dp919
g684
I2
ssg803
(dp920
g685
I317
ssg805
(dp921
g686
I343
ssg807
(dp922
g687
F0.044999999999999998
ssg809
(dp923
g688
F0.02
ssg811
(dp924
g689
I200000
ssg813
(dp925
g690
I-1
ssg815
(dp926
g691
I-1
ssg817
(dp927
g692
I-1
ssg819
(dp928
g693
F1.1060392190798607
ssg821
(dp929
g694
F17.339098552360632
ssg823
(dp930
g695
I0
ssg825
(dp931
g696
I1
ssg827
(dp932
g697
I2
ssg829
(dp933
g698
I317
ssg831
(dp934
g699
I343
ssg833
(dp935
g700
F0.044999999999999998
ssg835
(dp936
g701
F0.02
ssg837
(dp937
g702
I200000
ssg839
(dp938
g703
I-1
ssg841
(dp939
g704
I-1
ssg843
(dp940
g705
I-1
ssg845
(dp941
g706
F0.52976100692491279
ssg847
(dp942
g707
F12.0
ssg849
(dp943
g708
I0
ssg851
(dp944
g709
I1
ssg853
(dp945
g710
I2
ssg855
(dp946
g711
I317
ssg857
(dp947
g712
I343
ssg859
(dp948
g713
F0.044999999999999998
ssg861
(dp949
g714
F0.02
ssg863
(dp950
g715
I200000
ssg865
(dp951
g716
I-1
ssg867
(dp952
g717
I-1
ssg869
(dp953
g718
I-1
ssg871
(dp954
g719
F1.7853203343003328
ssg873
(dp955
g720
F22.02923051144338
ssg875
(dp956
g721
I90
ssbssS'misc'
p957
(dp958
sS'name'
p959
S'NLFE_CFB6'
p960
sS'nodes'
p961
(dp962
I0
g0
(ccompas_fea.structure.node
Node
p963
g2
Ntp964
Rp965
(dp966
S'__name__'
p967
S'Node'
p968
sS'key'
p969
I0
sS'x'
p970
F0.0
sS'y'
p971
F0.0
sS'z'
p972
F0.0
sS'ex'
p973
(lp974
I1
aI0
aI0
asS'ey'
p975
(lp976
I0
aI1
aI0
asS'ez'
p977
(lp978
I0
aI0
aI1
asS'mass'
p979
NsbsI1
g0
(g963
g2
Ntp980
Rp981
(dp982
g967
g968
sg969
I1
sg970
F1294.5562704722474
sg971
F0.0
sg972
F0.0
sg973
g974
sg975
g976
sg977
g978
sg979
NsbsI2
g0
(g963
g2
Ntp983
Rp984
(dp985
g967
g968
sg969
I2
sg970
F0.0
sg971
F1776.8679067510925
sg972
F0.0
sg973
g974
sg975
g976
sg977
g978
sg979
NsbsI3
g0
(g963
g2
Ntp986
Rp987
(dp988
g967
g968
sg969
I3
sg970
F1294.5562704722474
sg971
F1776.8679067510925
sg972
F0.0
sg973
g974
sg975
g976
sg977
g978
sg979
NsbsI4
g0
(g963
g2
Ntp989
Rp990
(dp991
g967
g968
sg969
I4
sg970
F0.0
sg971
F3553.735813502185
sg972
F0.0
sg973
g974
sg975
g976
sg977
g978
sg979
NsbsI5
g0
(g963
g2
Ntp992
Rp993
(dp994
g967
g968
sg969
I5
sg970
F1294.5562704722474
sg971
F3553.735813502185
sg972
F0.0
sg973
g974
sg975
g976
sg977
g978
sg979
NsbsI6
g0
(g963
g2
Ntp995
Rp996
(dp997
g967
g968
sg969
I6
sg970
F0.0
sg971
F5330.603720253278
sg972
F0.0
sg973
g974
sg975
g976
sg977
g978
sg979
NsbsI7
g0
(g963
g2
Ntp998
Rp999
(dp1000
g967
g968
sg969
I7
sg970
F1294.5562704722474
sg971
F5330.603720253278
sg972
F0.0
sg973
g974
sg975
g976
sg977
g978
sg979
NsbsI8
g0
(g963
g2
Ntp1001
Rp1002
(dp1003
g967
g968
sg969
I8
sg970
F0.0
sg971
F10822.740886574837
sg972
F0.0
sg973
g974
sg975
g976
sg977
g978
sg979
NsbsI9
g0
(g963
g2
Ntp1004
Rp1005
(dp1006
g967
g968
sg969
I9
sg970
F1294.5562704722474
sg971
F10822.740886574837
sg972
F0.0
sg973
g974
sg975
g976
sg977
g978
sg979
NsbsI10
g0
(g963
g2
Ntp1007
Rp1008
(dp1009
g967
g968
sg969
I10
sg970
F0.0
sg971
F12599.608793325931
sg972
F0.0
sg973
g974
sg975
g976
sg977
g978
sg979
NsbsI11
g0
(g963
g2
Ntp1010
Rp1011
(dp1012
g967
g968
sg969
I11
sg970
F1294.5562704722474
sg971
F12599.608793325931
sg972
F0.0
sg973
g974
sg975
g976
sg977
g978
sg979
NsbsI12
g0
(g963
g2
Ntp1013
Rp1014
(dp1015
g967
g968
sg969
I12
sg970
F0.0
sg971
F14376.476700077024
sg972
F0.0
sg973
g974
sg975
g976
sg977
g978
sg979
NsbsI13
g0
(g963
g2
Ntp1016
Rp1017
(dp1018
g967
g968
sg969
I13
sg970
F1294.5562704722474
sg971
F14376.476700077024
sg972
F0.0
sg973
g974
sg975
g976
sg977
g978
sg979
NsbsI14
g0
(g963
g2
Ntp1019
Rp1020
(dp1021
g967
g968
sg969
I14
sg970
F0.0
sg971
F16153.344606828116
sg972
F0.0
sg973
g974
sg975
g976
sg977
g978
sg979
NsbsI15
g0
(g963
g2
Ntp1022
Rp1023
(dp1024
g967
g968
sg969
I15
sg970
F1294.5562704722474
sg971
F16153.344606828116
sg972
F0.0
sg973
g974
sg975
g976
sg977
g978
sg979
NsbsI16
g0
(g963
g2
Ntp1025
Rp1026
(dp1027
g967
g968
sg969
I16
sg970
F2589.1125409444949
sg971
F0.0
sg972
F0.0
sg973
g974
sg975
g976
sg977
g978
sg979
NsbsI17
g0
(g963
g2
Ntp1028
Rp1029
(dp1030
g967
g968
sg969
I17
sg970
F2589.1125409444949
sg971
F1776.8679067510925
sg972
F0.0
sg973
g974
sg975
g976
sg977
g978
sg979
NsbsI18
g0
(g963
g2
Ntp1031
Rp1032
(dp1033
g967
g968
sg969
I18
sg970
F2589.1125409444949
sg971
F3553.735813502185
sg972
F0.0
sg973
g974
sg975
g976
sg977
g978
sg979
NsbsI19
g0
(g963
g2
Ntp1034
Rp1035
(dp1036
g967
g968
sg969
I19
sg970
F2589.1125409444949
sg971
F5330.603720253278
sg972
F0.0
sg973
g974
sg975
g976
sg977
g978
sg979
NsbsI20
g0
(g963
g2
Ntp1037
Rp1038
(dp1039
g967
g968
sg969
I20
sg970
F2589.1125409444949
sg971
F10822.740886574837
sg972
F0.0
sg973
g974
sg975
g976
sg977
g978
sg979
NsbsI21
g0
(g963
g2
Ntp1040
Rp1041
(dp1042
g967
g968
sg969
I21
sg970
F2589.1125409444949
sg971
F12599.608793325931
sg972
F0.0
sg973
g974
sg975
g976
sg977
g978
sg979
NsbsI22
g0
(g963
g2
Ntp1043
Rp1044
(dp1045
g967
g968
sg969
I22
sg970
F2589.1125409444949
sg971
F14376.476700077024
sg972
F0.0
sg973
g974
sg975
g976
sg977
g978
sg979
NsbsI23
g0
(g963
g2
Ntp1046
Rp1047
(dp1048
g967
g968
sg969
I23
sg970
F2589.1125409444949
sg971
F16153.344606828116
sg972
F0.0
sg973
g974
sg975
g976
sg977
g978
sg979
NsbsI24
g0
(g963
g2
Ntp1049
Rp1050
(dp1051
g967
g968
sg969
I24
sg970
F3922.8977893098408
sg971
F0.0
sg972
F0.0
sg973
g974
sg975
g976
sg977
g978
sg979
NsbsI25
g0
(g963
g2
Ntp1052
Rp1053
(dp1054
g967
g968
sg969
I25
sg970
F3922.8977893098408
sg971
F1776.8679067510925
sg972
F0.0
sg973
g974
sg975
g976
sg977
g978
sg979
NsbsI26
g0
(g963
g2
Ntp1055
Rp1056
(dp1057
g967
g968
sg969
I26
sg970
F3922.8977893098408
sg971
F3553.735813502185
sg972
F0.0
sg973
g974
sg975
g976
sg977
g978
sg979
NsbsI27
g0
(g963
g2
Ntp1058
Rp1059
(dp1060
g967
g968
sg969
I27
sg970
F3922.8977893098408
sg971
F5330.603720253278
sg972
F0.0
sg973
g974
sg975
g976
sg977
g978
sg979
NsbsI28
g0
(g963
g2
Ntp1061
Rp1062
(dp1063
g967
g968
sg969
I28
sg970
F3922.8977893098408
sg971
F10822.740886574837
sg972
F0.0
sg973
g974
sg975
g976
sg977
g978
sg979
NsbsI29
g0
(g963
g2
Ntp1064
Rp1065
(dp1066
g967
g968
sg969
I29
sg970
F3922.8977893098413
sg971
F12599.608793325931
sg972
F0.0
sg973
g974
sg975
g976
sg977
g978
sg979
NsbsI30
g0
(g963
g2
Ntp1067
Rp1068
(dp1069
g967
g968
sg969
I30
sg970
F3922.8977893098413
sg971
F14376.476700077024
sg972
F0.0
sg973
g974
sg975
g976
sg977
g978
sg979
NsbsI31
g0
(g963
g2
Ntp1070
Rp1071
(dp1072
g967
g968
sg969
I31
sg970
F3922.8977893098408
sg971
F16153.344606828116
sg972
F0.0
sg973
g974
sg975
g976
sg977
g978
sg979
NsbsI32
g0
(g963
g2
Ntp1073
Rp1074
(dp1075
g967
g968
sg969
I32
sg970
F0.0
sg971
F7161.3161090271315
sg972
F0.0
sg973
g974
sg975
g976
sg977
g978
sg979
NsbsI33
g0
(g963
g2
Ntp1076
Rp1077
(dp1078
g967
g968
sg969
I33
sg970
F1294.5562704722474
sg971
F7161.3161090271315
sg972
F0.0
sg973
g974
sg975
g976
sg977
g978
sg979
NsbsI34
g0
(g963
g2
Ntp1079
Rp1080
(dp1081
g967
g968
sg969
I34
sg970
F0.0
sg971
F8992.028497800984
sg972
F0.0
sg973
g974
sg975
g976
sg977
g978
sg979
NsbsI35
g0
(g963
g2
Ntp1082
Rp1083
(dp1084
g967
g968
sg969
I35
sg970
F1294.5562704722474
sg971
F8992.028497800984
sg972
F0.0
sg973
g974
sg975
g976
sg977
g978
sg979
NsbsI36
g0
(g963
g2
Ntp1085
Rp1086
(dp1087
g967
g968
sg969
I36
sg970
F2589.1125409444949
sg971
F7161.3161090271315
sg972
F0.0
sg973
g974
sg975
g976
sg977
g978
sg979
NsbsI37
g0
(g963
g2
Ntp1088
Rp1089
(dp1090
g967
g968
sg969
I37
sg970
F2589.1125409444949
sg971
F8992.028497800984
sg972
F0.0
sg973
g974
sg975
g976
sg977
g978
sg979
NsbsI38
g0
(g963
g2
Ntp1091
Rp1092
(dp1093
g967
g968
sg969
I38
sg970
F3922.8977893098408
sg971
F7161.3161090271315
sg972
F0.0
sg973
g974
sg975
g976
sg977
g978
sg979
NsbsI39
g0
(g963
g2
Ntp1094
Rp1095
(dp1096
g967
g968
sg969
I39
sg970
F3922.8977893098408
sg971
F8992.028497800984
sg972
F0.0
sg973
g974
sg975
g976
sg977
g978
sg979
NsbsI40
g0
(g963
g2
Ntp1097
Rp1098
(dp1099
g967
g968
sg969
I40
sg970
F0.0
sg971
F0.0
sg972
F-1709.8684114831026
sg973
g974
sg975
g976
sg977
g978
sg979
NsbsI41
g0
(g963
g2
Ntp1100
Rp1101
(dp1102
g967
g968
sg969
I41
sg970
F1294.5562704722499
sg971
F0.0
sg972
F-1709.8684114831026
sg973
g974
sg975
g976
sg977
g978
sg979
NsbsI42
g0
(g963
g2
Ntp1103
Rp1104
(dp1105
g967
g968
sg969
I42
sg970
F0.0
sg971
F0.0
sg972
F-739.21869549830535
sg973
g974
sg975
g976
sg977
g978
sg979
NsbsI43
g0
(g963
g2
Ntp1106
Rp1107
(dp1108
g967
g968
sg969
I43
sg970
F1294.5562704722499
sg971
F0.0
sg972
F-739.21869549830535
sg973
g974
sg975
g976
sg977
g978
sg979
NsbsI44
g0
(g963
g2
Ntp1109
Rp1110
(dp1111
g967
g968
sg969
I44
sg970
F2589.1125409444899
sg971
F0.0
sg972
F-1709.8684114831026
sg973
g974
sg975
g976
sg977
g978
sg979
NsbsI45
g0
(g963
g2
Ntp1112
Rp1113
(dp1114
g967
g968
sg969
I45
sg970
F2589.1125409444899
sg971
F0.0
sg972
F-739.21869549830535
sg973
g974
sg975
g976
sg977
g978
sg979
NsbsI46
g0
(g963
g2
Ntp1115
Rp1116
(dp1117
g967
g968
sg969
I46
sg970
F3922.8977893098399
sg971
F0.0
sg972
F-1709.8684114831026
sg973
g974
sg975
g976
sg977
g978
sg979
NsbsI47
g0
(g963
g2
Ntp1118
Rp1119
(dp1120
g967
g968
sg969
I47
sg970
F3922.8977893098399
sg971
F0.0
sg972
F-739.21869549830535
sg973
g974
sg975
g976
sg977
g978
sg979
NsbsI48
g0
(g963
g2
Ntp1121
Rp1122
(dp1123
g967
g968
sg969
I48
sg970
F0.0
sg971
F0.0
sg972
F-2709.9317552250145
sg973
g974
sg975
g976
sg977
g978
sg979
NsbsI49
g0
(g963
g2
Ntp1124
Rp1125
(dp1126
g967
g968
sg969
I49
sg970
F1294.5562704722499
sg971
F0.0
sg972
F-2709.9317552250145
sg973
g974
sg975
g976
sg977
g978
sg979
NsbsI50
g0
(g963
g2
Ntp1127
Rp1128
(dp1129
g967
g968
sg969
I50
sg970
F2589.1125409444899
sg971
F0.0
sg972
F-2709.9317552250145
sg973
g974
sg975
g976
sg977
g978
sg979
NsbsI51
g0
(g963
g2
Ntp1130
Rp1131
(dp1132
g967
g968
sg969
I51
sg970
F3922.8977893098399
sg971
F0.0
sg972
F-2709.9317552250145
sg973
g974
sg975
g976
sg977
g978
sg979
NsbsI52
g0
(g963
g2
Ntp1133
Rp1134
(dp1135
g967
g968
sg969
I52
sg970
F0.0
sg971
F0.0
sg972
F-3680.5814712098118
sg973
g974
sg975
g976
sg977
g978
sg979
NsbsI53
g0
(g963
g2
Ntp1136
Rp1137
(dp1138
g967
g968
sg969
I53
sg970
F1294.5562704722499
sg971
F0.0
sg972
F-3680.5814712098118
sg973
g974
sg975
g976
sg977
g978
sg979
NsbsI54
g0
(g963
g2
Ntp1139
Rp1140
(dp1141
g967
g968
sg969
I54
sg970
F2589.1125409444899
sg971
F0.0
sg972
F-3680.5814712098118
sg973
g974
sg975
g976
sg977
g978
sg979
NsbsI55
g0
(g963
g2
Ntp1142
Rp1143
(dp1144
g967
g968
sg969
I55
sg970
F3922.8977893098399
sg971
F0.0
sg972
F-3680.5814712098118
sg973
g974
sg975
g976
sg977
g978
sg979
NsbsI56
g0
(g963
g2
Ntp1145
Rp1146
(dp1147
g967
g968
sg969
I56
sg970
F0.0
sg971
F16153.344606828116
sg972
F-1709.8684114831026
sg973
g974
sg975
g976
sg977
g978
sg979
NsbsI57
g0
(g963
g2
Ntp1148
Rp1149
(dp1150
g967
g968
sg969
I57
sg970
F1294.5562704722499
sg971
F16153.344606828116
sg972
F-1709.8684114831026
sg973
g974
sg975
g976
sg977
g978
sg979
NsbsI58
g0
(g963
g2
Ntp1151
Rp1152
(dp1153
g967
g968
sg969
I58
sg970
F0.0
sg971
F16153.344606828116
sg972
F-739.21869549830535
sg973
g974
sg975
g976
sg977
g978
sg979
NsbsI59
g0
(g963
g2
Ntp1154
Rp1155
(dp1156
g967
g968
sg969
I59
sg970
F1294.5562704722499
sg971
F16153.344606828116
sg972
F-739.21869549830535
sg973
g974
sg975
g976
sg977
g978
sg979
NsbsI60
g0
(g963
g2
Ntp1157
Rp1158
(dp1159
g967
g968
sg969
I60
sg970
F2589.1125409444899
sg971
F16153.344606828116
sg972
F-1709.8684114831026
sg973
g974
sg975
g976
sg977
g978
sg979
NsbsI61
g0
(g963
g2
Ntp1160
Rp1161
(dp1162
g967
g968
sg969
I61
sg970
F2589.1125409444899
sg971
F16153.344606828116
sg972
F-739.21869549830535
sg973
g974
sg975
g976
sg977
g978
sg979
NsbsI62
g0
(g963
g2
Ntp1163
Rp1164
(dp1165
g967
g968
sg969
I62
sg970
F3922.8977893098399
sg971
F16153.344606828116
sg972
F-1709.8684114831026
sg973
g974
sg975
g976
sg977
g978
sg979
NsbsI63
g0
(g963
g2
Ntp1166
Rp1167
(dp1168
g967
g968
sg969
I63
sg970
F3922.8977893098399
sg971
F16153.344606828116
sg972
F-739.21869549830535
sg973
g974
sg975
g976
sg977
g978
sg979
NsbsI64
g0
(g963
g2
Ntp1169
Rp1170
(dp1171
g967
g968
sg969
I64
sg970
F0.0
sg971
F16153.344606828116
sg972
F-2709.9317552250145
sg973
g974
sg975
g976
sg977
g978
sg979
NsbsI65
g0
(g963
g2
Ntp1172
Rp1173
(dp1174
g967
g968
sg969
I65
sg970
F1294.5562704722499
sg971
F16153.344606828116
sg972
F-2709.9317552250145
sg973
g974
sg975
g976
sg977
g978
sg979
NsbsI66
g0
(g963
g2
Ntp1175
Rp1176
(dp1177
g967
g968
sg969
I66
sg970
F2589.1125409444899
sg971
F16153.344606828116
sg972
F-2709.9317552250145
sg973
g974
sg975
g976
sg977
g978
sg979
NsbsI67
g0
(g963
g2
Ntp1178
Rp1179
(dp1180
g967
g968
sg969
I67
sg970
F3922.8977893098399
sg971
F16153.344606828116
sg972
F-2709.9317552250145
sg973
g974
sg975
g976
sg977
g978
sg979
NsbsI68
g0
(g963
g2
Ntp1181
Rp1182
(dp1183
g967
g968
sg969
I68
sg970
F0.0
sg971
F16153.344606828116
sg972
F-3680.5814712098118
sg973
g974
sg975
g976
sg977
g978
sg979
NsbsI69
g0
(g963
g2
Ntp1184
Rp1185
(dp1186
g967
g968
sg969
I69
sg970
F1294.5562704722499
sg971
F16153.344606828116
sg972
F-3680.5814712098118
sg973
g974
sg975
g976
sg977
g978
sg979
NsbsI70
g0
(g963
g2
Ntp1187
Rp1188
(dp1189
g967
g968
sg969
I70
sg970
F2589.1125409444899
sg971
F16153.344606828116
sg972
F-3680.5814712098118
sg973
g974
sg975
g976
sg977
g978
sg979
NsbsI71
g0
(g963
g2
Ntp1190
Rp1191
(dp1192
g967
g968
sg969
I71
sg970
F3922.8977893098399
sg971
F16153.344606828116
sg972
F-3680.5814712098118
sg973
g974
sg975
g976
sg977
g978
sg979
NsbssS'node_index'
p1193
(dp1194
S'1294.556,7161.316,0.000'
p1195
I33
sS'3922.898,16153.345,-2709.932'
p1196
I67
sS'3922.898,0.000,0.000'
p1197
I24
sS'3922.898,3553.736,0.000'
p1198
I26
sS'3922.898,0.000,-3680.581'
p1199
I55
sS'3922.898,7161.316,0.000'
p1200
I38
sS'3922.898,16153.345,-1709.868'
p1201
I62
sS'1294.556,5330.604,0.000'
p1202
I7
sS'1294.556,1776.868,0.000'
p1203
I3
sS'1294.556,8992.028,0.000'
p1204
I35
sS'3922.898,12599.609,0.000'
p1205
I29
sS'2589.113,0.000,0.000'
p1206
I16
sS'3922.898,0.000,-2709.932'
p1207
I51
sS'3922.898,16153.345,-3680.581'
p1208
I71
sS'0.000,16153.345,0.000'
p1209
I14
sS'0.000,16153.345,-2709.932'
p1210
I64
sS'0.000,0.000,-739.219'
p1211
I42
sS'3922.898,14376.477,0.000'
p1212
I30
sS'1294.556,16153.345,-2709.932'
p1213
I65
sS'3922.898,0.000,-739.219'
p1214
I47
sS'3922.898,5330.604,0.000'
p1215
I27
sS'2589.113,16153.345,-3680.581'
p1216
I70
sS'0.000,8992.028,0.000'
p1217
I34
sS'3922.898,8992.028,0.000'
p1218
I39
sS'2589.113,16153.345,-2709.932'
p1219
I66
sS'2589.113,14376.477,0.000'
p1220
I22
sS'0.000,5330.604,0.000'
p1221
I6
sS'0.000,16153.345,-3680.581'
p1222
I68
sS'1294.556,0.000,-739.219'
p1223
I43
sS'0.000,0.000,0.000'
p1224
I0
sS'1294.556,16153.345,-739.219'
p1225
I59
sS'0.000,1776.868,0.000'
p1226
I2
sS'2589.113,8992.028,0.000'
p1227
I37
sS'0.000,14376.477,0.000'
p1228
I12
sS'1294.556,16153.345,0.000'
p1229
I15
sS'1294.556,16153.345,-1709.868'
p1230
I57
sS'3922.898,0.000,-1709.868'
p1231
I46
sS'2589.113,7161.316,0.000'
p1232
I36
sS'0.000,10822.741,0.000'
p1233
I8
sS'1294.556,12599.609,0.000'
p1234
I11
sS'2589.113,5330.604,0.000'
p1235
I19
sS'0.000,3553.736,0.000'
p1236
I4
sS'0.000,0.000,-2709.932'
p1237
I48
sS'2589.113,16153.345,-739.219'
p1238
I61
sS'2589.113,16153.345,0.000'
p1239
I23
sS'3922.898,16153.345,0.000'
p1240
I31
sS'1294.556,0.000,-2709.932'
p1241
I49
sS'2589.113,1776.868,0.000'
p1242
I17
sS'3922.898,1776.868,0.000'
p1243
I25
sS'2589.113,0.000,-2709.932'
p1244
I50
sS'2589.113,16153.345,-1709.868'
p1245
I60
sS'1294.556,0.000,0.000'
p1246
I1
sS'1294.556,10822.741,0.000'
p1247
I9
sS'2589.113,12599.609,0.000'
p1248
I21
sS'0.000,12599.609,0.000'
p1249
I10
sS'3922.898,10822.741,0.000'
p1250
I28
sS'0.000,7161.316,0.000'
p1251
I32
sS'0.000,0.000,-1709.868'
p1252
I40
sS'2589.113,0.000,-1709.868'
p1253
I44
sS'1294.556,3553.736,0.000'
p1254
I5
sS'2589.113,0.000,-3680.581'
p1255
I54
sS'2589.113,3553.736,0.000'
p1256
I18
sS'2589.113,0.000,-739.219'
p1257
I45
sS'1294.556,0.000,-3680.581'
p1258
I53
sS'0.000,16153.345,-739.219'
p1259
I58
sS'1294.556,14376.477,0.000'
p1260
I13
sS'3922.898,16153.345,-739.219'
p1261
I63
sS'1294.556,16153.345,-3680.581'
p1262
I69
sS'0.000,16153.345,-1709.868'
p1263
I56
sS'0.000,0.000,-3680.581'
p1264
I52
sS'2589.113,10822.741,0.000'
p1265
I20
sS'1294.556,0.000,-1709.868'
p1266
I41
ssS'path'
p1267
S'C:\\Temp\\'
p1268
sS'results'
p1269
(dp1270
S'step_2'
p1271
S'ERROR'
p1272
sS'step_3'
p1273
g1272
sS'step_4'
p1274
g1272
sS'step_1'
p1275
g1272
ssS'sections'
p1276
(dp1277
g412
g0
(ccompas_fea.structure.section
ShellSection
p1278
g2
Ntp1279
Rp1280
(dp1281
g15
I1
sS'__name__'
p1282
S'ShellSection'
p1283
sS'name'
p1284
g412
sS'geometry'
p1285
(dp1286
S't'
p1287
F770.00663052396794
ssS'loc_coords_OR'
p1288
(dp1289
S'ORxyz'
p1290
(lp1291
I0
aI0
aF-2941.3627757099998
assS'loc_coords_XA'
p1292
(dp1293
S'XAxyz'
p1294
(lp1295
I1
aI0
aF-2941.3627757099998
assS'loc_coords_YA'
p1296
(dp1297
S'YAxyz'
p1298
(lp1299
F2941.3627757099998
aF-2941.3627757099998
aF-2940.3627757099998
assS'loc_coords_EV_XA'
p1300
(dp1301
S'EV_XA'
p1302
(lp1303
F1.0
aF0.0
aF0.0
assS'loc_coords_EV_YA'
p1304
(dp1305
S'EV_YA'
p1306
(lp1307
F0.70710676075375112
aF-0.70710676075375112
aF0.00024040107075301733
assS'loc_coords_EV_ZA'
p1308
(dp1309
S'EV_ZA'
p1310
(lp1311
F0.0
aF-1.0
aF0.0
assS'nr_layers'
p1312
(dp1313
S'nn'
p1314
F62.0
ssS'offset'
p1315
(dp1316
S'mode'
p1317
S'mid'
p1318
ssbsg426
g0
(g1278
g2
Ntp1319
Rp1320
(dp1321
g15
I0
sg1282
g1283
sg1284
g426
sg1285
(dp1322
g1287
F739.21869549830535
ssg1288
(dp1323
g1290
(lp1324
I0
aI0
aI0
assg1292
(dp1325
g1294
(lp1326
I1
aI0
aI0
assg1296
(dp1327
g1298
(lp1328
F0.0
aF1.0
aF0.0
assg1300
(dp1329
g1302
(lp1330
F1.0
aF0.0
aF0.0
assg1304
(dp1331
g1306
(lp1332
F0.0
aF1.0
aF0.0
assg1308
(dp1333
g1310
(lp1334
F0.0
aF0.0
aF1.0
assg1312
(dp1335
g1314
F62.0
ssg1315
(dp1336
g1317
S'top'
p1337
ssbsg403
g0
(g1278
g2
Ntp1338
Rp1339
(dp1340
g15
I2
sg1282
g1283
sg1284
g403
sg1285
(dp1341
g1287
F770.00663052396794
ssg1288
(dp1342
g1290
(lp1343
I0
aF16153.344606799999
aF-2941.3627757099998
assg1292
(dp1344
g1294
(lp1345
I1
aF16153.344606799999
aF-2941.3627757099998
assg1296
(dp1346
g1298
(lp1347
F-2941.3627757132053
aF13211.981831089999
aF-19095.707382509998
assg1300
(dp1348
g1302
(lp1349
F1.0
aF0.0
aF0.0
assg1304
(dp1350
g1306
(lp1351
F-0.17632685327998068
aF-0.17632685327978853
aF-0.96840987274233625
assg1308
(dp1352
g1310
(lp1353
F0.0
aF1.0
aF0.0
assg1312
(dp1354
g1314
F62.0
ssg1315
(dp1355
g1317
g1318
ssbsg496
g0
(ccompas_fea.structure.section
MPCSection
p1356
g2
Ntp1357
Rp1358
(dp1359
g15
I3
sg1282
S'MPCSection'
p1360
sg1284
g496
sg1285
NsS'nr_layers'
p1361
NsbssS'sets'
p1362
(dp1363
g521
g0
(ccompas_fea.structure.set
Set
p1364
g2
Ntp1365
Rp1366
(dp1367
S'__name__'
p1368
S'Set'
p1369
sS'name'
p1370
g521
sS'type'
p1371
S'element'
p1372
sS'selection'
p1373
(lp1374
I31
asS'index'
p1375
I13
sbsg497
g0
(g1364
g2
Ntp1376
Rp1377
(dp1378
g1368
g1369
sg1370
g497
sg1371
g1372
sg1373
(lp1379
I48
aI49
aI50
aI51
aI52
aI45
aI46
aI47
asg1375
I27
sbsg405
g0
(g1364
g2
Ntp1380
Rp1381
(dp1382
g1368
g1369
sg1370
g405
sg1371
g1372
sg1373
(lp1383
I39
asg1375
I21
sbsg451
g0
(g1364
g2
Ntp1384
Rp1385
(dp1386
g1368
g1369
sg1370
g451
sg1371
g1372
sg1373
(lp1387
I8
aI6
aI7
asg1375
I2
sbsg417
g0
(g1364
g2
Ntp1388
Rp1389
(dp1390
g1368
g1369
sg1370
g417
sg1371
g1372
sg1373
(lp1391
I34
asg1375
I16
sbsg513
g0
(g1364
g2
Ntp1392
Rp1393
(dp1394
g1368
g1369
sg1370
g513
sg1371
g1372
sg1373
(lp1395
I36
asg1375
I18
sbsg491
g0
(g1364
g2
Ntp1396
Rp1397
(dp1398
g1368
g1369
sg1370
g491
sg1371
g1372
sg1373
(lp1399
I3
aI4
aI5
asg1375
I1
sbsg427
g0
(g1364
g2
Ntp1400
Rp1401
(dp1402
g1368
g1369
sg1370
g427
sg1371
g1372
sg1373
(lp1403
I0
aI1
aI2
asg1375
I0
sbsg479
g0
(g1364
g2
Ntp1404
Rp1405
(dp1406
g1368
g1369
sg1370
g479
sg1371
g1372
sg1373
(lp1407
I18
aI19
aI20
asg1375
I6
sbsg517
g0
(g1364
g2
Ntp1408
Rp1409
(dp1410
g1368
g1369
sg1370
g517
sg1371
g1372
sg1373
(lp1411
I16
aI17
aI15
asg1375
I5
sbsg443
g0
(g1364
g2
Ntp1412
Rp1413
(dp1414
g1368
g1369
sg1370
g443
sg1371
g1372
sg1373
(lp1415
I12
aI13
aI14
asg1375
I4
sbsg487
g0
(g1364
g2
Ntp1416
Rp1417
(dp1418
g1368
g1369
sg1370
g487
sg1371
g1372
sg1373
(lp1419
I9
aI10
aI11
asg1375
I3
sbsg435
g0
(g1364
g2
Ntp1420
Rp1421
(dp1422
g1368
g1369
sg1370
g435
sg1371
g1372
sg1373
(lp1423
I24
aI25
aI26
asg1375
I8
sbsg471
g0
(g1364
g2
Ntp1424
Rp1425
(dp1426
g1368
g1369
sg1370
g471
sg1371
g1372
sg1373
(lp1427
I21
aI22
aI23
asg1375
I7
sbsg447
g0
(g1364
g2
Ntp1428
Rp1429
(dp1430
g1368
g1369
sg1370
g447
sg1371
g1372
sg1373
(lp1431
I29
asg1375
I11
sbsg509
g0
(g1364
g2
Ntp1432
Rp1433
(dp1434
g1368
g1369
sg1370
g509
sg1371
g1372
sg1373
(lp1435
I44
asg1375
I26
sbsg459
g0
(g1364
g2
Ntp1436
Rp1437
(dp1438
g1368
g1369
sg1370
g459
sg1371
g1372
sg1373
(lp1439
I41
asg1375
I23
sbsg439
g0
(g1364
g2
Ntp1440
Rp1441
(dp1442
g1368
g1369
sg1370
g439
sg1371
g1372
sg1373
(lp1443
I32
asg1375
I14
sbsg455
g0
(g1364
g2
Ntp1444
Rp1445
(dp1446
g1368
g1369
sg1370
g455
sg1371
g1372
sg1373
(lp1447
I38
asg1375
I20
sbsg475
g0
(g1364
g2
Ntp1448
Rp1449
(dp1450
g1368
g1369
sg1370
g475
sg1371
g1372
sg1373
(lp1451
I27
asg1375
I9
sbsg467
g0
(g1364
g2
Ntp1452
Rp1453
(dp1454
g1368
g1369
sg1370
g467
sg1371
g1372
sg1373
(lp1455
I35
asg1375
I17
sbsg35
g0
(g1364
g2
Ntp1456
Rp1457
(dp1458
g1368
g1369
sg1370
g35
sg1371
S'node'
p1459
sg1373
(lp1460
I71
aI70
aI69
aI68
asg1375
I29
sbsg463
g0
(g1364
g2
Ntp1461
Rp1462
(dp1463
g1368
g1369
sg1370
g463
sg1371
g1372
sg1373
(lp1464
I30
asg1375
I12
sbsg483
g0
(g1364
g2
Ntp1465
Rp1466
(dp1467
g1368
g1369
sg1370
g483
sg1371
g1372
sg1373
(lp1468
I43
asg1375
I25
sbsg431
g0
(g1364
g2
Ntp1469
Rp1470
(dp1471
g1368
g1369
sg1370
g431
sg1371
g1372
sg1373
(lp1472
I40
asg1375
I22
sbsg20
g0
(g1364
g2
Ntp1473
Rp1474
(dp1475
g1368
g1369
sg1370
g20
sg1371
g1459
sg1373
(lp1476
I55
aI54
aI53
aI52
asg1375
I28
sbsg501
g0
(g1364
g2
Ntp1477
Rp1478
(dp1479
g1368
g1369
sg1370
g501
sg1371
g1372
sg1373
(lp1480
I33
asg1375
I15
sbsg421
g0
(g1364
g2
Ntp1481
Rp1482
(dp1483
g1368
g1369
sg1370
g421
sg1371
g1372
sg1373
(lp1484
I37
asg1375
I19
sbsg413
g0
(g1364
g2
Ntp1485
Rp1486
(dp1487
g1368
g1369
sg1370
g413
sg1371
g1372
sg1373
(lp1488
I28
asg1375
I10
sbsg505
g0
(g1364
g2
Ntp1489
Rp1490
(dp1491
g1368
g1369
sg1370
g505
sg1371
g1372
sg1373
(lp1492
I42
asg1375
I24
sbssS'steps'
p1493
(dp1494
g1271
g0
(ccompas_fea.structure.step
GeneralStep
p1495
g2
Ntp1496
Rp1497
(dp1498
g15
I1
sS'__name__'
p1499
S'GeneralStep'
p1500
sS'name'
p1501
g1271
sS'attr_list'
p1502
(lp1503
g544
aS'increments'
p1504
aS'iterations'
p1505
aS'factor'
p1506
aS'nlgeom'
p1507
aS'nlmat'
p1508
aS'displacements'
p1509
aS'loads'
p1510
aS'type'
p1511
aS'tolerance'
p1512
aS'modify'
p1513
asS'increments'
p1514
I1
sS'iterations'
p1515
I100
sS'tolerance'
p1516
F0.01
sS'factor'
p1517
F1.0
sS'nlgeom'
p1518
I00
sS'nlmat'
p1519
I01
sS'displacements'
p1520
(lp1521
sS'loads'
p1522
(lp1523
g599
asS'modify'
p1524
I01
sS'type'
p1525
S'static'
p1526
sbsg1273
g0
(g1495
g2
Ntp1527
Rp1528
(dp1529
g15
I2
sg1499
g1500
sg1501
g1273
sg1502
(lp1530
g544
ag1504
ag1505
ag1506
ag1507
ag1508
ag1509
ag1510
ag1511
ag1512
ag1513
asg1514
I1
sg1515
I100
sg1516
F0.01
sg1517
F1.0
sg1518
I00
sg1519
I01
sg1520
(lp1531
sg1522
(lp1532
g578
ag564
ag557
asg1524
I01
sg1525
g1526
sbsg1274
g0
(g1495
g2
Ntp1533
Rp1534
(dp1535
g15
I3
sg1499
g1500
sg1501
g1274
sg1502
(lp1536
g544
ag1504
ag1505
ag1506
ag1507
ag1508
ag1509
ag1510
ag1511
ag1512
ag1513
asg1514
I1
sg1515
I100
sg1516
F0.01
sg1517
F1.0
sg1518
I00
sg1519
I01
sg1520
(lp1537
sg1522
(lp1538
g592
ag571
ag585
ag610
ag549
ag526
asg1524
I01
sg1525
g1526
sbsg1275
g0
(g1495
g2
Ntp1539
Rp1540
(dp1541
g15
I0
sg1499
g1500
sg1501
g1275
sg1502
(lp1542
g544
ag1504
ag1505
ag1506
ag1507
ag1508
ag1509
ag1510
ag1511
ag1512
ag1513
asg1514
I1
sg1515
I100
sg1516
F0.01
sg1517
F1.0
sg1518
I00
sg1519
I01
sg1520
(lp1543
g10
ag31
asg1522
(lp1544
sg1524
I01
sg1525
g1526
sbssS'loc_coor'
p1545
(dp1546
sS'steps_order'
p1547
(lp1548
g1275
ag1271
ag1273
ag1274
asS'tol'
p1549
S'3'
p1550
sS'virtual_nodes'
p1551
(dp1552
sS'virtual_node_index'
p1553
(dp1554
sS'virtual_elements'
p1555
(dp1556
sS'virtual_element_index'
p1557
(dp1558
sb.