ccopy_reg
_reconstructor
p0
(ccompas_fea.structure.structure
Structure
p1
c__builtin__
object
p2
Ntp3
Rp4
(dp5
S'constraints'
p6
(dp7
sS'displacements'
p8
(dp9
S'nset_pinned_set_disp_1'
p10
g0
(ccompas_fea.structure.displacement
GeneralDisplacement
p11
g2
Ntp12
Rp13
(dp14
S'index'
p15
I0
sS'__name__'
p16
S'GeneralDisplacement'
p17
sS'name'
p18
g10
sS'nodes'
p19
S'nset_support_wall1'
p20
sS'components'
p21
(dp22
S'z'
p23
I0
sS'xx'
p24
I0
sS'zz'
p25
I0
sS'yy'
p26
I0
sS'y'
p27
I0
sS'x'
p28
I0
ssS'axes'
p29
S'global'
p30
sbsS'nset_pinned_set_disp_2'
p31
g0
(g11
g2
Ntp32
Rp33
(dp34
g15
I1
sg16
g17
sg18
g31
sg19
S'nset_support_wall2'
p35
sg21
(dp36
g23
I0
sg24
I0
sg25
I0
sg26
I0
sg27
I0
sg28
I0
ssg29
g30
sbssS'elements'
p37
(dp38
I0
g0
(ccompas_fea.structure.element
ShellElement
p39
g2
Ntp40
Rp41
(dp42
S'mass'
p43
NsS'__name__'
p44
S'ShellElement'
p45
sS'nodes'
p46
(lp47
I0
aI1
aI3
aI2
asS'number'
p48
I0
sS'thermal'
p49
I00
sS'axes'
p50
(dp51
S'ey'
p52
NsS'ez'
p53
NsS'ex'
p54
NssS'element_property'
p55
S'elset_plate_1_element_prop'
p56
sbsI1
g0
(g39
g2
Ntp57
Rp58
(dp59
g43
Nsg44
g45
sg46
(lp60
I2
aI3
aI5
aI4
asg48
I1
sg49
I00
sg50
g51
sg55
g56
sbsI2
g0
(g39
g2
Ntp61
Rp62
(dp63
g43
Nsg44
g45
sg46
(lp64
I6
aI7
aI9
aI8
asg48
I2
sg49
I00
sg50
(dp65
g52
Nsg53
Nsg54
Nssg55
S'elset_plate_2_element_prop'
p66
sbsI3
g0
(g39
g2
Ntp67
Rp68
(dp69
g43
Nsg44
g45
sg46
(lp70
I8
aI9
aI11
aI10
asg48
I3
sg49
I00
sg50
g65
sg55
g66
sbsI4
g0
(g39
g2
Ntp71
Rp72
(dp73
g43
Nsg44
g45
sg46
(lp74
I1
aI12
aI13
aI3
asg48
I4
sg49
I00
sg50
(dp75
g52
Nsg53
Nsg54
Nssg55
S'elset_plate_3_element_prop'
p76
sbsI5
g0
(g39
g2
Ntp77
Rp78
(dp79
g43
Nsg44
g45
sg46
(lp80
I3
aI13
aI14
aI5
asg48
I5
sg49
I00
sg50
g75
sg55
g76
sbsI6
g0
(g39
g2
Ntp81
Rp82
(dp83
g43
Nsg44
g45
sg46
(lp84
I7
aI15
aI16
aI9
asg48
I6
sg49
I00
sg50
(dp85
g52
Nsg53
Nsg54
Nssg55
S'elset_plate_4_element_prop'
p86
sbsI7
g0
(g39
g2
Ntp87
Rp88
(dp89
g43
Nsg44
g45
sg46
(lp90
I9
aI16
aI17
aI11
asg48
I7
sg49
I00
sg50
g85
sg55
g86
sbsI8
g0
(g39
g2
Ntp91
Rp92
(dp93
g43
Nsg44
g45
sg46
(lp94
I12
aI18
aI19
aI13
asg48
I8
sg49
I00
sg50
(dp95
g52
Nsg53
Nsg54
Nssg55
S'elset_plate_5_element_prop'
p96
sbsI9
g0
(g39
g2
Ntp97
Rp98
(dp99
g43
Nsg44
g45
sg46
(lp100
I13
aI19
aI20
aI14
asg48
I9
sg49
I00
sg50
g95
sg55
g96
sbsI10
g0
(g39
g2
Ntp101
Rp102
(dp103
g43
Nsg44
g45
sg46
(lp104
I15
aI21
aI22
aI16
asg48
I10
sg49
I00
sg50
(dp105
g52
Nsg53
Nsg54
Nssg55
S'elset_plate_6_element_prop'
p106
sbsI11
g0
(g39
g2
Ntp107
Rp108
(dp109
g43
Nsg44
g45
sg46
(lp110
I16
aI22
aI23
aI17
asg48
I11
sg49
I00
sg50
g105
sg55
g106
sbsI12
g0
(g39
g2
Ntp111
Rp112
(dp113
g43
Nsg44
g45
sg46
(lp114
I4
aI5
aI25
aI24
asg48
I12
sg49
I00
sg50
(dp115
g52
Nsg53
Nsg54
Nssg55
S'elset_plate_7_element_prop'
p116
sbsI13
g0
(g39
g2
Ntp117
Rp118
(dp119
g43
Nsg44
g45
sg46
(lp120
I24
aI25
aI27
aI26
asg48
I13
sg49
I00
sg50
g115
sg55
g116
sbsI14
g0
(g39
g2
Ntp121
Rp122
(dp123
g43
Nsg44
g45
sg46
(lp124
I26
aI27
aI7
aI6
asg48
I14
sg49
I00
sg50
g115
sg55
g116
sbsI15
g0
(g39
g2
Ntp125
Rp126
(dp127
g43
Nsg44
g45
sg46
(lp128
I5
aI14
aI28
aI25
asg48
I15
sg49
I00
sg50
(dp129
g52
Nsg53
Nsg54
Nssg55
S'elset_plate_8_element_prop'
p130
sbsI16
g0
(g39
g2
Ntp131
Rp132
(dp133
g43
Nsg44
g45
sg46
(lp134
I25
aI28
aI29
aI27
asg48
I16
sg49
I00
sg50
g129
sg55
g130
sbsI17
g0
(g39
g2
Ntp135
Rp136
(dp137
g43
Nsg44
g45
sg46
(lp138
I27
aI29
aI15
aI7
asg48
I17
sg49
I00
sg50
g129
sg55
g130
sbsI18
g0
(g39
g2
Ntp139
Rp140
(dp141
g43
Nsg44
g45
sg46
(lp142
I14
aI20
aI30
aI28
asg48
I18
sg49
I00
sg50
(dp143
g52
Nsg53
Nsg54
Nssg55
S'elset_plate_9_element_prop'
p144
sbsI19
g0
(g39
g2
Ntp145
Rp146
(dp147
g43
Nsg44
g45
sg46
(lp148
I28
aI30
aI31
aI29
asg48
I19
sg49
I00
sg50
g143
sg55
g144
sbsI20
g0
(g39
g2
Ntp149
Rp150
(dp151
g43
Nsg44
g45
sg46
(lp152
I29
aI31
aI21
aI15
asg48
I20
sg49
I00
sg50
g143
sg55
g144
sbsI21
g0
(g39
g2
Ntp153
Rp154
(dp155
g43
Nsg44
g45
sg46
(lp156
I32
aI33
aI35
aI34
asg48
I21
sg49
I00
sg50
(dp157
g52
Nsg53
Nsg54
Nssg55
S'elset_wall_1_1_element_prop'
p158
sbsI22
g0
(g39
g2
Ntp159
Rp160
(dp161
g43
Nsg44
g45
sg46
(lp162
I33
aI36
aI37
aI35
asg48
I22
sg49
I00
sg50
(dp163
g52
Nsg53
Nsg54
Nssg55
S'elset_wall_1_2_element_prop'
p164
sbsI23
g0
(g39
g2
Ntp165
Rp166
(dp167
g43
Nsg44
g45
sg46
(lp168
I36
aI38
aI39
aI37
asg48
I23
sg49
I00
sg50
(dp169
g52
Nsg53
Nsg54
Nssg55
S'elset_wall_1_3_element_prop'
p170
sbsI24
g0
(g39
g2
Ntp171
Rp172
(dp173
g43
Nsg44
g45
sg46
(lp174
I40
aI41
aI33
aI32
asg48
I24
sg49
I00
sg50
(dp175
g52
Nsg53
Nsg54
Nssg55
S'elset_wall_1_4_element_prop'
p176
sbsI25
g0
(g39
g2
Ntp177
Rp178
(dp179
g43
Nsg44
g45
sg46
(lp180
I41
aI42
aI36
aI33
asg48
I25
sg49
I00
sg50
(dp181
g52
Nsg53
Nsg54
Nssg55
S'elset_wall_1_5_element_prop'
p182
sbsI26
g0
(g39
g2
Ntp183
Rp184
(dp185
g43
Nsg44
g45
sg46
(lp186
I42
aI43
aI38
aI36
asg48
I26
sg49
I00
sg50
(dp187
g52
Nsg53
Nsg54
Nssg55
S'elset_wall_1_6_element_prop'
p188
sbsI27
g0
(g39
g2
Ntp189
Rp190
(dp191
g43
Nsg44
g45
sg46
(lp192
I44
aI45
aI41
aI40
asg48
I27
sg49
I00
sg50
(dp193
g52
Nsg53
Nsg54
Nssg55
S'elset_wall_1_7_element_prop'
p194
sbsI28
g0
(g39
g2
Ntp195
Rp196
(dp197
g43
Nsg44
g45
sg46
(lp198
I45
aI46
aI42
aI41
asg48
I28
sg49
I00
sg50
(dp199
g52
Nsg53
Nsg54
Nssg55
S'elset_wall_1_8_element_prop'
p200
sbsI29
g0
(g39
g2
Ntp201
Rp202
(dp203
g43
Nsg44
g45
sg46
(lp204
I46
aI47
aI43
aI42
asg48
I29
sg49
I00
sg50
(dp205
g52
Nsg53
Nsg54
Nssg55
S'elset_wall_1_9_element_prop'
p206
sbsI30
g0
(g39
g2
Ntp207
Rp208
(dp209
g43
Nsg44
g45
sg46
(lp210
I48
aI50
aI51
aI49
asg48
I30
sg49
I00
sg50
(dp211
g52
Nsg53
Nsg54
Nssg55
S'elset_wall_2_1_element_prop'
p212
sbsI31
g0
(g39
g2
Ntp213
Rp214
(dp215
g43
Nsg44
g45
sg46
(lp216
I49
aI51
aI53
aI52
asg48
I31
sg49
I00
sg50
(dp217
g52
Nsg53
Nsg54
Nssg55
S'elset_wall_2_2_element_prop'
p218
sbsI32
g0
(g39
g2
Ntp219
Rp220
(dp221
g43
Nsg44
g45
sg46
(lp222
I52
aI53
aI55
aI54
asg48
I32
sg49
I00
sg50
(dp223
g52
Nsg53
Nsg54
Nssg55
S'elset_wall_2_3_element_prop'
p224
sbsI33
g0
(g39
g2
Ntp225
Rp226
(dp227
g43
Nsg44
g45
sg46
(lp228
I56
aI48
aI49
aI57
asg48
I33
sg49
I00
sg50
(dp229
g52
Nsg53
Nsg54
Nssg55
S'elset_wall_2_4_element_prop'
p230
sbsI34
g0
(g39
g2
Ntp231
Rp232
(dp233
g43
Nsg44
g45
sg46
(lp234
I57
aI49
aI52
aI58
asg48
I34
sg49
I00
sg50
(dp235
g52
Nsg53
Nsg54
Nssg55
S'elset_wall_2_5_element_prop'
p236
sbsI35
g0
(g39
g2
Ntp237
Rp238
(dp239
g43
Nsg44
g45
sg46
(lp240
I58
aI52
aI54
aI59
asg48
I35
sg49
I00
sg50
(dp241
g52
Nsg53
Nsg54
Nssg55
S'elset_wall_2_6_element_prop'
p242
sbsI36
g0
(g39
g2
Ntp243
Rp244
(dp245
g43
Nsg44
g45
sg46
(lp246
I60
aI56
aI57
aI61
asg48
I36
sg49
I00
sg50
(dp247
g52
Nsg53
Nsg54
Nssg55
S'elset_wall_2_7_element_prop'
p248
sbsI37
g0
(g39
g2
Ntp249
Rp250
(dp251
g43
Nsg44
g45
sg46
(lp252
I61
aI57
aI58
aI62
asg48
I37
sg49
I00
sg50
(dp253
g52
Nsg53
Nsg54
Nssg55
S'elset_wall_2_8_element_prop'
p254
sbsI38
g0
(g39
g2
Ntp255
Rp256
(dp257
g43
Nsg44
g45
sg46
(lp258
I62
aI58
aI59
aI63
asg48
I38
sg49
I00
sg50
(dp259
g52
Nsg53
Nsg54
Nssg55
S'elset_wall_2_9_element_prop'
p260
sbsI39
g0
(ccompas_fea.structure.element
MPCElement
p261
g2
Ntp262
Rp263
(dp264
g43
Nsg44
S'MPCElement'
p265
sg46
(lp266
I55
aI23
asg48
I39
sg49
I00
sg50
(dp267
g52
Nsg53
(lp268
F2.7284841053187847e-12
aF0.0
aF940.09942148108212
asg54
Nssg55
S'elset_mpc_element_prop'
p269
sbsI40
g0
(g261
g2
Ntp270
Rp271
(dp272
g43
Nsg44
g265
sg46
(lp273
I53
aI17
asg48
I40
sg49
I00
sg50
(dp274
g52
Nsg53
(lp275
F-9.0949470177292824e-13
aF0.0
aF940.09942148108212
asg54
Nssg55
g269
sbsI41
g0
(g261
g2
Ntp276
Rp277
(dp278
g43
Nsg44
g265
sg46
(lp279
I51
aI11
asg48
I41
sg49
I00
sg50
(dp280
g52
Nsg53
(lp281
F4.5474735088646412e-12
aF0.0
aF940.09942148108212
asg54
Nssg55
g269
sbsI42
g0
(g261
g2
Ntp282
Rp283
(dp284
g43
Nsg44
g265
sg46
(lp285
I50
aI10
asg48
I42
sg49
I00
sg50
(dp286
g52
Nsg53
(lp287
F0.0
aF0.0
aF940.09942148108212
asg54
Nssg55
g269
sbsI43
g0
(g261
g2
Ntp288
Rp289
(dp290
g43
Nsg44
g265
sg46
(lp291
I39
aI18
asg48
I43
sg49
I00
sg50
(dp292
g52
Nsg53
(lp293
F2.7284841053187847e-12
aF0.0
aF940.09942148108212
asg54
Nssg55
g269
sbsI44
g0
(g261
g2
Ntp294
Rp295
(dp296
g43
Nsg44
g265
sg46
(lp297
I37
aI12
asg48
I44
sg49
I00
sg50
(dp298
g52
Nsg53
(lp299
F-9.0949470177292824e-13
aF0.0
aF940.09942148108212
asg54
Nssg55
g269
sbsI45
g0
(g261
g2
Ntp300
Rp301
(dp302
g43
Nsg44
g265
sg46
(lp303
I35
aI1
asg48
I45
sg49
I00
sg50
(dp304
g52
Nsg53
(lp305
F4.5474735088646412e-12
aF0.0
aF940.09942148108212
asg54
Nssg55
g269
sbsI46
g0
(g261
g2
Ntp306
Rp307
(dp308
g43
Nsg44
g265
sg46
(lp309
I34
aI0
asg48
I46
sg49
I00
sg50
(dp310
g52
Nsg53
(lp311
F0.0
aF0.0
aF940.09942148108212
asg54
Nssg55
g269
sbssS'element_index'
p312
(dp313
S'2262.692,0.000,-470.050'
p314
I45
sS'1131.346,15297.391,0.000'
p315
I3
sS'3394.038,0.000,-1670.163'
p316
I22
sS'5691.013,10226.049,0.000'
p317
I20
sS'5691.013,15297.391,0.000'
p318
I11
sS'5691.013,12546.361,0.000'
p319
I10
sS'1131.346,16672.905,-3152.414'
p320
I33
sS'6856.642,0.000,-470.050'
p321
I43
sS'3394.038,8336.453,0.000'
p322
I16
sS'5691.013,0.000,-1670.163'
p323
I23
sS'5691.013,8336.453,0.000'
p324
I19
sS'3394.038,10226.049,0.000'
p325
I17
sS'3394.038,16672.905,-1670.163'
p326
I31
sS'4525.384,16672.905,-470.050'
p327
I40
sS'3394.038,15297.391,0.000'
p328
I7
sS'2262.692,16672.905,-470.050'
p329
I41
sS'1131.346,10226.049,0.000'
p330
I14
sS'5691.013,0.000,-4634.665'
p331
I29
sS'3394.038,4126.544,0.000'
p332
I5
sS'3394.038,0.000,-4634.665'
p333
I28
sS'3394.038,16672.905,-3152.414'
p334
I34
sS'4525.384,0.000,-470.050'
p335
I44
sS'1131.346,1375.515,0.000'
p336
I0
sS'5691.013,1375.515,0.000'
p337
I8
sS'1131.346,8336.453,0.000'
p338
I13
sS'5691.013,16672.905,-4634.665'
p339
I38
sS'1131.346,0.000,-3152.414'
p340
I24
sS'3394.038,6446.857,0.000'
p341
I15
sS'3394.038,12546.361,0.000'
p342
I6
sS'0.000,0.000,-470.050'
p343
I46
sS'0.000,16672.905,-470.050'
p344
I42
sS'1131.346,16672.905,-4634.665'
p345
I36
sS'5691.013,6446.857,0.000'
p346
I18
sS'1131.346,12546.361,0.000'
p347
I2
sS'5691.013,0.000,-3152.414'
p348
I26
sS'1131.346,6446.857,0.000'
p349
I12
sS'5691.013,16672.905,-1670.163'
p350
I32
sS'3394.038,0.000,-3152.414'
p351
I25
sS'1131.346,0.000,-1670.163'
p352
I21
sS'5691.013,16672.905,-3152.414'
p353
I35
sS'5691.013,4126.544,0.000'
p354
I9
sS'1131.346,16672.905,-1670.163'
p355
I30
sS'3394.038,16672.905,-4634.665'
p356
I37
sS'6856.642,16672.905,-470.050'
p357
I39
sS'1131.346,0.000,-4634.665'
p358
I27
sS'1131.346,4126.544,0.000'
p359
I1
sS'3394.038,1375.515,0.000'
p360
I4
ssS'element_properties'
p361
(dp362
g230
g0
(ccompas_fea.structure.element_properties
ElementProperties
p363
g2
Ntp364
Rp365
(dp366
g15
I21
sS'__name__'
p367
S'ElementProperties'
p368
sS'name'
p369
g230
sS'material'
p370
S'wall_element_mat'
p371
sS'section'
p372
S'wall2_element_sec'
p373
sS'elset'
p374
S'elset_wall_2_4'
p375
sS'elements'
p376
NsS'rebar'
p377
(dp378
sbsg164
g0
(g363
g2
Ntp379
Rp380
(dp381
g15
I10
sg367
g368
sg369
g164
sg370
g371
sg372
S'wall1_element_sec'
p382
sg374
S'elset_wall_1_2'
p383
sg376
Nsg377
g378
sbsg200
g0
(g363
g2
Ntp384
Rp385
(dp386
g15
I16
sg367
g368
sg369
g200
sg370
g371
sg372
g382
sg374
S'elset_wall_1_8'
p387
sg376
Nsg377
g378
sbsg218
g0
(g363
g2
Ntp388
Rp389
(dp390
g15
I19
sg367
g368
sg369
g218
sg370
g371
sg372
g373
sg374
S'elset_wall_2_2'
p391
sg376
Nsg377
g378
sbsg56
g0
(g363
g2
Ntp392
Rp393
(dp394
g15
I0
sg367
g368
sg369
g56
sg370
S'plate_element_mat'
p395
sg372
S'plate_element_sec'
p396
sg374
S'elset_plate_1'
p397
sg376
Nsg377
g378
sbsg236
g0
(g363
g2
Ntp398
Rp399
(dp400
g15
I22
sg367
g368
sg369
g236
sg370
g371
sg372
g373
sg374
S'elset_wall_2_5'
p401
sg376
Nsg377
g378
sbsg144
g0
(g363
g2
Ntp402
Rp403
(dp404
g15
I8
sg367
g368
sg369
g144
sg370
g395
sg372
g396
sg374
S'elset_plate_9'
p405
sg376
Nsg377
g378
sbsg188
g0
(g363
g2
Ntp406
Rp407
(dp408
g15
I14
sg367
g368
sg369
g188
sg370
g371
sg372
g382
sg374
S'elset_wall_1_6'
p409
sg376
Nsg377
g378
sbsg96
g0
(g363
g2
Ntp410
Rp411
(dp412
g15
I4
sg367
g368
sg369
g96
sg370
g395
sg372
g396
sg374
S'elset_plate_5'
p413
sg376
Nsg377
g378
sbsg170
g0
(g363
g2
Ntp414
Rp415
(dp416
g15
I11
sg367
g368
sg369
g170
sg370
g371
sg372
g382
sg374
S'elset_wall_1_3'
p417
sg376
Nsg377
g378
sbsg76
g0
(g363
g2
Ntp418
Rp419
(dp420
g15
I2
sg367
g368
sg369
g76
sg370
g395
sg372
g396
sg374
S'elset_plate_3'
p421
sg376
Nsg377
g378
sbsg224
g0
(g363
g2
Ntp422
Rp423
(dp424
g15
I20
sg367
g368
sg369
g224
sg370
g371
sg372
g373
sg374
S'elset_wall_2_3'
p425
sg376
Nsg377
g378
sbsg242
g0
(g363
g2
Ntp426
Rp427
(dp428
g15
I23
sg367
g368
sg369
g242
sg370
g371
sg372
g373
sg374
S'elset_wall_2_6'
p429
sg376
Nsg377
g378
sbsg176
g0
(g363
g2
Ntp430
Rp431
(dp432
g15
I12
sg367
g368
sg369
g176
sg370
g371
sg372
g382
sg374
S'elset_wall_1_4'
p433
sg376
Nsg377
g378
sbsg206
g0
(g363
g2
Ntp434
Rp435
(dp436
g15
I17
sg367
g368
sg369
g206
sg370
g371
sg372
g382
sg374
S'elset_wall_1_9'
p437
sg376
Nsg377
g378
sbsg130
g0
(g363
g2
Ntp438
Rp439
(dp440
g15
I7
sg367
g368
sg369
g130
sg370
g395
sg372
g396
sg374
S'elset_plate_8'
p441
sg376
Nsg377
g378
sbsg158
g0
(g363
g2
Ntp442
Rp443
(dp444
g15
I9
sg367
g368
sg369
g158
sg370
g371
sg372
g382
sg374
S'elset_wall_1_1'
p445
sg376
Nsg377
g378
sbsg116
g0
(g363
g2
Ntp446
Rp447
(dp448
g15
I6
sg367
g368
sg369
g116
sg370
g395
sg372
g396
sg374
S'elset_plate_7'
p449
sg376
Nsg377
g378
sbsg254
g0
(g363
g2
Ntp450
Rp451
(dp452
g15
I25
sg367
g368
sg369
g254
sg370
g371
sg372
g373
sg374
S'elset_wall_2_8'
p453
sg376
Nsg377
g378
sbsg86
g0
(g363
g2
Ntp454
Rp455
(dp456
g15
I3
sg367
g368
sg369
g86
sg370
g395
sg372
g396
sg374
S'elset_plate_4'
p457
sg376
Nsg377
g378
sbsg66
g0
(g363
g2
Ntp458
Rp459
(dp460
g15
I1
sg367
g368
sg369
g66
sg370
g395
sg372
g396
sg374
S'elset_plate_2'
p461
sg376
Nsg377
g378
sbsg269
g0
(g363
g2
Ntp462
Rp463
(dp464
g15
I27
sg367
g368
sg369
g269
sg370
S'elset_mpc_element_mat'
p465
sg372
S'sec_mpc'
p466
sg374
S'elset_mpcs'
p467
sg376
Nsg377
g378
sbsg194
g0
(g363
g2
Ntp468
Rp469
(dp470
g15
I15
sg367
g368
sg369
g194
sg370
g371
sg372
g382
sg374
S'elset_wall_1_7'
p471
sg376
Nsg377
g378
sbsg248
g0
(g363
g2
Ntp472
Rp473
(dp474
g15
I24
sg367
g368
sg369
g248
sg370
g371
sg372
g373
sg374
S'elset_wall_2_7'
p475
sg376
Nsg377
g378
sbsg260
g0
(g363
g2
Ntp476
Rp477
(dp478
g15
I26
sg367
g368
sg369
g260
sg370
g371
sg372
g373
sg374
S'elset_wall_2_9'
p479
sg376
Nsg377
g378
sbsg212
g0
(g363
g2
Ntp480
Rp481
(dp482
g15
I18
sg367
g368
sg369
g212
sg370
g371
sg372
g373
sg374
S'elset_wall_2_1'
p483
sg376
Nsg377
g378
sbsg106
g0
(g363
g2
Ntp484
Rp485
(dp486
g15
I5
sg367
g368
sg369
g106
sg370
g395
sg372
g396
sg374
S'elset_plate_6'
p487
sg376
Nsg377
g378
sbsg182
g0
(g363
g2
Ntp488
Rp489
(dp490
g15
I13
sg367
g368
sg369
g182
sg370
g371
sg372
g382
sg374
S'elset_wall_1_5'
p491
sg376
Nsg377
g378
sbssS'interactions'
p492
(dp493
sS'loads'
p494
(dp495
S'Gleis1_BAHNLASTEN_Lasteinzugsflache_Lastblock_-3'
p496
g0
(ccompas_fea.structure.load
AreaLoad
p497
g2
Ntp498
Rp499
(dp500
g15
I6
sS'__name__'
p501
S'AreaLoad'
p502
sS'name'
p503
g496
sS'axes'
p504
S'global'
p505
sS'components'
p506
(dp507
g23
F0.063492135424384422
sg27
I0
sg28
I0
ssS'nodes'
p508
(lp509
sS'elements'
p510
(lp511
I5
asS'attr_list'
p512
(lp513
S'name'
p514
aS'axes'
p515
aS'components'
p516
aS'nodes'
p517
aS'elements'
p518
asbsS'earthPressure_liveLoad'
p519
g0
(g497
g2
Ntp520
Rp521
(dp522
g15
I7
sg501
g502
sg503
g519
sg504
S'local'
p523
sg506
(dp524
g23
F0.037699999999999997
sg27
I0
sg28
I0
ssg508
g509
sg510
(lp525
I22
aI23
aI25
aI26
aI28
aI29
asg512
(lp526
g514
ag515
ag516
ag517
ag518
asbsS'Gleis1_EIGENGEWICHTE_SCHIENE_Lasteinzugsflache'
p527
g0
(g497
g2
Ntp528
Rp529
(dp530
g15
I3
sg501
g502
sg503
g527
sg504
g505
sg506
(dp531
g23
F0.0022271011620060796
sg27
I0
sg28
I0
ssg508
g509
sg510
(lp532
I5
aI6
aI10
aI19
aI20
aI21
asg512
(lp533
g514
ag515
ag516
ag517
ag518
asbsS'earthPressure_backfill'
p534
g0
(g497
g2
Ntp535
Rp536
(dp537
g15
I2
sg501
g502
sg503
g534
sg504
g523
sg506
(dp538
g23
F0.060274195456889591
sg27
I0
sg28
I0
ssg508
g509
sg510
(lp539
g445
ag383
ag417
ag433
ag491
ag409
ag471
ag387
ag437
ag483
ag391
ag425
ag375
ag401
ag429
ag475
ag453
ag479
asg512
(lp540
g514
ag515
ag516
ag517
ag518
asbsS'earthPressure_gravel'
p541
g0
(g497
g2
Ntp542
Rp543
(dp544
g15
I1
sg501
g502
sg503
g541
sg504
g505
sg506
(dp545
g23
F0.013500000000000002
sg27
I0
sg28
I0
ssg508
g509
sg510
(lp546
g397
ag461
ag421
ag457
ag413
ag487
ag449
ag441
ag405
asg512
(lp547
g514
ag515
ag516
ag517
ag518
asbsS'Gleis1_BAHNLASTEN_Lasteinzugsflache_Lastblock_-1'
p548
g0
(g497
g2
Ntp549
Rp550
(dp551
g15
I5
sg501
g502
sg503
g548
sg504
g505
sg506
(dp552
g23
F0.063492135424384422
sg27
I0
sg28
I0
ssg508
g509
sg510
(lp553
I19
asg512
(lp554
g514
ag515
ag516
ag517
ag518
asbsS'Gleis1_BAHNLASTEN_Lasteinzugsflache_Lastblock_1'
p555
g0
(g497
g2
Ntp556
Rp557
(dp558
g15
I4
sg501
g502
sg503
g555
sg504
g505
sg506
(dp559
g23
F0.063492135424384422
sg27
I0
sg28
I0
ssg508
g509
sg510
(lp560
I20
asg512
(lp561
g514
ag515
ag516
ag517
ag518
asbsS'load_gravity'
p562
g0
(ccompas_fea.structure.load
GravityLoad
p563
g2
Ntp564
Rp565
(dp566
g15
I0
sg501
S'GravityLoad'
p567
sg503
g562
sg504
g505
sg506
(dp568
g23
F1.3500000000000001
sg27
F0.0
sg28
F0.0
ssg508
g509
sg510
(lp569
g397
ag461
ag421
ag457
ag413
ag487
ag449
ag441
ag405
ag445
ag383
ag417
ag433
ag491
ag409
ag471
ag387
ag437
ag483
ag391
ag425
ag375
ag401
ag429
ag475
ag453
ag479
asg512
(lp570
g514
ag515
ag516
ag517
ag518
aS'g'
p571
asS'g'
p572
F-9.8100000000000005
sbssS'materials'
p573
(dp574
g465
g0
(ccompas_fea.structure.material
MPCStiff
p575
g2
Ntp576
Rp577
(dp578
g15
I2
sS'__name__'
p579
S'MPCStiff'
p580
sS'name'
p581
g465
sS'attr_list'
p582
(lp583
g514
aS'E'
p584
aS'v'
p585
aS'G'
p586
aS'p'
p587
aS'tension'
p588
aS'compression'
p589
asS'E'
p590
(dp591
g584
L10000000000000L
ssS'v'
p592
(dp593
g585
F0.29999999999999999
ssS'G'
p594
(dp595
g586
F3846153846153.8462
ssS'p'
p596
F0.10000000000000001
sS'tension'
p597
I01
sS'compression'
p598
I01
sbsg371
g0
(ccompas_fea.structure.material
CMMUsermat
p599
g2
Ntp600
Rp601
(dp602
g15
I1
sg579
S'CMMUsermat'
p603
sg581
g371
sg582
(lp604
g514
ag584
ag585
ag586
ag587
aS'R_Rohr'
p605
aS'rho'
p606
aS'oo'
p607
aS'uu'
p608
aS'beton'
p609
aS'fcc'
p610
aS'vc'
p611
aS'ecu'
p612
aS'k_E'
p613
aS'theta_b0'
p614
aS'theta_b1'
p615
aS'k_riss'
p616
aS'Entfestigung'
p617
aS'lambdaTS'
p618
aS'srmx'
p619
aS'srmy'
p620
aS'Begrenzung'
p621
aS'KritQ'
p622
aS'winkelD'
p623
aS'k_vr'
p624
aS'fswy'
p625
aS'stahl1'
p626
aS'zm1'
p627
aS'fsy1'
p628
aS'fsu1'
p629
aS'esu1'
p630
aS'esv1'
p631
aS'Es1'
p632
aS'ka1'
p633
aS'kb1'
p634
aS'kc1'
p635
aS'as1'
p636
aS'dm1'
p637
aS'psi1'
p638
aS'stahl2'
p639
aS'zm2'
p640
aS'fsy2'
p641
aS'fsu2'
p642
aS'esu2'
p643
aS'esv2'
p644
aS'Es2'
p645
aS'ka2'
p646
aS'kb2'
p647
aS'kc2'
p648
aS'as2'
p649
aS'dm2'
p650
aS'psi2'
p651
aS'stahl3'
p652
aS'zm3'
p653
aS'fsy3'
p654
aS'fsu3'
p655
aS'esu3'
p656
aS'esv3'
p657
aS'Es3'
p658
aS'ka3'
p659
aS'kb3'
p660
aS'kc3'
p661
aS'as3'
p662
aS'dm3'
p663
aS'psi3'
p664
aS'stahl4'
p665
aS'zm4'
p666
aS'fsy4'
p667
aS'fsu4'
p668
aS'esu4'
p669
aS'esv4'
p670
aS'Es4'
p671
aS'ka4'
p672
aS'kb4'
p673
aS'kc4'
p674
aS'as4'
p675
aS'dm4'
p676
aS'psi4'
p677
asS'E'
p678
(dp679
S'E'
p680
I200000
ssS'v'
p681
(dp682
S'v'
p683
F0.10000000000000001
ssS'G'
p684
(dp685
g586
F90909.090909090897
ssS'p'
p686
F2.5000000000000002e-06
sS'R_Rohr'
p687
(dp688
g605
I-1
ssS'rho'
p689
(dp690
g606
F2.5000000000000002e-06
ssS'oo'
p691
(dp692
g607
I30
ssS'uu'
p693
(dp694
g608
I30
ssS'beton'
p695
(dp696
g609
I2
ssS'fcc'
p697
(dp698
g610
I47
ssS'vc'
p699
(dp700
g611
I0
ssS'ecu'
p701
(dp702
g612
F-0.002
ssS'k_E'
p703
(dp704
g613
I10000
ssS'theta_b0'
p705
(dp706
g614
I2
ssS'theta_b1'
p707
(dp708
g615
I1
ssS'k_riss'
p709
(dp710
g616
I0
ssS'Entfestigung'
p711
(dp712
g617
I0
ssS'lambdaTS'
p713
(dp714
g618
F0.67000000000000004
ssS'srmx'
p715
(dp716
g619
I1
ssS'srmy'
p717
(dp718
g620
I1
ssS'Begrenzung'
p719
(dp720
g621
I2
ssS'KritQ'
p721
(dp722
g622
I0
ssS'winkelD'
p723
(dp724
g623
I45
ssS'k_vr'
p725
(dp726
g624
I1
ssS'fswy'
p727
(dp728
g625
I500
ssS'stahl1'
p729
(dp730
g626
I1
ssS'zm1'
p731
(dp732
g627
I2
ssS'fsy1'
p733
(dp734
g628
I365
ssS'fsu1'
p735
(dp736
g629
I395
ssS'esu1'
p737
(dp738
g630
F0.044999999999999998
ssS'esv1'
p739
(dp740
g631
F0.02
ssS'Es1'
p741
(dp742
g632
I200000
ssS'ka1'
p743
(dp744
g633
I-1
ssS'kb1'
p745
(dp746
g634
I-1
ssS'kc1'
p747
(dp748
g635
I-1
ssS'as1'
p749
(dp750
g636
F3.2219303262945709
ssS'dm1'
p751
(dp752
g637
F24.928525320223848
ssS'psi1'
p753
(dp754
g638
I90
ssS'stahl2'
p755
(dp756
g639
I1
ssS'zm2'
p757
(dp758
g640
I2
ssS'fsy2'
p759
(dp760
g641
I365
ssS'fsu2'
p761
(dp762
g642
I395
ssS'esu2'
p763
(dp764
g643
F0.044999999999999998
ssS'esv2'
p765
(dp766
g644
F0.02
ssS'Es2'
p767
(dp768
g645
I200000
ssS'ka2'
p769
(dp770
g646
I-1
ssS'kb2'
p771
(dp772
g647
I-1
ssS'kc2'
p773
(dp774
g648
I-1
ssS'as2'
p775
(dp776
g649
F0.74659565950369822
ssS'dm2'
p777
(dp778
g650
F12.0
ssS'psi2'
p779
(dp780
g651
I0
ssS'stahl3'
p781
(dp782
g652
I1
ssS'zm3'
p783
(dp784
g653
I2
ssS'fsy3'
p785
(dp786
g654
I365
ssS'fsu3'
p787
(dp788
g655
I395
ssS'esu3'
p789
(dp790
g656
F0.044999999999999998
ssS'esv3'
p791
(dp792
g657
F0.02
ssS'Es3'
p793
(dp794
g658
I200000
ssS'ka3'
p795
(dp796
g659
I-1
ssS'kb3'
p797
(dp798
g660
I-1
ssS'kc3'
p799
(dp800
g661
I-1
ssS'as3'
p801
(dp802
g662
F0.74659565950369822
ssS'dm3'
p803
(dp804
g663
F12.0
ssS'psi3'
p805
(dp806
g664
I0
ssS'stahl4'
p807
(dp808
g665
I1
ssS'zm4'
p809
(dp810
g666
I2
ssS'fsy4'
p811
(dp812
g667
I365
ssS'fsu4'
p813
(dp814
g668
I395
ssS'esu4'
p815
(dp816
g669
F0.044999999999999998
ssS'esv4'
p817
(dp818
g670
F0.02
ssS'Es4'
p819
(dp820
g671
I200000
ssS'ka4'
p821
(dp822
g672
I-1
ssS'kb4'
p823
(dp824
g673
I-1
ssS'kc4'
p825
(dp826
g674
I-1
ssS'as4'
p827
(dp828
g675
F1.7189934266765834
ssS'dm4'
p829
(dp830
g676
F18.208560927574617
ssS'psi4'
p831
(dp832
g677
I90
ssbsg395
g0
(g599
g2
Ntp833
Rp834
(dp835
g15
I0
sg579
g603
sg581
g395
sg582
(lp836
g514
ag584
ag585
ag586
ag587
ag605
ag606
ag607
ag608
ag609
ag610
ag611
ag612
ag613
ag614
ag615
ag616
ag617
ag618
ag619
ag620
ag621
ag622
ag623
ag624
ag625
ag626
ag627
ag628
ag629
ag630
ag631
ag632
ag633
ag634
ag635
ag636
ag637
ag638
ag639
ag640
ag641
ag642
ag643
ag644
ag645
ag646
ag647
ag648
ag649
ag650
ag651
ag652
ag653
ag654
ag655
ag656
ag657
ag658
ag659
ag660
ag661
ag662
ag663
ag664
ag665
ag666
ag667
ag668
ag669
ag670
ag671
ag672
ag673
ag674
ag675
ag676
ag677
asg678
(dp837
g680
I200000
ssg681
(dp838
g683
F0.10000000000000001
ssg684
(dp839
g586
F90909.090909090897
ssg686
F2.5000000000000002e-06
sg687
(dp840
g605
I-1
ssg689
(dp841
g606
F2.5000000000000002e-06
ssg691
(dp842
g607
I30
ssg693
(dp843
g608
I30
ssg695
(dp844
g609
I2
ssg697
(dp845
g610
I47
ssg699
(dp846
g611
I0
ssg701
(dp847
g612
F-0.002
ssg703
(dp848
g613
I10000
ssg705
(dp849
g614
I2
ssg707
(dp850
g615
I1
ssg709
(dp851
g616
I0
ssg711
(dp852
g617
I0
ssg713
(dp853
g618
F0.67000000000000004
ssg715
(dp854
g619
I1
ssg717
(dp855
g620
I1
ssg719
(dp856
g621
I2
ssg721
(dp857
g622
I0
ssg723
(dp858
g623
I45
ssg725
(dp859
g624
I1
ssg727
(dp860
g625
I500
ssg729
(dp861
g626
I1
ssg731
(dp862
g627
I2
ssg733
(dp863
g628
I365
ssg735
(dp864
g629
I395
ssg737
(dp865
g630
F0.044999999999999998
ssg739
(dp866
g631
F0.02
ssg741
(dp867
g632
I200000
ssg743
(dp868
g633
I-1
ssg745
(dp869
g634
I-1
ssg747
(dp870
g635
I-1
ssg749
(dp871
g636
F1.1259006977339896
ssg751
(dp872
g637
F25.505162796648936
ssg753
(dp873
g638
I90
ssg755
(dp874
g639
I1
ssg757
(dp875
g640
I2
ssg759
(dp876
g641
I365
ssg761
(dp877
g642
I395
ssg763
(dp878
g643
F0.044999999999999998
ssg765
(dp879
g644
F0.02
ssg767
(dp880
g645
I200000
ssg769
(dp881
g646
I-1
ssg771
(dp882
g647
I-1
ssg773
(dp883
g648
I-1
ssg775
(dp884
g649
F1.0950501741869749
ssg777
(dp885
g650
F25.153305472126917
ssg779
(dp886
g651
I0
ssg781
(dp887
g652
I1
ssg783
(dp888
g653
I2
ssg785
(dp889
g654
I365
ssg787
(dp890
g655
I395
ssg789
(dp891
g656
F0.044999999999999998
ssg791
(dp892
g657
F0.02
ssg793
(dp893
g658
I200000
ssg795
(dp894
g659
I-1
ssg797
(dp895
g660
I-1
ssg799
(dp896
g661
I-1
ssg801
(dp897
g662
F0.24923347943116567
ssg803
(dp898
g663
F12.0
ssg805
(dp899
g664
I0
ssg807
(dp900
g665
I1
ssg809
(dp901
g666
I2
ssg811
(dp902
g667
I365
ssg813
(dp903
g668
I395
ssg815
(dp904
g669
F0.044999999999999998
ssg817
(dp905
g670
F0.02
ssg819
(dp906
g671
I200000
ssg821
(dp907
g672
I-1
ssg823
(dp908
g673
I-1
ssg825
(dp909
g674
I-1
ssg827
(dp910
g675
F0.31537542695024806
ssg829
(dp911
g676
F13.498701118860733
ssg831
(dp912
g677
I90
ssbssS'misc'
p913
(dp914
sS'name'
p915
S'NLFE_CFB5'
p916
sS'nodes'
p917
(dp918
I0
g0
(ccompas_fea.structure.node
Node
p919
g2
Ntp920
Rp921
(dp922
S'__name__'
p923
S'Node'
p924
sS'key'
p925
I0
sS'x'
p926
F0.0
sS'y'
p927
F0.0
sS'z'
p928
F0.0
sS'ex'
p929
(lp930
I1
aI0
aI0
asS'ey'
p931
(lp932
I0
aI1
aI0
asS'ez'
p933
(lp934
I0
aI0
aI1
asS'mass'
p935
NsbsI1
g0
(g919
g2
Ntp936
Rp937
(dp938
g923
g924
sg925
I1
sg926
F2262.6919158828446
sg927
F0.0
sg928
F0.0
sg929
g930
sg931
g932
sg933
g934
sg935
NsbsI2
g0
(g919
g2
Ntp939
Rp940
(dp941
g923
g924
sg925
I2
sg926
F0.0
sg927
F2751.0294020265924
sg928
F0.0
sg929
g930
sg931
g932
sg933
g934
sg935
NsbsI3
g0
(g919
g2
Ntp942
Rp943
(dp944
g923
g924
sg925
I3
sg926
F2262.6919158828446
sg927
F2751.0294020265924
sg928
F0.0
sg929
g930
sg931
g932
sg933
g934
sg935
NsbsI4
g0
(g919
g2
Ntp945
Rp946
(dp947
g923
g924
sg925
I4
sg926
F0.0
sg927
F5502.0588040531848
sg928
F0.0
sg929
g930
sg931
g932
sg933
g934
sg935
NsbsI5
g0
(g919
g2
Ntp948
Rp949
(dp950
g923
g924
sg925
I5
sg926
F2262.6919158828446
sg927
F5502.0588040531848
sg928
F0.0
sg929
g930
sg931
g932
sg933
g934
sg935
NsbsI6
g0
(g919
g2
Ntp951
Rp952
(dp953
g923
g924
sg925
I6
sg926
F0.0
sg927
F11170.846662774649
sg928
F0.0
sg929
g930
sg931
g932
sg933
g934
sg935
NsbsI7
g0
(g919
g2
Ntp954
Rp955
(dp956
g923
g924
sg925
I7
sg926
F2262.6919158828446
sg927
F11170.846662774649
sg928
F0.0
sg929
g930
sg931
g932
sg933
g934
sg935
NsbsI8
g0
(g919
g2
Ntp957
Rp958
(dp959
g923
g924
sg925
I8
sg926
F0.0
sg927
F13921.876064801241
sg928
F0.0
sg929
g930
sg931
g932
sg933
g934
sg935
NsbsI9
g0
(g919
g2
Ntp960
Rp961
(dp962
g923
g924
sg925
I9
sg926
F2262.6919158828446
sg927
F13921.876064801241
sg928
F0.0
sg929
g930
sg931
g932
sg933
g934
sg935
NsbsI10
g0
(g919
g2
Ntp963
Rp964
(dp965
g923
g924
sg925
I10
sg926
F0.0
sg927
F16672.905466827833
sg928
F0.0
sg929
g930
sg931
g932
sg933
g934
sg935
NsbsI11
g0
(g919
g2
Ntp966
Rp967
(dp968
g923
g924
sg925
I11
sg926
F2262.6919158828446
sg927
F16672.905466827833
sg928
F0.0
sg929
g930
sg931
g932
sg933
g934
sg935
NsbsI12
g0
(g919
g2
Ntp969
Rp970
(dp971
g923
g924
sg925
I12
sg926
F4525.3838317656891
sg927
F0.0
sg928
F0.0
sg929
g930
sg931
g932
sg933
g934
sg935
NsbsI13
g0
(g919
g2
Ntp972
Rp973
(dp974
g923
g924
sg925
I13
sg926
F4525.3838317656891
sg927
F2751.0294020265924
sg928
F0.0
sg929
g930
sg931
g932
sg933
g934
sg935
NsbsI14
g0
(g919
g2
Ntp975
Rp976
(dp977
g923
g924
sg925
I14
sg926
F4525.3838317656891
sg927
F5502.0588040531848
sg928
F0.0
sg929
g930
sg931
g932
sg933
g934
sg935
NsbsI15
g0
(g919
g2
Ntp978
Rp979
(dp980
g923
g924
sg925
I15
sg926
F4525.3838317656891
sg927
F11170.846662774649
sg928
F0.0
sg929
g930
sg931
g932
sg933
g934
sg935
NsbsI16
g0
(g919
g2
Ntp981
Rp982
(dp983
g923
g924
sg925
I16
sg926
F4525.3838317656891
sg927
F13921.876064801241
sg928
F0.0
sg929
g930
sg931
g932
sg933
g934
sg935
NsbsI17
g0
(g919
g2
Ntp984
Rp985
(dp986
g923
g924
sg925
I17
sg926
F4525.3838317656891
sg927
F16672.905466827833
sg928
F0.0
sg929
g930
sg931
g932
sg933
g934
sg935
NsbsI18
g0
(g919
g2
Ntp987
Rp988
(dp989
g923
g924
sg925
I18
sg926
F6856.6421693419525
sg927
F0.0
sg928
F0.0
sg929
g930
sg931
g932
sg933
g934
sg935
NsbsI19
g0
(g919
g2
Ntp990
Rp991
(dp992
g923
g924
sg925
I19
sg926
F6856.6421693419525
sg927
F2751.0294020265924
sg928
F0.0
sg929
g930
sg931
g932
sg933
g934
sg935
NsbsI20
g0
(g919
g2
Ntp993
Rp994
(dp995
g923
g924
sg925
I20
sg926
F6856.6421693419525
sg927
F5502.0588040531848
sg928
F0.0
sg929
g930
sg931
g932
sg933
g934
sg935
NsbsI21
g0
(g919
g2
Ntp996
Rp997
(dp998
g923
g924
sg925
I21
sg926
F6856.6421693419525
sg927
F11170.846662774649
sg928
F0.0
sg929
g930
sg931
g932
sg933
g934
sg935
NsbsI22
g0
(g919
g2
Ntp999
Rp1000
(dp1001
g923
g924
sg925
I22
sg926
F6856.6421693419525
sg927
F13921.876064801241
sg928
F0.0
sg929
g930
sg931
g932
sg933
g934
sg935
NsbsI23
g0
(g919
g2
Ntp1002
Rp1003
(dp1004
g923
g924
sg925
I23
sg926
F6856.6421693419525
sg927
F16672.905466827833
sg928
F0.0
sg929
g930
sg931
g932
sg933
g934
sg935
NsbsI24
g0
(g919
g2
Ntp1005
Rp1006
(dp1007
g923
g924
sg925
I24
sg926
F0.0
sg927
F7391.654756960339
sg928
F0.0
sg929
g930
sg931
g932
sg933
g934
sg935
NsbsI25
g0
(g919
g2
Ntp1008
Rp1009
(dp1010
g923
g924
sg925
I25
sg926
F2262.6919158828441
sg927
F7391.654756960339
sg928
F0.0
sg929
g930
sg931
g932
sg933
g934
sg935
NsbsI26
g0
(g919
g2
Ntp1011
Rp1012
(dp1013
g923
g924
sg925
I26
sg926
F0.0
sg927
F9281.2507098674942
sg928
F0.0
sg929
g930
sg931
g932
sg933
g934
sg935
NsbsI27
g0
(g919
g2
Ntp1014
Rp1015
(dp1016
g923
g924
sg925
I27
sg926
F2262.6919158828446
sg927
F9281.2507098674942
sg928
F0.0
sg929
g930
sg931
g932
sg933
g934
sg935
NsbsI28
g0
(g919
g2
Ntp1017
Rp1018
(dp1019
g923
g924
sg925
I28
sg926
F4525.3838317656882
sg927
F7391.654756960339
sg928
F0.0
sg929
g930
sg931
g932
sg933
g934
sg935
NsbsI29
g0
(g919
g2
Ntp1020
Rp1021
(dp1022
g923
g924
sg925
I29
sg926
F4525.3838317656891
sg927
F9281.2507098674942
sg928
F0.0
sg929
g930
sg931
g932
sg933
g934
sg935
NsbsI30
g0
(g919
g2
Ntp1023
Rp1024
(dp1025
g923
g924
sg925
I30
sg926
F6856.6421693419516
sg927
F7391.654756960339
sg928
F0.0
sg929
g930
sg931
g932
sg933
g934
sg935
NsbsI31
g0
(g919
g2
Ntp1026
Rp1027
(dp1028
g923
g924
sg925
I31
sg926
F6856.6421693419525
sg927
F9281.2507098674942
sg928
F0.0
sg929
g930
sg931
g932
sg933
g934
sg935
NsbsI32
g0
(g919
g2
Ntp1029
Rp1030
(dp1031
g923
g924
sg925
I32
sg926
F0.0
sg927
F0.0
sg928
F-2400.2272486088295
sg929
g930
sg931
g932
sg933
g934
sg935
NsbsI33
g0
(g919
g2
Ntp1032
Rp1033
(dp1034
g923
g924
sg925
I33
sg926
F2262.69191588284
sg927
F0.0
sg928
F-2400.2272486088295
sg929
g930
sg931
g932
sg933
g934
sg935
NsbsI34
g0
(g919
g2
Ntp1035
Rp1036
(dp1037
g923
g924
sg925
I34
sg926
F0.0
sg927
F0.0
sg928
F-940.09942148108212
sg929
g930
sg931
g932
sg933
g934
sg935
NsbsI35
g0
(g919
g2
Ntp1038
Rp1039
(dp1040
g923
g924
sg925
I35
sg926
F2262.69191588284
sg927
F0.0
sg928
F-940.09942148108212
sg929
g930
sg931
g932
sg933
g934
sg935
NsbsI36
g0
(g919
g2
Ntp1041
Rp1042
(dp1043
g923
g924
sg925
I36
sg926
F4525.38383176569
sg927
F0.0
sg928
F-2400.2272486088295
sg929
g930
sg931
g932
sg933
g934
sg935
NsbsI37
g0
(g919
g2
Ntp1044
Rp1045
(dp1046
g923
g924
sg925
I37
sg926
F4525.38383176569
sg927
F0.0
sg928
F-940.09942148108212
sg929
g930
sg931
g932
sg933
g934
sg935
NsbsI38
g0
(g919
g2
Ntp1047
Rp1048
(dp1049
g923
g924
sg925
I38
sg926
F6856.6421693419497
sg927
F0.0
sg928
F-2400.2272486088295
sg929
g930
sg931
g932
sg933
g934
sg935
NsbsI39
g0
(g919
g2
Ntp1050
Rp1051
(dp1052
g923
g924
sg925
I39
sg926
F6856.6421693419497
sg927
F0.0
sg928
F-940.09942148108212
sg929
g930
sg931
g932
sg933
g934
sg935
NsbsI40
g0
(g919
g2
Ntp1053
Rp1054
(dp1055
g923
g924
sg925
I40
sg926
F0.0
sg927
F0.0
sg928
F-3904.6013735283259
sg929
g930
sg931
g932
sg933
g934
sg935
NsbsI41
g0
(g919
g2
Ntp1056
Rp1057
(dp1058
g923
g924
sg925
I41
sg926
F2262.69191588284
sg927
F0.0
sg928
F-3904.6013735283259
sg929
g930
sg931
g932
sg933
g934
sg935
NsbsI42
g0
(g919
g2
Ntp1059
Rp1060
(dp1061
g923
g924
sg925
I42
sg926
F4525.38383176569
sg927
F0.0
sg928
F-3904.6013735283259
sg929
g930
sg931
g932
sg933
g934
sg935
NsbsI43
g0
(g919
g2
Ntp1062
Rp1063
(dp1064
g923
g924
sg925
I43
sg926
F6856.6421693419497
sg927
F0.0
sg928
F-3904.6013735283259
sg929
g930
sg931
g932
sg933
g934
sg935
NsbsI44
g0
(g919
g2
Ntp1065
Rp1066
(dp1067
g923
g924
sg925
I44
sg926
F0.0
sg927
F0.0
sg928
F-5364.7292006560729
sg929
g930
sg931
g932
sg933
g934
sg935
NsbsI45
g0
(g919
g2
Ntp1068
Rp1069
(dp1070
g923
g924
sg925
I45
sg926
F2262.69191588284
sg927
F0.0
sg928
F-5364.7292006560729
sg929
g930
sg931
g932
sg933
g934
sg935
NsbsI46
g0
(g919
g2
Ntp1071
Rp1072
(dp1073
g923
g924
sg925
I46
sg926
F4525.38383176569
sg927
F0.0
sg928
F-5364.7292006560729
sg929
g930
sg931
g932
sg933
g934
sg935
NsbsI47
g0
(g919
g2
Ntp1074
Rp1075
(dp1076
g923
g924
sg925
I47
sg926
F6856.6421693419497
sg927
F0.0
sg928
F-5364.7292006560729
sg929
g930
sg931
g932
sg933
g934
sg935
NsbsI48
g0
(g919
g2
Ntp1077
Rp1078
(dp1079
g923
g924
sg925
I48
sg926
F0.0
sg927
F16672.905466827833
sg928
F-2400.2272486088295
sg929
g930
sg931
g932
sg933
g934
sg935
NsbsI49
g0
(g919
g2
Ntp1080
Rp1081
(dp1082
g923
g924
sg925
I49
sg926
F2262.69191588284
sg927
F16672.905466827833
sg928
F-2400.2272486088295
sg929
g930
sg931
g932
sg933
g934
sg935
NsbsI50
g0
(g919
g2
Ntp1083
Rp1084
(dp1085
g923
g924
sg925
I50
sg926
F0.0
sg927
F16672.905466827833
sg928
F-940.09942148108212
sg929
g930
sg931
g932
sg933
g934
sg935
NsbsI51
g0
(g919
g2
Ntp1086
Rp1087
(dp1088
g923
g924
sg925
I51
sg926
F2262.69191588284
sg927
F16672.905466827833
sg928
F-940.09942148108212
sg929
g930
sg931
g932
sg933
g934
sg935
NsbsI52
g0
(g919
g2
Ntp1089
Rp1090
(dp1091
g923
g924
sg925
I52
sg926
F4525.38383176569
sg927
F16672.905466827833
sg928
F-2400.2272486088295
sg929
g930
sg931
g932
sg933
g934
sg935
NsbsI53
g0
(g919
g2
Ntp1092
Rp1093
(dp1094
g923
g924
sg925
I53
sg926
F4525.38383176569
sg927
F16672.905466827833
sg928
F-940.09942148108212
sg929
g930
sg931
g932
sg933
g934
sg935
NsbsI54
g0
(g919
g2
Ntp1095
Rp1096
(dp1097
g923
g924
sg925
I54
sg926
F6856.6421693419497
sg927
F16672.905466827833
sg928
F-2400.2272486088295
sg929
g930
sg931
g932
sg933
g934
sg935
NsbsI55
g0
(g919
g2
Ntp1098
Rp1099
(dp1100
g923
g924
sg925
I55
sg926
F6856.6421693419497
sg927
F16672.905466827833
sg928
F-940.09942148108212
sg929
g930
sg931
g932
sg933
g934
sg935
NsbsI56
g0
(g919
g2
Ntp1101
Rp1102
(dp1103
g923
g924
sg925
I56
sg926
F0.0
sg927
F16672.905466827833
sg928
F-3904.6013735283259
sg929
g930
sg931
g932
sg933
g934
sg935
NsbsI57
g0
(g919
g2
Ntp1104
Rp1105
(dp1106
g923
g924
sg925
I57
sg926
F2262.69191588284
sg927
F16672.905466827833
sg928
F-3904.6013735283259
sg929
g930
sg931
g932
sg933
g934
sg935
NsbsI58
g0
(g919
g2
Ntp1107
Rp1108
(dp1109
g923
g924
sg925
I58
sg926
F4525.38383176569
sg927
F16672.905466827833
sg928
F-3904.6013735283259
sg929
g930
sg931
g932
sg933
g934
sg935
NsbsI59
g0
(g919
g2
Ntp1110
Rp1111
(dp1112
g923
g924
sg925
I59
sg926
F6856.6421693419497
sg927
F16672.905466827833
sg928
F-3904.6013735283259
sg929
g930
sg931
g932
sg933
g934
sg935
NsbsI60
g0
(g919
g2
Ntp1113
Rp1114
(dp1115
g923
g924
sg925
I60
sg926
F0.0
sg927
F16672.905466827833
sg928
F-5364.7292006560729
sg929
g930
sg931
g932
sg933
g934
sg935
NsbsI61
g0
(g919
g2
Ntp1116
Rp1117
(dp1118
g923
g924
sg925
I61
sg926
F2262.69191588284
sg927
F16672.905466827833
sg928
F-5364.7292006560729
sg929
g930
sg931
g932
sg933
g934
sg935
NsbsI62
g0
(g919
g2
Ntp1119
Rp1120
(dp1121
g923
g924
sg925
I62
sg926
F4525.38383176569
sg927
F16672.905466827833
sg928
F-5364.7292006560729
sg929
g930
sg931
g932
sg933
g934
sg935
NsbsI63
g0
(g919
g2
Ntp1122
Rp1123
(dp1124
g923
g924
sg925
I63
sg926
F6856.6421693419497
sg927
F16672.905466827833
sg928
F-5364.7292006560729
sg929
g930
sg931
g932
sg933
g934
sg935
NsbssS'node_index'
p1125
(dp1126
S'2262.692,16672.905,-3904.601'
p1127
I57
sS'2262.692,16672.905,-5364.729'
p1128
I61
sS'4525.384,9281.251,0.000'
p1129
I29
sS'2262.692,9281.251,0.000'
p1130
I27
sS'6856.642,16672.905,0.000'
p1131
I23
sS'0.000,2751.029,0.000'
p1132
I2
sS'4525.384,0.000,-940.099'
p1133
I37
sS'0.000,0.000,-2400.227'
p1134
I32
sS'6856.642,2751.029,0.000'
p1135
I19
sS'2262.692,11170.847,0.000'
p1136
I7
sS'6856.642,13921.876,0.000'
p1137
I22
sS'4525.384,16672.905,0.000'
p1138
I17
sS'2262.692,16672.905,-2400.227'
p1139
I49
sS'2262.692,5502.059,0.000'
p1140
I5
sS'0.000,9281.251,0.000'
p1141
I26
sS'2262.692,16672.905,0.000'
p1142
I11
sS'0.000,16672.905,-3904.601'
p1143
I56
sS'4525.384,16672.905,-940.099'
p1144
I53
sS'0.000,5502.059,0.000'
p1145
I4
sS'4525.384,11170.847,0.000'
p1146
I15
sS'6856.642,5502.059,0.000'
p1147
I20
sS'0.000,16672.905,-5364.729'
p1148
I60
sS'0.000,0.000,0.000'
p1149
I0
sS'4525.384,16672.905,-5364.729'
p1150
I62
sS'4525.384,16672.905,-2400.227'
p1151
I52
sS'0.000,13921.876,0.000'
p1152
I8
sS'0.000,16672.905,-2400.227'
p1153
I48
sS'4525.384,7391.655,0.000'
p1154
I28
sS'4525.384,5502.059,0.000'
p1155
I14
sS'0.000,16672.905,0.000'
p1156
I10
sS'2262.692,0.000,-5364.729'
p1157
I45
sS'2262.692,16672.905,-940.099'
p1158
I51
sS'4525.384,0.000,-3904.601'
p1159
I42
sS'6856.642,16672.905,-940.099'
p1160
I55
sS'6856.642,16672.905,-3904.601'
p1161
I59
sS'4525.384,13921.876,0.000'
p1162
I16
sS'4525.384,0.000,-5364.729'
p1163
I46
sS'6856.642,0.000,-5364.729'
p1164
I47
sS'6856.642,16672.905,-5364.729'
p1165
I63
sS'2262.692,0.000,-3904.601'
p1166
I41
sS'0.000,0.000,-5364.729'
p1167
I44
sS'2262.692,0.000,-2400.227'
p1168
I33
sS'0.000,0.000,-3904.601'
p1169
I40
sS'4525.384,16672.905,-3904.601'
p1170
I58
sS'6856.642,0.000,0.000'
p1171
I18
sS'6856.642,7391.655,0.000'
p1172
I30
sS'6856.642,16672.905,-2400.227'
p1173
I54
sS'2262.692,13921.876,0.000'
p1174
I9
sS'6856.642,11170.847,0.000'
p1175
I21
sS'2262.692,2751.029,0.000'
p1176
I3
sS'0.000,7391.655,0.000'
p1177
I24
sS'2262.692,7391.655,0.000'
p1178
I25
sS'4525.384,0.000,-2400.227'
p1179
I36
sS'4525.384,0.000,0.000'
p1180
I12
sS'0.000,11170.847,0.000'
p1181
I6
sS'6856.642,0.000,-940.099'
p1182
I39
sS'0.000,0.000,-940.099'
p1183
I34
sS'2262.692,0.000,0.000'
p1184
I1
sS'6856.642,0.000,-3904.601'
p1185
I43
sS'6856.642,9281.251,0.000'
p1186
I31
sS'2262.692,0.000,-940.099'
p1187
I35
sS'6856.642,0.000,-2400.227'
p1188
I38
sS'0.000,16672.905,-940.099'
p1189
I50
sS'4525.384,2751.029,0.000'
p1190
I13
ssS'path'
p1191
S'C:\\Temp\\'
p1192
sS'results'
p1193
(dp1194
S'step_2'
p1195
S'ERROR'
p1196
sS'step_3'
p1197
g1196
sS'step_4'
p1198
g1196
sS'step_1'
p1199
g1196
ssS'sections'
p1200
(dp1201
g382
g0
(ccompas_fea.structure.section
ShellSection
p1202
g2
Ntp1203
Rp1204
(dp1205
g15
I1
sS'__name__'
p1206
S'ShellSection'
p1207
sS'name'
p1208
g382
sS'geometry'
p1209
(dp1210
S't'
p1211
F1156.6276323800557
ssS'loc_coords_OR'
p1212
(dp1213
S'ORxyz'
p1214
(lp1215
I0
aI0
aF-4424.6297791699999
assS'loc_coords_XA'
p1216
(dp1217
S'XAxyz'
p1218
(lp1219
I1
aI0
aF-4424.6297791699999
assS'loc_coords_YA'
p1220
(dp1221
S'YAxyz'
p1222
(lp1223
F4424.6297791699999
aF-4424.6297791699999
aF-4423.6297791699999
assS'loc_coords_EV_XA'
p1224
(dp1225
S'EV_XA'
p1226
(lp1227
F1.0
aF0.0
aF0.0
assS'loc_coords_EV_YA'
p1228
(dp1229
S'EV_YA'
p1230
(lp1231
F0.70710677215689322
aF-0.70710677215689322
aF0.00015981151134627513
assS'loc_coords_EV_ZA'
p1232
(dp1233
S'EV_ZA'
p1234
(lp1235
F0.0
aF-1.0
aF0.0
assS'nr_layers'
p1236
(dp1237
S'nn'
p1238
F79.0
ssS'offset'
p1239
(dp1240
S'mode'
p1241
S'mid'
p1242
ssbsg396
g0
(g1202
g2
Ntp1243
Rp1244
(dp1245
g15
I0
sg1206
g1207
sg1208
g396
sg1209
(dp1246
g1211
F940.09942148108212
ssg1212
(dp1247
g1214
(lp1248
I0
aI0
aI0
assg1216
(dp1249
g1218
(lp1250
I1
aI0
aI0
assg1220
(dp1251
g1222
(lp1252
F0.0
aF1.0
aF0.0
assg1224
(dp1253
g1226
(lp1254
F1.0
aF0.0
aF0.0
assg1228
(dp1255
g1230
(lp1256
F0.0
aF1.0
aF0.0
assg1232
(dp1257
g1234
(lp1258
F0.0
aF0.0
aF1.0
assg1236
(dp1259
g1238
F79.0
ssg1239
(dp1260
g1241
S'top'
p1261
ssbsg373
g0
(g1202
g2
Ntp1262
Rp1263
(dp1264
g15
I2
sg1206
g1207
sg1208
g373
sg1209
(dp1265
g1211
F1156.6276323800557
ssg1212
(dp1266
g1214
(lp1267
I0
aF16672.905466799999
aF-4424.6297791699999
assg1216
(dp1268
g1218
(lp1269
I1
aF16672.905466799999
aF-4424.6297791699999
assg1220
(dp1270
g1222
(lp1271
F-4424.6297791749239
aF12248.275687629999
aF-21098.535245970001
assg1224
(dp1272
g1226
(lp1273
F1.0
aF0.0
aF0.0
assg1228
(dp1274
g1230
(lp1275
F-0.24844386160753532
aF-0.24844386160725881
aF-0.93624318168903575
assg1232
(dp1276
g1234
(lp1277
F0.0
aF1.0
aF0.0
assg1236
(dp1278
g1238
F79.0
ssg1239
(dp1279
g1241
g1242
ssbsg466
g0
(ccompas_fea.structure.section
MPCSection
p1280
g2
Ntp1281
Rp1282
(dp1283
g15
I3
sg1206
S'MPCSection'
p1284
sg1208
g466
sg1209
NsS'nr_layers'
p1285
NsbssS'sets'
p1286
(dp1287
g491
g0
(ccompas_fea.structure.set
Set
p1288
g2
Ntp1289
Rp1290
(dp1291
S'__name__'
p1292
S'Set'
p1293
sS'name'
p1294
g491
sS'type'
p1295
S'element'
p1296
sS'selection'
p1297
(lp1298
I25
asS'index'
p1299
I13
sbsg467
g0
(g1288
g2
Ntp1300
Rp1301
(dp1302
g1292
g1293
sg1294
g467
sg1295
g1296
sg1297
(lp1303
I39
aI40
aI41
aI42
aI43
aI44
aI45
aI46
asg1299
I27
sbsg375
g0
(g1288
g2
Ntp1304
Rp1305
(dp1306
g1292
g1293
sg1294
g375
sg1295
g1296
sg1297
(lp1307
I33
asg1299
I21
sbsg421
g0
(g1288
g2
Ntp1308
Rp1309
(dp1310
g1292
g1293
sg1294
g421
sg1295
g1296
sg1297
(lp1311
I4
aI5
asg1299
I2
sbsg387
g0
(g1288
g2
Ntp1312
Rp1313
(dp1314
g1292
g1293
sg1294
g387
sg1295
g1296
sg1297
(lp1315
I28
asg1299
I16
sbsg483
g0
(g1288
g2
Ntp1316
Rp1317
(dp1318
g1292
g1293
sg1294
g483
sg1295
g1296
sg1297
(lp1319
I30
asg1299
I18
sbsg461
g0
(g1288
g2
Ntp1320
Rp1321
(dp1322
g1292
g1293
sg1294
g461
sg1295
g1296
sg1297
(lp1323
I2
aI3
asg1299
I1
sbsg397
g0
(g1288
g2
Ntp1324
Rp1325
(dp1326
g1292
g1293
sg1294
g397
sg1295
g1296
sg1297
(lp1327
I0
aI1
asg1299
I0
sbsg449
g0
(g1288
g2
Ntp1328
Rp1329
(dp1330
g1292
g1293
sg1294
g449
sg1295
g1296
sg1297
(lp1331
I12
aI13
aI14
asg1299
I6
sbsg487
g0
(g1288
g2
Ntp1332
Rp1333
(dp1334
g1292
g1293
sg1294
g487
sg1295
g1296
sg1297
(lp1335
I10
aI11
asg1299
I5
sbsg413
g0
(g1288
g2
Ntp1336
Rp1337
(dp1338
g1292
g1293
sg1294
g413
sg1295
g1296
sg1297
(lp1339
I8
aI9
asg1299
I4
sbsg457
g0
(g1288
g2
Ntp1340
Rp1341
(dp1342
g1292
g1293
sg1294
g457
sg1295
g1296
sg1297
(lp1343
I6
aI7
asg1299
I3
sbsg405
g0
(g1288
g2
Ntp1344
Rp1345
(dp1346
g1292
g1293
sg1294
g405
sg1295
g1296
sg1297
(lp1347
I18
aI19
aI20
asg1299
I8
sbsg441
g0
(g1288
g2
Ntp1348
Rp1349
(dp1350
g1292
g1293
sg1294
g441
sg1295
g1296
sg1297
(lp1351
I16
aI17
aI15
asg1299
I7
sbsg417
g0
(g1288
g2
Ntp1352
Rp1353
(dp1354
g1292
g1293
sg1294
g417
sg1295
g1296
sg1297
(lp1355
I23
asg1299
I11
sbsg479
g0
(g1288
g2
Ntp1356
Rp1357
(dp1358
g1292
g1293
sg1294
g479
sg1295
g1296
sg1297
(lp1359
I38
asg1299
I26
sbsg429
g0
(g1288
g2
Ntp1360
Rp1361
(dp1362
g1292
g1293
sg1294
g429
sg1295
g1296
sg1297
(lp1363
I35
asg1299
I23
sbsg409
g0
(g1288
g2
Ntp1364
Rp1365
(dp1366
g1292
g1293
sg1294
g409
sg1295
g1296
sg1297
(lp1367
I26
asg1299
I14
sbsg425
g0
(g1288
g2
Ntp1368
Rp1369
(dp1370
g1292
g1293
sg1294
g425
sg1295
g1296
sg1297
(lp1371
I32
asg1299
I20
sbsg445
g0
(g1288
g2
Ntp1372
Rp1373
(dp1374
g1292
g1293
sg1294
g445
sg1295
g1296
sg1297
(lp1375
I21
asg1299
I9
sbsg437
g0
(g1288
g2
Ntp1376
Rp1377
(dp1378
g1292
g1293
sg1294
g437
sg1295
g1296
sg1297
(lp1379
I29
asg1299
I17
sbsg35
g0
(g1288
g2
Ntp1380
Rp1381
(dp1382
g1292
g1293
sg1294
g35
sg1295
S'node'
p1383
sg1297
(lp1384
I63
aI62
aI61
aI60
asg1299
I29
sbsg433
g0
(g1288
g2
Ntp1385
Rp1386
(dp1387
g1292
g1293
sg1294
g433
sg1295
g1296
sg1297
(lp1388
I24
asg1299
I12
sbsg453
g0
(g1288
g2
Ntp1389
Rp1390
(dp1391
g1292
g1293
sg1294
g453
sg1295
g1296
sg1297
(lp1392
I37
asg1299
I25
sbsg401
g0
(g1288
g2
Ntp1393
Rp1394
(dp1395
g1292
g1293
sg1294
g401
sg1295
g1296
sg1297
(lp1396
I34
asg1299
I22
sbsg20
g0
(g1288
g2
Ntp1397
Rp1398
(dp1399
g1292
g1293
sg1294
g20
sg1295
g1383
sg1297
(lp1400
I47
aI46
aI45
aI44
asg1299
I28
sbsg471
g0
(g1288
g2
Ntp1401
Rp1402
(dp1403
g1292
g1293
sg1294
g471
sg1295
g1296
sg1297
(lp1404
I27
asg1299
I15
sbsg391
g0
(g1288
g2
Ntp1405
Rp1406
(dp1407
g1292
g1293
sg1294
g391
sg1295
g1296
sg1297
(lp1408
I31
asg1299
I19
sbsg383
g0
(g1288
g2
Ntp1409
Rp1410
(dp1411
g1292
g1293
sg1294
g383
sg1295
g1296
sg1297
(lp1412
I22
asg1299
I10
sbsg475
g0
(g1288
g2
Ntp1413
Rp1414
(dp1415
g1292
g1293
sg1294
g475
sg1295
g1296
sg1297
(lp1416
I36
asg1299
I24
sbssS'steps'
p1417
(dp1418
g1195
g0
(ccompas_fea.structure.step
GeneralStep
p1419
g2
Ntp1420
Rp1421
(dp1422
g15
I1
sS'__name__'
p1423
S'GeneralStep'
p1424
sS'name'
p1425
g1195
sS'attr_list'
p1426
(lp1427
g514
aS'increments'
p1428
aS'iterations'
p1429
aS'factor'
p1430
aS'nlgeom'
p1431
aS'nlmat'
p1432
aS'displacements'
p1433
aS'loads'
p1434
aS'type'
p1435
aS'tolerance'
p1436
aS'modify'
p1437
asS'increments'
p1438
I1
sS'iterations'
p1439
I100
sS'tolerance'
p1440
F0.01
sS'factor'
p1441
F1.0
sS'nlgeom'
p1442
I00
sS'nlmat'
p1443
I01
sS'displacements'
p1444
(lp1445
sS'loads'
p1446
(lp1447
g562
asS'modify'
p1448
I01
sS'type'
p1449
S'static'
p1450
sbsg1197
g0
(g1419
g2
Ntp1451
Rp1452
(dp1453
g15
I2
sg1423
g1424
sg1425
g1197
sg1426
(lp1454
g514
ag1428
ag1429
ag1430
ag1431
ag1432
ag1433
ag1434
ag1435
ag1436
ag1437
asg1438
I1
sg1439
I100
sg1440
F0.01
sg1441
F1.0
sg1442
I00
sg1443
I01
sg1444
(lp1455
sg1446
(lp1456
g541
ag534
ag527
asg1448
I01
sg1449
g1450
sbsg1198
g0
(g1419
g2
Ntp1457
Rp1458
(dp1459
g15
I3
sg1423
g1424
sg1425
g1198
sg1426
(lp1460
g514
ag1428
ag1429
ag1430
ag1431
ag1432
ag1433
ag1434
ag1435
ag1436
ag1437
asg1438
I1
sg1439
I100
sg1440
F0.01
sg1441
F1.0
sg1442
I00
sg1443
I01
sg1444
(lp1461
sg1446
(lp1462
g555
ag548
ag496
ag519
asg1448
I01
sg1449
g1450
sbsg1199
g0
(g1419
g2
Ntp1463
Rp1464
(dp1465
g15
I0
sg1423
g1424
sg1425
g1199
sg1426
(lp1466
g514
ag1428
ag1429
ag1430
ag1431
ag1432
ag1433
ag1434
ag1435
ag1436
ag1437
asg1438
I1
sg1439
I100
sg1440
F0.01
sg1441
F1.0
sg1442
I00
sg1443
I01
sg1444
(lp1467
g10
ag31
asg1446
(lp1468
sg1448
I01
sg1449
g1450
sbssS'loc_coor'
p1469
(dp1470
sS'steps_order'
p1471
(lp1472
g1199
ag1195
ag1197
ag1198
asS'tol'
p1473
S'3'
p1474
sS'virtual_nodes'
p1475
(dp1476
sS'virtual_node_index'
p1477
(dp1478
sS'virtual_elements'
p1479
(dp1480
sS'virtual_element_index'
p1481
(dp1482
sb.