ccopy_reg
_reconstructor
p0
(ccompas_fea.structure.structure
Structure
p1
c__builtin__
object
p2
Ntp3
Rp4
(dp5
S'constraints'
p6
(dp7
sS'displacements'
p8
(dp9
S'nset_pinned_set_disp_1'
p10
g0
(ccompas_fea.structure.displacement
GeneralDisplacement
p11
g2
Ntp12
Rp13
(dp14
S'index'
p15
I0
sS'__name__'
p16
S'GeneralDisplacement'
p17
sS'name'
p18
g10
sS'nodes'
p19
S'nset_support_wall1'
p20
sS'components'
p21
(dp22
S'z'
p23
I0
sS'xx'
p24
I0
sS'zz'
p25
I0
sS'yy'
p26
I0
sS'y'
p27
I0
sS'x'
p28
I0
ssS'axes'
p29
S'global'
p30
sbsS'nset_pinned_set_disp_2'
p31
g0
(g11
g2
Ntp32
Rp33
(dp34
g15
I1
sg16
g17
sg18
g31
sg19
S'nset_support_wall2'
p35
sg21
(dp36
g23
I0
sg24
I0
sg25
I0
sg26
I0
sg27
I0
sg28
I0
ssg29
g30
sbssS'elements'
p37
(dp38
I0
g0
(ccompas_fea.structure.element
ShellElement
p39
g2
Ntp40
Rp41
(dp42
S'mass'
p43
NsS'__name__'
p44
S'ShellElement'
p45
sS'nodes'
p46
(lp47
I0
aI1
aI7
aI6
asS'number'
p48
I0
sS'thermal'
p49
I00
sS'axes'
p50
(dp51
S'ey'
p52
NsS'ez'
p53
NsS'ex'
p54
NssS'element_property'
p55
S'elset_plate_1_element_prop'
p56
sbsI1
g0
(g39
g2
Ntp57
Rp58
(dp59
g43
Nsg44
g45
sg46
(lp60
I1
aI2
aI8
aI7
asg48
I1
sg49
I00
sg50
g51
sg55
g56
sbsI2
g0
(g39
g2
Ntp61
Rp62
(dp63
g43
Nsg44
g45
sg46
(lp64
I2
aI3
aI9
aI8
asg48
I2
sg49
I00
sg50
g51
sg55
g56
sbsI3
g0
(g39
g2
Ntp65
Rp66
(dp67
g43
Nsg44
g45
sg46
(lp68
I3
aI4
aI10
aI9
asg48
I3
sg49
I00
sg50
g51
sg55
g56
sbsI4
g0
(g39
g2
Ntp69
Rp70
(dp71
g43
Nsg44
g45
sg46
(lp72
I4
aI5
aI11
aI10
asg48
I4
sg49
I00
sg50
g51
sg55
g56
sbsI5
g0
(g39
g2
Ntp73
Rp74
(dp75
g43
Nsg44
g45
sg46
(lp76
I6
aI7
aI13
aI12
asg48
I5
sg49
I00
sg50
g51
sg55
g56
sbsI6
g0
(g39
g2
Ntp77
Rp78
(dp79
g43
Nsg44
g45
sg46
(lp80
I7
aI8
aI14
aI13
asg48
I6
sg49
I00
sg50
g51
sg55
g56
sbsI7
g0
(g39
g2
Ntp81
Rp82
(dp83
g43
Nsg44
g45
sg46
(lp84
I8
aI9
aI15
aI14
asg48
I7
sg49
I00
sg50
g51
sg55
g56
sbsI8
g0
(g39
g2
Ntp85
Rp86
(dp87
g43
Nsg44
g45
sg46
(lp88
I9
aI10
aI16
aI15
asg48
I8
sg49
I00
sg50
g51
sg55
g56
sbsI9
g0
(g39
g2
Ntp89
Rp90
(dp91
g43
Nsg44
g45
sg46
(lp92
I10
aI11
aI17
aI16
asg48
I9
sg49
I00
sg50
g51
sg55
g56
sbsI10
g0
(g39
g2
Ntp93
Rp94
(dp95
g43
Nsg44
g45
sg46
(lp96
I12
aI13
aI19
aI18
asg48
I10
sg49
I00
sg50
g51
sg55
g56
sbsI11
g0
(g39
g2
Ntp97
Rp98
(dp99
g43
Nsg44
g45
sg46
(lp100
I13
aI14
aI20
aI19
asg48
I11
sg49
I00
sg50
g51
sg55
g56
sbsI12
g0
(g39
g2
Ntp101
Rp102
(dp103
g43
Nsg44
g45
sg46
(lp104
I14
aI15
aI21
aI20
asg48
I12
sg49
I00
sg50
g51
sg55
g56
sbsI13
g0
(g39
g2
Ntp105
Rp106
(dp107
g43
Nsg44
g45
sg46
(lp108
I15
aI16
aI22
aI21
asg48
I13
sg49
I00
sg50
g51
sg55
g56
sbsI14
g0
(g39
g2
Ntp109
Rp110
(dp111
g43
Nsg44
g45
sg46
(lp112
I16
aI17
aI23
aI22
asg48
I14
sg49
I00
sg50
g51
sg55
g56
sbsI15
g0
(g39
g2
Ntp113
Rp114
(dp115
g43
Nsg44
g45
sg46
(lp116
I18
aI19
aI25
aI24
asg48
I15
sg49
I00
sg50
g51
sg55
g56
sbsI16
g0
(g39
g2
Ntp117
Rp118
(dp119
g43
Nsg44
g45
sg46
(lp120
I19
aI20
aI26
aI25
asg48
I16
sg49
I00
sg50
g51
sg55
g56
sbsI17
g0
(g39
g2
Ntp121
Rp122
(dp123
g43
Nsg44
g45
sg46
(lp124
I20
aI21
aI27
aI26
asg48
I17
sg49
I00
sg50
g51
sg55
g56
sbsI18
g0
(g39
g2
Ntp125
Rp126
(dp127
g43
Nsg44
g45
sg46
(lp128
I21
aI22
aI28
aI27
asg48
I18
sg49
I00
sg50
g51
sg55
g56
sbsI19
g0
(g39
g2
Ntp129
Rp130
(dp131
g43
Nsg44
g45
sg46
(lp132
I22
aI23
aI29
aI28
asg48
I19
sg49
I00
sg50
g51
sg55
g56
sbsI20
g0
(g39
g2
Ntp133
Rp134
(dp135
g43
Nsg44
g45
sg46
(lp136
I30
aI31
aI37
aI36
asg48
I20
sg49
I00
sg50
(dp137
g52
Nsg53
Nsg54
Nssg55
S'elset_plate_2_element_prop'
p138
sbsI21
g0
(g39
g2
Ntp139
Rp140
(dp141
g43
Nsg44
g45
sg46
(lp142
I31
aI32
aI38
aI37
asg48
I21
sg49
I00
sg50
g137
sg55
g138
sbsI22
g0
(g39
g2
Ntp143
Rp144
(dp145
g43
Nsg44
g45
sg46
(lp146
I32
aI33
aI39
aI38
asg48
I22
sg49
I00
sg50
g137
sg55
g138
sbsI23
g0
(g39
g2
Ntp147
Rp148
(dp149
g43
Nsg44
g45
sg46
(lp150
I33
aI34
aI40
aI39
asg48
I23
sg49
I00
sg50
g137
sg55
g138
sbsI24
g0
(g39
g2
Ntp151
Rp152
(dp153
g43
Nsg44
g45
sg46
(lp154
I34
aI35
aI41
aI40
asg48
I24
sg49
I00
sg50
g137
sg55
g138
sbsI25
g0
(g39
g2
Ntp155
Rp156
(dp157
g43
Nsg44
g45
sg46
(lp158
I36
aI37
aI43
aI42
asg48
I25
sg49
I00
sg50
g137
sg55
g138
sbsI26
g0
(g39
g2
Ntp159
Rp160
(dp161
g43
Nsg44
g45
sg46
(lp162
I37
aI38
aI44
aI43
asg48
I26
sg49
I00
sg50
g137
sg55
g138
sbsI27
g0
(g39
g2
Ntp163
Rp164
(dp165
g43
Nsg44
g45
sg46
(lp166
I38
aI39
aI45
aI44
asg48
I27
sg49
I00
sg50
g137
sg55
g138
sbsI28
g0
(g39
g2
Ntp167
Rp168
(dp169
g43
Nsg44
g45
sg46
(lp170
I39
aI40
aI46
aI45
asg48
I28
sg49
I00
sg50
g137
sg55
g138
sbsI29
g0
(g39
g2
Ntp171
Rp172
(dp173
g43
Nsg44
g45
sg46
(lp174
I40
aI41
aI47
aI46
asg48
I29
sg49
I00
sg50
g137
sg55
g138
sbsI30
g0
(g39
g2
Ntp175
Rp176
(dp177
g43
Nsg44
g45
sg46
(lp178
I42
aI43
aI49
aI48
asg48
I30
sg49
I00
sg50
g137
sg55
g138
sbsI31
g0
(g39
g2
Ntp179
Rp180
(dp181
g43
Nsg44
g45
sg46
(lp182
I43
aI44
aI50
aI49
asg48
I31
sg49
I00
sg50
g137
sg55
g138
sbsI32
g0
(g39
g2
Ntp183
Rp184
(dp185
g43
Nsg44
g45
sg46
(lp186
I44
aI45
aI51
aI50
asg48
I32
sg49
I00
sg50
g137
sg55
g138
sbsI33
g0
(g39
g2
Ntp187
Rp188
(dp189
g43
Nsg44
g45
sg46
(lp190
I45
aI46
aI52
aI51
asg48
I33
sg49
I00
sg50
g137
sg55
g138
sbsI34
g0
(g39
g2
Ntp191
Rp192
(dp193
g43
Nsg44
g45
sg46
(lp194
I46
aI47
aI53
aI52
asg48
I34
sg49
I00
sg50
g137
sg55
g138
sbsI35
g0
(g39
g2
Ntp195
Rp196
(dp197
g43
Nsg44
g45
sg46
(lp198
I48
aI49
aI55
aI54
asg48
I35
sg49
I00
sg50
g137
sg55
g138
sbsI36
g0
(g39
g2
Ntp199
Rp200
(dp201
g43
Nsg44
g45
sg46
(lp202
I49
aI50
aI56
aI55
asg48
I36
sg49
I00
sg50
g137
sg55
g138
sbsI37
g0
(g39
g2
Ntp203
Rp204
(dp205
g43
Nsg44
g45
sg46
(lp206
I50
aI51
aI57
aI56
asg48
I37
sg49
I00
sg50
g137
sg55
g138
sbsI38
g0
(g39
g2
Ntp207
Rp208
(dp209
g43
Nsg44
g45
sg46
(lp210
I51
aI52
aI58
aI57
asg48
I38
sg49
I00
sg50
g137
sg55
g138
sbsI39
g0
(g39
g2
Ntp211
Rp212
(dp213
g43
Nsg44
g45
sg46
(lp214
I52
aI53
aI59
aI58
asg48
I39
sg49
I00
sg50
g137
sg55
g138
sbsI40
g0
(g39
g2
Ntp215
Rp216
(dp217
g43
Nsg44
g45
sg46
(lp218
I5
aI60
aI65
aI11
asg48
I40
sg49
I00
sg50
(dp219
g52
Nsg53
Nsg54
Nssg55
S'elset_plate_3_element_prop'
p220
sbsI41
g0
(g39
g2
Ntp221
Rp222
(dp223
g43
Nsg44
g45
sg46
(lp224
I60
aI61
aI66
aI65
asg48
I41
sg49
I00
sg50
g219
sg55
g220
sbsI42
g0
(g39
g2
Ntp225
Rp226
(dp227
g43
Nsg44
g45
sg46
(lp228
I61
aI62
aI67
aI66
asg48
I42
sg49
I00
sg50
g219
sg55
g220
sbsI43
g0
(g39
g2
Ntp229
Rp230
(dp231
g43
Nsg44
g45
sg46
(lp232
I62
aI63
aI68
aI67
asg48
I43
sg49
I00
sg50
g219
sg55
g220
sbsI44
g0
(g39
g2
Ntp233
Rp234
(dp235
g43
Nsg44
g45
sg46
(lp236
I63
aI64
aI69
aI68
asg48
I44
sg49
I00
sg50
g219
sg55
g220
sbsI45
g0
(g39
g2
Ntp237
Rp238
(dp239
g43
Nsg44
g45
sg46
(lp240
I11
aI65
aI70
aI17
asg48
I45
sg49
I00
sg50
g219
sg55
g220
sbsI46
g0
(g39
g2
Ntp241
Rp242
(dp243
g43
Nsg44
g45
sg46
(lp244
I65
aI66
aI71
aI70
asg48
I46
sg49
I00
sg50
g219
sg55
g220
sbsI47
g0
(g39
g2
Ntp245
Rp246
(dp247
g43
Nsg44
g45
sg46
(lp248
I66
aI67
aI72
aI71
asg48
I47
sg49
I00
sg50
g219
sg55
g220
sbsI48
g0
(g39
g2
Ntp249
Rp250
(dp251
g43
Nsg44
g45
sg46
(lp252
I67
aI68
aI73
aI72
asg48
I48
sg49
I00
sg50
g219
sg55
g220
sbsI49
g0
(g39
g2
Ntp253
Rp254
(dp255
g43
Nsg44
g45
sg46
(lp256
I68
aI69
aI74
aI73
asg48
I49
sg49
I00
sg50
g219
sg55
g220
sbsI50
g0
(g39
g2
Ntp257
Rp258
(dp259
g43
Nsg44
g45
sg46
(lp260
I17
aI70
aI75
aI23
asg48
I50
sg49
I00
sg50
g219
sg55
g220
sbsI51
g0
(g39
g2
Ntp261
Rp262
(dp263
g43
Nsg44
g45
sg46
(lp264
I70
aI71
aI76
aI75
asg48
I51
sg49
I00
sg50
g219
sg55
g220
sbsI52
g0
(g39
g2
Ntp265
Rp266
(dp267
g43
Nsg44
g45
sg46
(lp268
I71
aI72
aI77
aI76
asg48
I52
sg49
I00
sg50
g219
sg55
g220
sbsI53
g0
(g39
g2
Ntp269
Rp270
(dp271
g43
Nsg44
g45
sg46
(lp272
I72
aI73
aI78
aI77
asg48
I53
sg49
I00
sg50
g219
sg55
g220
sbsI54
g0
(g39
g2
Ntp273
Rp274
(dp275
g43
Nsg44
g45
sg46
(lp276
I73
aI74
aI79
aI78
asg48
I54
sg49
I00
sg50
g219
sg55
g220
sbsI55
g0
(g39
g2
Ntp277
Rp278
(dp279
g43
Nsg44
g45
sg46
(lp280
I23
aI75
aI80
aI29
asg48
I55
sg49
I00
sg50
g219
sg55
g220
sbsI56
g0
(g39
g2
Ntp281
Rp282
(dp283
g43
Nsg44
g45
sg46
(lp284
I75
aI76
aI81
aI80
asg48
I56
sg49
I00
sg50
g219
sg55
g220
sbsI57
g0
(g39
g2
Ntp285
Rp286
(dp287
g43
Nsg44
g45
sg46
(lp288
I76
aI77
aI82
aI81
asg48
I57
sg49
I00
sg50
g219
sg55
g220
sbsI58
g0
(g39
g2
Ntp289
Rp290
(dp291
g43
Nsg44
g45
sg46
(lp292
I77
aI78
aI83
aI82
asg48
I58
sg49
I00
sg50
g219
sg55
g220
sbsI59
g0
(g39
g2
Ntp293
Rp294
(dp295
g43
Nsg44
g45
sg46
(lp296
I78
aI79
aI84
aI83
asg48
I59
sg49
I00
sg50
g219
sg55
g220
sbsI60
g0
(g39
g2
Ntp297
Rp298
(dp299
g43
Nsg44
g45
sg46
(lp300
I35
aI85
aI90
aI41
asg48
I60
sg49
I00
sg50
(dp301
g52
Nsg53
Nsg54
Nssg55
S'elset_plate_4_element_prop'
p302
sbsI61
g0
(g39
g2
Ntp303
Rp304
(dp305
g43
Nsg44
g45
sg46
(lp306
I85
aI86
aI91
aI90
asg48
I61
sg49
I00
sg50
g301
sg55
g302
sbsI62
g0
(g39
g2
Ntp307
Rp308
(dp309
g43
Nsg44
g45
sg46
(lp310
I86
aI87
aI92
aI91
asg48
I62
sg49
I00
sg50
g301
sg55
g302
sbsI63
g0
(g39
g2
Ntp311
Rp312
(dp313
g43
Nsg44
g45
sg46
(lp314
I87
aI88
aI93
aI92
asg48
I63
sg49
I00
sg50
g301
sg55
g302
sbsI64
g0
(g39
g2
Ntp315
Rp316
(dp317
g43
Nsg44
g45
sg46
(lp318
I88
aI89
aI94
aI93
asg48
I64
sg49
I00
sg50
g301
sg55
g302
sbsI65
g0
(g39
g2
Ntp319
Rp320
(dp321
g43
Nsg44
g45
sg46
(lp322
I41
aI90
aI95
aI47
asg48
I65
sg49
I00
sg50
g301
sg55
g302
sbsI66
g0
(g39
g2
Ntp323
Rp324
(dp325
g43
Nsg44
g45
sg46
(lp326
I90
aI91
aI96
aI95
asg48
I66
sg49
I00
sg50
g301
sg55
g302
sbsI67
g0
(g39
g2
Ntp327
Rp328
(dp329
g43
Nsg44
g45
sg46
(lp330
I91
aI92
aI97
aI96
asg48
I67
sg49
I00
sg50
g301
sg55
g302
sbsI68
g0
(g39
g2
Ntp331
Rp332
(dp333
g43
Nsg44
g45
sg46
(lp334
I92
aI93
aI98
aI97
asg48
I68
sg49
I00
sg50
g301
sg55
g302
sbsI69
g0
(g39
g2
Ntp335
Rp336
(dp337
g43
Nsg44
g45
sg46
(lp338
I93
aI94
aI99
aI98
asg48
I69
sg49
I00
sg50
g301
sg55
g302
sbsI70
g0
(g39
g2
Ntp339
Rp340
(dp341
g43
Nsg44
g45
sg46
(lp342
I47
aI95
aI100
aI53
asg48
I70
sg49
I00
sg50
g301
sg55
g302
sbsI71
g0
(g39
g2
Ntp343
Rp344
(dp345
g43
Nsg44
g45
sg46
(lp346
I95
aI96
aI101
aI100
asg48
I71
sg49
I00
sg50
g301
sg55
g302
sbsI72
g0
(g39
g2
Ntp347
Rp348
(dp349
g43
Nsg44
g45
sg46
(lp350
I96
aI97
aI102
aI101
asg48
I72
sg49
I00
sg50
g301
sg55
g302
sbsI73
g0
(g39
g2
Ntp351
Rp352
(dp353
g43
Nsg44
g45
sg46
(lp354
I97
aI98
aI103
aI102
asg48
I73
sg49
I00
sg50
g301
sg55
g302
sbsI74
g0
(g39
g2
Ntp355
Rp356
(dp357
g43
Nsg44
g45
sg46
(lp358
I98
aI99
aI104
aI103
asg48
I74
sg49
I00
sg50
g301
sg55
g302
sbsI75
g0
(g39
g2
Ntp359
Rp360
(dp361
g43
Nsg44
g45
sg46
(lp362
I53
aI100
aI105
aI59
asg48
I75
sg49
I00
sg50
g301
sg55
g302
sbsI76
g0
(g39
g2
Ntp363
Rp364
(dp365
g43
Nsg44
g45
sg46
(lp366
I100
aI101
aI106
aI105
asg48
I76
sg49
I00
sg50
g301
sg55
g302
sbsI77
g0
(g39
g2
Ntp367
Rp368
(dp369
g43
Nsg44
g45
sg46
(lp370
I101
aI102
aI107
aI106
asg48
I77
sg49
I00
sg50
g301
sg55
g302
sbsI78
g0
(g39
g2
Ntp371
Rp372
(dp373
g43
Nsg44
g45
sg46
(lp374
I102
aI103
aI108
aI107
asg48
I78
sg49
I00
sg50
g301
sg55
g302
sbsI79
g0
(g39
g2
Ntp375
Rp376
(dp377
g43
Nsg44
g45
sg46
(lp378
I103
aI104
aI109
aI108
asg48
I79
sg49
I00
sg50
g301
sg55
g302
sbsI80
g0
(g39
g2
Ntp379
Rp380
(dp381
g43
Nsg44
g45
sg46
(lp382
I64
aI110
aI115
aI69
asg48
I80
sg49
I00
sg50
(dp383
g52
Nsg53
Nsg54
Nssg55
S'elset_plate_5_element_prop'
p384
sbsI81
g0
(g39
g2
Ntp385
Rp386
(dp387
g43
Nsg44
g45
sg46
(lp388
I110
aI111
aI116
aI115
asg48
I81
sg49
I00
sg50
g383
sg55
g384
sbsI82
g0
(g39
g2
Ntp389
Rp390
(dp391
g43
Nsg44
g45
sg46
(lp392
I111
aI112
aI117
aI116
asg48
I82
sg49
I00
sg50
g383
sg55
g384
sbsI83
g0
(g39
g2
Ntp393
Rp394
(dp395
g43
Nsg44
g45
sg46
(lp396
I112
aI113
aI118
aI117
asg48
I83
sg49
I00
sg50
g383
sg55
g384
sbsI84
g0
(g39
g2
Ntp397
Rp398
(dp399
g43
Nsg44
g45
sg46
(lp400
I113
aI114
aI119
aI118
asg48
I84
sg49
I00
sg50
g383
sg55
g384
sbsI85
g0
(g39
g2
Ntp401
Rp402
(dp403
g43
Nsg44
g45
sg46
(lp404
I69
aI115
aI120
aI74
asg48
I85
sg49
I00
sg50
g383
sg55
g384
sbsI86
g0
(g39
g2
Ntp405
Rp406
(dp407
g43
Nsg44
g45
sg46
(lp408
I115
aI116
aI121
aI120
asg48
I86
sg49
I00
sg50
g383
sg55
g384
sbsI87
g0
(g39
g2
Ntp409
Rp410
(dp411
g43
Nsg44
g45
sg46
(lp412
I116
aI117
aI122
aI121
asg48
I87
sg49
I00
sg50
g383
sg55
g384
sbsI88
g0
(g39
g2
Ntp413
Rp414
(dp415
g43
Nsg44
g45
sg46
(lp416
I117
aI118
aI123
aI122
asg48
I88
sg49
I00
sg50
g383
sg55
g384
sbsI89
g0
(g39
g2
Ntp417
Rp418
(dp419
g43
Nsg44
g45
sg46
(lp420
I118
aI119
aI124
aI123
asg48
I89
sg49
I00
sg50
g383
sg55
g384
sbsI90
g0
(g39
g2
Ntp421
Rp422
(dp423
g43
Nsg44
g45
sg46
(lp424
I74
aI120
aI125
aI79
asg48
I90
sg49
I00
sg50
g383
sg55
g384
sbsI91
g0
(g39
g2
Ntp425
Rp426
(dp427
g43
Nsg44
g45
sg46
(lp428
I120
aI121
aI126
aI125
asg48
I91
sg49
I00
sg50
g383
sg55
g384
sbsI92
g0
(g39
g2
Ntp429
Rp430
(dp431
g43
Nsg44
g45
sg46
(lp432
I121
aI122
aI127
aI126
asg48
I92
sg49
I00
sg50
g383
sg55
g384
sbsI93
g0
(g39
g2
Ntp433
Rp434
(dp435
g43
Nsg44
g45
sg46
(lp436
I122
aI123
aI128
aI127
asg48
I93
sg49
I00
sg50
g383
sg55
g384
sbsI94
g0
(g39
g2
Ntp437
Rp438
(dp439
g43
Nsg44
g45
sg46
(lp440
I123
aI124
aI129
aI128
asg48
I94
sg49
I00
sg50
g383
sg55
g384
sbsI95
g0
(g39
g2
Ntp441
Rp442
(dp443
g43
Nsg44
g45
sg46
(lp444
I79
aI125
aI130
aI84
asg48
I95
sg49
I00
sg50
g383
sg55
g384
sbsI96
g0
(g39
g2
Ntp445
Rp446
(dp447
g43
Nsg44
g45
sg46
(lp448
I125
aI126
aI131
aI130
asg48
I96
sg49
I00
sg50
g383
sg55
g384
sbsI97
g0
(g39
g2
Ntp449
Rp450
(dp451
g43
Nsg44
g45
sg46
(lp452
I126
aI127
aI132
aI131
asg48
I97
sg49
I00
sg50
g383
sg55
g384
sbsI98
g0
(g39
g2
Ntp453
Rp454
(dp455
g43
Nsg44
g45
sg46
(lp456
I127
aI128
aI133
aI132
asg48
I98
sg49
I00
sg50
g383
sg55
g384
sbsI99
g0
(g39
g2
Ntp457
Rp458
(dp459
g43
Nsg44
g45
sg46
(lp460
I128
aI129
aI134
aI133
asg48
I99
sg49
I00
sg50
g383
sg55
g384
sbsI100
g0
(g39
g2
Ntp461
Rp462
(dp463
g43
Nsg44
g45
sg46
(lp464
I89
aI135
aI140
aI94
asg48
I100
sg49
I00
sg50
(dp465
g52
Nsg53
Nsg54
Nssg55
S'elset_plate_6_element_prop'
p466
sbsI101
g0
(g39
g2
Ntp467
Rp468
(dp469
g43
Nsg44
g45
sg46
(lp470
I135
aI136
aI141
aI140
asg48
I101
sg49
I00
sg50
g465
sg55
g466
sbsI102
g0
(g39
g2
Ntp471
Rp472
(dp473
g43
Nsg44
g45
sg46
(lp474
I136
aI137
aI142
aI141
asg48
I102
sg49
I00
sg50
g465
sg55
g466
sbsI103
g0
(g39
g2
Ntp475
Rp476
(dp477
g43
Nsg44
g45
sg46
(lp478
I137
aI138
aI143
aI142
asg48
I103
sg49
I00
sg50
g465
sg55
g466
sbsI104
g0
(g39
g2
Ntp479
Rp480
(dp481
g43
Nsg44
g45
sg46
(lp482
I138
aI139
aI144
aI143
asg48
I104
sg49
I00
sg50
g465
sg55
g466
sbsI105
g0
(g39
g2
Ntp483
Rp484
(dp485
g43
Nsg44
g45
sg46
(lp486
I94
aI140
aI145
aI99
asg48
I105
sg49
I00
sg50
g465
sg55
g466
sbsI106
g0
(g39
g2
Ntp487
Rp488
(dp489
g43
Nsg44
g45
sg46
(lp490
I140
aI141
aI146
aI145
asg48
I106
sg49
I00
sg50
g465
sg55
g466
sbsI107
g0
(g39
g2
Ntp491
Rp492
(dp493
g43
Nsg44
g45
sg46
(lp494
I141
aI142
aI147
aI146
asg48
I107
sg49
I00
sg50
g465
sg55
g466
sbsI108
g0
(g39
g2
Ntp495
Rp496
(dp497
g43
Nsg44
g45
sg46
(lp498
I142
aI143
aI148
aI147
asg48
I108
sg49
I00
sg50
g465
sg55
g466
sbsI109
g0
(g39
g2
Ntp499
Rp500
(dp501
g43
Nsg44
g45
sg46
(lp502
I143
aI144
aI149
aI148
asg48
I109
sg49
I00
sg50
g465
sg55
g466
sbsI110
g0
(g39
g2
Ntp503
Rp504
(dp505
g43
Nsg44
g45
sg46
(lp506
I99
aI145
aI150
aI104
asg48
I110
sg49
I00
sg50
g465
sg55
g466
sbsI111
g0
(g39
g2
Ntp507
Rp508
(dp509
g43
Nsg44
g45
sg46
(lp510
I145
aI146
aI151
aI150
asg48
I111
sg49
I00
sg50
g465
sg55
g466
sbsI112
g0
(g39
g2
Ntp511
Rp512
(dp513
g43
Nsg44
g45
sg46
(lp514
I146
aI147
aI152
aI151
asg48
I112
sg49
I00
sg50
g465
sg55
g466
sbsI113
g0
(g39
g2
Ntp515
Rp516
(dp517
g43
Nsg44
g45
sg46
(lp518
I147
aI148
aI153
aI152
asg48
I113
sg49
I00
sg50
g465
sg55
g466
sbsI114
g0
(g39
g2
Ntp519
Rp520
(dp521
g43
Nsg44
g45
sg46
(lp522
I148
aI149
aI154
aI153
asg48
I114
sg49
I00
sg50
g465
sg55
g466
sbsI115
g0
(g39
g2
Ntp523
Rp524
(dp525
g43
Nsg44
g45
sg46
(lp526
I104
aI150
aI155
aI109
asg48
I115
sg49
I00
sg50
g465
sg55
g466
sbsI116
g0
(g39
g2
Ntp527
Rp528
(dp529
g43
Nsg44
g45
sg46
(lp530
I150
aI151
aI156
aI155
asg48
I116
sg49
I00
sg50
g465
sg55
g466
sbsI117
g0
(g39
g2
Ntp531
Rp532
(dp533
g43
Nsg44
g45
sg46
(lp534
I151
aI152
aI157
aI156
asg48
I117
sg49
I00
sg50
g465
sg55
g466
sbsI118
g0
(g39
g2
Ntp535
Rp536
(dp537
g43
Nsg44
g45
sg46
(lp538
I152
aI153
aI158
aI157
asg48
I118
sg49
I00
sg50
g465
sg55
g466
sbsI119
g0
(g39
g2
Ntp539
Rp540
(dp541
g43
Nsg44
g45
sg46
(lp542
I153
aI154
aI159
aI158
asg48
I119
sg49
I00
sg50
g465
sg55
g466
sbsI120
g0
(g39
g2
Ntp543
Rp544
(dp545
g43
Nsg44
g45
sg46
(lp546
I24
aI25
aI161
aI160
asg48
I120
sg49
I00
sg50
(dp547
g52
Nsg53
Nsg54
Nssg55
S'elset_plate_7_element_prop'
p548
sbsI121
g0
(g39
g2
Ntp549
Rp550
(dp551
g43
Nsg44
g45
sg46
(lp552
I25
aI26
aI162
aI161
asg48
I121
sg49
I00
sg50
g547
sg55
g548
sbsI122
g0
(g39
g2
Ntp553
Rp554
(dp555
g43
Nsg44
g45
sg46
(lp556
I26
aI27
aI163
aI162
asg48
I122
sg49
I00
sg50
g547
sg55
g548
sbsI123
g0
(g39
g2
Ntp557
Rp558
(dp559
g43
Nsg44
g45
sg46
(lp560
I27
aI28
aI164
aI163
asg48
I123
sg49
I00
sg50
g547
sg55
g548
sbsI124
g0
(g39
g2
Ntp561
Rp562
(dp563
g43
Nsg44
g45
sg46
(lp564
I28
aI29
aI165
aI164
asg48
I124
sg49
I00
sg50
g547
sg55
g548
sbsI125
g0
(g39
g2
Ntp565
Rp566
(dp567
g43
Nsg44
g45
sg46
(lp568
I160
aI161
aI167
aI166
asg48
I125
sg49
I00
sg50
g547
sg55
g548
sbsI126
g0
(g39
g2
Ntp569
Rp570
(dp571
g43
Nsg44
g45
sg46
(lp572
I161
aI162
aI168
aI167
asg48
I126
sg49
I00
sg50
g547
sg55
g548
sbsI127
g0
(g39
g2
Ntp573
Rp574
(dp575
g43
Nsg44
g45
sg46
(lp576
I162
aI163
aI169
aI168
asg48
I127
sg49
I00
sg50
g547
sg55
g548
sbsI128
g0
(g39
g2
Ntp577
Rp578
(dp579
g43
Nsg44
g45
sg46
(lp580
I163
aI164
aI170
aI169
asg48
I128
sg49
I00
sg50
g547
sg55
g548
sbsI129
g0
(g39
g2
Ntp581
Rp582
(dp583
g43
Nsg44
g45
sg46
(lp584
I164
aI165
aI171
aI170
asg48
I129
sg49
I00
sg50
g547
sg55
g548
sbsI130
g0
(g39
g2
Ntp585
Rp586
(dp587
g43
Nsg44
g45
sg46
(lp588
I166
aI167
aI173
aI172
asg48
I130
sg49
I00
sg50
g547
sg55
g548
sbsI131
g0
(g39
g2
Ntp589
Rp590
(dp591
g43
Nsg44
g45
sg46
(lp592
I167
aI168
aI174
aI173
asg48
I131
sg49
I00
sg50
g547
sg55
g548
sbsI132
g0
(g39
g2
Ntp593
Rp594
(dp595
g43
Nsg44
g45
sg46
(lp596
I168
aI169
aI175
aI174
asg48
I132
sg49
I00
sg50
g547
sg55
g548
sbsI133
g0
(g39
g2
Ntp597
Rp598
(dp599
g43
Nsg44
g45
sg46
(lp600
I169
aI170
aI176
aI175
asg48
I133
sg49
I00
sg50
g547
sg55
g548
sbsI134
g0
(g39
g2
Ntp601
Rp602
(dp603
g43
Nsg44
g45
sg46
(lp604
I170
aI171
aI177
aI176
asg48
I134
sg49
I00
sg50
g547
sg55
g548
sbsI135
g0
(g39
g2
Ntp605
Rp606
(dp607
g43
Nsg44
g45
sg46
(lp608
I172
aI173
aI31
aI30
asg48
I135
sg49
I00
sg50
g547
sg55
g548
sbsI136
g0
(g39
g2
Ntp609
Rp610
(dp611
g43
Nsg44
g45
sg46
(lp612
I173
aI174
aI32
aI31
asg48
I136
sg49
I00
sg50
g547
sg55
g548
sbsI137
g0
(g39
g2
Ntp613
Rp614
(dp615
g43
Nsg44
g45
sg46
(lp616
I174
aI175
aI33
aI32
asg48
I137
sg49
I00
sg50
g547
sg55
g548
sbsI138
g0
(g39
g2
Ntp617
Rp618
(dp619
g43
Nsg44
g45
sg46
(lp620
I175
aI176
aI34
aI33
asg48
I138
sg49
I00
sg50
g547
sg55
g548
sbsI139
g0
(g39
g2
Ntp621
Rp622
(dp623
g43
Nsg44
g45
sg46
(lp624
I176
aI177
aI35
aI34
asg48
I139
sg49
I00
sg50
g547
sg55
g548
sbsI140
g0
(g39
g2
Ntp625
Rp626
(dp627
g43
Nsg44
g45
sg46
(lp628
I29
aI80
aI178
aI165
asg48
I140
sg49
I00
sg50
(dp629
g52
Nsg53
Nsg54
Nssg55
S'elset_plate_8_element_prop'
p630
sbsI141
g0
(g39
g2
Ntp631
Rp632
(dp633
g43
Nsg44
g45
sg46
(lp634
I80
aI81
aI179
aI178
asg48
I141
sg49
I00
sg50
g629
sg55
g630
sbsI142
g0
(g39
g2
Ntp635
Rp636
(dp637
g43
Nsg44
g45
sg46
(lp638
I81
aI82
aI180
aI179
asg48
I142
sg49
I00
sg50
g629
sg55
g630
sbsI143
g0
(g39
g2
Ntp639
Rp640
(dp641
g43
Nsg44
g45
sg46
(lp642
I82
aI83
aI181
aI180
asg48
I143
sg49
I00
sg50
g629
sg55
g630
sbsI144
g0
(g39
g2
Ntp643
Rp644
(dp645
g43
Nsg44
g45
sg46
(lp646
I83
aI84
aI182
aI181
asg48
I144
sg49
I00
sg50
g629
sg55
g630
sbsI145
g0
(g39
g2
Ntp647
Rp648
(dp649
g43
Nsg44
g45
sg46
(lp650
I165
aI178
aI183
aI171
asg48
I145
sg49
I00
sg50
g629
sg55
g630
sbsI146
g0
(g39
g2
Ntp651
Rp652
(dp653
g43
Nsg44
g45
sg46
(lp654
I178
aI179
aI184
aI183
asg48
I146
sg49
I00
sg50
g629
sg55
g630
sbsI147
g0
(g39
g2
Ntp655
Rp656
(dp657
g43
Nsg44
g45
sg46
(lp658
I179
aI180
aI185
aI184
asg48
I147
sg49
I00
sg50
g629
sg55
g630
sbsI148
g0
(g39
g2
Ntp659
Rp660
(dp661
g43
Nsg44
g45
sg46
(lp662
I180
aI181
aI186
aI185
asg48
I148
sg49
I00
sg50
g629
sg55
g630
sbsI149
g0
(g39
g2
Ntp663
Rp664
(dp665
g43
Nsg44
g45
sg46
(lp666
I181
aI182
aI187
aI186
asg48
I149
sg49
I00
sg50
g629
sg55
g630
sbsI150
g0
(g39
g2
Ntp667
Rp668
(dp669
g43
Nsg44
g45
sg46
(lp670
I171
aI183
aI188
aI177
asg48
I150
sg49
I00
sg50
g629
sg55
g630
sbsI151
g0
(g39
g2
Ntp671
Rp672
(dp673
g43
Nsg44
g45
sg46
(lp674
I183
aI184
aI189
aI188
asg48
I151
sg49
I00
sg50
g629
sg55
g630
sbsI152
g0
(g39
g2
Ntp675
Rp676
(dp677
g43
Nsg44
g45
sg46
(lp678
I184
aI185
aI190
aI189
asg48
I152
sg49
I00
sg50
g629
sg55
g630
sbsI153
g0
(g39
g2
Ntp679
Rp680
(dp681
g43
Nsg44
g45
sg46
(lp682
I185
aI186
aI191
aI190
asg48
I153
sg49
I00
sg50
g629
sg55
g630
sbsI154
g0
(g39
g2
Ntp683
Rp684
(dp685
g43
Nsg44
g45
sg46
(lp686
I186
aI187
aI192
aI191
asg48
I154
sg49
I00
sg50
g629
sg55
g630
sbsI155
g0
(g39
g2
Ntp687
Rp688
(dp689
g43
Nsg44
g45
sg46
(lp690
I177
aI188
aI85
aI35
asg48
I155
sg49
I00
sg50
g629
sg55
g630
sbsI156
g0
(g39
g2
Ntp691
Rp692
(dp693
g43
Nsg44
g45
sg46
(lp694
I188
aI189
aI86
aI85
asg48
I156
sg49
I00
sg50
g629
sg55
g630
sbsI157
g0
(g39
g2
Ntp695
Rp696
(dp697
g43
Nsg44
g45
sg46
(lp698
I189
aI190
aI87
aI86
asg48
I157
sg49
I00
sg50
g629
sg55
g630
sbsI158
g0
(g39
g2
Ntp699
Rp700
(dp701
g43
Nsg44
g45
sg46
(lp702
I190
aI191
aI88
aI87
asg48
I158
sg49
I00
sg50
g629
sg55
g630
sbsI159
g0
(g39
g2
Ntp703
Rp704
(dp705
g43
Nsg44
g45
sg46
(lp706
I191
aI192
aI89
aI88
asg48
I159
sg49
I00
sg50
g629
sg55
g630
sbsI160
g0
(g39
g2
Ntp707
Rp708
(dp709
g43
Nsg44
g45
sg46
(lp710
I84
aI130
aI193
aI182
asg48
I160
sg49
I00
sg50
(dp711
g52
Nsg53
Nsg54
Nssg55
S'elset_plate_9_element_prop'
p712
sbsI161
g0
(g39
g2
Ntp713
Rp714
(dp715
g43
Nsg44
g45
sg46
(lp716
I130
aI131
aI194
aI193
asg48
I161
sg49
I00
sg50
g711
sg55
g712
sbsI162
g0
(g39
g2
Ntp717
Rp718
(dp719
g43
Nsg44
g45
sg46
(lp720
I131
aI132
aI195
aI194
asg48
I162
sg49
I00
sg50
g711
sg55
g712
sbsI163
g0
(g39
g2
Ntp721
Rp722
(dp723
g43
Nsg44
g45
sg46
(lp724
I132
aI133
aI196
aI195
asg48
I163
sg49
I00
sg50
g711
sg55
g712
sbsI164
g0
(g39
g2
Ntp725
Rp726
(dp727
g43
Nsg44
g45
sg46
(lp728
I133
aI134
aI197
aI196
asg48
I164
sg49
I00
sg50
g711
sg55
g712
sbsI165
g0
(g39
g2
Ntp729
Rp730
(dp731
g43
Nsg44
g45
sg46
(lp732
I182
aI193
aI198
aI187
asg48
I165
sg49
I00
sg50
g711
sg55
g712
sbsI166
g0
(g39
g2
Ntp733
Rp734
(dp735
g43
Nsg44
g45
sg46
(lp736
I193
aI194
aI199
aI198
asg48
I166
sg49
I00
sg50
g711
sg55
g712
sbsI167
g0
(g39
g2
Ntp737
Rp738
(dp739
g43
Nsg44
g45
sg46
(lp740
I194
aI195
aI200
aI199
asg48
I167
sg49
I00
sg50
g711
sg55
g712
sbsI168
g0
(g39
g2
Ntp741
Rp742
(dp743
g43
Nsg44
g45
sg46
(lp744
I195
aI196
aI201
aI200
asg48
I168
sg49
I00
sg50
g711
sg55
g712
sbsI169
g0
(g39
g2
Ntp745
Rp746
(dp747
g43
Nsg44
g45
sg46
(lp748
I196
aI197
aI202
aI201
asg48
I169
sg49
I00
sg50
g711
sg55
g712
sbsI170
g0
(g39
g2
Ntp749
Rp750
(dp751
g43
Nsg44
g45
sg46
(lp752
I187
aI198
aI203
aI192
asg48
I170
sg49
I00
sg50
g711
sg55
g712
sbsI171
g0
(g39
g2
Ntp753
Rp754
(dp755
g43
Nsg44
g45
sg46
(lp756
I198
aI199
aI204
aI203
asg48
I171
sg49
I00
sg50
g711
sg55
g712
sbsI172
g0
(g39
g2
Ntp757
Rp758
(dp759
g43
Nsg44
g45
sg46
(lp760
I199
aI200
aI205
aI204
asg48
I172
sg49
I00
sg50
g711
sg55
g712
sbsI173
g0
(g39
g2
Ntp761
Rp762
(dp763
g43
Nsg44
g45
sg46
(lp764
I200
aI201
aI206
aI205
asg48
I173
sg49
I00
sg50
g711
sg55
g712
sbsI174
g0
(g39
g2
Ntp765
Rp766
(dp767
g43
Nsg44
g45
sg46
(lp768
I201
aI202
aI207
aI206
asg48
I174
sg49
I00
sg50
g711
sg55
g712
sbsI175
g0
(g39
g2
Ntp769
Rp770
(dp771
g43
Nsg44
g45
sg46
(lp772
I192
aI203
aI135
aI89
asg48
I175
sg49
I00
sg50
g711
sg55
g712
sbsI176
g0
(g39
g2
Ntp773
Rp774
(dp775
g43
Nsg44
g45
sg46
(lp776
I203
aI204
aI136
aI135
asg48
I176
sg49
I00
sg50
g711
sg55
g712
sbsI177
g0
(g39
g2
Ntp777
Rp778
(dp779
g43
Nsg44
g45
sg46
(lp780
I204
aI205
aI137
aI136
asg48
I177
sg49
I00
sg50
g711
sg55
g712
sbsI178
g0
(g39
g2
Ntp781
Rp782
(dp783
g43
Nsg44
g45
sg46
(lp784
I205
aI206
aI138
aI137
asg48
I178
sg49
I00
sg50
g711
sg55
g712
sbsI179
g0
(g39
g2
Ntp785
Rp786
(dp787
g43
Nsg44
g45
sg46
(lp788
I206
aI207
aI139
aI138
asg48
I179
sg49
I00
sg50
g711
sg55
g712
sbsI180
g0
(g39
g2
Ntp789
Rp790
(dp791
g43
Nsg44
g45
sg46
(lp792
I208
aI209
aI215
aI214
asg48
I180
sg49
I00
sg50
(dp793
g52
Nsg53
Nsg54
Nssg55
S'elset_wall_1_1_element_prop'
p794
sbsI181
g0
(g39
g2
Ntp795
Rp796
(dp797
g43
Nsg44
g45
sg46
(lp798
I209
aI210
aI216
aI215
asg48
I181
sg49
I00
sg50
g793
sg55
g794
sbsI182
g0
(g39
g2
Ntp799
Rp800
(dp801
g43
Nsg44
g45
sg46
(lp802
I210
aI211
aI217
aI216
asg48
I182
sg49
I00
sg50
g793
sg55
g794
sbsI183
g0
(g39
g2
Ntp803
Rp804
(dp805
g43
Nsg44
g45
sg46
(lp806
I211
aI212
aI218
aI217
asg48
I183
sg49
I00
sg50
g793
sg55
g794
sbsI184
g0
(g39
g2
Ntp807
Rp808
(dp809
g43
Nsg44
g45
sg46
(lp810
I212
aI213
aI219
aI218
asg48
I184
sg49
I00
sg50
g793
sg55
g794
sbsI185
g0
(g39
g2
Ntp811
Rp812
(dp813
g43
Nsg44
g45
sg46
(lp814
I214
aI215
aI221
aI220
asg48
I185
sg49
I00
sg50
g793
sg55
g794
sbsI186
g0
(g39
g2
Ntp815
Rp816
(dp817
g43
Nsg44
g45
sg46
(lp818
I215
aI216
aI222
aI221
asg48
I186
sg49
I00
sg50
g793
sg55
g794
sbsI187
g0
(g39
g2
Ntp819
Rp820
(dp821
g43
Nsg44
g45
sg46
(lp822
I216
aI217
aI223
aI222
asg48
I187
sg49
I00
sg50
g793
sg55
g794
sbsI188
g0
(g39
g2
Ntp823
Rp824
(dp825
g43
Nsg44
g45
sg46
(lp826
I217
aI218
aI224
aI223
asg48
I188
sg49
I00
sg50
g793
sg55
g794
sbsI189
g0
(g39
g2
Ntp827
Rp828
(dp829
g43
Nsg44
g45
sg46
(lp830
I218
aI219
aI225
aI224
asg48
I189
sg49
I00
sg50
g793
sg55
g794
sbsI190
g0
(g39
g2
Ntp831
Rp832
(dp833
g43
Nsg44
g45
sg46
(lp834
I213
aI226
aI231
aI219
asg48
I190
sg49
I00
sg50
(dp835
g52
Nsg53
Nsg54
Nssg55
S'elset_wall_1_2_element_prop'
p836
sbsI191
g0
(g39
g2
Ntp837
Rp838
(dp839
g43
Nsg44
g45
sg46
(lp840
I226
aI227
aI232
aI231
asg48
I191
sg49
I00
sg50
g835
sg55
g836
sbsI192
g0
(g39
g2
Ntp841
Rp842
(dp843
g43
Nsg44
g45
sg46
(lp844
I227
aI228
aI233
aI232
asg48
I192
sg49
I00
sg50
g835
sg55
g836
sbsI193
g0
(g39
g2
Ntp845
Rp846
(dp847
g43
Nsg44
g45
sg46
(lp848
I228
aI229
aI234
aI233
asg48
I193
sg49
I00
sg50
g835
sg55
g836
sbsI194
g0
(g39
g2
Ntp849
Rp850
(dp851
g43
Nsg44
g45
sg46
(lp852
I229
aI230
aI235
aI234
asg48
I194
sg49
I00
sg50
g835
sg55
g836
sbsI195
g0
(g39
g2
Ntp853
Rp854
(dp855
g43
Nsg44
g45
sg46
(lp856
I219
aI231
aI236
aI225
asg48
I195
sg49
I00
sg50
g835
sg55
g836
sbsI196
g0
(g39
g2
Ntp857
Rp858
(dp859
g43
Nsg44
g45
sg46
(lp860
I231
aI232
aI237
aI236
asg48
I196
sg49
I00
sg50
g835
sg55
g836
sbsI197
g0
(g39
g2
Ntp861
Rp862
(dp863
g43
Nsg44
g45
sg46
(lp864
I232
aI233
aI238
aI237
asg48
I197
sg49
I00
sg50
g835
sg55
g836
sbsI198
g0
(g39
g2
Ntp865
Rp866
(dp867
g43
Nsg44
g45
sg46
(lp868
I233
aI234
aI239
aI238
asg48
I198
sg49
I00
sg50
g835
sg55
g836
sbsI199
g0
(g39
g2
Ntp869
Rp870
(dp871
g43
Nsg44
g45
sg46
(lp872
I234
aI235
aI240
aI239
asg48
I199
sg49
I00
sg50
g835
sg55
g836
sbsI200
g0
(g39
g2
Ntp873
Rp874
(dp875
g43
Nsg44
g45
sg46
(lp876
I230
aI241
aI246
aI235
asg48
I200
sg49
I00
sg50
(dp877
g52
Nsg53
Nsg54
Nssg55
S'elset_wall_1_3_element_prop'
p878
sbsI201
g0
(g39
g2
Ntp879
Rp880
(dp881
g43
Nsg44
g45
sg46
(lp882
I241
aI242
aI247
aI246
asg48
I201
sg49
I00
sg50
g877
sg55
g878
sbsI202
g0
(g39
g2
Ntp883
Rp884
(dp885
g43
Nsg44
g45
sg46
(lp886
I242
aI243
aI248
aI247
asg48
I202
sg49
I00
sg50
g877
sg55
g878
sbsI203
g0
(g39
g2
Ntp887
Rp888
(dp889
g43
Nsg44
g45
sg46
(lp890
I243
aI244
aI249
aI248
asg48
I203
sg49
I00
sg50
g877
sg55
g878
sbsI204
g0
(g39
g2
Ntp891
Rp892
(dp893
g43
Nsg44
g45
sg46
(lp894
I244
aI245
aI250
aI249
asg48
I204
sg49
I00
sg50
g877
sg55
g878
sbsI205
g0
(g39
g2
Ntp895
Rp896
(dp897
g43
Nsg44
g45
sg46
(lp898
I235
aI246
aI251
aI240
asg48
I205
sg49
I00
sg50
g877
sg55
g878
sbsI206
g0
(g39
g2
Ntp899
Rp900
(dp901
g43
Nsg44
g45
sg46
(lp902
I246
aI247
aI252
aI251
asg48
I206
sg49
I00
sg50
g877
sg55
g878
sbsI207
g0
(g39
g2
Ntp903
Rp904
(dp905
g43
Nsg44
g45
sg46
(lp906
I247
aI248
aI253
aI252
asg48
I207
sg49
I00
sg50
g877
sg55
g878
sbsI208
g0
(g39
g2
Ntp907
Rp908
(dp909
g43
Nsg44
g45
sg46
(lp910
I248
aI249
aI254
aI253
asg48
I208
sg49
I00
sg50
g877
sg55
g878
sbsI209
g0
(g39
g2
Ntp911
Rp912
(dp913
g43
Nsg44
g45
sg46
(lp914
I249
aI250
aI255
aI254
asg48
I209
sg49
I00
sg50
g877
sg55
g878
sbsI210
g0
(g39
g2
Ntp915
Rp916
(dp917
g43
Nsg44
g45
sg46
(lp918
I256
aI257
aI263
aI262
asg48
I210
sg49
I00
sg50
(dp919
g52
Nsg53
Nsg54
Nssg55
S'elset_wall_1_4_element_prop'
p920
sbsI211
g0
(g39
g2
Ntp921
Rp922
(dp923
g43
Nsg44
g45
sg46
(lp924
I257
aI258
aI264
aI263
asg48
I211
sg49
I00
sg50
g919
sg55
g920
sbsI212
g0
(g39
g2
Ntp925
Rp926
(dp927
g43
Nsg44
g45
sg46
(lp928
I258
aI259
aI265
aI264
asg48
I212
sg49
I00
sg50
g919
sg55
g920
sbsI213
g0
(g39
g2
Ntp929
Rp930
(dp931
g43
Nsg44
g45
sg46
(lp932
I259
aI260
aI266
aI265
asg48
I213
sg49
I00
sg50
g919
sg55
g920
sbsI214
g0
(g39
g2
Ntp933
Rp934
(dp935
g43
Nsg44
g45
sg46
(lp936
I260
aI261
aI267
aI266
asg48
I214
sg49
I00
sg50
g919
sg55
g920
sbsI215
g0
(g39
g2
Ntp937
Rp938
(dp939
g43
Nsg44
g45
sg46
(lp940
I262
aI263
aI209
aI208
asg48
I215
sg49
I00
sg50
g919
sg55
g920
sbsI216
g0
(g39
g2
Ntp941
Rp942
(dp943
g43
Nsg44
g45
sg46
(lp944
I263
aI264
aI210
aI209
asg48
I216
sg49
I00
sg50
g919
sg55
g920
sbsI217
g0
(g39
g2
Ntp945
Rp946
(dp947
g43
Nsg44
g45
sg46
(lp948
I264
aI265
aI211
aI210
asg48
I217
sg49
I00
sg50
g919
sg55
g920
sbsI218
g0
(g39
g2
Ntp949
Rp950
(dp951
g43
Nsg44
g45
sg46
(lp952
I265
aI266
aI212
aI211
asg48
I218
sg49
I00
sg50
g919
sg55
g920
sbsI219
g0
(g39
g2
Ntp953
Rp954
(dp955
g43
Nsg44
g45
sg46
(lp956
I266
aI267
aI213
aI212
asg48
I219
sg49
I00
sg50
g919
sg55
g920
sbsI220
g0
(g39
g2
Ntp957
Rp958
(dp959
g43
Nsg44
g45
sg46
(lp960
I261
aI268
aI273
aI267
asg48
I220
sg49
I00
sg50
(dp961
g52
Nsg53
Nsg54
Nssg55
S'elset_wall_1_5_element_prop'
p962
sbsI221
g0
(g39
g2
Ntp963
Rp964
(dp965
g43
Nsg44
g45
sg46
(lp966
I268
aI269
aI274
aI273
asg48
I221
sg49
I00
sg50
g961
sg55
g962
sbsI222
g0
(g39
g2
Ntp967
Rp968
(dp969
g43
Nsg44
g45
sg46
(lp970
I269
aI270
aI275
aI274
asg48
I222
sg49
I00
sg50
g961
sg55
g962
sbsI223
g0
(g39
g2
Ntp971
Rp972
(dp973
g43
Nsg44
g45
sg46
(lp974
I270
aI271
aI276
aI275
asg48
I223
sg49
I00
sg50
g961
sg55
g962
sbsI224
g0
(g39
g2
Ntp975
Rp976
(dp977
g43
Nsg44
g45
sg46
(lp978
I271
aI272
aI277
aI276
asg48
I224
sg49
I00
sg50
g961
sg55
g962
sbsI225
g0
(g39
g2
Ntp979
Rp980
(dp981
g43
Nsg44
g45
sg46
(lp982
I267
aI273
aI226
aI213
asg48
I225
sg49
I00
sg50
g961
sg55
g962
sbsI226
g0
(g39
g2
Ntp983
Rp984
(dp985
g43
Nsg44
g45
sg46
(lp986
I273
aI274
aI227
aI226
asg48
I226
sg49
I00
sg50
g961
sg55
g962
sbsI227
g0
(g39
g2
Ntp987
Rp988
(dp989
g43
Nsg44
g45
sg46
(lp990
I274
aI275
aI228
aI227
asg48
I227
sg49
I00
sg50
g961
sg55
g962
sbsI228
g0
(g39
g2
Ntp991
Rp992
(dp993
g43
Nsg44
g45
sg46
(lp994
I275
aI276
aI229
aI228
asg48
I228
sg49
I00
sg50
g961
sg55
g962
sbsI229
g0
(g39
g2
Ntp995
Rp996
(dp997
g43
Nsg44
g45
sg46
(lp998
I276
aI277
aI230
aI229
asg48
I229
sg49
I00
sg50
g961
sg55
g962
sbsI230
g0
(g39
g2
Ntp999
Rp1000
(dp1001
g43
Nsg44
g45
sg46
(lp1002
I272
aI278
aI283
aI277
asg48
I230
sg49
I00
sg50
(dp1003
g52
Nsg53
Nsg54
Nssg55
S'elset_wall_1_6_element_prop'
p1004
sbsI231
g0
(g39
g2
Ntp1005
Rp1006
(dp1007
g43
Nsg44
g45
sg46
(lp1008
I278
aI279
aI284
aI283
asg48
I231
sg49
I00
sg50
g1003
sg55
g1004
sbsI232
g0
(g39
g2
Ntp1009
Rp1010
(dp1011
g43
Nsg44
g45
sg46
(lp1012
I279
aI280
aI285
aI284
asg48
I232
sg49
I00
sg50
g1003
sg55
g1004
sbsI233
g0
(g39
g2
Ntp1013
Rp1014
(dp1015
g43
Nsg44
g45
sg46
(lp1016
I280
aI281
aI286
aI285
asg48
I233
sg49
I00
sg50
g1003
sg55
g1004
sbsI234
g0
(g39
g2
Ntp1017
Rp1018
(dp1019
g43
Nsg44
g45
sg46
(lp1020
I281
aI282
aI287
aI286
asg48
I234
sg49
I00
sg50
g1003
sg55
g1004
sbsI235
g0
(g39
g2
Ntp1021
Rp1022
(dp1023
g43
Nsg44
g45
sg46
(lp1024
I277
aI283
aI241
aI230
asg48
I235
sg49
I00
sg50
g1003
sg55
g1004
sbsI236
g0
(g39
g2
Ntp1025
Rp1026
(dp1027
g43
Nsg44
g45
sg46
(lp1028
I283
aI284
aI242
aI241
asg48
I236
sg49
I00
sg50
g1003
sg55
g1004
sbsI237
g0
(g39
g2
Ntp1029
Rp1030
(dp1031
g43
Nsg44
g45
sg46
(lp1032
I284
aI285
aI243
aI242
asg48
I237
sg49
I00
sg50
g1003
sg55
g1004
sbsI238
g0
(g39
g2
Ntp1033
Rp1034
(dp1035
g43
Nsg44
g45
sg46
(lp1036
I285
aI286
aI244
aI243
asg48
I238
sg49
I00
sg50
g1003
sg55
g1004
sbsI239
g0
(g39
g2
Ntp1037
Rp1038
(dp1039
g43
Nsg44
g45
sg46
(lp1040
I286
aI287
aI245
aI244
asg48
I239
sg49
I00
sg50
g1003
sg55
g1004
sbsI240
g0
(g39
g2
Ntp1041
Rp1042
(dp1043
g43
Nsg44
g45
sg46
(lp1044
I288
aI289
aI295
aI294
asg48
I240
sg49
I00
sg50
(dp1045
g52
Nsg53
Nsg54
Nssg55
S'elset_wall_1_7_element_prop'
p1046
sbsI241
g0
(g39
g2
Ntp1047
Rp1048
(dp1049
g43
Nsg44
g45
sg46
(lp1050
I289
aI290
aI296
aI295
asg48
I241
sg49
I00
sg50
g1045
sg55
g1046
sbsI242
g0
(g39
g2
Ntp1051
Rp1052
(dp1053
g43
Nsg44
g45
sg46
(lp1054
I290
aI291
aI297
aI296
asg48
I242
sg49
I00
sg50
g1045
sg55
g1046
sbsI243
g0
(g39
g2
Ntp1055
Rp1056
(dp1057
g43
Nsg44
g45
sg46
(lp1058
I291
aI292
aI298
aI297
asg48
I243
sg49
I00
sg50
g1045
sg55
g1046
sbsI244
g0
(g39
g2
Ntp1059
Rp1060
(dp1061
g43
Nsg44
g45
sg46
(lp1062
I292
aI293
aI299
aI298
asg48
I244
sg49
I00
sg50
g1045
sg55
g1046
sbsI245
g0
(g39
g2
Ntp1063
Rp1064
(dp1065
g43
Nsg44
g45
sg46
(lp1066
I294
aI295
aI257
aI256
asg48
I245
sg49
I00
sg50
g1045
sg55
g1046
sbsI246
g0
(g39
g2
Ntp1067
Rp1068
(dp1069
g43
Nsg44
g45
sg46
(lp1070
I295
aI296
aI258
aI257
asg48
I246
sg49
I00
sg50
g1045
sg55
g1046
sbsI247
g0
(g39
g2
Ntp1071
Rp1072
(dp1073
g43
Nsg44
g45
sg46
(lp1074
I296
aI297
aI259
aI258
asg48
I247
sg49
I00
sg50
g1045
sg55
g1046
sbsI248
g0
(g39
g2
Ntp1075
Rp1076
(dp1077
g43
Nsg44
g45
sg46
(lp1078
I297
aI298
aI260
aI259
asg48
I248
sg49
I00
sg50
g1045
sg55
g1046
sbsI249
g0
(g39
g2
Ntp1079
Rp1080
(dp1081
g43
Nsg44
g45
sg46
(lp1082
I298
aI299
aI261
aI260
asg48
I249
sg49
I00
sg50
g1045
sg55
g1046
sbsI250
g0
(g39
g2
Ntp1083
Rp1084
(dp1085
g43
Nsg44
g45
sg46
(lp1086
I293
aI300
aI305
aI299
asg48
I250
sg49
I00
sg50
(dp1087
g52
Nsg53
Nsg54
Nssg55
S'elset_wall_1_8_element_prop'
p1088
sbsI251
g0
(g39
g2
Ntp1089
Rp1090
(dp1091
g43
Nsg44
g45
sg46
(lp1092
I300
aI301
aI306
aI305
asg48
I251
sg49
I00
sg50
g1087
sg55
g1088
sbsI252
g0
(g39
g2
Ntp1093
Rp1094
(dp1095
g43
Nsg44
g45
sg46
(lp1096
I301
aI302
aI307
aI306
asg48
I252
sg49
I00
sg50
g1087
sg55
g1088
sbsI253
g0
(g39
g2
Ntp1097
Rp1098
(dp1099
g43
Nsg44
g45
sg46
(lp1100
I302
aI303
aI308
aI307
asg48
I253
sg49
I00
sg50
g1087
sg55
g1088
sbsI254
g0
(g39
g2
Ntp1101
Rp1102
(dp1103
g43
Nsg44
g45
sg46
(lp1104
I303
aI304
aI309
aI308
asg48
I254
sg49
I00
sg50
g1087
sg55
g1088
sbsI255
g0
(g39
g2
Ntp1105
Rp1106
(dp1107
g43
Nsg44
g45
sg46
(lp1108
I299
aI305
aI268
aI261
asg48
I255
sg49
I00
sg50
g1087
sg55
g1088
sbsI256
g0
(g39
g2
Ntp1109
Rp1110
(dp1111
g43
Nsg44
g45
sg46
(lp1112
I305
aI306
aI269
aI268
asg48
I256
sg49
I00
sg50
g1087
sg55
g1088
sbsI257
g0
(g39
g2
Ntp1113
Rp1114
(dp1115
g43
Nsg44
g45
sg46
(lp1116
I306
aI307
aI270
aI269
asg48
I257
sg49
I00
sg50
g1087
sg55
g1088
sbsI258
g0
(g39
g2
Ntp1117
Rp1118
(dp1119
g43
Nsg44
g45
sg46
(lp1120
I307
aI308
aI271
aI270
asg48
I258
sg49
I00
sg50
g1087
sg55
g1088
sbsI259
g0
(g39
g2
Ntp1121
Rp1122
(dp1123
g43
Nsg44
g45
sg46
(lp1124
I308
aI309
aI272
aI271
asg48
I259
sg49
I00
sg50
g1087
sg55
g1088
sbsI260
g0
(g39
g2
Ntp1125
Rp1126
(dp1127
g43
Nsg44
g45
sg46
(lp1128
I304
aI310
aI315
aI309
asg48
I260
sg49
I00
sg50
(dp1129
g52
Nsg53
Nsg54
Nssg55
S'elset_wall_1_9_element_prop'
p1130
sbsI261
g0
(g39
g2
Ntp1131
Rp1132
(dp1133
g43
Nsg44
g45
sg46
(lp1134
I310
aI311
aI316
aI315
asg48
I261
sg49
I00
sg50
g1129
sg55
g1130
sbsI262
g0
(g39
g2
Ntp1135
Rp1136
(dp1137
g43
Nsg44
g45
sg46
(lp1138
I311
aI312
aI317
aI316
asg48
I262
sg49
I00
sg50
g1129
sg55
g1130
sbsI263
g0
(g39
g2
Ntp1139
Rp1140
(dp1141
g43
Nsg44
g45
sg46
(lp1142
I312
aI313
aI318
aI317
asg48
I263
sg49
I00
sg50
g1129
sg55
g1130
sbsI264
g0
(g39
g2
Ntp1143
Rp1144
(dp1145
g43
Nsg44
g45
sg46
(lp1146
I313
aI314
aI319
aI318
asg48
I264
sg49
I00
sg50
g1129
sg55
g1130
sbsI265
g0
(g39
g2
Ntp1147
Rp1148
(dp1149
g43
Nsg44
g45
sg46
(lp1150
I309
aI315
aI278
aI272
asg48
I265
sg49
I00
sg50
g1129
sg55
g1130
sbsI266
g0
(g39
g2
Ntp1151
Rp1152
(dp1153
g43
Nsg44
g45
sg46
(lp1154
I315
aI316
aI279
aI278
asg48
I266
sg49
I00
sg50
g1129
sg55
g1130
sbsI267
g0
(g39
g2
Ntp1155
Rp1156
(dp1157
g43
Nsg44
g45
sg46
(lp1158
I316
aI317
aI280
aI279
asg48
I267
sg49
I00
sg50
g1129
sg55
g1130
sbsI268
g0
(g39
g2
Ntp1159
Rp1160
(dp1161
g43
Nsg44
g45
sg46
(lp1162
I317
aI318
aI281
aI280
asg48
I268
sg49
I00
sg50
g1129
sg55
g1130
sbsI269
g0
(g39
g2
Ntp1163
Rp1164
(dp1165
g43
Nsg44
g45
sg46
(lp1166
I318
aI319
aI282
aI281
asg48
I269
sg49
I00
sg50
g1129
sg55
g1130
sbsI270
g0
(g39
g2
Ntp1167
Rp1168
(dp1169
g43
Nsg44
g45
sg46
(lp1170
I320
aI326
aI327
aI321
asg48
I270
sg49
I00
sg50
(dp1171
g52
Nsg53
Nsg54
Nssg55
S'elset_wall_2_1_element_prop'
p1172
sbsI271
g0
(g39
g2
Ntp1173
Rp1174
(dp1175
g43
Nsg44
g45
sg46
(lp1176
I321
aI327
aI328
aI322
asg48
I271
sg49
I00
sg50
g1171
sg55
g1172
sbsI272
g0
(g39
g2
Ntp1177
Rp1178
(dp1179
g43
Nsg44
g45
sg46
(lp1180
I322
aI328
aI329
aI323
asg48
I272
sg49
I00
sg50
g1171
sg55
g1172
sbsI273
g0
(g39
g2
Ntp1181
Rp1182
(dp1183
g43
Nsg44
g45
sg46
(lp1184
I323
aI329
aI330
aI324
asg48
I273
sg49
I00
sg50
g1171
sg55
g1172
sbsI274
g0
(g39
g2
Ntp1185
Rp1186
(dp1187
g43
Nsg44
g45
sg46
(lp1188
I324
aI330
aI331
aI325
asg48
I274
sg49
I00
sg50
g1171
sg55
g1172
sbsI275
g0
(g39
g2
Ntp1189
Rp1190
(dp1191
g43
Nsg44
g45
sg46
(lp1192
I326
aI332
aI333
aI327
asg48
I275
sg49
I00
sg50
g1171
sg55
g1172
sbsI276
g0
(g39
g2
Ntp1193
Rp1194
(dp1195
g43
Nsg44
g45
sg46
(lp1196
I327
aI333
aI334
aI328
asg48
I276
sg49
I00
sg50
g1171
sg55
g1172
sbsI277
g0
(g39
g2
Ntp1197
Rp1198
(dp1199
g43
Nsg44
g45
sg46
(lp1200
I328
aI334
aI335
aI329
asg48
I277
sg49
I00
sg50
g1171
sg55
g1172
sbsI278
g0
(g39
g2
Ntp1201
Rp1202
(dp1203
g43
Nsg44
g45
sg46
(lp1204
I329
aI335
aI336
aI330
asg48
I278
sg49
I00
sg50
g1171
sg55
g1172
sbsI279
g0
(g39
g2
Ntp1205
Rp1206
(dp1207
g43
Nsg44
g45
sg46
(lp1208
I330
aI336
aI337
aI331
asg48
I279
sg49
I00
sg50
g1171
sg55
g1172
sbsI280
g0
(g39
g2
Ntp1209
Rp1210
(dp1211
g43
Nsg44
g45
sg46
(lp1212
I325
aI331
aI343
aI338
asg48
I280
sg49
I00
sg50
(dp1213
g52
Nsg53
Nsg54
Nssg55
S'elset_wall_2_2_element_prop'
p1214
sbsI281
g0
(g39
g2
Ntp1215
Rp1216
(dp1217
g43
Nsg44
g45
sg46
(lp1218
I338
aI343
aI344
aI339
asg48
I281
sg49
I00
sg50
g1213
sg55
g1214
sbsI282
g0
(g39
g2
Ntp1219
Rp1220
(dp1221
g43
Nsg44
g45
sg46
(lp1222
I339
aI344
aI345
aI340
asg48
I282
sg49
I00
sg50
g1213
sg55
g1214
sbsI283
g0
(g39
g2
Ntp1223
Rp1224
(dp1225
g43
Nsg44
g45
sg46
(lp1226
I340
aI345
aI346
aI341
asg48
I283
sg49
I00
sg50
g1213
sg55
g1214
sbsI284
g0
(g39
g2
Ntp1227
Rp1228
(dp1229
g43
Nsg44
g45
sg46
(lp1230
I341
aI346
aI347
aI342
asg48
I284
sg49
I00
sg50
g1213
sg55
g1214
sbsI285
g0
(g39
g2
Ntp1231
Rp1232
(dp1233
g43
Nsg44
g45
sg46
(lp1234
I331
aI337
aI348
aI343
asg48
I285
sg49
I00
sg50
g1213
sg55
g1214
sbsI286
g0
(g39
g2
Ntp1235
Rp1236
(dp1237
g43
Nsg44
g45
sg46
(lp1238
I343
aI348
aI349
aI344
asg48
I286
sg49
I00
sg50
g1213
sg55
g1214
sbsI287
g0
(g39
g2
Ntp1239
Rp1240
(dp1241
g43
Nsg44
g45
sg46
(lp1242
I344
aI349
aI350
aI345
asg48
I287
sg49
I00
sg50
g1213
sg55
g1214
sbsI288
g0
(g39
g2
Ntp1243
Rp1244
(dp1245
g43
Nsg44
g45
sg46
(lp1246
I345
aI350
aI351
aI346
asg48
I288
sg49
I00
sg50
g1213
sg55
g1214
sbsI289
g0
(g39
g2
Ntp1247
Rp1248
(dp1249
g43
Nsg44
g45
sg46
(lp1250
I346
aI351
aI352
aI347
asg48
I289
sg49
I00
sg50
g1213
sg55
g1214
sbsI290
g0
(g39
g2
Ntp1251
Rp1252
(dp1253
g43
Nsg44
g45
sg46
(lp1254
I342
aI347
aI358
aI353
asg48
I290
sg49
I00
sg50
(dp1255
g52
Nsg53
Nsg54
Nssg55
S'elset_wall_2_3_element_prop'
p1256
sbsI291
g0
(g39
g2
Ntp1257
Rp1258
(dp1259
g43
Nsg44
g45
sg46
(lp1260
I353
aI358
aI359
aI354
asg48
I291
sg49
I00
sg50
g1255
sg55
g1256
sbsI292
g0
(g39
g2
Ntp1261
Rp1262
(dp1263
g43
Nsg44
g45
sg46
(lp1264
I354
aI359
aI360
aI355
asg48
I292
sg49
I00
sg50
g1255
sg55
g1256
sbsI293
g0
(g39
g2
Ntp1265
Rp1266
(dp1267
g43
Nsg44
g45
sg46
(lp1268
I355
aI360
aI361
aI356
asg48
I293
sg49
I00
sg50
g1255
sg55
g1256
sbsI294
g0
(g39
g2
Ntp1269
Rp1270
(dp1271
g43
Nsg44
g45
sg46
(lp1272
I356
aI361
aI362
aI357
asg48
I294
sg49
I00
sg50
g1255
sg55
g1256
sbsI295
g0
(g39
g2
Ntp1273
Rp1274
(dp1275
g43
Nsg44
g45
sg46
(lp1276
I347
aI352
aI363
aI358
asg48
I295
sg49
I00
sg50
g1255
sg55
g1256
sbsI296
g0
(g39
g2
Ntp1277
Rp1278
(dp1279
g43
Nsg44
g45
sg46
(lp1280
I358
aI363
aI364
aI359
asg48
I296
sg49
I00
sg50
g1255
sg55
g1256
sbsI297
g0
(g39
g2
Ntp1281
Rp1282
(dp1283
g43
Nsg44
g45
sg46
(lp1284
I359
aI364
aI365
aI360
asg48
I297
sg49
I00
sg50
g1255
sg55
g1256
sbsI298
g0
(g39
g2
Ntp1285
Rp1286
(dp1287
g43
Nsg44
g45
sg46
(lp1288
I360
aI365
aI366
aI361
asg48
I298
sg49
I00
sg50
g1255
sg55
g1256
sbsI299
g0
(g39
g2
Ntp1289
Rp1290
(dp1291
g43
Nsg44
g45
sg46
(lp1292
I361
aI366
aI367
aI362
asg48
I299
sg49
I00
sg50
g1255
sg55
g1256
sbsI300
g0
(g39
g2
Ntp1293
Rp1294
(dp1295
g43
Nsg44
g45
sg46
(lp1296
I368
aI374
aI375
aI369
asg48
I300
sg49
I00
sg50
(dp1297
g52
Nsg53
Nsg54
Nssg55
S'elset_wall_2_4_element_prop'
p1298
sbsI301
g0
(g39
g2
Ntp1299
Rp1300
(dp1301
g43
Nsg44
g45
sg46
(lp1302
I369
aI375
aI376
aI370
asg48
I301
sg49
I00
sg50
g1297
sg55
g1298
sbsI302
g0
(g39
g2
Ntp1303
Rp1304
(dp1305
g43
Nsg44
g45
sg46
(lp1306
I370
aI376
aI377
aI371
asg48
I302
sg49
I00
sg50
g1297
sg55
g1298
sbsI303
g0
(g39
g2
Ntp1307
Rp1308
(dp1309
g43
Nsg44
g45
sg46
(lp1310
I371
aI377
aI378
aI372
asg48
I303
sg49
I00
sg50
g1297
sg55
g1298
sbsI304
g0
(g39
g2
Ntp1311
Rp1312
(dp1313
g43
Nsg44
g45
sg46
(lp1314
I372
aI378
aI379
aI373
asg48
I304
sg49
I00
sg50
g1297
sg55
g1298
sbsI305
g0
(g39
g2
Ntp1315
Rp1316
(dp1317
g43
Nsg44
g45
sg46
(lp1318
I374
aI320
aI321
aI375
asg48
I305
sg49
I00
sg50
g1297
sg55
g1298
sbsI306
g0
(g39
g2
Ntp1319
Rp1320
(dp1321
g43
Nsg44
g45
sg46
(lp1322
I375
aI321
aI322
aI376
asg48
I306
sg49
I00
sg50
g1297
sg55
g1298
sbsI307
g0
(g39
g2
Ntp1323
Rp1324
(dp1325
g43
Nsg44
g45
sg46
(lp1326
I376
aI322
aI323
aI377
asg48
I307
sg49
I00
sg50
g1297
sg55
g1298
sbsI308
g0
(g39
g2
Ntp1327
Rp1328
(dp1329
g43
Nsg44
g45
sg46
(lp1330
I377
aI323
aI324
aI378
asg48
I308
sg49
I00
sg50
g1297
sg55
g1298
sbsI309
g0
(g39
g2
Ntp1331
Rp1332
(dp1333
g43
Nsg44
g45
sg46
(lp1334
I378
aI324
aI325
aI379
asg48
I309
sg49
I00
sg50
g1297
sg55
g1298
sbsI310
g0
(g39
g2
Ntp1335
Rp1336
(dp1337
g43
Nsg44
g45
sg46
(lp1338
I373
aI379
aI385
aI380
asg48
I310
sg49
I00
sg50
(dp1339
g52
Nsg53
Nsg54
Nssg55
S'elset_wall_2_5_element_prop'
p1340
sbsI311
g0
(g39
g2
Ntp1341
Rp1342
(dp1343
g43
Nsg44
g45
sg46
(lp1344
I380
aI385
aI386
aI381
asg48
I311
sg49
I00
sg50
g1339
sg55
g1340
sbsI312
g0
(g39
g2
Ntp1345
Rp1346
(dp1347
g43
Nsg44
g45
sg46
(lp1348
I381
aI386
aI387
aI382
asg48
I312
sg49
I00
sg50
g1339
sg55
g1340
sbsI313
g0
(g39
g2
Ntp1349
Rp1350
(dp1351
g43
Nsg44
g45
sg46
(lp1352
I382
aI387
aI388
aI383
asg48
I313
sg49
I00
sg50
g1339
sg55
g1340
sbsI314
g0
(g39
g2
Ntp1353
Rp1354
(dp1355
g43
Nsg44
g45
sg46
(lp1356
I383
aI388
aI389
aI384
asg48
I314
sg49
I00
sg50
g1339
sg55
g1340
sbsI315
g0
(g39
g2
Ntp1357
Rp1358
(dp1359
g43
Nsg44
g45
sg46
(lp1360
I379
aI325
aI338
aI385
asg48
I315
sg49
I00
sg50
g1339
sg55
g1340
sbsI316
g0
(g39
g2
Ntp1361
Rp1362
(dp1363
g43
Nsg44
g45
sg46
(lp1364
I385
aI338
aI339
aI386
asg48
I316
sg49
I00
sg50
g1339
sg55
g1340
sbsI317
g0
(g39
g2
Ntp1365
Rp1366
(dp1367
g43
Nsg44
g45
sg46
(lp1368
I386
aI339
aI340
aI387
asg48
I317
sg49
I00
sg50
g1339
sg55
g1340
sbsI318
g0
(g39
g2
Ntp1369
Rp1370
(dp1371
g43
Nsg44
g45
sg46
(lp1372
I387
aI340
aI341
aI388
asg48
I318
sg49
I00
sg50
g1339
sg55
g1340
sbsI319
g0
(g39
g2
Ntp1373
Rp1374
(dp1375
g43
Nsg44
g45
sg46
(lp1376
I388
aI341
aI342
aI389
asg48
I319
sg49
I00
sg50
g1339
sg55
g1340
sbsI320
g0
(g39
g2
Ntp1377
Rp1378
(dp1379
g43
Nsg44
g45
sg46
(lp1380
I384
aI389
aI395
aI390
asg48
I320
sg49
I00
sg50
(dp1381
g52
Nsg53
Nsg54
Nssg55
S'elset_wall_2_6_element_prop'
p1382
sbsI321
g0
(g39
g2
Ntp1383
Rp1384
(dp1385
g43
Nsg44
g45
sg46
(lp1386
I390
aI395
aI396
aI391
asg48
I321
sg49
I00
sg50
g1381
sg55
g1382
sbsI322
g0
(g39
g2
Ntp1387
Rp1388
(dp1389
g43
Nsg44
g45
sg46
(lp1390
I391
aI396
aI397
aI392
asg48
I322
sg49
I00
sg50
g1381
sg55
g1382
sbsI323
g0
(g39
g2
Ntp1391
Rp1392
(dp1393
g43
Nsg44
g45
sg46
(lp1394
I392
aI397
aI398
aI393
asg48
I323
sg49
I00
sg50
g1381
sg55
g1382
sbsI324
g0
(g39
g2
Ntp1395
Rp1396
(dp1397
g43
Nsg44
g45
sg46
(lp1398
I393
aI398
aI399
aI394
asg48
I324
sg49
I00
sg50
g1381
sg55
g1382
sbsI325
g0
(g39
g2
Ntp1399
Rp1400
(dp1401
g43
Nsg44
g45
sg46
(lp1402
I389
aI342
aI353
aI395
asg48
I325
sg49
I00
sg50
g1381
sg55
g1382
sbsI326
g0
(g39
g2
Ntp1403
Rp1404
(dp1405
g43
Nsg44
g45
sg46
(lp1406
I395
aI353
aI354
aI396
asg48
I326
sg49
I00
sg50
g1381
sg55
g1382
sbsI327
g0
(g39
g2
Ntp1407
Rp1408
(dp1409
g43
Nsg44
g45
sg46
(lp1410
I396
aI354
aI355
aI397
asg48
I327
sg49
I00
sg50
g1381
sg55
g1382
sbsI328
g0
(g39
g2
Ntp1411
Rp1412
(dp1413
g43
Nsg44
g45
sg46
(lp1414
I397
aI355
aI356
aI398
asg48
I328
sg49
I00
sg50
g1381
sg55
g1382
sbsI329
g0
(g39
g2
Ntp1415
Rp1416
(dp1417
g43
Nsg44
g45
sg46
(lp1418
I398
aI356
aI357
aI399
asg48
I329
sg49
I00
sg50
g1381
sg55
g1382
sbsI330
g0
(g39
g2
Ntp1419
Rp1420
(dp1421
g43
Nsg44
g45
sg46
(lp1422
I400
aI406
aI407
aI401
asg48
I330
sg49
I00
sg50
(dp1423
g52
Nsg53
Nsg54
Nssg55
S'elset_wall_2_7_element_prop'
p1424
sbsI331
g0
(g39
g2
Ntp1425
Rp1426
(dp1427
g43
Nsg44
g45
sg46
(lp1428
I401
aI407
aI408
aI402
asg48
I331
sg49
I00
sg50
g1423
sg55
g1424
sbsI332
g0
(g39
g2
Ntp1429
Rp1430
(dp1431
g43
Nsg44
g45
sg46
(lp1432
I402
aI408
aI409
aI403
asg48
I332
sg49
I00
sg50
g1423
sg55
g1424
sbsI333
g0
(g39
g2
Ntp1433
Rp1434
(dp1435
g43
Nsg44
g45
sg46
(lp1436
I403
aI409
aI410
aI404
asg48
I333
sg49
I00
sg50
g1423
sg55
g1424
sbsI334
g0
(g39
g2
Ntp1437
Rp1438
(dp1439
g43
Nsg44
g45
sg46
(lp1440
I404
aI410
aI411
aI405
asg48
I334
sg49
I00
sg50
g1423
sg55
g1424
sbsI335
g0
(g39
g2
Ntp1441
Rp1442
(dp1443
g43
Nsg44
g45
sg46
(lp1444
I406
aI368
aI369
aI407
asg48
I335
sg49
I00
sg50
g1423
sg55
g1424
sbsI336
g0
(g39
g2
Ntp1445
Rp1446
(dp1447
g43
Nsg44
g45
sg46
(lp1448
I407
aI369
aI370
aI408
asg48
I336
sg49
I00
sg50
g1423
sg55
g1424
sbsI337
g0
(g39
g2
Ntp1449
Rp1450
(dp1451
g43
Nsg44
g45
sg46
(lp1452
I408
aI370
aI371
aI409
asg48
I337
sg49
I00
sg50
g1423
sg55
g1424
sbsI338
g0
(g39
g2
Ntp1453
Rp1454
(dp1455
g43
Nsg44
g45
sg46
(lp1456
I409
aI371
aI372
aI410
asg48
I338
sg49
I00
sg50
g1423
sg55
g1424
sbsI339
g0
(g39
g2
Ntp1457
Rp1458
(dp1459
g43
Nsg44
g45
sg46
(lp1460
I410
aI372
aI373
aI411
asg48
I339
sg49
I00
sg50
g1423
sg55
g1424
sbsI340
g0
(g39
g2
Ntp1461
Rp1462
(dp1463
g43
Nsg44
g45
sg46
(lp1464
I405
aI411
aI417
aI412
asg48
I340
sg49
I00
sg50
(dp1465
g52
Nsg53
Nsg54
Nssg55
S'elset_wall_2_8_element_prop'
p1466
sbsI341
g0
(g39
g2
Ntp1467
Rp1468
(dp1469
g43
Nsg44
g45
sg46
(lp1470
I412
aI417
aI418
aI413
asg48
I341
sg49
I00
sg50
g1465
sg55
g1466
sbsI342
g0
(g39
g2
Ntp1471
Rp1472
(dp1473
g43
Nsg44
g45
sg46
(lp1474
I413
aI418
aI419
aI414
asg48
I342
sg49
I00
sg50
g1465
sg55
g1466
sbsI343
g0
(g39
g2
Ntp1475
Rp1476
(dp1477
g43
Nsg44
g45
sg46
(lp1478
I414
aI419
aI420
aI415
asg48
I343
sg49
I00
sg50
g1465
sg55
g1466
sbsI344
g0
(g39
g2
Ntp1479
Rp1480
(dp1481
g43
Nsg44
g45
sg46
(lp1482
I415
aI420
aI421
aI416
asg48
I344
sg49
I00
sg50
g1465
sg55
g1466
sbsI345
g0
(g39
g2
Ntp1483
Rp1484
(dp1485
g43
Nsg44
g45
sg46
(lp1486
I411
aI373
aI380
aI417
asg48
I345
sg49
I00
sg50
g1465
sg55
g1466
sbsI346
g0
(g39
g2
Ntp1487
Rp1488
(dp1489
g43
Nsg44
g45
sg46
(lp1490
I417
aI380
aI381
aI418
asg48
I346
sg49
I00
sg50
g1465
sg55
g1466
sbsI347
g0
(g39
g2
Ntp1491
Rp1492
(dp1493
g43
Nsg44
g45
sg46
(lp1494
I418
aI381
aI382
aI419
asg48
I347
sg49
I00
sg50
g1465
sg55
g1466
sbsI348
g0
(g39
g2
Ntp1495
Rp1496
(dp1497
g43
Nsg44
g45
sg46
(lp1498
I419
aI382
aI383
aI420
asg48
I348
sg49
I00
sg50
g1465
sg55
g1466
sbsI349
g0
(g39
g2
Ntp1499
Rp1500
(dp1501
g43
Nsg44
g45
sg46
(lp1502
I420
aI383
aI384
aI421
asg48
I349
sg49
I00
sg50
g1465
sg55
g1466
sbsI350
g0
(g39
g2
Ntp1503
Rp1504
(dp1505
g43
Nsg44
g45
sg46
(lp1506
I416
aI421
aI427
aI422
asg48
I350
sg49
I00
sg50
(dp1507
g52
Nsg53
Nsg54
Nssg55
S'elset_wall_2_9_element_prop'
p1508
sbsI351
g0
(g39
g2
Ntp1509
Rp1510
(dp1511
g43
Nsg44
g45
sg46
(lp1512
I422
aI427
aI428
aI423
asg48
I351
sg49
I00
sg50
g1507
sg55
g1508
sbsI352
g0
(g39
g2
Ntp1513
Rp1514
(dp1515
g43
Nsg44
g45
sg46
(lp1516
I423
aI428
aI429
aI424
asg48
I352
sg49
I00
sg50
g1507
sg55
g1508
sbsI353
g0
(g39
g2
Ntp1517
Rp1518
(dp1519
g43
Nsg44
g45
sg46
(lp1520
I424
aI429
aI430
aI425
asg48
I353
sg49
I00
sg50
g1507
sg55
g1508
sbsI354
g0
(g39
g2
Ntp1521
Rp1522
(dp1523
g43
Nsg44
g45
sg46
(lp1524
I425
aI430
aI431
aI426
asg48
I354
sg49
I00
sg50
g1507
sg55
g1508
sbsI355
g0
(g39
g2
Ntp1525
Rp1526
(dp1527
g43
Nsg44
g45
sg46
(lp1528
I421
aI384
aI390
aI427
asg48
I355
sg49
I00
sg50
g1507
sg55
g1508
sbsI356
g0
(g39
g2
Ntp1529
Rp1530
(dp1531
g43
Nsg44
g45
sg46
(lp1532
I427
aI390
aI391
aI428
asg48
I356
sg49
I00
sg50
g1507
sg55
g1508
sbsI357
g0
(g39
g2
Ntp1533
Rp1534
(dp1535
g43
Nsg44
g45
sg46
(lp1536
I428
aI391
aI392
aI429
asg48
I357
sg49
I00
sg50
g1507
sg55
g1508
sbsI358
g0
(g39
g2
Ntp1537
Rp1538
(dp1539
g43
Nsg44
g45
sg46
(lp1540
I429
aI392
aI393
aI430
asg48
I358
sg49
I00
sg50
g1507
sg55
g1508
sbsI359
g0
(g39
g2
Ntp1541
Rp1542
(dp1543
g43
Nsg44
g45
sg46
(lp1544
I430
aI393
aI394
aI431
asg48
I359
sg49
I00
sg50
g1507
sg55
g1508
sbsI360
g0
(ccompas_fea.structure.element
MPCElement
p1545
g2
Ntp1546
Rp1547
(dp1548
g43
Nsg44
S'MPCElement'
p1549
sg46
(lp1550
I367
aI159
asg48
I360
sg49
I00
sg50
(dp1551
g52
Nsg53
(lp1552
F1.4551915228366852e-11
aF0.0
aF554.65113013660084
asg54
Nssg55
S'elset_mpc_element_prop'
p1553
sbsI361
g0
(g1545
g2
Ntp1554
Rp1555
(dp1556
g43
Nsg44
g1549
sg46
(lp1557
I366
aI158
asg48
I361
sg49
I00
sg50
(dp1558
g52
Nsg53
(lp1559
F9.0949470177292824e-12
aF0.0
aF554.65113013660084
asg54
Nssg55
g1553
sbsI362
g0
(g1545
g2
Ntp1560
Rp1561
(dp1562
g43
Nsg44
g1549
sg46
(lp1563
I365
aI157
asg48
I362
sg49
I00
sg50
(dp1564
g52
Nsg53
(lp1565
F9.0949470177292824e-12
aF0.0
aF554.65113013660084
asg54
Nssg55
g1553
sbsI363
g0
(g1545
g2
Ntp1566
Rp1567
(dp1568
g43
Nsg44
g1549
sg46
(lp1569
I364
aI156
asg48
I363
sg49
I00
sg50
(dp1570
g52
Nsg53
(lp1571
F7.2759576141834259e-12
aF0.0
aF554.65113013660084
asg54
Nssg55
g1553
sbsI364
g0
(g1545
g2
Ntp1572
Rp1573
(dp1574
g43
Nsg44
g1549
sg46
(lp1575
I363
aI155
asg48
I364
sg49
I00
sg50
(dp1576
g52
Nsg53
(lp1577
F5.4569682106375694e-12
aF0.0
aF554.65113013660084
asg54
Nssg55
g1553
sbsI365
g0
(g1545
g2
Ntp1578
Rp1579
(dp1580
g43
Nsg44
g1549
sg46
(lp1581
I352
aI109
asg48
I365
sg49
I00
sg50
(dp1582
g52
Nsg53
(lp1583
F5.4569682106375694e-12
aF0.0
aF554.65113013660084
asg54
Nssg55
g1553
sbsI366
g0
(g1545
g2
Ntp1584
Rp1585
(dp1586
g43
Nsg44
g1549
sg46
(lp1587
I351
aI108
asg48
I366
sg49
I00
sg50
(dp1588
g52
Nsg53
(lp1589
F3.637978807091713e-12
aF0.0
aF554.65113013660084
asg54
Nssg55
g1553
sbsI367
g0
(g1545
g2
Ntp1590
Rp1591
(dp1592
g43
Nsg44
g1549
sg46
(lp1593
I350
aI107
asg48
I367
sg49
I00
sg50
(dp1594
g52
Nsg53
(lp1595
F2.7284841053187847e-12
aF0.0
aF554.65113013660084
asg54
Nssg55
g1553
sbsI368
g0
(g1545
g2
Ntp1596
Rp1597
(dp1598
g43
Nsg44
g1549
sg46
(lp1599
I349
aI106
asg48
I368
sg49
I00
sg50
(dp1600
g52
Nsg53
(lp1601
F9.0949470177292824e-13
aF0.0
aF554.65113013660084
asg54
Nssg55
g1553
sbsI369
g0
(g1545
g2
Ntp1602
Rp1603
(dp1604
g43
Nsg44
g1549
sg46
(lp1605
I348
aI105
asg48
I369
sg49
I00
sg50
(dp1606
g52
Nsg53
(lp1607
F0.0
aF0.0
aF554.65113013660084
asg54
Nssg55
g1553
sbsI370
g0
(g1545
g2
Ntp1608
Rp1609
(dp1610
g43
Nsg44
g1549
sg46
(lp1611
I337
aI59
asg48
I370
sg49
I00
sg50
(dp1612
g52
Nsg53
(lp1613
F-2.7284841053187847e-12
aF0.0
aF554.65113013660084
asg54
Nssg55
g1553
sbsI371
g0
(g1545
g2
Ntp1614
Rp1615
(dp1616
g43
Nsg44
g1549
sg46
(lp1617
I336
aI58
asg48
I371
sg49
I00
sg50
(dp1618
g52
Nsg53
(lp1619
F-2.2737367544323206e-12
aF0.0
aF554.65113013660084
asg54
Nssg55
g1553
sbsI372
g0
(g1545
g2
Ntp1620
Rp1621
(dp1622
g43
Nsg44
g1549
sg46
(lp1623
I335
aI57
asg48
I372
sg49
I00
sg50
(dp1624
g52
Nsg53
(lp1625
F-1.8189894035458565e-12
aF0.0
aF554.65113013660084
asg54
Nssg55
g1553
sbsI373
g0
(g1545
g2
Ntp1626
Rp1627
(dp1628
g43
Nsg44
g1549
sg46
(lp1629
I334
aI56
asg48
I373
sg49
I00
sg50
(dp1630
g52
Nsg53
(lp1631
F-1.1368683772161603e-12
aF0.0
aF554.65113013660084
asg54
Nssg55
g1553
sbsI374
g0
(g1545
g2
Ntp1632
Rp1633
(dp1634
g43
Nsg44
g1549
sg46
(lp1635
I333
aI55
asg48
I374
sg49
I00
sg50
(dp1636
g52
Nsg53
(lp1637
F-5.6843418860808015e-13
aF0.0
aF554.65113013660084
asg54
Nssg55
g1553
sbsI375
g0
(g1545
g2
Ntp1638
Rp1639
(dp1640
g43
Nsg44
g1549
sg46
(lp1641
I332
aI54
asg48
I375
sg49
I00
sg50
(dp1642
g52
Nsg53
(lp1643
F0.0
aF0.0
aF554.65113013660084
asg54
Nssg55
g1553
sbsI376
g0
(g1545
g2
Ntp1644
Rp1645
(dp1646
g43
Nsg44
g1549
sg46
(lp1647
I255
aI114
asg48
I376
sg49
I00
sg50
(dp1648
g52
Nsg53
(lp1649
F1.4551915228366852e-11
aF0.0
aF554.65113013660084
asg54
Nssg55
g1553
sbsI377
g0
(g1545
g2
Ntp1650
Rp1651
(dp1652
g43
Nsg44
g1549
sg46
(lp1653
I254
aI113
asg48
I377
sg49
I00
sg50
(dp1654
g52
Nsg53
(lp1655
F9.0949470177292824e-12
aF0.0
aF554.65113013660084
asg54
Nssg55
g1553
sbsI378
g0
(g1545
g2
Ntp1656
Rp1657
(dp1658
g43
Nsg44
g1549
sg46
(lp1659
I253
aI112
asg48
I378
sg49
I00
sg50
(dp1660
g52
Nsg53
(lp1661
F9.0949470177292824e-12
aF0.0
aF554.65113013660084
asg54
Nssg55
g1553
sbsI379
g0
(g1545
g2
Ntp1662
Rp1663
(dp1664
g43
Nsg44
g1549
sg46
(lp1665
I252
aI111
asg48
I379
sg49
I00
sg50
(dp1666
g52
Nsg53
(lp1667
F7.2759576141834259e-12
aF0.0
aF554.65113013660084
asg54
Nssg55
g1553
sbsI380
g0
(g1545
g2
Ntp1668
Rp1669
(dp1670
g43
Nsg44
g1549
sg46
(lp1671
I251
aI110
asg48
I380
sg49
I00
sg50
(dp1672
g52
Nsg53
(lp1673
F5.4569682106375694e-12
aF0.0
aF554.65113013660084
asg54
Nssg55
g1553
sbsI381
g0
(g1545
g2
Ntp1674
Rp1675
(dp1676
g43
Nsg44
g1549
sg46
(lp1677
I240
aI64
asg48
I381
sg49
I00
sg50
(dp1678
g52
Nsg53
(lp1679
F5.4569682106375694e-12
aF0.0
aF554.65113013660084
asg54
Nssg55
g1553
sbsI382
g0
(g1545
g2
Ntp1680
Rp1681
(dp1682
g43
Nsg44
g1549
sg46
(lp1683
I239
aI63
asg48
I382
sg49
I00
sg50
(dp1684
g52
Nsg53
(lp1685
F3.637978807091713e-12
aF0.0
aF554.65113013660084
asg54
Nssg55
g1553
sbsI383
g0
(g1545
g2
Ntp1686
Rp1687
(dp1688
g43
Nsg44
g1549
sg46
(lp1689
I238
aI62
asg48
I383
sg49
I00
sg50
(dp1690
g52
Nsg53
(lp1691
F2.7284841053187847e-12
aF0.0
aF554.65113013660084
asg54
Nssg55
g1553
sbsI384
g0
(g1545
g2
Ntp1692
Rp1693
(dp1694
g43
Nsg44
g1549
sg46
(lp1695
I237
aI61
asg48
I384
sg49
I00
sg50
(dp1696
g52
Nsg53
(lp1697
F9.0949470177292824e-13
aF0.0
aF554.65113013660084
asg54
Nssg55
g1553
sbsI385
g0
(g1545
g2
Ntp1698
Rp1699
(dp1700
g43
Nsg44
g1549
sg46
(lp1701
I236
aI60
asg48
I385
sg49
I00
sg50
(dp1702
g52
Nsg53
(lp1703
F0.0
aF0.0
aF554.65113013660084
asg54
Nssg55
g1553
sbsI386
g0
(g1545
g2
Ntp1704
Rp1705
(dp1706
g43
Nsg44
g1549
sg46
(lp1707
I225
aI5
asg48
I386
sg49
I00
sg50
(dp1708
g52
Nsg53
(lp1709
F-2.7284841053187847e-12
aF0.0
aF554.65113013660084
asg54
Nssg55
g1553
sbsI387
g0
(g1545
g2
Ntp1710
Rp1711
(dp1712
g43
Nsg44
g1549
sg46
(lp1713
I224
aI4
asg48
I387
sg49
I00
sg50
(dp1714
g52
Nsg53
(lp1715
F-2.2737367544323206e-12
aF0.0
aF554.65113013660084
asg54
Nssg55
g1553
sbsI388
g0
(g1545
g2
Ntp1716
Rp1717
(dp1718
g43
Nsg44
g1549
sg46
(lp1719
I223
aI3
asg48
I388
sg49
I00
sg50
(dp1720
g52
Nsg53
(lp1721
F-1.8189894035458565e-12
aF0.0
aF554.65113013660084
asg54
Nssg55
g1553
sbsI389
g0
(g1545
g2
Ntp1722
Rp1723
(dp1724
g43
Nsg44
g1549
sg46
(lp1725
I222
aI2
asg48
I389
sg49
I00
sg50
(dp1726
g52
Nsg53
(lp1727
F-1.1368683772161603e-12
aF0.0
aF554.65113013660084
asg54
Nssg55
g1553
sbsI390
g0
(g1545
g2
Ntp1728
Rp1729
(dp1730
g43
Nsg44
g1549
sg46
(lp1731
I221
aI1
asg48
I390
sg49
I00
sg50
(dp1732
g52
Nsg53
(lp1733
F-5.6843418860808015e-13
aF0.0
aF554.65113013660084
asg54
Nssg55
g1553
sbsI391
g0
(g1545
g2
Ntp1734
Rp1735
(dp1736
g43
Nsg44
g1549
sg46
(lp1737
I220
aI0
asg48
I391
sg49
I00
sg50
(dp1738
g52
Nsg53
(lp1739
F0.0
aF0.0
aF554.65113013660084
asg54
Nssg55
g1553
sbssS'element_index'
p1740
(dp1741
S'5482.202,9727.713,0.000'
p1742
I65
sS'1495.146,2527.673,0.000'
p1743
I11
sS'498.382,505.535,0.000'
p1744
I0
sS'498.382,12255.386,-2420.734'
p1745
I305
sS'8472.494,505.535,0.000'
p1746
I43
sS'14589.001,12255.386,-925.619'
p1747
I299
sS'1495.146,12255.386,-2420.734'
p1748
I306
sS'12535.063,0.000,-2420.734'
p1749
I237
sS'1495.146,11749.851,0.000'
p1750
I36
sS'7475.730,505.535,0.000'
p1751
I42
sS'6478.966,12255.386,-1667.556'
p1752
I281
sS'4485.438,10738.782,0.000'
p1753
I34
sS'12535.063,7690.255,0.000'
p1754
I177
sS'7475.730,0.000,-2420.734'
p1755
I227
sS'6478.966,6648.547,0.000'
p1756
I151
sS'8970.876,12255.386,-277.326'
p1757
I366
sS'3488.674,0.000,-1667.556'
p1758
I183
sS'7475.730,2527.673,0.000'
p1759
I52
sS'9469.258,12255.386,-3938.332'
p1760
I349
sS'13562.032,12255.386,-925.619'
p1761
I298
sS'10481.125,0.000,-3185.153'
p1762
I230
sS'5482.202,0.000,-1667.556'
p1763
I190
sS'7475.730,9727.713,0.000'
p1764
I67
sS'11508.094,8716.643,0.000'
p1765
I101
sS'3488.674,4565.131,0.000'
p1766
I123
sS'8472.494,0.000,-3185.153'
p1767
I223
sS'498.382,4565.131,0.000'
p1768
I120
sS'4485.438,0.000,-4680.268'
p1769
I244
sS'5482.202,3538.743,0.000'
p1770
I55
sS'6478.966,0.000,-925.619'
p1771
I196
sS'14589.001,0.000,-2420.734'
p1772
I239
sS'4485.438,12255.386,-2420.734'
p1773
I309
sS'13562.032,2527.673,0.000'
p1774
I93
sS'3488.674,12255.386,-4680.268'
p1775
I333
sS'10481.125,12255.386,-925.619'
p1776
I295
sS'6478.966,4565.131,0.000'
p1777
I141
sS'3488.674,0.000,-3938.332'
p1778
I248
sS'2491.910,0.000,-2420.734'
p1779
I217
sS'8472.494,12255.386,-3938.332'
p1780
I348
sS'12535.063,12255.386,-925.619'
p1781
I297
sS'2990.292,0.000,-277.326'
p1782
I388
sS'2491.910,0.000,-3185.153'
p1783
I212
sS'3488.674,11749.851,0.000'
p1784
I38
sS'498.382,12255.386,-4680.268'
p1785
I330
sS'2491.910,0.000,-3938.332'
p1786
I247
sS'12021.578,12255.386,-277.326'
p1787
I363
sS'1495.146,1516.604,0.000'
p1788
I6
sS'498.382,0.000,-925.619'
p1789
I185
sS'13562.032,0.000,-4680.268'
p1790
I263
sS'1495.146,0.000,-3938.332'
p1791
I246
sS'11508.094,0.000,-3938.332'
p1792
I266
sS'12535.063,4565.131,0.000'
p1793
I162
sS'13048.547,0.000,-277.326'
p1794
I378
sS'6478.966,0.000,-1667.556'
p1795
I191
sS'7475.730,0.000,-3938.332'
p1796
I257
sS'11508.094,12255.386,-1667.556'
p1797
I291
sS'10481.125,0.000,-1667.556'
p1798
I200
sS'1495.146,0.000,-2420.734'
p1799
I216
sS'13562.032,3538.743,0.000'
p1800
I98
sS'12535.063,11749.851,0.000'
p1801
I117
sS'1495.146,6648.547,0.000'
p1802
I131
sS'11508.094,12255.386,-3185.153'
p1803
I321
sS'11508.094,9727.713,0.000'
p1804
I106
sS'3488.674,12255.386,-925.619'
p1805
I278
sS'4485.438,4565.131,0.000'
p1806
I124
sS'5482.202,11749.851,0.000'
p1807
I75
sS'7475.730,0.000,-4680.268'
p1808
I252
sS'14075.516,12255.386,-277.326'
p1809
I361
sS'12535.063,12255.386,-4680.268'
p1810
I352
sS'12535.063,12255.386,-3185.153'
p1811
I322
sS'11508.094,1516.604,0.000'
p1812
I86
sS'5482.202,0.000,-4680.268'
p1813
I250
sS'8472.494,12255.386,-4680.268'
p1814
I343
sS'8472.494,5606.839,0.000'
p1815
I148
sS'10481.125,7690.255,0.000'
p1816
I175
sS'1495.146,3538.743,0.000'
p1817
I16
sS'13562.032,12255.386,-2420.734'
p1818
I328
sS'10481.125,0.000,-3938.332'
p1819
I265
sS'1495.146,5606.839,0.000'
p1820
I126
sS'4485.438,0.000,-3185.153'
p1821
I214
sS'10481.125,12255.386,-2420.734'
p1822
I325
sS'8472.494,0.000,-4680.268'
p1823
I253
sS'6977.348,0.000,-277.326'
p1824
I384
sS'14589.001,0.000,-3185.153'
p1825
I234
sS'6478.966,11749.851,0.000'
p1826
I76
sS'5482.202,10738.782,0.000'
p1827
I70
sS'11508.094,505.535,0.000'
p1828
I81
sS'8472.494,3538.743,0.000'
p1829
I58
sS'10481.125,9727.713,0.000'
p1830
I105
sS'5482.202,8716.643,0.000'
p1831
I60
sS'2491.910,11749.851,0.000'
p1832
I37
sS'14589.001,0.000,-4680.268'
p1833
I264
sS'9469.258,505.535,0.000'
p1834
I44
sS'498.382,6648.547,0.000'
p1835
I130
sS'5980.584,0.000,-277.326'
p1836
I385
sS'6478.966,3538.743,0.000'
p1837
I56
sS'1495.146,4565.131,0.000'
p1838
I121
sS'8472.494,12255.386,-925.619'
p1839
I288
sS'3488.674,10738.782,0.000'
p1840
I33
sS'11508.094,12255.386,-925.619'
p1841
I296
sS'8472.494,0.000,-3938.332'
p1842
I258
sS'13562.032,10738.782,0.000'
p1843
I113
sS'498.382,9727.713,0.000'
p1844
I25
sS'2491.910,6648.547,0.000'
p1845
I132
sS'4485.438,0.000,-3938.332'
p1846
I249
sS'10481.125,12255.386,-1667.556'
p1847
I290
sS'9469.258,4565.131,0.000'
p1848
I144
sS'13562.032,0.000,-925.619'
p1849
I208
sS'6478.966,12255.386,-2420.734'
p1850
I316
sS'9469.258,12255.386,-925.619'
p1851
I289
sS'10481.125,8716.643,0.000'
p1852
I100
sS'2491.910,12255.386,-4680.268'
p1853
I332
sS'6478.966,505.535,0.000'
p1854
I41
sS'12535.063,3538.743,0.000'
p1855
I97
sS'9469.258,10738.782,0.000'
p1856
I74
sS'11508.094,5606.839,0.000'
p1857
I166
sS'4485.438,12255.386,-3938.332'
p1858
I339
sS'14589.001,7690.255,0.000'
p1859
I179
sS'8472.494,2527.673,0.000'
p1860
I53
sS'6478.966,1516.604,0.000'
p1861
I46
sS'13048.547,12255.386,-277.326'
p1862
I362
sS'12535.063,6648.547,0.000'
p1863
I172
sS'2491.910,9727.713,0.000'
p1864
I27
sS'13562.032,4565.131,0.000'
p1865
I163
sS'5482.202,6648.547,0.000'
p1866
I150
sS'3488.674,8716.643,0.000'
p1867
I23
sS'14589.001,10738.782,0.000'
p1868
I114
sS'7475.730,0.000,-3185.153'
p1869
I222
sS'9469.258,3538.743,0.000'
p1870
I59
sS'12535.063,0.000,-3185.153'
p1871
I232
sS'10481.125,4565.131,0.000'
p1872
I160
sS'9469.258,11749.851,0.000'
p1873
I79
sS'14589.001,9727.713,0.000'
p1874
I109
sS'2491.910,4565.131,0.000'
p1875
I122
sS'996.764,12255.386,-277.326'
p1876
I374
sS'15102.485,12255.386,-277.326'
p1877
I360
sS'5482.202,505.535,0.000'
p1878
I40
sS'10994.609,12255.386,-277.326'
p1879
I364
sS'10481.125,12255.386,-4680.268'
p1880
I350
sS'4485.438,6648.547,0.000'
p1881
I134
sS'5482.202,0.000,-3938.332'
p1882
I255
sS'2491.910,12255.386,-1667.556'
p1883
I272
sS'6478.966,5606.839,0.000'
p1884
I146
sS'1495.146,12255.386,-1667.556'
p1885
I271
sS'10481.125,11749.851,0.000'
p1886
I115
sS'0.000,0.000,-277.326'
p1887
I391
sS'11508.094,12255.386,-3938.332'
p1888
I356
sS'4485.438,5606.839,0.000'
p1889
I129
sS'10481.125,505.535,0.000'
p1890
I80
sS'12535.063,8716.643,0.000'
p1891
I102
sS'12535.063,9727.713,0.000'
p1892
I107
sS'7475.730,12255.386,-2420.734'
p1893
I317
sS'11508.094,0.000,-2420.734'
p1894
I236
sS'6478.966,9727.713,0.000'
p1895
I66
sS'5482.202,5606.839,0.000'
p1896
I145
sS'12021.578,0.000,-277.326'
p1897
I379
sS'3488.674,5606.839,0.000'
p1898
I128
sS'13562.032,8716.643,0.000'
p1899
I103
sS'2491.910,12255.386,-3185.153'
p1900
I302
sS'4485.438,3538.743,0.000'
p1901
I19
sS'11508.094,6648.547,0.000'
p1902
I171
sS'4485.438,1516.604,0.000'
p1903
I9
sS'13562.032,12255.386,-3185.153'
p1904
I323
sS'7475.730,10738.782,0.000'
p1905
I72
sS'4485.438,505.535,0.000'
p1906
I4
sS'9469.258,7690.255,0.000'
p1907
I159
sS'6478.966,10738.782,0.000'
p1908
I71
sS'3488.674,12255.386,-3185.153'
p1909
I303
sS'3987.056,12255.386,-277.326'
p1910
I371
sS'7475.730,0.000,-925.619'
p1911
I197
sS'3488.674,12255.386,-3938.332'
p1912
I338
sS'10481.125,12255.386,-3185.153'
p1913
I320
sS'498.382,0.000,-3185.153'
p1914
I210
sS'12535.063,0.000,-3938.332'
p1915
I267
sS'6478.966,7690.255,0.000'
p1916
I156
sS'5482.202,12255.386,-925.619'
p1917
I285
sS'14589.001,8716.643,0.000'
p1918
I104
sS'498.382,12255.386,-925.619'
p1919
I275
sS'498.382,0.000,-3938.332'
p1920
I245
sS'498.382,8716.643,0.000'
p1921
I20
sS'14589.001,0.000,-1667.556'
p1922
I204
sS'8472.494,0.000,-1667.556'
p1923
I193
sS'8472.494,0.000,-2420.734'
p1924
I228
sS'7475.730,11749.851,0.000'
p1925
I77
sS'13562.032,7690.255,0.000'
p1926
I178
sS'11508.094,2527.673,0.000'
p1927
I91
sS'9469.258,0.000,-3938.332'
p1928
I259
sS'7475.730,4565.131,0.000'
p1929
I142
sS'13562.032,0.000,-3185.153'
p1930
I233
sS'9469.258,9727.713,0.000'
p1931
I69
sS'2491.910,10738.782,0.000'
p1932
I32
sS'2491.910,12255.386,-3938.332'
p1933
I337
sS'8472.494,12255.386,-2420.734'
p1934
I318
sS'4485.438,9727.713,0.000'
p1935
I29
sS'1495.146,12255.386,-4680.268'
p1936
I331
sS'3488.674,1516.604,0.000'
p1937
I8
sS'12535.063,12255.386,-1667.556'
p1938
I292
sS'11508.094,0.000,-925.619'
p1939
I206
sS'4983.820,12255.386,-277.326'
p1940
I370
sS'2491.910,0.000,-1667.556'
p1941
I182
sS'9469.258,1516.604,0.000'
p1942
I49
sS'13562.032,0.000,-3938.332'
p1943
I268
sS'2491.910,505.535,0.000'
p1944
I2
sS'5980.584,12255.386,-277.326'
p1945
I369
sS'1495.146,505.535,0.000'
p1946
I1
sS'4485.438,11749.851,0.000'
p1947
I39
sS'4485.438,8716.643,0.000'
p1948
I24
sS'14589.001,12255.386,-4680.268'
p1949
I354
sS'9469.258,12255.386,-4680.268'
p1950
I344
sS'8472.494,12255.386,-1667.556'
p1951
I283
sS'2491.910,8716.643,0.000'
p1952
I22
sS'11508.094,0.000,-3185.153'
p1953
I231
sS'2491.910,3538.743,0.000'
p1954
I17
sS'6478.966,0.000,-3938.332'
p1955
I256
sS'9967.640,0.000,-277.326'
p1956
I381
sS'4485.438,12255.386,-1667.556'
p1957
I274
sS'12535.063,2527.673,0.000'
p1958
I92
sS'8472.494,12255.386,-3185.153'
p1959
I313
sS'14589.001,505.535,0.000'
p1960
I84
sS'7475.730,1516.604,0.000'
p1961
I47
sS'9469.258,2527.673,0.000'
p1962
I54
sS'11508.094,0.000,-4680.268'
p1963
I261
sS'7475.730,12255.386,-925.619'
p1964
I287
sS'3488.674,3538.743,0.000'
p1965
I18
sS'14589.001,12255.386,-3938.332'
p1966
I359
sS'9469.258,0.000,-925.619'
p1967
I199
sS'4485.438,12255.386,-925.619'
p1968
I279
sS'7974.112,12255.386,-277.326'
p1969
I367
sS'7475.730,5606.839,0.000'
p1970
I147
sS'5482.202,12255.386,-3185.153'
p1971
I310
sS'4485.438,2527.673,0.000'
p1972
I14
sS'4485.438,0.000,-2420.734'
p1973
I219
sS'3488.674,12255.386,-2420.734'
p1974
I308
sS'8970.876,0.000,-277.326'
p1975
I382
sS'12535.063,505.535,0.000'
p1976
I82
sS'1495.146,12255.386,-3938.332'
p1977
I336
sS'14589.001,5606.839,0.000'
p1978
I169
sS'7974.112,0.000,-277.326'
p1979
I383
sS'14589.001,4565.131,0.000'
p1980
I164
sS'13562.032,0.000,-1667.556'
p1981
I203
sS'12535.063,12255.386,-3938.332'
p1982
I357
sS'6478.966,8716.643,0.000'
p1983
I61
sS'9967.640,12255.386,-277.326'
p1984
I365
sS'5482.202,0.000,-925.619'
p1985
I195
sS'8472.494,9727.713,0.000'
p1986
I68
sS'3488.674,12255.386,-1667.556'
p1987
I273
sS'10994.609,0.000,-277.326'
p1988
I380
sS'11508.094,10738.782,0.000'
p1989
I111
sS'2491.910,5606.839,0.000'
p1990
I127
sS'13562.032,12255.386,-3938.332'
p1991
I358
sS'7475.730,12255.386,-4680.268'
p1992
I342
sS'13562.032,1516.604,0.000'
p1993
I88
sS'4485.438,0.000,-925.619'
p1994
I189
sS'2491.910,12255.386,-925.619'
p1995
I277
sS'9469.258,0.000,-4680.268'
p1996
I254
sS'8472.494,0.000,-925.619'
p1997
I198
sS'11508.094,0.000,-1667.556'
p1998
I201
sS'12535.063,0.000,-925.619'
p1999
I207
sS'3488.674,6648.547,0.000'
p2000
I133
sS'3488.674,0.000,-925.619'
p2001
I188
sS'12535.063,1516.604,0.000'
p2002
I87
sS'5482.202,0.000,-3185.153'
p2003
I220
sS'8472.494,10738.782,0.000'
p2004
I73
sS'13562.032,9727.713,0.000'
p2005
I108
sS'3987.056,0.000,-277.326'
p2006
I387
sS'7475.730,6648.547,0.000'
p2007
I152
sS'10481.125,1516.604,0.000'
p2008
I85
sS'9469.258,0.000,-3185.153'
p2009
I224
sS'14589.001,11749.851,0.000'
p2010
I119
sS'8472.494,11749.851,0.000'
p2011
I78
sS'7475.730,8716.643,0.000'
p2012
I62
sS'498.382,7690.255,0.000'
p2013
I135
sS'13562.032,0.000,-2420.734'
p2014
I238
sS'7475.730,12255.386,-3938.332'
p2015
I347
sS'13562.032,12255.386,-4680.268'
p2016
I353
sS'2491.910,7690.255,0.000'
p2017
I137
sS'8472.494,4565.131,0.000'
p2018
I143
sS'7475.730,0.000,-1667.556'
p2019
I192
sS'498.382,3538.743,0.000'
p2020
I15
sS'3488.674,0.000,-4680.268'
p2021
I243
sS'11508.094,3538.743,0.000'
p2022
I96
sS'8472.494,1516.604,0.000'
p2023
I48
sS'498.382,12255.386,-1667.556'
p2024
I270
sS'1495.146,12255.386,-3185.153'
p2025
I301
sS'498.382,1516.604,0.000'
p2026
I5
sS'11508.094,11749.851,0.000'
p2027
I116
sS'10481.125,3538.743,0.000'
p2028
I95
sS'2491.910,1516.604,0.000'
p2029
I7
sS'7475.730,7690.255,0.000'
p2030
I157
sS'498.382,2527.673,0.000'
p2031
I10
sS'498.382,12255.386,-3185.153'
p2032
I300
sS'7475.730,3538.743,0.000'
p2033
I57
sS'2491.910,0.000,-4680.268'
p2034
I242
sS'498.382,10738.782,0.000'
p2035
I30
sS'6977.348,12255.386,-277.326'
p2036
I368
sS'11508.094,7690.255,0.000'
p2037
I176
sS'13562.032,505.535,0.000'
p2038
I83
sS'2491.910,2527.673,0.000'
p2039
I12
sS'14589.001,6648.547,0.000'
p2040
I174
sS'6478.966,0.000,-2420.734'
p2041
I226
sS'7475.730,12255.386,-3185.153'
p2042
I312
sS'3488.674,505.535,0.000'
p2043
I3
sS'14589.001,12255.386,-2420.734'
p2044
I329
sS'14589.001,2527.673,0.000'
p2045
I94
sS'14589.001,0.000,-3938.332'
p2046
I269
sS'10481.125,5606.839,0.000'
p2047
I165
sS'3488.674,9727.713,0.000'
p2048
I28
sS'10481.125,0.000,-2420.734'
p2049
I235
sS'6478.966,12255.386,-3185.153'
p2050
I311
sS'7475.730,12255.386,-1667.556'
p2051
I282
sS'5482.202,12255.386,-3938.332'
p2052
I345
sS'4485.438,7690.255,0.000'
p2053
I139
sS'5482.202,12255.386,-1667.556'
p2054
I280
sS'10481.125,0.000,-925.619'
p2055
I205
sS'15102.485,0.000,-277.326'
p2056
I376
sS'4485.438,12255.386,-4680.268'
p2057
I334
sS'5482.202,4565.131,0.000'
p2058
I140
sS'6478.966,0.000,-3185.153'
p2059
I221
sS'14589.001,1516.604,0.000'
p2060
I89
sS'10481.125,12255.386,-3938.332'
p2061
I355
sS'9469.258,8716.643,0.000'
p2062
I64
sS'5482.202,0.000,-2420.734'
p2063
I225
sS'10481.125,6648.547,0.000'
p2064
I170
sS'498.382,0.000,-1667.556'
p2065
I180
sS'1495.146,0.000,-1667.556'
p2066
I181
sS'13562.032,12255.386,-1667.556'
p2067
I293
sS'5482.202,2527.673,0.000'
p2068
I50
sS'1495.146,12255.386,-925.619'
p2069
I276
sS'10481.125,2527.673,0.000'
p2070
I90
sS'498.382,0.000,-4680.268'
p2071
I240
sS'9469.258,5606.839,0.000'
p2072
I149
sS'3488.674,0.000,-3185.153'
p2073
I213
sS'9469.258,12255.386,-2420.734'
p2074
I319
sS'14589.001,12255.386,-3185.153'
p2075
I324
sS'12535.063,10738.782,0.000'
p2076
I112
sS'1495.146,10738.782,0.000'
p2077
I31
sS'1495.146,0.000,-4680.268'
p2078
I241
sS'13562.032,5606.839,0.000'
p2079
I168
sS'6478.966,2527.673,0.000'
p2080
I51
sS'14589.001,3538.743,0.000'
p2081
I99
sS'6478.966,0.000,-4680.268'
p2082
I251
sS'1495.146,7690.255,0.000'
p2083
I136
sS'3488.674,0.000,-2420.734'
p2084
I218
sS'1993.528,0.000,-277.326'
p2085
I389
sS'498.382,5606.839,0.000'
p2086
I125
sS'2491.910,0.000,-925.619'
p2087
I187
sS'1495.146,9727.713,0.000'
p2088
I26
sS'11508.094,4565.131,0.000'
p2089
I161
sS'1495.146,8716.643,0.000'
p2090
I21
sS'2990.292,12255.386,-277.326'
p2091
I372
sS'10481.125,0.000,-4680.268'
p2092
I260
sS'14589.001,12255.386,-1667.556'
p2093
I294
sS'498.382,11749.851,0.000'
p2094
I35
sS'9469.258,12255.386,-1667.556'
p2095
I284
sS'498.382,12255.386,-3938.332'
p2096
I335
sS'6478.966,12255.386,-3938.332'
p2097
I346
sS'12535.063,5606.839,0.000'
p2098
I167
sS'10481.125,10738.782,0.000'
p2099
I110
sS'1993.528,12255.386,-277.326'
p2100
I373
sS'1495.146,0.000,-3185.153'
p2101
I211
sS'0.000,12255.386,-277.326'
p2102
I375
sS'1495.146,0.000,-925.619'
p2103
I186
sS'14589.001,0.000,-925.619'
p2104
I209
sS'11508.094,12255.386,-2420.734'
p2105
I326
sS'8472.494,7690.255,0.000'
p2106
I158
sS'11508.094,12255.386,-4680.268'
p2107
I351
sS'12535.063,0.000,-1667.556'
p2108
I202
sS'5482.202,1516.604,0.000'
p2109
I45
sS'13562.032,6648.547,0.000'
p2110
I173
sS'2491.910,12255.386,-2420.734'
p2111
I307
sS'9469.258,12255.386,-3185.153'
p2112
I314
sS'9469.258,6648.547,0.000'
p2113
I154
sS'8472.494,8716.643,0.000'
p2114
I63
sS'13562.032,11749.851,0.000'
p2115
I118
sS'5482.202,7690.255,0.000'
p2116
I155
sS'9469.258,0.000,-1667.556'
p2117
I194
sS'4485.438,12255.386,-3185.153'
p2118
I304
sS'498.382,0.000,-2420.734'
p2119
I215
sS'996.764,0.000,-277.326'
p2120
I390
sS'3488.674,7690.255,0.000'
p2121
I138
sS'14075.516,0.000,-277.326'
p2122
I377
sS'4983.820,0.000,-277.326'
p2123
I386
sS'9469.258,0.000,-2420.734'
p2124
I229
sS'12535.063,12255.386,-2420.734'
p2125
I327
sS'5482.202,12255.386,-2420.734'
p2126
I315
sS'12535.063,0.000,-4680.268'
p2127
I262
sS'6478.966,12255.386,-925.619'
p2128
I286
sS'6478.966,12255.386,-4680.268'
p2129
I341
sS'3488.674,2527.673,0.000'
p2130
I13
sS'4485.438,0.000,-1667.556'
p2131
I184
sS'5482.202,12255.386,-4680.268'
p2132
I340
sS'8472.494,6648.547,0.000'
p2133
I153
ssS'element_properties'
p2134
(dp2135
g1298
g0
(ccompas_fea.structure.element_properties
ElementProperties
p2136
g2
Ntp2137
Rp2138
(dp2139
g15
I21
sS'__name__'
p2140
S'ElementProperties'
p2141
sS'name'
p2142
g1298
sS'material'
p2143
S'wall_element_mat'
p2144
sS'section'
p2145
S'wall2_element_sec'
p2146
sS'elset'
p2147
S'elset_wall_2_4'
p2148
sS'elements'
p2149
NsS'rebar'
p2150
(dp2151
sbsg836
g0
(g2136
g2
Ntp2152
Rp2153
(dp2154
g15
I10
sg2140
g2141
sg2142
g836
sg2143
g2144
sg2145
S'wall1_element_sec'
p2155
sg2147
S'elset_wall_1_2'
p2156
sg2149
Nsg2150
g2151
sbsg1088
g0
(g2136
g2
Ntp2157
Rp2158
(dp2159
g15
I16
sg2140
g2141
sg2142
g1088
sg2143
g2144
sg2145
g2155
sg2147
S'elset_wall_1_8'
p2160
sg2149
Nsg2150
g2151
sbsg1214
g0
(g2136
g2
Ntp2161
Rp2162
(dp2163
g15
I19
sg2140
g2141
sg2142
g1214
sg2143
g2144
sg2145
g2146
sg2147
S'elset_wall_2_2'
p2164
sg2149
Nsg2150
g2151
sbsg56
g0
(g2136
g2
Ntp2165
Rp2166
(dp2167
g15
I0
sg2140
g2141
sg2142
g56
sg2143
S'plate_element_mat'
p2168
sg2145
S'plate_element_sec'
p2169
sg2147
S'elset_plate_1'
p2170
sg2149
Nsg2150
g2151
sbsg1340
g0
(g2136
g2
Ntp2171
Rp2172
(dp2173
g15
I22
sg2140
g2141
sg2142
g1340
sg2143
g2144
sg2145
g2146
sg2147
S'elset_wall_2_5'
p2174
sg2149
Nsg2150
g2151
sbsg712
g0
(g2136
g2
Ntp2175
Rp2176
(dp2177
g15
I8
sg2140
g2141
sg2142
g712
sg2143
g2168
sg2145
g2169
sg2147
S'elset_plate_9'
p2178
sg2149
Nsg2150
g2151
sbsg1004
g0
(g2136
g2
Ntp2179
Rp2180
(dp2181
g15
I14
sg2140
g2141
sg2142
g1004
sg2143
g2144
sg2145
g2155
sg2147
S'elset_wall_1_6'
p2182
sg2149
Nsg2150
g2151
sbsg384
g0
(g2136
g2
Ntp2183
Rp2184
(dp2185
g15
I4
sg2140
g2141
sg2142
g384
sg2143
g2168
sg2145
g2169
sg2147
S'elset_plate_5'
p2186
sg2149
Nsg2150
g2151
sbsg878
g0
(g2136
g2
Ntp2187
Rp2188
(dp2189
g15
I11
sg2140
g2141
sg2142
g878
sg2143
g2144
sg2145
g2155
sg2147
S'elset_wall_1_3'
p2190
sg2149
Nsg2150
g2151
sbsg220
g0
(g2136
g2
Ntp2191
Rp2192
(dp2193
g15
I2
sg2140
g2141
sg2142
g220
sg2143
g2168
sg2145
g2169
sg2147
S'elset_plate_3'
p2194
sg2149
Nsg2150
g2151
sbsg1256
g0
(g2136
g2
Ntp2195
Rp2196
(dp2197
g15
I20
sg2140
g2141
sg2142
g1256
sg2143
g2144
sg2145
g2146
sg2147
S'elset_wall_2_3'
p2198
sg2149
Nsg2150
g2151
sbsg1382
g0
(g2136
g2
Ntp2199
Rp2200
(dp2201
g15
I23
sg2140
g2141
sg2142
g1382
sg2143
g2144
sg2145
g2146
sg2147
S'elset_wall_2_6'
p2202
sg2149
Nsg2150
g2151
sbsg920
g0
(g2136
g2
Ntp2203
Rp2204
(dp2205
g15
I12
sg2140
g2141
sg2142
g920
sg2143
g2144
sg2145
g2155
sg2147
S'elset_wall_1_4'
p2206
sg2149
Nsg2150
g2151
sbsg1130
g0
(g2136
g2
Ntp2207
Rp2208
(dp2209
g15
I17
sg2140
g2141
sg2142
g1130
sg2143
g2144
sg2145
g2155
sg2147
S'elset_wall_1_9'
p2210
sg2149
Nsg2150
g2151
sbsg630
g0
(g2136
g2
Ntp2211
Rp2212
(dp2213
g15
I7
sg2140
g2141
sg2142
g630
sg2143
g2168
sg2145
g2169
sg2147
S'elset_plate_8'
p2214
sg2149
Nsg2150
g2151
sbsg794
g0
(g2136
g2
Ntp2215
Rp2216
(dp2217
g15
I9
sg2140
g2141
sg2142
g794
sg2143
g2144
sg2145
g2155
sg2147
S'elset_wall_1_1'
p2218
sg2149
Nsg2150
g2151
sbsg548
g0
(g2136
g2
Ntp2219
Rp2220
(dp2221
g15
I6
sg2140
g2141
sg2142
g548
sg2143
g2168
sg2145
g2169
sg2147
S'elset_plate_7'
p2222
sg2149
Nsg2150
g2151
sbsg1466
g0
(g2136
g2
Ntp2223
Rp2224
(dp2225
g15
I25
sg2140
g2141
sg2142
g1466
sg2143
g2144
sg2145
g2146
sg2147
S'elset_wall_2_8'
p2226
sg2149
Nsg2150
g2151
sbsg302
g0
(g2136
g2
Ntp2227
Rp2228
(dp2229
g15
I3
sg2140
g2141
sg2142
g302
sg2143
g2168
sg2145
g2169
sg2147
S'elset_plate_4'
p2230
sg2149
Nsg2150
g2151
sbsg138
g0
(g2136
g2
Ntp2231
Rp2232
(dp2233
g15
I1
sg2140
g2141
sg2142
g138
sg2143
g2168
sg2145
g2169
sg2147
S'elset_plate_2'
p2234
sg2149
Nsg2150
g2151
sbsg1553
g0
(g2136
g2
Ntp2235
Rp2236
(dp2237
g15
I27
sg2140
g2141
sg2142
g1553
sg2143
S'elset_mpc_element_mat'
p2238
sg2145
S'sec_mpc'
p2239
sg2147
S'elset_mpcs'
p2240
sg2149
Nsg2150
g2151
sbsg1046
g0
(g2136
g2
Ntp2241
Rp2242
(dp2243
g15
I15
sg2140
g2141
sg2142
g1046
sg2143
g2144
sg2145
g2155
sg2147
S'elset_wall_1_7'
p2244
sg2149
Nsg2150
g2151
sbsg1424
g0
(g2136
g2
Ntp2245
Rp2246
(dp2247
g15
I24
sg2140
g2141
sg2142
g1424
sg2143
g2144
sg2145
g2146
sg2147
S'elset_wall_2_7'
p2248
sg2149
Nsg2150
g2151
sbsg1508
g0
(g2136
g2
Ntp2249
Rp2250
(dp2251
g15
I26
sg2140
g2141
sg2142
g1508
sg2143
g2144
sg2145
g2146
sg2147
S'elset_wall_2_9'
p2252
sg2149
Nsg2150
g2151
sbsg1172
g0
(g2136
g2
Ntp2253
Rp2254
(dp2255
g15
I18
sg2140
g2141
sg2142
g1172
sg2143
g2144
sg2145
g2146
sg2147
S'elset_wall_2_1'
p2256
sg2149
Nsg2150
g2151
sbsg466
g0
(g2136
g2
Ntp2257
Rp2258
(dp2259
g15
I5
sg2140
g2141
sg2142
g466
sg2143
g2168
sg2145
g2169
sg2147
S'elset_plate_6'
p2260
sg2149
Nsg2150
g2151
sbsg962
g0
(g2136
g2
Ntp2261
Rp2262
(dp2263
g15
I13
sg2140
g2141
sg2142
g962
sg2143
g2144
sg2145
g2155
sg2147
S'elset_wall_1_5'
p2264
sg2149
Nsg2150
g2151
sbssS'interactions'
p2265
(dp2266
sS'loads'
p2267
(dp2268
S'earthPressure_liveLoad'
p2269
g0
(ccompas_fea.structure.load
AreaLoad
p2270
g2
Ntp2271
Rp2272
(dp2273
g15
I9
sS'__name__'
p2274
S'AreaLoad'
p2275
sS'name'
p2276
g2269
sS'axes'
p2277
S'local'
p2278
sS'components'
p2279
(dp2280
g23
F0.037699999999999997
sg27
I0
sg28
I0
ssS'nodes'
p2281
(lp2282
sS'elements'
p2283
(lp2284
I182
aI183
aI184
aI185
aI187
aI188
aI189
aI190
aI212
aI213
aI214
aI215
aI217
aI218
aI219
aI220
aI242
aI243
aI244
aI245
aI247
aI248
aI249
aI250
asS'attr_list'
p2285
(lp2286
S'name'
p2287
aS'axes'
p2288
aS'components'
p2289
aS'nodes'
p2290
aS'elements'
p2291
asbsS'Gleis1_BAHNLASTEN_Lasteinzugsflache_Lastblock_-2'
p2292
g0
(g2270
g2
Ntp2293
Rp2294
(dp2295
g15
I8
sg2274
g2275
sg2276
g2292
sg2277
S'global'
p2296
sg2279
(dp2297
g23
F0.089362883837759574
sg27
I0
sg28
I0
ssg2281
g2282
sg2283
(lp2298
I2
aI3
asg2285
(lp2299
g2287
ag2288
ag2289
ag2290
ag2291
asbsS'Gleis1_EIGENGEWICHTE_SCHIENE_Lasteinzugsflache'
p2300
g0
(g2270
g2
Ntp2301
Rp2302
(dp2303
g15
I3
sg2274
g2275
sg2276
g2300
sg2277
g2296
sg2279
(dp2304
g23
F0.0024685966860727589
sg27
I0
sg28
I0
ssg2281
g2282
sg2283
(lp2305
I2
aI3
aI4
aI5
aI7
aI8
aI9
aI10
aI12
aI13
aI14
aI15
aI17
aI18
aI19
aI20
aI24
aI25
aI29
aI30
aI34
aI35
aI39
aI40
aI61
aI66
aI71
aI72
aI76
aI77
aI123
aI124
aI125
aI128
aI129
aI130
aI133
aI134
aI135
aI138
aI139
aI140
aI146
aI151
aI156
asg2285
(lp2306
g2287
ag2288
ag2289
ag2290
ag2291
asbsS'earthPressure_backfill'
p2307
g0
(g2270
g2
Ntp2308
Rp2309
(dp2310
g15
I2
sg2274
g2275
sg2276
g2307
sg2277
g2278
sg2279
(dp2311
g23
F0.053466764842277081
sg27
I0
sg28
I0
ssg2281
g2282
sg2283
(lp2312
g2218
ag2156
ag2190
ag2206
ag2264
ag2182
ag2244
ag2160
ag2210
ag2256
ag2164
ag2198
ag2148
ag2174
ag2202
ag2248
ag2226
ag2252
asg2285
(lp2313
g2287
ag2288
ag2289
ag2290
ag2291
asbsS'Gleis1_BAHNLASTEN_Lasteinzugsflache_Lastblock_2'
p2314
g0
(g2270
g2
Ntp2315
Rp2316
(dp2317
g15
I5
sg2274
g2275
sg2276
g2314
sg2277
g2296
sg2279
(dp2318
g23
F0.089362883837759574
sg27
I0
sg28
I0
ssg2281
g2282
sg2283
(lp2319
I24
aI25
aI29
aI30
aI61
aI66
asg2285
(lp2320
g2287
ag2288
ag2289
ag2290
ag2291
asbsS'earthPressure_gravel'
p2321
g0
(g2270
g2
Ntp2322
Rp2323
(dp2324
g15
I1
sg2274
g2275
sg2276
g2321
sg2277
g2296
sg2279
(dp2325
g23
F0.013500000000000002
sg27
I0
sg28
I0
ssg2281
g2282
sg2283
(lp2326
g2170
ag2234
ag2194
ag2230
ag2186
ag2260
ag2222
ag2214
ag2178
asg2285
(lp2327
g2287
ag2288
ag2289
ag2290
ag2291
asbsS'Gleis1_BAHNLASTEN_Lasteinzugsflache_Lastblock_3'
p2328
g0
(g2270
g2
Ntp2329
Rp2330
(dp2331
g15
I6
sg2274
g2275
sg2276
g2328
sg2277
g2296
sg2279
(dp2332
g23
F0.089362883837759574
sg27
I0
sg28
I0
ssg2281
g2282
sg2283
(lp2333
I34
aI35
aI39
aI40
aI71
aI72
asg2285
(lp2334
g2287
ag2288
ag2289
ag2290
ag2291
asbsS'Gleis1_BAHNLASTEN_Lasteinzugsflache_Lastblock_1'
p2335
g0
(g2270
g2
Ntp2336
Rp2337
(dp2338
g15
I4
sg2274
g2275
sg2276
g2335
sg2277
g2296
sg2279
(dp2339
g23
F0.089362883837759574
sg27
I0
sg28
I0
ssg2281
g2282
sg2283
(lp2340
I128
aI129
aI130
aI133
aI134
aI135
aI146
aI151
asg2285
(lp2341
g2287
ag2288
ag2289
ag2290
ag2291
asbsS'load_gravity'
p2342
g0
(ccompas_fea.structure.load
GravityLoad
p2343
g2
Ntp2344
Rp2345
(dp2346
g15
I0
sg2274
S'GravityLoad'
p2347
sg2276
g2342
sg2277
g2296
sg2279
(dp2348
g23
F1.3500000000000001
sg27
F0.0
sg28
F0.0
ssg2281
g2282
sg2283
(lp2349
g2170
ag2234
ag2194
ag2230
ag2186
ag2260
ag2222
ag2214
ag2178
ag2218
ag2156
ag2190
ag2206
ag2264
ag2182
ag2244
ag2160
ag2210
ag2256
ag2164
ag2198
ag2148
ag2174
ag2202
ag2248
ag2226
ag2252
asg2285
(lp2350
g2287
ag2288
ag2289
ag2290
ag2291
aS'g'
p2351
asS'g'
p2352
F-9.8100000000000005
sbsS'Gleis1_BAHNLASTEN_Lasteinzugsflache_Lastblock_-1'
p2353
g0
(g2270
g2
Ntp2354
Rp2355
(dp2356
g15
I7
sg2274
g2275
sg2276
g2353
sg2277
g2296
sg2279
(dp2357
g23
F0.089362883837759574
sg27
I0
sg28
I0
ssg2281
g2282
sg2283
(lp2358
I19
aI20
aI123
aI124
aI125
asg2285
(lp2359
g2287
ag2288
ag2289
ag2290
ag2291
asbssS'materials'
p2360
(dp2361
g2238
g0
(ccompas_fea.structure.material
MPCStiff
p2362
g2
Ntp2363
Rp2364
(dp2365
g15
I2
sS'__name__'
p2366
S'MPCStiff'
p2367
sS'name'
p2368
g2238
sS'attr_list'
p2369
(lp2370
g2287
aS'E'
p2371
aS'v'
p2372
aS'G'
p2373
aS'p'
p2374
aS'tension'
p2375
aS'compression'
p2376
asS'E'
p2377
(dp2378
g2371
L10000000000000L
ssS'v'
p2379
(dp2380
g2372
F0.29999999999999999
ssS'G'
p2381
(dp2382
g2373
F3846153846153.8462
ssS'p'
p2383
F0.10000000000000001
sS'tension'
p2384
I01
sS'compression'
p2385
I01
sbsg2144
g0
(ccompas_fea.structure.material
CMMUsermat
p2386
g2
Ntp2387
Rp2388
(dp2389
g15
I1
sg2366
S'CMMUsermat'
p2390
sg2368
g2144
sg2369
(lp2391
g2287
ag2371
ag2372
ag2373
ag2374
aS'R_Rohr'
p2392
aS'rho'
p2393
aS'oo'
p2394
aS'uu'
p2395
aS'beton'
p2396
aS'fcc'
p2397
aS'vc'
p2398
aS'ecu'
p2399
aS'k_E'
p2400
aS'theta_b0'
p2401
aS'theta_b1'
p2402
aS'k_riss'
p2403
aS'Entfestigung'
p2404
aS'lambdaTS'
p2405
aS'srmx'
p2406
aS'srmy'
p2407
aS'Begrenzung'
p2408
aS'KritQ'
p2409
aS'winkelD'
p2410
aS'k_vr'
p2411
aS'fswy'
p2412
aS'stahl1'
p2413
aS'zm1'
p2414
aS'fsy1'
p2415
aS'fsu1'
p2416
aS'esu1'
p2417
aS'esv1'
p2418
aS'Es1'
p2419
aS'ka1'
p2420
aS'kb1'
p2421
aS'kc1'
p2422
aS'as1'
p2423
aS'dm1'
p2424
aS'psi1'
p2425
aS'stahl2'
p2426
aS'zm2'
p2427
aS'fsy2'
p2428
aS'fsu2'
p2429
aS'esu2'
p2430
aS'esv2'
p2431
aS'Es2'
p2432
aS'ka2'
p2433
aS'kb2'
p2434
aS'kc2'
p2435
aS'as2'
p2436
aS'dm2'
p2437
aS'psi2'
p2438
aS'stahl3'
p2439
aS'zm3'
p2440
aS'fsy3'
p2441
aS'fsu3'
p2442
aS'esu3'
p2443
aS'esv3'
p2444
aS'Es3'
p2445
aS'ka3'
p2446
aS'kb3'
p2447
aS'kc3'
p2448
aS'as3'
p2449
aS'dm3'
p2450
aS'psi3'
p2451
aS'stahl4'
p2452
aS'zm4'
p2453
aS'fsy4'
p2454
aS'fsu4'
p2455
aS'esu4'
p2456
aS'esv4'
p2457
aS'Es4'
p2458
aS'ka4'
p2459
aS'kb4'
p2460
aS'kc4'
p2461
aS'as4'
p2462
aS'dm4'
p2463
aS'psi4'
p2464
asS'E'
p2465
(dp2466
S'E'
p2467
I200000
ssS'v'
p2468
(dp2469
S'v'
p2470
F0.10000000000000001
ssS'G'
p2471
(dp2472
g2373
F90909.090909090897
ssS'p'
p2473
F2.5000000000000002e-06
sS'R_Rohr'
p2474
(dp2475
g2392
I-1
ssS'rho'
p2476
(dp2477
g2393
F2.5000000000000002e-06
ssS'oo'
p2478
(dp2479
g2394
I30
ssS'uu'
p2480
(dp2481
g2395
I30
ssS'beton'
p2482
(dp2483
g2396
I2
ssS'fcc'
p2484
(dp2485
g2397
I26
ssS'vc'
p2486
(dp2487
g2398
I0
ssS'ecu'
p2488
(dp2489
g2399
F-0.002
ssS'k_E'
p2490
(dp2491
g2400
I10000
ssS'theta_b0'
p2492
(dp2493
g2401
I2
ssS'theta_b1'
p2494
(dp2495
g2402
I1
ssS'k_riss'
p2496
(dp2497
g2403
I0
ssS'Entfestigung'
p2498
(dp2499
g2404
I0
ssS'lambdaTS'
p2500
(dp2501
g2405
F0.67000000000000004
ssS'srmx'
p2502
(dp2503
g2406
I1
ssS'srmy'
p2504
(dp2505
g2407
I1
ssS'Begrenzung'
p2506
(dp2507
g2408
I2
ssS'KritQ'
p2508
(dp2509
g2409
I0
ssS'winkelD'
p2510
(dp2511
g2410
I45
ssS'k_vr'
p2512
(dp2513
g2411
I1
ssS'fswy'
p2514
(dp2515
g2412
I500
ssS'stahl1'
p2516
(dp2517
g2413
I1
ssS'zm1'
p2518
(dp2519
g2414
I2
ssS'fsy1'
p2520
(dp2521
g2415
I381
ssS'fsu1'
p2522
(dp2523
g2416
I412
ssS'esu1'
p2524
(dp2525
g2417
F0.044999999999999998
ssS'esv1'
p2526
(dp2527
g2418
F0.02
ssS'Es1'
p2528
(dp2529
g2419
I200000
ssS'ka1'
p2530
(dp2531
g2420
I-1
ssS'kb1'
p2532
(dp2533
g2421
I-1
ssS'kc1'
p2534
(dp2535
g2422
I-1
ssS'as1'
p2536
(dp2537
g2423
F0.74131505260247299
ssS'dm1'
p2538
(dp2539
g2424
F15.120923452712962
ssS'psi1'
p2540
(dp2541
g2425
I90
ssS'stahl2'
p2542
(dp2543
g2426
I1
ssS'zm2'
p2544
(dp2545
g2427
I2
ssS'fsy2'
p2546
(dp2547
g2428
I381
ssS'fsu2'
p2548
(dp2549
g2429
I412
ssS'esu2'
p2550
(dp2551
g2430
F0.044999999999999998
ssS'esv2'
p2552
(dp2553
g2431
F0.02
ssS'Es2'
p2554
(dp2555
g2432
I200000
ssS'ka2'
p2556
(dp2557
g2433
I-1
ssS'kb2'
p2558
(dp2559
g2434
I-1
ssS'kc2'
p2560
(dp2561
g2435
I-1
ssS'as2'
p2562
(dp2563
g2436
F0.4668836667863217
ssS'dm2'
p2564
(dp2565
g2437
F12.0
ssS'psi2'
p2566
(dp2567
g2438
I0
ssS'stahl3'
p2568
(dp2569
g2439
I1
ssS'zm3'
p2570
(dp2571
g2440
I2
ssS'fsy3'
p2572
(dp2573
g2441
I381
ssS'fsu3'
p2574
(dp2575
g2442
I412
ssS'esu3'
p2576
(dp2577
g2443
F0.044999999999999998
ssS'esv3'
p2578
(dp2579
g2444
F0.02
ssS'Es3'
p2580
(dp2581
g2445
I200000
ssS'ka3'
p2582
(dp2583
g2446
I-1
ssS'kb3'
p2584
(dp2585
g2447
I-1
ssS'kc3'
p2586
(dp2587
g2448
I-1
ssS'as3'
p2588
(dp2589
g2449
F0.4668836667863217
ssS'dm3'
p2590
(dp2591
g2450
F12.0
ssS'psi3'
p2592
(dp2593
g2451
I0
ssS'stahl4'
p2594
(dp2595
g2452
I1
ssS'zm4'
p2596
(dp2597
g2453
I2
ssS'fsy4'
p2598
(dp2599
g2454
I381
ssS'fsu4'
p2600
(dp2601
g2455
I412
ssS'esu4'
p2602
(dp2603
g2456
F0.044999999999999998
ssS'esv4'
p2604
(dp2605
g2457
F0.02
ssS'Es4'
p2606
(dp2607
g2458
I200000
ssS'ka4'
p2608
(dp2609
g2459
I-1
ssS'kb4'
p2610
(dp2611
g2460
I-1
ssS'kc4'
p2612
(dp2613
g2461
I-1
ssS'as4'
p2614
(dp2615
g2462
F0.52433884806476527
ssS'dm4'
p2616
(dp2617
g2463
F12.716948816258176
ssS'psi4'
p2618
(dp2619
g2464
I90
ssbsg2168
g0
(g2386
g2
Ntp2620
Rp2621
(dp2622
g15
I0
sg2366
g2390
sg2368
g2168
sg2369
(lp2623
g2287
ag2371
ag2372
ag2373
ag2374
ag2392
ag2393
ag2394
ag2395
ag2396
ag2397
ag2398
ag2399
ag2400
ag2401
ag2402
ag2403
ag2404
ag2405
ag2406
ag2407
ag2408
ag2409
ag2410
ag2411
ag2412
ag2413
ag2414
ag2415
ag2416
ag2417
ag2418
ag2419
ag2420
ag2421
ag2422
ag2423
ag2424
ag2425
ag2426
ag2427
ag2428
ag2429
ag2430
ag2431
ag2432
ag2433
ag2434
ag2435
ag2436
ag2437
ag2438
ag2439
ag2440
ag2441
ag2442
ag2443
ag2444
ag2445
ag2446
ag2447
ag2448
ag2449
ag2450
ag2451
ag2452
ag2453
ag2454
ag2455
ag2456
ag2457
ag2458
ag2459
ag2460
ag2461
ag2462
ag2463
ag2464
asg2465
(dp2624
g2467
I200000
ssg2468
(dp2625
g2470
F0.10000000000000001
ssg2471
(dp2626
g2373
F90909.090909090897
ssg2473
F2.5000000000000002e-06
sg2474
(dp2627
g2392
I-1
ssg2476
(dp2628
g2393
F2.5000000000000002e-06
ssg2478
(dp2629
g2394
I30
ssg2480
(dp2630
g2395
I30
ssg2482
(dp2631
g2396
I2
ssg2484
(dp2632
g2397
I26
ssg2486
(dp2633
g2398
I0
ssg2488
(dp2634
g2399
F-0.002
ssg2490
(dp2635
g2400
I10000
ssg2492
(dp2636
g2401
I2
ssg2494
(dp2637
g2402
I1
ssg2496
(dp2638
g2403
I0
ssg2498
(dp2639
g2404
I0
ssg2500
(dp2640
g2405
F0.67000000000000004
ssg2502
(dp2641
g2406
I1
ssg2504
(dp2642
g2407
I1
ssg2506
(dp2643
g2408
I2
ssg2508
(dp2644
g2409
I0
ssg2510
(dp2645
g2410
I45
ssg2512
(dp2646
g2411
I1
ssg2514
(dp2647
g2412
I500
ssg2516
(dp2648
g2413
I1
ssg2518
(dp2649
g2414
I2
ssg2520
(dp2650
g2415
I381
ssg2522
(dp2651
g2416
I412
ssg2524
(dp2652
g2417
F0.044999999999999998
ssg2526
(dp2653
g2418
F0.02
ssg2528
(dp2654
g2419
I200000
ssg2530
(dp2655
g2420
I-1
ssg2532
(dp2656
g2421
I-1
ssg2534
(dp2657
g2422
I-1
ssg2536
(dp2658
g2423
F1.3058717013545387
ssg2538
(dp2659
g2424
F21.39117150908886
ssg2540
(dp2660
g2425
I90
ssg2542
(dp2661
g2426
I1
ssg2544
(dp2662
g2427
I2
ssg2546
(dp2663
g2428
I381
ssg2548
(dp2664
g2429
I412
ssg2550
(dp2665
g2430
F0.044999999999999998
ssg2552
(dp2666
g2431
F0.02
ssg2554
(dp2667
g2432
I200000
ssg2556
(dp2668
g2433
I-1
ssg2558
(dp2669
g2434
I-1
ssg2560
(dp2670
g2435
I-1
ssg2562
(dp2671
g2436
F0.50358495397502934
ssg2564
(dp2672
g2437
F13.283749810265917
ssg2566
(dp2673
g2438
I0
ssg2568
(dp2674
g2439
I1
ssg2570
(dp2675
g2440
I2
ssg2572
(dp2676
g2441
I381
ssg2574
(dp2677
g2442
I412
ssg2576
(dp2678
g2443
F0.044999999999999998
ssg2578
(dp2679
g2444
F0.02
ssg2580
(dp2680
g2445
I200000
ssg2582
(dp2681
g2446
I-1
ssg2584
(dp2682
g2447
I-1
ssg2586
(dp2683
g2448
I-1
ssg2588
(dp2684
g2449
F0.41095461619693424
ssg2590
(dp2685
g2450
F12.0
ssg2592
(dp2686
g2451
I0
ssg2594
(dp2687
g2452
I1
ssg2596
(dp2688
g2453
I2
ssg2598
(dp2689
g2454
I381
ssg2600
(dp2690
g2455
I412
ssg2602
(dp2691
g2456
F0.044999999999999998
ssg2604
(dp2692
g2457
F0.02
ssg2606
(dp2693
g2458
I200000
ssg2608
(dp2694
g2459
I-1
ssg2610
(dp2695
g2460
I-1
ssg2612
(dp2696
g2461
I-1
ssg2614
(dp2697
g2462
F1.1583556870746854
ssg2616
(dp2698
g2463
F20.146763208929016
ssg2618
(dp2699
g2464
I90
ssbssS'misc'
p2700
(dp2701
sS'name'
p2702
S'NLFE_CFB3'
p2703
sS'nodes'
p2704
(dp2705
I0
g0
(ccompas_fea.structure.node
Node
p2706
g2
Ntp2707
Rp2708
(dp2709
S'__name__'
p2710
S'Node'
p2711
sS'key'
p2712
I0
sS'x'
p2713
F0.0
sS'y'
p2714
F0.0
sS'z'
p2715
F0.0
sS'ex'
p2716
(lp2717
I1
aI0
aI0
asS'ey'
p2718
(lp2719
I0
aI1
aI0
asS'ez'
p2720
(lp2721
I0
aI0
aI1
asS'mass'
p2722
NsbsI1
g0
(g2706
g2
Ntp2723
Rp2724
(dp2725
g2710
g2711
sg2712
I1
sg2713
F996.76401829323754
sg2714
F0.0
sg2715
F0.0
sg2716
g2717
sg2718
g2719
sg2720
g2721
sg2722
NsbsI2
g0
(g2706
g2
Ntp2726
Rp2727
(dp2728
g2710
g2711
sg2712
I2
sg2713
F1993.5280365864751
sg2714
F0.0
sg2715
F0.0
sg2716
g2717
sg2718
g2719
sg2720
g2721
sg2722
NsbsI3
g0
(g2706
g2
Ntp2729
Rp2730
(dp2731
g2710
g2711
sg2712
I3
sg2713
F2990.2920548797124
sg2714
F0.0
sg2715
F0.0
sg2716
g2717
sg2718
g2719
sg2720
g2721
sg2722
NsbsI4
g0
(g2706
g2
Ntp2732
Rp2733
(dp2734
g2710
g2711
sg2712
I4
sg2713
F3987.0560731729502
sg2714
F0.0
sg2715
F0.0
sg2716
g2717
sg2718
g2719
sg2720
g2721
sg2722
NsbsI5
g0
(g2706
g2
Ntp2735
Rp2736
(dp2737
g2710
g2711
sg2712
I5
sg2713
F4983.8200914661875
sg2714
F0.0
sg2715
F0.0
sg2716
g2717
sg2718
g2719
sg2720
g2721
sg2722
NsbsI6
g0
(g2706
g2
Ntp2738
Rp2739
(dp2740
g2710
g2711
sg2712
I6
sg2713
F0.0
sg2714
F1011.0693331928961
sg2715
F0.0
sg2716
g2717
sg2718
g2719
sg2720
g2721
sg2722
NsbsI7
g0
(g2706
g2
Ntp2741
Rp2742
(dp2743
g2710
g2711
sg2712
I7
sg2713
F996.76401829323754
sg2714
F1011.0693331928962
sg2715
F0.0
sg2716
g2717
sg2718
g2719
sg2720
g2721
sg2722
NsbsI8
g0
(g2706
g2
Ntp2744
Rp2745
(dp2746
g2710
g2711
sg2712
I8
sg2713
F1993.5280365864751
sg2714
F1011.0693331928961
sg2715
F0.0
sg2716
g2717
sg2718
g2719
sg2720
g2721
sg2722
NsbsI9
g0
(g2706
g2
Ntp2747
Rp2748
(dp2749
g2710
g2711
sg2712
I9
sg2713
F2990.2920548797129
sg2714
F1011.0693331928961
sg2715
F0.0
sg2716
g2717
sg2718
g2719
sg2720
g2721
sg2722
NsbsI10
g0
(g2706
g2
Ntp2750
Rp2751
(dp2752
g2710
g2711
sg2712
I10
sg2713
F3987.0560731729502
sg2714
F1011.0693331928962
sg2715
F0.0
sg2716
g2717
sg2718
g2719
sg2720
g2721
sg2722
NsbsI11
g0
(g2706
g2
Ntp2753
Rp2754
(dp2755
g2710
g2711
sg2712
I11
sg2713
F4983.8200914661884
sg2714
F1011.0693331928961
sg2715
F0.0
sg2716
g2717
sg2718
g2719
sg2720
g2721
sg2722
NsbsI12
g0
(g2706
g2
Ntp2756
Rp2757
(dp2758
g2710
g2711
sg2712
I12
sg2713
F0.0
sg2714
F2022.1386663857922
sg2715
F0.0
sg2716
g2717
sg2718
g2719
sg2720
g2721
sg2722
NsbsI13
g0
(g2706
g2
Ntp2759
Rp2760
(dp2761
g2710
g2711
sg2712
I13
sg2713
F996.76401829323754
sg2714
F2022.1386663857925
sg2715
F0.0
sg2716
g2717
sg2718
g2719
sg2720
g2721
sg2722
NsbsI14
g0
(g2706
g2
Ntp2762
Rp2763
(dp2764
g2710
g2711
sg2712
I14
sg2713
F1993.5280365864751
sg2714
F2022.1386663857922
sg2715
F0.0
sg2716
g2717
sg2718
g2719
sg2720
g2721
sg2722
NsbsI15
g0
(g2706
g2
Ntp2765
Rp2766
(dp2767
g2710
g2711
sg2712
I15
sg2713
F2990.2920548797124
sg2714
F2022.1386663857922
sg2715
F0.0
sg2716
g2717
sg2718
g2719
sg2720
g2721
sg2722
NsbsI16
g0
(g2706
g2
Ntp2768
Rp2769
(dp2770
g2710
g2711
sg2712
I16
sg2713
F3987.0560731729502
sg2714
F2022.1386663857925
sg2715
F0.0
sg2716
g2717
sg2718
g2719
sg2720
g2721
sg2722
NsbsI17
g0
(g2706
g2
Ntp2771
Rp2772
(dp2773
g2710
g2711
sg2712
I17
sg2713
F4983.8200914661875
sg2714
F2022.1386663857922
sg2715
F0.0
sg2716
g2717
sg2718
g2719
sg2720
g2721
sg2722
NsbsI18
g0
(g2706
g2
Ntp2774
Rp2775
(dp2776
g2710
g2711
sg2712
I18
sg2713
F0.0
sg2714
F3033.2079995786889
sg2715
F0.0
sg2716
g2717
sg2718
g2719
sg2720
g2721
sg2722
NsbsI19
g0
(g2706
g2
Ntp2777
Rp2778
(dp2779
g2710
g2711
sg2712
I19
sg2713
F996.76401829323754
sg2714
F3033.2079995786889
sg2715
F0.0
sg2716
g2717
sg2718
g2719
sg2720
g2721
sg2722
NsbsI20
g0
(g2706
g2
Ntp2780
Rp2781
(dp2782
g2710
g2711
sg2712
I20
sg2713
F1993.5280365864751
sg2714
F3033.2079995786889
sg2715
F0.0
sg2716
g2717
sg2718
g2719
sg2720
g2721
sg2722
NsbsI21
g0
(g2706
g2
Ntp2783
Rp2784
(dp2785
g2710
g2711
sg2712
I21
sg2713
F2990.2920548797129
sg2714
F3033.2079995786889
sg2715
F0.0
sg2716
g2717
sg2718
g2719
sg2720
g2721
sg2722
NsbsI22
g0
(g2706
g2
Ntp2786
Rp2787
(dp2788
g2710
g2711
sg2712
I22
sg2713
F3987.0560731729502
sg2714
F3033.2079995786885
sg2715
F0.0
sg2716
g2717
sg2718
g2719
sg2720
g2721
sg2722
NsbsI23
g0
(g2706
g2
Ntp2789
Rp2790
(dp2791
g2710
g2711
sg2712
I23
sg2713
F4983.8200914661884
sg2714
F3033.2079995786889
sg2715
F0.0
sg2716
g2717
sg2718
g2719
sg2720
g2721
sg2722
NsbsI24
g0
(g2706
g2
Ntp2792
Rp2793
(dp2794
g2710
g2711
sg2712
I24
sg2713
F0.0
sg2714
F4044.2773327715845
sg2715
F0.0
sg2716
g2717
sg2718
g2719
sg2720
g2721
sg2722
NsbsI25
g0
(g2706
g2
Ntp2795
Rp2796
(dp2797
g2710
g2711
sg2712
I25
sg2713
F996.76401829323754
sg2714
F4044.277332771585
sg2715
F0.0
sg2716
g2717
sg2718
g2719
sg2720
g2721
sg2722
NsbsI26
g0
(g2706
g2
Ntp2798
Rp2799
(dp2800
g2710
g2711
sg2712
I26
sg2713
F1993.5280365864751
sg2714
F4044.2773327715845
sg2715
F0.0
sg2716
g2717
sg2718
g2719
sg2720
g2721
sg2722
NsbsI27
g0
(g2706
g2
Ntp2801
Rp2802
(dp2803
g2710
g2711
sg2712
I27
sg2713
F2990.2920548797124
sg2714
F4044.2773327715845
sg2715
F0.0
sg2716
g2717
sg2718
g2719
sg2720
g2721
sg2722
NsbsI28
g0
(g2706
g2
Ntp2804
Rp2805
(dp2806
g2710
g2711
sg2712
I28
sg2713
F3987.0560731729502
sg2714
F4044.277332771585
sg2715
F0.0
sg2716
g2717
sg2718
g2719
sg2720
g2721
sg2722
NsbsI29
g0
(g2706
g2
Ntp2807
Rp2808
(dp2809
g2710
g2711
sg2712
I29
sg2713
F4983.8200914661875
sg2714
F4044.2773327715845
sg2715
F0.0
sg2716
g2717
sg2718
g2719
sg2720
g2721
sg2722
NsbsI30
g0
(g2706
g2
Ntp2810
Rp2811
(dp2812
g2710
g2711
sg2712
I30
sg2713
F0.0
sg2714
F8211.1085241120054
sg2715
F0.0
sg2716
g2717
sg2718
g2719
sg2720
g2721
sg2722
NsbsI31
g0
(g2706
g2
Ntp2813
Rp2814
(dp2815
g2710
g2711
sg2712
I31
sg2713
F996.76401829323754
sg2714
F8211.1085241120054
sg2715
F0.0
sg2716
g2717
sg2718
g2719
sg2720
g2721
sg2722
NsbsI32
g0
(g2706
g2
Ntp2816
Rp2817
(dp2818
g2710
g2711
sg2712
I32
sg2713
F1993.5280365864751
sg2714
F8211.1085241120054
sg2715
F0.0
sg2716
g2717
sg2718
g2719
sg2720
g2721
sg2722
NsbsI33
g0
(g2706
g2
Ntp2819
Rp2820
(dp2821
g2710
g2711
sg2712
I33
sg2713
F2990.2920548797124
sg2714
F8211.1085241120054
sg2715
F0.0
sg2716
g2717
sg2718
g2719
sg2720
g2721
sg2722
NsbsI34
g0
(g2706
g2
Ntp2822
Rp2823
(dp2824
g2710
g2711
sg2712
I34
sg2713
F3987.0560731729502
sg2714
F8211.1085241120054
sg2715
F0.0
sg2716
g2717
sg2718
g2719
sg2720
g2721
sg2722
NsbsI35
g0
(g2706
g2
Ntp2825
Rp2826
(dp2827
g2710
g2711
sg2712
I35
sg2713
F4983.8200914661875
sg2714
F8211.1085241120054
sg2715
F0.0
sg2716
g2717
sg2718
g2719
sg2720
g2721
sg2722
NsbsI36
g0
(g2706
g2
Ntp2828
Rp2829
(dp2830
g2710
g2711
sg2712
I36
sg2713
F0.0
sg2714
F9222.1778573049014
sg2715
F0.0
sg2716
g2717
sg2718
g2719
sg2720
g2721
sg2722
NsbsI37
g0
(g2706
g2
Ntp2831
Rp2832
(dp2833
g2710
g2711
sg2712
I37
sg2713
F996.76401829323754
sg2714
F9222.1778573049014
sg2715
F0.0
sg2716
g2717
sg2718
g2719
sg2720
g2721
sg2722
NsbsI38
g0
(g2706
g2
Ntp2834
Rp2835
(dp2836
g2710
g2711
sg2712
I38
sg2713
F1993.5280365864751
sg2714
F9222.1778573049014
sg2715
F0.0
sg2716
g2717
sg2718
g2719
sg2720
g2721
sg2722
NsbsI39
g0
(g2706
g2
Ntp2837
Rp2838
(dp2839
g2710
g2711
sg2712
I39
sg2713
F2990.2920548797119
sg2714
F9222.1778573049014
sg2715
F0.0
sg2716
g2717
sg2718
g2719
sg2720
g2721
sg2722
NsbsI40
g0
(g2706
g2
Ntp2840
Rp2841
(dp2842
g2710
g2711
sg2712
I40
sg2713
F3987.0560731729502
sg2714
F9222.1778573049014
sg2715
F0.0
sg2716
g2717
sg2718
g2719
sg2720
g2721
sg2722
NsbsI41
g0
(g2706
g2
Ntp2843
Rp2844
(dp2845
g2710
g2711
sg2712
I41
sg2713
F4983.8200914661875
sg2714
F9222.1778573049014
sg2715
F0.0
sg2716
g2717
sg2718
g2719
sg2720
g2721
sg2722
NsbsI42
g0
(g2706
g2
Ntp2846
Rp2847
(dp2848
g2710
g2711
sg2712
I42
sg2713
F0.0
sg2714
F10233.247190497797
sg2715
F0.0
sg2716
g2717
sg2718
g2719
sg2720
g2721
sg2722
NsbsI43
g0
(g2706
g2
Ntp2849
Rp2850
(dp2851
g2710
g2711
sg2712
I43
sg2713
F996.76401829323754
sg2714
F10233.247190497797
sg2715
F0.0
sg2716
g2717
sg2718
g2719
sg2720
g2721
sg2722
NsbsI44
g0
(g2706
g2
Ntp2852
Rp2853
(dp2854
g2710
g2711
sg2712
I44
sg2713
F1993.5280365864751
sg2714
F10233.247190497797
sg2715
F0.0
sg2716
g2717
sg2718
g2719
sg2720
g2721
sg2722
NsbsI45
g0
(g2706
g2
Ntp2855
Rp2856
(dp2857
g2710
g2711
sg2712
I45
sg2713
F2990.2920548797124
sg2714
F10233.247190497797
sg2715
F0.0
sg2716
g2717
sg2718
g2719
sg2720
g2721
sg2722
NsbsI46
g0
(g2706
g2
Ntp2858
Rp2859
(dp2860
g2710
g2711
sg2712
I46
sg2713
F3987.0560731729502
sg2714
F10233.247190497797
sg2715
F0.0
sg2716
g2717
sg2718
g2719
sg2720
g2721
sg2722
NsbsI47
g0
(g2706
g2
Ntp2861
Rp2862
(dp2863
g2710
g2711
sg2712
I47
sg2713
F4983.8200914661875
sg2714
F10233.247190497797
sg2715
F0.0
sg2716
g2717
sg2718
g2719
sg2720
g2721
sg2722
NsbsI48
g0
(g2706
g2
Ntp2864
Rp2865
(dp2866
g2710
g2711
sg2712
I48
sg2713
F0.0
sg2714
F11244.316523690693
sg2715
F0.0
sg2716
g2717
sg2718
g2719
sg2720
g2721
sg2722
NsbsI49
g0
(g2706
g2
Ntp2867
Rp2868
(dp2869
g2710
g2711
sg2712
I49
sg2713
F996.76401829323754
sg2714
F11244.316523690693
sg2715
F0.0
sg2716
g2717
sg2718
g2719
sg2720
g2721
sg2722
NsbsI50
g0
(g2706
g2
Ntp2870
Rp2871
(dp2872
g2710
g2711
sg2712
I50
sg2713
F1993.5280365864751
sg2714
F11244.316523690693
sg2715
F0.0
sg2716
g2717
sg2718
g2719
sg2720
g2721
sg2722
NsbsI51
g0
(g2706
g2
Ntp2873
Rp2874
(dp2875
g2710
g2711
sg2712
I51
sg2713
F2990.2920548797119
sg2714
F11244.316523690693
sg2715
F0.0
sg2716
g2717
sg2718
g2719
sg2720
g2721
sg2722
NsbsI52
g0
(g2706
g2
Ntp2876
Rp2877
(dp2878
g2710
g2711
sg2712
I52
sg2713
F3987.0560731729502
sg2714
F11244.316523690693
sg2715
F0.0
sg2716
g2717
sg2718
g2719
sg2720
g2721
sg2722
NsbsI53
g0
(g2706
g2
Ntp2879
Rp2880
(dp2881
g2710
g2711
sg2712
I53
sg2713
F4983.8200914661875
sg2714
F11244.316523690693
sg2715
F0.0
sg2716
g2717
sg2718
g2719
sg2720
g2721
sg2722
NsbsI54
g0
(g2706
g2
Ntp2882
Rp2883
(dp2884
g2710
g2711
sg2712
I54
sg2713
F0.0
sg2714
F12255.385856883589
sg2715
F0.0
sg2716
g2717
sg2718
g2719
sg2720
g2721
sg2722
NsbsI55
g0
(g2706
g2
Ntp2885
Rp2886
(dp2887
g2710
g2711
sg2712
I55
sg2713
F996.76401829323754
sg2714
F12255.385856883589
sg2715
F0.0
sg2716
g2717
sg2718
g2719
sg2720
g2721
sg2722
NsbsI56
g0
(g2706
g2
Ntp2888
Rp2889
(dp2890
g2710
g2711
sg2712
I56
sg2713
F1993.5280365864751
sg2714
F12255.385856883589
sg2715
F0.0
sg2716
g2717
sg2718
g2719
sg2720
g2721
sg2722
NsbsI57
g0
(g2706
g2
Ntp2891
Rp2892
(dp2893
g2710
g2711
sg2712
I57
sg2713
F2990.2920548797124
sg2714
F12255.385856883589
sg2715
F0.0
sg2716
g2717
sg2718
g2719
sg2720
g2721
sg2722
NsbsI58
g0
(g2706
g2
Ntp2894
Rp2895
(dp2896
g2710
g2711
sg2712
I58
sg2713
F3987.0560731729502
sg2714
F12255.385856883589
sg2715
F0.0
sg2716
g2717
sg2718
g2719
sg2720
g2721
sg2722
NsbsI59
g0
(g2706
g2
Ntp2897
Rp2898
(dp2899
g2710
g2711
sg2712
I59
sg2713
F4983.8200914661875
sg2714
F12255.385856883589
sg2715
F0.0
sg2716
g2717
sg2718
g2719
sg2720
g2721
sg2722
NsbsI60
g0
(g2706
g2
Ntp2900
Rp2901
(dp2902
g2710
g2711
sg2712
I60
sg2713
F5980.5841097594257
sg2714
F0.0
sg2715
F0.0
sg2716
g2717
sg2718
g2719
sg2720
g2721
sg2722
NsbsI61
g0
(g2706
g2
Ntp2903
Rp2904
(dp2905
g2710
g2711
sg2712
I61
sg2713
F6977.348128052663
sg2714
F0.0
sg2715
F0.0
sg2716
g2717
sg2718
g2719
sg2720
g2721
sg2722
NsbsI62
g0
(g2706
g2
Ntp2906
Rp2907
(dp2908
g2710
g2711
sg2712
I62
sg2713
F7974.1121463459003
sg2714
F0.0
sg2715
F0.0
sg2716
g2717
sg2718
g2719
sg2720
g2721
sg2722
NsbsI63
g0
(g2706
g2
Ntp2909
Rp2910
(dp2911
g2710
g2711
sg2712
I63
sg2713
F8970.8761646391376
sg2714
F0.0
sg2715
F0.0
sg2716
g2717
sg2718
g2719
sg2720
g2721
sg2722
NsbsI64
g0
(g2706
g2
Ntp2912
Rp2913
(dp2914
g2710
g2711
sg2712
I64
sg2713
F9967.640182932375
sg2714
F0.0
sg2715
F0.0
sg2716
g2717
sg2718
g2719
sg2720
g2721
sg2722
NsbsI65
g0
(g2706
g2
Ntp2915
Rp2916
(dp2917
g2710
g2711
sg2712
I65
sg2713
F5980.5841097594257
sg2714
F1011.0693331928962
sg2715
F0.0
sg2716
g2717
sg2718
g2719
sg2720
g2721
sg2722
NsbsI66
g0
(g2706
g2
Ntp2918
Rp2919
(dp2920
g2710
g2711
sg2712
I66
sg2713
F6977.348128052663
sg2714
F1011.0693331928961
sg2715
F0.0
sg2716
g2717
sg2718
g2719
sg2720
g2721
sg2722
NsbsI67
g0
(g2706
g2
Ntp2921
Rp2922
(dp2923
g2710
g2711
sg2712
I67
sg2713
F7974.1121463459003
sg2714
F1011.0693331928961
sg2715
F0.0
sg2716
g2717
sg2718
g2719
sg2720
g2721
sg2722
NsbsI68
g0
(g2706
g2
Ntp2924
Rp2925
(dp2926
g2710
g2711
sg2712
I68
sg2713
F8970.8761646391376
sg2714
F1011.0693331928962
sg2715
F0.0
sg2716
g2717
sg2718
g2719
sg2720
g2721
sg2722
NsbsI69
g0
(g2706
g2
Ntp2927
Rp2928
(dp2929
g2710
g2711
sg2712
I69
sg2713
F9967.6401829323768
sg2714
F1011.0693331928961
sg2715
F0.0
sg2716
g2717
sg2718
g2719
sg2720
g2721
sg2722
NsbsI70
g0
(g2706
g2
Ntp2930
Rp2931
(dp2932
g2710
g2711
sg2712
I70
sg2713
F5980.5841097594257
sg2714
F2022.1386663857925
sg2715
F0.0
sg2716
g2717
sg2718
g2719
sg2720
g2721
sg2722
NsbsI71
g0
(g2706
g2
Ntp2933
Rp2934
(dp2935
g2710
g2711
sg2712
I71
sg2713
F6977.348128052663
sg2714
F2022.1386663857922
sg2715
F0.0
sg2716
g2717
sg2718
g2719
sg2720
g2721
sg2722
NsbsI72
g0
(g2706
g2
Ntp2936
Rp2937
(dp2938
g2710
g2711
sg2712
I72
sg2713
F7974.1121463459003
sg2714
F2022.1386663857922
sg2715
F0.0
sg2716
g2717
sg2718
g2719
sg2720
g2721
sg2722
NsbsI73
g0
(g2706
g2
Ntp2939
Rp2940
(dp2941
g2710
g2711
sg2712
I73
sg2713
F8970.8761646391376
sg2714
F2022.1386663857925
sg2715
F0.0
sg2716
g2717
sg2718
g2719
sg2720
g2721
sg2722
NsbsI74
g0
(g2706
g2
Ntp2942
Rp2943
(dp2944
g2710
g2711
sg2712
I74
sg2713
F9967.640182932375
sg2714
F2022.1386663857922
sg2715
F0.0
sg2716
g2717
sg2718
g2719
sg2720
g2721
sg2722
NsbsI75
g0
(g2706
g2
Ntp2945
Rp2946
(dp2947
g2710
g2711
sg2712
I75
sg2713
F5980.5841097594257
sg2714
F3033.2079995786889
sg2715
F0.0
sg2716
g2717
sg2718
g2719
sg2720
g2721
sg2722
NsbsI76
g0
(g2706
g2
Ntp2948
Rp2949
(dp2950
g2710
g2711
sg2712
I76
sg2713
F6977.348128052663
sg2714
F3033.2079995786889
sg2715
F0.0
sg2716
g2717
sg2718
g2719
sg2720
g2721
sg2722
NsbsI77
g0
(g2706
g2
Ntp2951
Rp2952
(dp2953
g2710
g2711
sg2712
I77
sg2713
F7974.1121463459012
sg2714
F3033.2079995786889
sg2715
F0.0
sg2716
g2717
sg2718
g2719
sg2720
g2721
sg2722
NsbsI78
g0
(g2706
g2
Ntp2954
Rp2955
(dp2956
g2710
g2711
sg2712
I78
sg2713
F8970.8761646391376
sg2714
F3033.2079995786885
sg2715
F0.0
sg2716
g2717
sg2718
g2719
sg2720
g2721
sg2722
NsbsI79
g0
(g2706
g2
Ntp2957
Rp2958
(dp2959
g2710
g2711
sg2712
I79
sg2713
F9967.6401829323768
sg2714
F3033.2079995786889
sg2715
F0.0
sg2716
g2717
sg2718
g2719
sg2720
g2721
sg2722
NsbsI80
g0
(g2706
g2
Ntp2960
Rp2961
(dp2962
g2710
g2711
sg2712
I80
sg2713
F5980.5841097594257
sg2714
F4044.277332771585
sg2715
F0.0
sg2716
g2717
sg2718
g2719
sg2720
g2721
sg2722
NsbsI81
g0
(g2706
g2
Ntp2963
Rp2964
(dp2965
g2710
g2711
sg2712
I81
sg2713
F6977.348128052663
sg2714
F4044.2773327715845
sg2715
F0.0
sg2716
g2717
sg2718
g2719
sg2720
g2721
sg2722
NsbsI82
g0
(g2706
g2
Ntp2966
Rp2967
(dp2968
g2710
g2711
sg2712
I82
sg2713
F7974.1121463459003
sg2714
F4044.2773327715845
sg2715
F0.0
sg2716
g2717
sg2718
g2719
sg2720
g2721
sg2722
NsbsI83
g0
(g2706
g2
Ntp2969
Rp2970
(dp2971
g2710
g2711
sg2712
I83
sg2713
F8970.8761646391376
sg2714
F4044.277332771585
sg2715
F0.0
sg2716
g2717
sg2718
g2719
sg2720
g2721
sg2722
NsbsI84
g0
(g2706
g2
Ntp2972
Rp2973
(dp2974
g2710
g2711
sg2712
I84
sg2713
F9967.640182932375
sg2714
F4044.2773327715845
sg2715
F0.0
sg2716
g2717
sg2718
g2719
sg2720
g2721
sg2722
NsbsI85
g0
(g2706
g2
Ntp2975
Rp2976
(dp2977
g2710
g2711
sg2712
I85
sg2713
F5980.5841097594257
sg2714
F8211.1085241120054
sg2715
F0.0
sg2716
g2717
sg2718
g2719
sg2720
g2721
sg2722
NsbsI86
g0
(g2706
g2
Ntp2978
Rp2979
(dp2980
g2710
g2711
sg2712
I86
sg2713
F6977.348128052663
sg2714
F8211.1085241120054
sg2715
F0.0
sg2716
g2717
sg2718
g2719
sg2720
g2721
sg2722
NsbsI87
g0
(g2706
g2
Ntp2981
Rp2982
(dp2983
g2710
g2711
sg2712
I87
sg2713
F7974.1121463459003
sg2714
F8211.1085241120054
sg2715
F0.0
sg2716
g2717
sg2718
g2719
sg2720
g2721
sg2722
NsbsI88
g0
(g2706
g2
Ntp2984
Rp2985
(dp2986
g2710
g2711
sg2712
I88
sg2713
F8970.8761646391376
sg2714
F8211.1085241120054
sg2715
F0.0
sg2716
g2717
sg2718
g2719
sg2720
g2721
sg2722
NsbsI89
g0
(g2706
g2
Ntp2987
Rp2988
(dp2989
g2710
g2711
sg2712
I89
sg2713
F9967.640182932375
sg2714
F8211.1085241120054
sg2715
F0.0
sg2716
g2717
sg2718
g2719
sg2720
g2721
sg2722
NsbsI90
g0
(g2706
g2
Ntp2990
Rp2991
(dp2992
g2710
g2711
sg2712
I90
sg2713
F5980.5841097594257
sg2714
F9222.1778573049014
sg2715
F0.0
sg2716
g2717
sg2718
g2719
sg2720
g2721
sg2722
NsbsI91
g0
(g2706
g2
Ntp2993
Rp2994
(dp2995
g2710
g2711
sg2712
I91
sg2713
F6977.3481280526621
sg2714
F9222.1778573049014
sg2715
F0.0
sg2716
g2717
sg2718
g2719
sg2720
g2721
sg2722
NsbsI92
g0
(g2706
g2
Ntp2996
Rp2997
(dp2998
g2710
g2711
sg2712
I92
sg2713
F7974.1121463458985
sg2714
F9222.1778573049014
sg2715
F0.0
sg2716
g2717
sg2718
g2719
sg2720
g2721
sg2722
NsbsI93
g0
(g2706
g2
Ntp2999
Rp3000
(dp3001
g2710
g2711
sg2712
I93
sg2713
F8970.8761646391376
sg2714
F9222.1778573049014
sg2715
F0.0
sg2716
g2717
sg2718
g2719
sg2720
g2721
sg2722
NsbsI94
g0
(g2706
g2
Ntp3002
Rp3003
(dp3004
g2710
g2711
sg2712
I94
sg2713
F9967.640182932375
sg2714
F9222.1778573049014
sg2715
F0.0
sg2716
g2717
sg2718
g2719
sg2720
g2721
sg2722
NsbsI95
g0
(g2706
g2
Ntp3005
Rp3006
(dp3007
g2710
g2711
sg2712
I95
sg2713
F5980.5841097594257
sg2714
F10233.247190497797
sg2715
F0.0
sg2716
g2717
sg2718
g2719
sg2720
g2721
sg2722
NsbsI96
g0
(g2706
g2
Ntp3008
Rp3009
(dp3010
g2710
g2711
sg2712
I96
sg2713
F6977.348128052663
sg2714
F10233.247190497797
sg2715
F0.0
sg2716
g2717
sg2718
g2719
sg2720
g2721
sg2722
NsbsI97
g0
(g2706
g2
Ntp3011
Rp3012
(dp3013
g2710
g2711
sg2712
I97
sg2713
F7974.1121463459003
sg2714
F10233.247190497797
sg2715
F0.0
sg2716
g2717
sg2718
g2719
sg2720
g2721
sg2722
NsbsI98
g0
(g2706
g2
Ntp3014
Rp3015
(dp3016
g2710
g2711
sg2712
I98
sg2713
F8970.8761646391376
sg2714
F10233.247190497797
sg2715
F0.0
sg2716
g2717
sg2718
g2719
sg2720
g2721
sg2722
NsbsI99
g0
(g2706
g2
Ntp3017
Rp3018
(dp3019
g2710
g2711
sg2712
I99
sg2713
F9967.640182932375
sg2714
F10233.247190497797
sg2715
F0.0
sg2716
g2717
sg2718
g2719
sg2720
g2721
sg2722
NsbsI100
g0
(g2706
g2
Ntp3020
Rp3021
(dp3022
g2710
g2711
sg2712
I100
sg2713
F5980.5841097594257
sg2714
F11244.316523690693
sg2715
F0.0
sg2716
g2717
sg2718
g2719
sg2720
g2721
sg2722
NsbsI101
g0
(g2706
g2
Ntp3023
Rp3024
(dp3025
g2710
g2711
sg2712
I101
sg2713
F6977.348128052663
sg2714
F11244.316523690693
sg2715
F0.0
sg2716
g2717
sg2718
g2719
sg2720
g2721
sg2722
NsbsI102
g0
(g2706
g2
Ntp3026
Rp3027
(dp3028
g2710
g2711
sg2712
I102
sg2713
F7974.1121463458994
sg2714
F11244.316523690693
sg2715
F0.0
sg2716
g2717
sg2718
g2719
sg2720
g2721
sg2722
NsbsI103
g0
(g2706
g2
Ntp3029
Rp3030
(dp3031
g2710
g2711
sg2712
I103
sg2713
F8970.8761646391376
sg2714
F11244.316523690693
sg2715
F0.0
sg2716
g2717
sg2718
g2719
sg2720
g2721
sg2722
NsbsI104
g0
(g2706
g2
Ntp3032
Rp3033
(dp3034
g2710
g2711
sg2712
I104
sg2713
F9967.640182932375
sg2714
F11244.316523690693
sg2715
F0.0
sg2716
g2717
sg2718
g2719
sg2720
g2721
sg2722
NsbsI105
g0
(g2706
g2
Ntp3035
Rp3036
(dp3037
g2710
g2711
sg2712
I105
sg2713
F5980.5841097594257
sg2714
F12255.385856883589
sg2715
F0.0
sg2716
g2717
sg2718
g2719
sg2720
g2721
sg2722
NsbsI106
g0
(g2706
g2
Ntp3038
Rp3039
(dp3040
g2710
g2711
sg2712
I106
sg2713
F6977.348128052663
sg2714
F12255.385856883589
sg2715
F0.0
sg2716
g2717
sg2718
g2719
sg2720
g2721
sg2722
NsbsI107
g0
(g2706
g2
Ntp3041
Rp3042
(dp3043
g2710
g2711
sg2712
I107
sg2713
F7974.1121463459003
sg2714
F12255.385856883589
sg2715
F0.0
sg2716
g2717
sg2718
g2719
sg2720
g2721
sg2722
NsbsI108
g0
(g2706
g2
Ntp3044
Rp3045
(dp3046
g2710
g2711
sg2712
I108
sg2713
F8970.8761646391376
sg2714
F12255.385856883589
sg2715
F0.0
sg2716
g2717
sg2718
g2719
sg2720
g2721
sg2722
NsbsI109
g0
(g2706
g2
Ntp3047
Rp3048
(dp3049
g2710
g2711
sg2712
I109
sg2713
F9967.640182932375
sg2714
F12255.385856883589
sg2715
F0.0
sg2716
g2717
sg2718
g2719
sg2720
g2721
sg2722
NsbsI110
g0
(g2706
g2
Ntp3050
Rp3051
(dp3052
g2710
g2711
sg2712
I110
sg2713
F10994.609171476921
sg2714
F0.0
sg2715
F0.0
sg2716
g2717
sg2718
g2719
sg2720
g2721
sg2722
NsbsI111
g0
(g2706
g2
Ntp3053
Rp3054
(dp3055
g2710
g2711
sg2712
I111
sg2713
F12021.578160021469
sg2714
F0.0
sg2715
F0.0
sg2716
g2717
sg2718
g2719
sg2720
g2721
sg2722
NsbsI112
g0
(g2706
g2
Ntp3056
Rp3057
(dp3058
g2710
g2711
sg2712
I112
sg2713
F13048.547148566016
sg2714
F0.0
sg2715
F0.0
sg2716
g2717
sg2718
g2719
sg2720
g2721
sg2722
NsbsI113
g0
(g2706
g2
Ntp3059
Rp3060
(dp3061
g2710
g2711
sg2712
I113
sg2713
F14075.516137110564
sg2714
F0.0
sg2715
F0.0
sg2716
g2717
sg2718
g2719
sg2720
g2721
sg2722
NsbsI114
g0
(g2706
g2
Ntp3062
Rp3063
(dp3064
g2710
g2711
sg2712
I114
sg2713
F15102.485125655114
sg2714
F0.0
sg2715
F0.0
sg2716
g2717
sg2718
g2719
sg2720
g2721
sg2722
NsbsI115
g0
(g2706
g2
Ntp3065
Rp3066
(dp3067
g2710
g2711
sg2712
I115
sg2713
F10994.609171476923
sg2714
F1011.0693331928961
sg2715
F0.0
sg2716
g2717
sg2718
g2719
sg2720
g2721
sg2722
NsbsI116
g0
(g2706
g2
Ntp3068
Rp3069
(dp3070
g2710
g2711
sg2712
I116
sg2713
F12021.578160021472
sg2714
F1011.069333192896
sg2715
F0.0
sg2716
g2717
sg2718
g2719
sg2720
g2721
sg2722
NsbsI117
g0
(g2706
g2
Ntp3071
Rp3072
(dp3073
g2710
g2711
sg2712
I117
sg2713
F13048.547148566018
sg2714
F1011.069333192896
sg2715
F0.0
sg2716
g2717
sg2718
g2719
sg2720
g2721
sg2722
NsbsI118
g0
(g2706
g2
Ntp3074
Rp3075
(dp3076
g2710
g2711
sg2712
I118
sg2713
F14075.516137110566
sg2714
F1011.0693331928961
sg2715
F0.0
sg2716
g2717
sg2718
g2719
sg2720
g2721
sg2722
NsbsI119
g0
(g2706
g2
Ntp3077
Rp3078
(dp3079
g2710
g2711
sg2712
I119
sg2713
F15102.485125655116
sg2714
F1011.0693331928961
sg2715
F0.0
sg2716
g2717
sg2718
g2719
sg2720
g2721
sg2722
NsbsI120
g0
(g2706
g2
Ntp3080
Rp3081
(dp3082
g2710
g2711
sg2712
I120
sg2713
F10994.609171476921
sg2714
F2022.1386663857922
sg2715
F0.0
sg2716
g2717
sg2718
g2719
sg2720
g2721
sg2722
NsbsI121
g0
(g2706
g2
Ntp3083
Rp3084
(dp3085
g2710
g2711
sg2712
I121
sg2713
F12021.578160021469
sg2714
F2022.138666385792
sg2715
F0.0
sg2716
g2717
sg2718
g2719
sg2720
g2721
sg2722
NsbsI122
g0
(g2706
g2
Ntp3086
Rp3087
(dp3088
g2710
g2711
sg2712
I122
sg2713
F13048.547148566016
sg2714
F2022.138666385792
sg2715
F0.0
sg2716
g2717
sg2718
g2719
sg2720
g2721
sg2722
NsbsI123
g0
(g2706
g2
Ntp3089
Rp3090
(dp3091
g2710
g2711
sg2712
I123
sg2713
F14075.516137110564
sg2714
F2022.1386663857922
sg2715
F0.0
sg2716
g2717
sg2718
g2719
sg2720
g2721
sg2722
NsbsI124
g0
(g2706
g2
Ntp3092
Rp3093
(dp3094
g2710
g2711
sg2712
I124
sg2713
F15102.485125655114
sg2714
F2022.1386663857922
sg2715
F0.0
sg2716
g2717
sg2718
g2719
sg2720
g2721
sg2722
NsbsI125
g0
(g2706
g2
Ntp3095
Rp3096
(dp3097
g2710
g2711
sg2712
I125
sg2713
F10994.609171476923
sg2714
F3033.2079995786889
sg2715
F0.0
sg2716
g2717
sg2718
g2719
sg2720
g2721
sg2722
NsbsI126
g0
(g2706
g2
Ntp3098
Rp3099
(dp3100
g2710
g2711
sg2712
I126
sg2713
F12021.578160021472
sg2714
F3033.2079995786889
sg2715
F0.0
sg2716
g2717
sg2718
g2719
sg2720
g2721
sg2722
NsbsI127
g0
(g2706
g2
Ntp3101
Rp3102
(dp3103
g2710
g2711
sg2712
I127
sg2713
F13048.54714856602
sg2714
F3033.2079995786889
sg2715
F0.0
sg2716
g2717
sg2718
g2719
sg2720
g2721
sg2722
NsbsI128
g0
(g2706
g2
Ntp3104
Rp3105
(dp3106
g2710
g2711
sg2712
I128
sg2713
F14075.516137110566
sg2714
F3033.2079995786889
sg2715
F0.0
sg2716
g2717
sg2718
g2719
sg2720
g2721
sg2722
NsbsI129
g0
(g2706
g2
Ntp3107
Rp3108
(dp3109
g2710
g2711
sg2712
I129
sg2713
F15102.485125655116
sg2714
F3033.2079995786889
sg2715
F0.0
sg2716
g2717
sg2718
g2719
sg2720
g2721
sg2722
NsbsI130
g0
(g2706
g2
Ntp3110
Rp3111
(dp3112
g2710
g2711
sg2712
I130
sg2713
F10994.609171476921
sg2714
F4044.2773327715845
sg2715
F0.0
sg2716
g2717
sg2718
g2719
sg2720
g2721
sg2722
NsbsI131
g0
(g2706
g2
Ntp3113
Rp3114
(dp3115
g2710
g2711
sg2712
I131
sg2713
F12021.578160021469
sg2714
F4044.277332771584
sg2715
F0.0
sg2716
g2717
sg2718
g2719
sg2720
g2721
sg2722
NsbsI132
g0
(g2706
g2
Ntp3116
Rp3117
(dp3118
g2710
g2711
sg2712
I132
sg2713
F13048.547148566016
sg2714
F4044.277332771584
sg2715
F0.0
sg2716
g2717
sg2718
g2719
sg2720
g2721
sg2722
NsbsI133
g0
(g2706
g2
Ntp3119
Rp3120
(dp3121
g2710
g2711
sg2712
I133
sg2713
F14075.516137110564
sg2714
F4044.2773327715845
sg2715
F0.0
sg2716
g2717
sg2718
g2719
sg2720
g2721
sg2722
NsbsI134
g0
(g2706
g2
Ntp3122
Rp3123
(dp3124
g2710
g2711
sg2712
I134
sg2713
F15102.485125655114
sg2714
F4044.2773327715845
sg2715
F0.0
sg2716
g2717
sg2718
g2719
sg2720
g2721
sg2722
NsbsI135
g0
(g2706
g2
Ntp3125
Rp3126
(dp3127
g2710
g2711
sg2712
I135
sg2713
F10994.609171476921
sg2714
F8211.1085241120036
sg2715
F0.0
sg2716
g2717
sg2718
g2719
sg2720
g2721
sg2722
NsbsI136
g0
(g2706
g2
Ntp3128
Rp3129
(dp3130
g2710
g2711
sg2712
I136
sg2713
F12021.578160021469
sg2714
F8211.1085241120054
sg2715
F0.0
sg2716
g2717
sg2718
g2719
sg2720
g2721
sg2722
NsbsI137
g0
(g2706
g2
Ntp3131
Rp3132
(dp3133
g2710
g2711
sg2712
I137
sg2713
F13048.547148566016
sg2714
F8211.1085241120054
sg2715
F0.0
sg2716
g2717
sg2718
g2719
sg2720
g2721
sg2722
NsbsI138
g0
(g2706
g2
Ntp3134
Rp3135
(dp3136
g2710
g2711
sg2712
I138
sg2713
F14075.516137110564
sg2714
F8211.1085241120036
sg2715
F0.0
sg2716
g2717
sg2718
g2719
sg2720
g2721
sg2722
NsbsI139
g0
(g2706
g2
Ntp3137
Rp3138
(dp3139
g2710
g2711
sg2712
I139
sg2713
F15102.485125655114
sg2714
F8211.1085241120054
sg2715
F0.0
sg2716
g2717
sg2718
g2719
sg2720
g2721
sg2722
NsbsI140
g0
(g2706
g2
Ntp3140
Rp3141
(dp3142
g2710
g2711
sg2712
I140
sg2713
F10994.609171476923
sg2714
F9222.1778573049014
sg2715
F0.0
sg2716
g2717
sg2718
g2719
sg2720
g2721
sg2722
NsbsI141
g0
(g2706
g2
Ntp3143
Rp3144
(dp3145
g2710
g2711
sg2712
I141
sg2713
F12021.578160021469
sg2714
F9222.1778573048996
sg2715
F0.0
sg2716
g2717
sg2718
g2719
sg2720
g2721
sg2722
NsbsI142
g0
(g2706
g2
Ntp3146
Rp3147
(dp3148
g2710
g2711
sg2712
I142
sg2713
F13048.547148566016
sg2714
F9222.1778573048996
sg2715
F0.0
sg2716
g2717
sg2718
g2719
sg2720
g2721
sg2722
NsbsI143
g0
(g2706
g2
Ntp3149
Rp3150
(dp3151
g2710
g2711
sg2712
I143
sg2713
F14075.516137110564
sg2714
F9222.1778573049014
sg2715
F0.0
sg2716
g2717
sg2718
g2719
sg2720
g2721
sg2722
NsbsI144
g0
(g2706
g2
Ntp3152
Rp3153
(dp3154
g2710
g2711
sg2712
I144
sg2713
F15102.485125655114
sg2714
F9222.1778573049014
sg2715
F0.0
sg2716
g2717
sg2718
g2719
sg2720
g2721
sg2722
NsbsI145
g0
(g2706
g2
Ntp3155
Rp3156
(dp3157
g2710
g2711
sg2712
I145
sg2713
F10994.609171476921
sg2714
F10233.247190497796
sg2715
F0.0
sg2716
g2717
sg2718
g2719
sg2720
g2721
sg2722
NsbsI146
g0
(g2706
g2
Ntp3158
Rp3159
(dp3160
g2710
g2711
sg2712
I146
sg2713
F12021.578160021469
sg2714
F10233.247190497797
sg2715
F0.0
sg2716
g2717
sg2718
g2719
sg2720
g2721
sg2722
NsbsI147
g0
(g2706
g2
Ntp3161
Rp3162
(dp3163
g2710
g2711
sg2712
I147
sg2713
F13048.547148566016
sg2714
F10233.247190497797
sg2715
F0.0
sg2716
g2717
sg2718
g2719
sg2720
g2721
sg2722
NsbsI148
g0
(g2706
g2
Ntp3164
Rp3165
(dp3166
g2710
g2711
sg2712
I148
sg2713
F14075.516137110564
sg2714
F10233.247190497796
sg2715
F0.0
sg2716
g2717
sg2718
g2719
sg2720
g2721
sg2722
NsbsI149
g0
(g2706
g2
Ntp3167
Rp3168
(dp3169
g2710
g2711
sg2712
I149
sg2713
F15102.485125655114
sg2714
F10233.247190497797
sg2715
F0.0
sg2716
g2717
sg2718
g2719
sg2720
g2721
sg2722
NsbsI150
g0
(g2706
g2
Ntp3170
Rp3171
(dp3172
g2710
g2711
sg2712
I150
sg2713
F10994.609171476923
sg2714
F11244.316523690692
sg2715
F0.0
sg2716
g2717
sg2718
g2719
sg2720
g2721
sg2722
NsbsI151
g0
(g2706
g2
Ntp3173
Rp3174
(dp3175
g2710
g2711
sg2712
I151
sg2713
F12021.578160021469
sg2714
F11244.316523690693
sg2715
F0.0
sg2716
g2717
sg2718
g2719
sg2720
g2721
sg2722
NsbsI152
g0
(g2706
g2
Ntp3176
Rp3177
(dp3178
g2710
g2711
sg2712
I152
sg2713
F13048.547148566016
sg2714
F11244.316523690693
sg2715
F0.0
sg2716
g2717
sg2718
g2719
sg2720
g2721
sg2722
NsbsI153
g0
(g2706
g2
Ntp3179
Rp3180
(dp3181
g2710
g2711
sg2712
I153
sg2713
F14075.516137110564
sg2714
F11244.316523690693
sg2715
F0.0
sg2716
g2717
sg2718
g2719
sg2720
g2721
sg2722
NsbsI154
g0
(g2706
g2
Ntp3182
Rp3183
(dp3184
g2710
g2711
sg2712
I154
sg2713
F15102.485125655114
sg2714
F11244.316523690693
sg2715
F0.0
sg2716
g2717
sg2718
g2719
sg2720
g2721
sg2722
NsbsI155
g0
(g2706
g2
Ntp3185
Rp3186
(dp3187
g2710
g2711
sg2712
I155
sg2713
F10994.609171476921
sg2714
F12255.385856883588
sg2715
F0.0
sg2716
g2717
sg2718
g2719
sg2720
g2721
sg2722
NsbsI156
g0
(g2706
g2
Ntp3188
Rp3189
(dp3190
g2710
g2711
sg2712
I156
sg2713
F12021.578160021469
sg2714
F12255.385856883589
sg2715
F0.0
sg2716
g2717
sg2718
g2719
sg2720
g2721
sg2722
NsbsI157
g0
(g2706
g2
Ntp3191
Rp3192
(dp3193
g2710
g2711
sg2712
I157
sg2713
F13048.547148566016
sg2714
F12255.385856883589
sg2715
F0.0
sg2716
g2717
sg2718
g2719
sg2720
g2721
sg2722
NsbsI158
g0
(g2706
g2
Ntp3194
Rp3195
(dp3196
g2710
g2711
sg2712
I158
sg2713
F14075.516137110564
sg2714
F12255.385856883588
sg2715
F0.0
sg2716
g2717
sg2718
g2719
sg2720
g2721
sg2722
NsbsI159
g0
(g2706
g2
Ntp3197
Rp3198
(dp3199
g2710
g2711
sg2712
I159
sg2713
F15102.485125655114
sg2714
F12255.385856883589
sg2715
F0.0
sg2716
g2717
sg2718
g2719
sg2720
g2721
sg2722
NsbsI160
g0
(g2706
g2
Ntp3200
Rp3201
(dp3202
g2710
g2711
sg2712
I160
sg2713
F0.0
sg2714
F5085.9851306066903
sg2715
F0.0
sg2716
g2717
sg2718
g2719
sg2720
g2721
sg2722
NsbsI161
g0
(g2706
g2
Ntp3203
Rp3204
(dp3205
g2710
g2711
sg2712
I161
sg2713
F996.76401829323754
sg2714
F5085.9851306066903
sg2715
F0.0
sg2716
g2717
sg2718
g2719
sg2720
g2721
sg2722
NsbsI162
g0
(g2706
g2
Ntp3206
Rp3207
(dp3208
g2710
g2711
sg2712
I162
sg2713
F1993.5280365864751
sg2714
F5085.9851306066894
sg2715
F0.0
sg2716
g2717
sg2718
g2719
sg2720
g2721
sg2722
NsbsI163
g0
(g2706
g2
Ntp3209
Rp3210
(dp3211
g2710
g2711
sg2712
I163
sg2713
F2990.2920548797119
sg2714
F5085.9851306066894
sg2715
F0.0
sg2716
g2717
sg2718
g2719
sg2720
g2721
sg2722
NsbsI164
g0
(g2706
g2
Ntp3212
Rp3213
(dp3214
g2710
g2711
sg2712
I164
sg2713
F3987.0560731729502
sg2714
F5085.9851306066903
sg2715
F0.0
sg2716
g2717
sg2718
g2719
sg2720
g2721
sg2722
NsbsI165
g0
(g2706
g2
Ntp3215
Rp3216
(dp3217
g2710
g2711
sg2712
I165
sg2713
F4983.8200914661875
sg2714
F5085.9851306066903
sg2715
F0.0
sg2716
g2717
sg2718
g2719
sg2720
g2721
sg2722
NsbsI166
g0
(g2706
g2
Ntp3218
Rp3219
(dp3220
g2710
g2711
sg2712
I166
sg2713
F0.0
sg2714
F6127.6929284417947
sg2715
F0.0
sg2716
g2717
sg2718
g2719
sg2720
g2721
sg2722
NsbsI167
g0
(g2706
g2
Ntp3221
Rp3222
(dp3223
g2710
g2711
sg2712
I167
sg2713
F996.76401829323754
sg2714
F6127.6929284417947
sg2715
F0.0
sg2716
g2717
sg2718
g2719
sg2720
g2721
sg2722
NsbsI168
g0
(g2706
g2
Ntp3224
Rp3225
(dp3226
g2710
g2711
sg2712
I168
sg2713
F1993.5280365864751
sg2714
F6127.6929284417947
sg2715
F0.0
sg2716
g2717
sg2718
g2719
sg2720
g2721
sg2722
NsbsI169
g0
(g2706
g2
Ntp3227
Rp3228
(dp3229
g2710
g2711
sg2712
I169
sg2713
F2990.2920548797124
sg2714
F6127.6929284417947
sg2715
F0.0
sg2716
g2717
sg2718
g2719
sg2720
g2721
sg2722
NsbsI170
g0
(g2706
g2
Ntp3230
Rp3231
(dp3232
g2710
g2711
sg2712
I170
sg2713
F3987.0560731729502
sg2714
F6127.6929284417947
sg2715
F0.0
sg2716
g2717
sg2718
g2719
sg2720
g2721
sg2722
NsbsI171
g0
(g2706
g2
Ntp3233
Rp3234
(dp3235
g2710
g2711
sg2712
I171
sg2713
F4983.8200914661875
sg2714
F6127.6929284417947
sg2715
F0.0
sg2716
g2717
sg2718
g2719
sg2720
g2721
sg2722
NsbsI172
g0
(g2706
g2
Ntp3236
Rp3237
(dp3238
g2710
g2711
sg2712
I172
sg2713
F0.0
sg2714
F7169.4007262769001
sg2715
F0.0
sg2716
g2717
sg2718
g2719
sg2720
g2721
sg2722
NsbsI173
g0
(g2706
g2
Ntp3239
Rp3240
(dp3241
g2710
g2711
sg2712
I173
sg2713
F996.76401829323754
sg2714
F7169.400726276901
sg2715
F0.0
sg2716
g2717
sg2718
g2719
sg2720
g2721
sg2722
NsbsI174
g0
(g2706
g2
Ntp3242
Rp3243
(dp3244
g2710
g2711
sg2712
I174
sg2713
F1993.5280365864751
sg2714
F7169.400726276901
sg2715
F0.0
sg2716
g2717
sg2718
g2719
sg2720
g2721
sg2722
NsbsI175
g0
(g2706
g2
Ntp3245
Rp3246
(dp3247
g2710
g2711
sg2712
I175
sg2713
F2990.2920548797119
sg2714
F7169.4007262769001
sg2715
F0.0
sg2716
g2717
sg2718
g2719
sg2720
g2721
sg2722
NsbsI176
g0
(g2706
g2
Ntp3248
Rp3249
(dp3250
g2710
g2711
sg2712
I176
sg2713
F3987.0560731729502
sg2714
F7169.400726276901
sg2715
F0.0
sg2716
g2717
sg2718
g2719
sg2720
g2721
sg2722
NsbsI177
g0
(g2706
g2
Ntp3251
Rp3252
(dp3253
g2710
g2711
sg2712
I177
sg2713
F4983.8200914661875
sg2714
F7169.4007262769001
sg2715
F0.0
sg2716
g2717
sg2718
g2719
sg2720
g2721
sg2722
NsbsI178
g0
(g2706
g2
Ntp3254
Rp3255
(dp3256
g2710
g2711
sg2712
I178
sg2713
F5980.5841097594257
sg2714
F5085.9851306066903
sg2715
F0.0
sg2716
g2717
sg2718
g2719
sg2720
g2721
sg2722
NsbsI179
g0
(g2706
g2
Ntp3257
Rp3258
(dp3259
g2710
g2711
sg2712
I179
sg2713
F6977.3481280526621
sg2714
F5085.9851306066894
sg2715
F0.0
sg2716
g2717
sg2718
g2719
sg2720
g2721
sg2722
NsbsI180
g0
(g2706
g2
Ntp3260
Rp3261
(dp3262
g2710
g2711
sg2712
I180
sg2713
F7974.1121463458985
sg2714
F5085.9851306066894
sg2715
F0.0
sg2716
g2717
sg2718
g2719
sg2720
g2721
sg2722
NsbsI181
g0
(g2706
g2
Ntp3263
Rp3264
(dp3265
g2710
g2711
sg2712
I181
sg2713
F8970.8761646391376
sg2714
F5085.9851306066903
sg2715
F0.0
sg2716
g2717
sg2718
g2719
sg2720
g2721
sg2722
NsbsI182
g0
(g2706
g2
Ntp3266
Rp3267
(dp3268
g2710
g2711
sg2712
I182
sg2713
F9967.640182932375
sg2714
F5085.9851306066903
sg2715
F0.0
sg2716
g2717
sg2718
g2719
sg2720
g2721
sg2722
NsbsI183
g0
(g2706
g2
Ntp3269
Rp3270
(dp3271
g2710
g2711
sg2712
I183
sg2713
F5980.5841097594257
sg2714
F6127.6929284417947
sg2715
F0.0
sg2716
g2717
sg2718
g2719
sg2720
g2721
sg2722
NsbsI184
g0
(g2706
g2
Ntp3272
Rp3273
(dp3274
g2710
g2711
sg2712
I184
sg2713
F6977.348128052663
sg2714
F6127.6929284417947
sg2715
F0.0
sg2716
g2717
sg2718
g2719
sg2720
g2721
sg2722
NsbsI185
g0
(g2706
g2
Ntp3275
Rp3276
(dp3277
g2710
g2711
sg2712
I185
sg2713
F7974.1121463459003
sg2714
F6127.6929284417947
sg2715
F0.0
sg2716
g2717
sg2718
g2719
sg2720
g2721
sg2722
NsbsI186
g0
(g2706
g2
Ntp3278
Rp3279
(dp3280
g2710
g2711
sg2712
I186
sg2713
F8970.8761646391376
sg2714
F6127.6929284417947
sg2715
F0.0
sg2716
g2717
sg2718
g2719
sg2720
g2721
sg2722
NsbsI187
g0
(g2706
g2
Ntp3281
Rp3282
(dp3283
g2710
g2711
sg2712
I187
sg2713
F9967.640182932375
sg2714
F6127.6929284417947
sg2715
F0.0
sg2716
g2717
sg2718
g2719
sg2720
g2721
sg2722
NsbsI188
g0
(g2706
g2
Ntp3284
Rp3285
(dp3286
g2710
g2711
sg2712
I188
sg2713
F5980.5841097594257
sg2714
F7169.400726276901
sg2715
F0.0
sg2716
g2717
sg2718
g2719
sg2720
g2721
sg2722
NsbsI189
g0
(g2706
g2
Ntp3287
Rp3288
(dp3289
g2710
g2711
sg2712
I189
sg2713
F6977.348128052663
sg2714
F7169.400726276901
sg2715
F0.0
sg2716
g2717
sg2718
g2719
sg2720
g2721
sg2722
NsbsI190
g0
(g2706
g2
Ntp3290
Rp3291
(dp3292
g2710
g2711
sg2712
I190
sg2713
F7974.1121463458994
sg2714
F7169.4007262769001
sg2715
F0.0
sg2716
g2717
sg2718
g2719
sg2720
g2721
sg2722
NsbsI191
g0
(g2706
g2
Ntp3293
Rp3294
(dp3295
g2710
g2711
sg2712
I191
sg2713
F8970.8761646391376
sg2714
F7169.400726276901
sg2715
F0.0
sg2716
g2717
sg2718
g2719
sg2720
g2721
sg2722
NsbsI192
g0
(g2706
g2
Ntp3296
Rp3297
(dp3298
g2710
g2711
sg2712
I192
sg2713
F9967.640182932375
sg2714
F7169.4007262769001
sg2715
F0.0
sg2716
g2717
sg2718
g2719
sg2720
g2721
sg2722
NsbsI193
g0
(g2706
g2
Ntp3299
Rp3300
(dp3301
g2710
g2711
sg2712
I193
sg2713
F10994.609171476923
sg2714
F5085.9851306066894
sg2715
F0.0
sg2716
g2717
sg2718
g2719
sg2720
g2721
sg2722
NsbsI194
g0
(g2706
g2
Ntp3302
Rp3303
(dp3304
g2710
g2711
sg2712
I194
sg2713
F12021.578160021469
sg2714
F5085.9851306066894
sg2715
F0.0
sg2716
g2717
sg2718
g2719
sg2720
g2721
sg2722
NsbsI195
g0
(g2706
g2
Ntp3305
Rp3306
(dp3307
g2710
g2711
sg2712
I195
sg2713
F13048.547148566016
sg2714
F5085.9851306066894
sg2715
F0.0
sg2716
g2717
sg2718
g2719
sg2720
g2721
sg2722
NsbsI196
g0
(g2706
g2
Ntp3308
Rp3309
(dp3310
g2710
g2711
sg2712
I196
sg2713
F14075.516137110564
sg2714
F5085.9851306066894
sg2715
F0.0
sg2716
g2717
sg2718
g2719
sg2720
g2721
sg2722
NsbsI197
g0
(g2706
g2
Ntp3311
Rp3312
(dp3313
g2710
g2711
sg2712
I197
sg2713
F15102.485125655114
sg2714
F5085.9851306066903
sg2715
F0.0
sg2716
g2717
sg2718
g2719
sg2720
g2721
sg2722
NsbsI198
g0
(g2706
g2
Ntp3314
Rp3315
(dp3316
g2710
g2711
sg2712
I198
sg2713
F10994.609171476921
sg2714
F6127.6929284417947
sg2715
F0.0
sg2716
g2717
sg2718
g2719
sg2720
g2721
sg2722
NsbsI199
g0
(g2706
g2
Ntp3317
Rp3318
(dp3319
g2710
g2711
sg2712
I199
sg2713
F12021.578160021469
sg2714
F6127.6929284417947
sg2715
F0.0
sg2716
g2717
sg2718
g2719
sg2720
g2721
sg2722
NsbsI200
g0
(g2706
g2
Ntp3320
Rp3321
(dp3322
g2710
g2711
sg2712
I200
sg2713
F13048.547148566016
sg2714
F6127.6929284417947
sg2715
F0.0
sg2716
g2717
sg2718
g2719
sg2720
g2721
sg2722
NsbsI201
g0
(g2706
g2
Ntp3323
Rp3324
(dp3325
g2710
g2711
sg2712
I201
sg2713
F14075.516137110564
sg2714
F6127.6929284417947
sg2715
F0.0
sg2716
g2717
sg2718
g2719
sg2720
g2721
sg2722
NsbsI202
g0
(g2706
g2
Ntp3326
Rp3327
(dp3328
g2710
g2711
sg2712
I202
sg2713
F15102.485125655114
sg2714
F6127.6929284417947
sg2715
F0.0
sg2716
g2717
sg2718
g2719
sg2720
g2721
sg2722
NsbsI203
g0
(g2706
g2
Ntp3329
Rp3330
(dp3331
g2710
g2711
sg2712
I203
sg2713
F10994.609171476923
sg2714
F7169.4007262769001
sg2715
F0.0
sg2716
g2717
sg2718
g2719
sg2720
g2721
sg2722
NsbsI204
g0
(g2706
g2
Ntp3332
Rp3333
(dp3334
g2710
g2711
sg2712
I204
sg2713
F12021.578160021469
sg2714
F7169.4007262768991
sg2715
F0.0
sg2716
g2717
sg2718
g2719
sg2720
g2721
sg2722
NsbsI205
g0
(g2706
g2
Ntp3335
Rp3336
(dp3337
g2710
g2711
sg2712
I205
sg2713
F13048.547148566016
sg2714
F7169.4007262768991
sg2715
F0.0
sg2716
g2717
sg2718
g2719
sg2720
g2721
sg2722
NsbsI206
g0
(g2706
g2
Ntp3338
Rp3339
(dp3340
g2710
g2711
sg2712
I206
sg2713
F14075.516137110564
sg2714
F7169.4007262769001
sg2715
F0.0
sg2716
g2717
sg2718
g2719
sg2720
g2721
sg2722
NsbsI207
g0
(g2706
g2
Ntp3341
Rp3342
(dp3343
g2710
g2711
sg2712
I207
sg2713
F15102.485125655114
sg2714
F7169.4007262769001
sg2715
F0.0
sg2716
g2717
sg2718
g2719
sg2720
g2721
sg2722
NsbsI208
g0
(g2706
g2
Ntp3344
Rp3345
(dp3346
g2710
g2711
sg2712
I208
sg2713
F0.0
sg2714
F0.0
sg2715
F-2038.5242566627128
sg2716
g2717
sg2718
g2719
sg2720
g2721
sg2722
NsbsI209
g0
(g2706
g2
Ntp3347
Rp3348
(dp3349
g2710
g2711
sg2712
I209
sg2713
F996.76401829323811
sg2714
F0.0
sg2715
F-2038.5242566627128
sg2716
g2717
sg2718
g2719
sg2720
g2721
sg2722
NsbsI210
g0
(g2706
g2
Ntp3350
Rp3351
(dp3352
g2710
g2711
sg2712
I210
sg2713
F1993.5280365864762
sg2714
F0.0
sg2715
F-2038.5242566627128
sg2716
g2717
sg2718
g2719
sg2720
g2721
sg2722
NsbsI211
g0
(g2706
g2
Ntp3353
Rp3354
(dp3355
g2710
g2711
sg2712
I211
sg2713
F2990.2920548797142
sg2714
F0.0
sg2715
F-2038.5242566627126
sg2716
g2717
sg2718
g2719
sg2720
g2721
sg2722
NsbsI212
g0
(g2706
g2
Ntp3356
Rp3357
(dp3358
g2710
g2711
sg2712
I212
sg2713
F3987.0560731729524
sg2714
F0.0
sg2715
F-2038.524256662713
sg2716
g2717
sg2718
g2719
sg2720
g2721
sg2722
NsbsI213
g0
(g2706
g2
Ntp3359
Rp3360
(dp3361
g2710
g2711
sg2712
I213
sg2713
F4983.8200914661902
sg2714
F0.0
sg2715
F-2038.5242566627128
sg2716
g2717
sg2718
g2719
sg2720
g2721
sg2722
NsbsI214
g0
(g2706
g2
Ntp3362
Rp3363
(dp3364
g2710
g2711
sg2712
I214
sg2713
F0.0
sg2714
F0.0
sg2715
F-1296.5876933996569
sg2716
g2717
sg2718
g2719
sg2720
g2721
sg2722
NsbsI215
g0
(g2706
g2
Ntp3365
Rp3366
(dp3367
g2710
g2711
sg2712
I215
sg2713
F996.76401829323811
sg2714
F0.0
sg2715
F-1296.5876933996569
sg2716
g2717
sg2718
g2719
sg2720
g2721
sg2722
NsbsI216
g0
(g2706
g2
Ntp3368
Rp3369
(dp3370
g2710
g2711
sg2712
I216
sg2713
F1993.5280365864762
sg2714
F0.0
sg2715
F-1296.5876933996569
sg2716
g2717
sg2718
g2719
sg2720
g2721
sg2722
NsbsI217
g0
(g2706
g2
Ntp3371
Rp3372
(dp3373
g2710
g2711
sg2712
I217
sg2713
F2990.2920548797142
sg2714
F0.0
sg2715
F-1296.5876933996567
sg2716
g2717
sg2718
g2719
sg2720
g2721
sg2722
NsbsI218
g0
(g2706
g2
Ntp3374
Rp3375
(dp3376
g2710
g2711
sg2712
I218
sg2713
F3987.0560731729524
sg2714
F0.0
sg2715
F-1296.5876933996569
sg2716
g2717
sg2718
g2719
sg2720
g2721
sg2722
NsbsI219
g0
(g2706
g2
Ntp3377
Rp3378
(dp3379
g2710
g2711
sg2712
I219
sg2713
F4983.8200914661902
sg2714
F0.0
sg2715
F-1296.5876933996569
sg2716
g2717
sg2718
g2719
sg2720
g2721
sg2722
NsbsI220
g0
(g2706
g2
Ntp3380
Rp3381
(dp3382
g2710
g2711
sg2712
I220
sg2713
F0.0
sg2714
F0.0
sg2715
F-554.65113013660084
sg2716
g2717
sg2718
g2719
sg2720
g2721
sg2722
NsbsI221
g0
(g2706
g2
Ntp3383
Rp3384
(dp3385
g2710
g2711
sg2712
I221
sg2713
F996.76401829323811
sg2714
F0.0
sg2715
F-554.65113013660084
sg2716
g2717
sg2718
g2719
sg2720
g2721
sg2722
NsbsI222
g0
(g2706
g2
Ntp3386
Rp3387
(dp3388
g2710
g2711
sg2712
I222
sg2713
F1993.5280365864762
sg2714
F0.0
sg2715
F-554.65113013660084
sg2716
g2717
sg2718
g2719
sg2720
g2721
sg2722
NsbsI223
g0
(g2706
g2
Ntp3389
Rp3390
(dp3391
g2710
g2711
sg2712
I223
sg2713
F2990.2920548797142
sg2714
F0.0
sg2715
F-554.65113013660084
sg2716
g2717
sg2718
g2719
sg2720
g2721
sg2722
NsbsI224
g0
(g2706
g2
Ntp3392
Rp3393
(dp3394
g2710
g2711
sg2712
I224
sg2713
F3987.0560731729524
sg2714
F0.0
sg2715
F-554.65113013660084
sg2716
g2717
sg2718
g2719
sg2720
g2721
sg2722
NsbsI225
g0
(g2706
g2
Ntp3395
Rp3396
(dp3397
g2710
g2711
sg2712
I225
sg2713
F4983.8200914661902
sg2714
F0.0
sg2715
F-554.65113013660084
sg2716
g2717
sg2718
g2719
sg2720
g2721
sg2722
NsbsI226
g0
(g2706
g2
Ntp3398
Rp3399
(dp3400
g2710
g2711
sg2712
I226
sg2713
F5980.5841097594257
sg2714
F0.0
sg2715
F-2038.5242566627128
sg2716
g2717
sg2718
g2719
sg2720
g2721
sg2722
NsbsI227
g0
(g2706
g2
Ntp3401
Rp3402
(dp3403
g2710
g2711
sg2712
I227
sg2713
F6977.3481280526621
sg2714
F0.0
sg2715
F-2038.5242566627128
sg2716
g2717
sg2718
g2719
sg2720
g2721
sg2722
NsbsI228
g0
(g2706
g2
Ntp3404
Rp3405
(dp3406
g2710
g2711
sg2712
I228
sg2713
F7974.1121463458976
sg2714
F0.0
sg2715
F-2038.5242566627128
sg2716
g2717
sg2718
g2719
sg2720
g2721
sg2722
NsbsI229
g0
(g2706
g2
Ntp3407
Rp3408
(dp3409
g2710
g2711
sg2712
I229
sg2713
F8970.876164639134
sg2714
F0.0
sg2715
F-2038.5242566627128
sg2716
g2717
sg2718
g2719
sg2720
g2721
sg2722
NsbsI230
g0
(g2706
g2
Ntp3410
Rp3411
(dp3412
g2710
g2711
sg2712
I230
sg2713
F9967.6401829323695
sg2714
F0.0
sg2715
F-2038.5242566627128
sg2716
g2717
sg2718
g2719
sg2720
g2721
sg2722
NsbsI231
g0
(g2706
g2
Ntp3413
Rp3414
(dp3415
g2710
g2711
sg2712
I231
sg2713
F5980.5841097594257
sg2714
F0.0
sg2715
F-1296.5876933996569
sg2716
g2717
sg2718
g2719
sg2720
g2721
sg2722
NsbsI232
g0
(g2706
g2
Ntp3416
Rp3417
(dp3418
g2710
g2711
sg2712
I232
sg2713
F6977.3481280526621
sg2714
F0.0
sg2715
F-1296.5876933996569
sg2716
g2717
sg2718
g2719
sg2720
g2721
sg2722
NsbsI233
g0
(g2706
g2
Ntp3419
Rp3420
(dp3421
g2710
g2711
sg2712
I233
sg2713
F7974.1121463458967
sg2714
F0.0
sg2715
F-1296.5876933996567
sg2716
g2717
sg2718
g2719
sg2720
g2721
sg2722
NsbsI234
g0
(g2706
g2
Ntp3422
Rp3423
(dp3424
g2710
g2711
sg2712
I234
sg2713
F8970.876164639134
sg2714
F0.0
sg2715
F-1296.5876933996567
sg2716
g2717
sg2718
g2719
sg2720
g2721
sg2722
NsbsI235
g0
(g2706
g2
Ntp3425
Rp3426
(dp3427
g2710
g2711
sg2712
I235
sg2713
F9967.6401829323695
sg2714
F0.0
sg2715
F-1296.5876933996569
sg2716
g2717
sg2718
g2719
sg2720
g2721
sg2722
NsbsI236
g0
(g2706
g2
Ntp3428
Rp3429
(dp3430
g2710
g2711
sg2712
I236
sg2713
F5980.5841097594257
sg2714
F0.0
sg2715
F-554.65113013660084
sg2716
g2717
sg2718
g2719
sg2720
g2721
sg2722
NsbsI237
g0
(g2706
g2
Ntp3431
Rp3432
(dp3433
g2710
g2711
sg2712
I237
sg2713
F6977.3481280526621
sg2714
F0.0
sg2715
F-554.65113013660084
sg2716
g2717
sg2718
g2719
sg2720
g2721
sg2722
NsbsI238
g0
(g2706
g2
Ntp3434
Rp3435
(dp3436
g2710
g2711
sg2712
I238
sg2713
F7974.1121463458976
sg2714
F0.0
sg2715
F-554.65113013660084
sg2716
g2717
sg2718
g2719
sg2720
g2721
sg2722
NsbsI239
g0
(g2706
g2
Ntp3437
Rp3438
(dp3439
g2710
g2711
sg2712
I239
sg2713
F8970.876164639134
sg2714
F0.0
sg2715
F-554.65113013660084
sg2716
g2717
sg2718
g2719
sg2720
g2721
sg2722
NsbsI240
g0
(g2706
g2
Ntp3440
Rp3441
(dp3442
g2710
g2711
sg2712
I240
sg2713
F9967.6401829323695
sg2714
F0.0
sg2715
F-554.65113013660084
sg2716
g2717
sg2718
g2719
sg2720
g2721
sg2722
NsbsI241
g0
(g2706
g2
Ntp3443
Rp3444
(dp3445
g2710
g2711
sg2712
I241
sg2713
F10994.609171476915
sg2714
F0.0
sg2715
F-2038.524256662713
sg2716
g2717
sg2718
g2719
sg2720
g2721
sg2722
NsbsI242
g0
(g2706
g2
Ntp3446
Rp3447
(dp3448
g2710
g2711
sg2712
I242
sg2713
F12021.578160021461
sg2714
F0.0
sg2715
F-2038.5242566627128
sg2716
g2717
sg2718
g2719
sg2720
g2721
sg2722
NsbsI243
g0
(g2706
g2
Ntp3449
Rp3450
(dp3451
g2710
g2711
sg2712
I243
sg2713
F13048.547148566007
sg2714
F0.0
sg2715
F-2038.5242566627128
sg2716
g2717
sg2718
g2719
sg2720
g2721
sg2722
NsbsI244
g0
(g2706
g2
Ntp3452
Rp3453
(dp3454
g2710
g2711
sg2712
I244
sg2713
F14075.516137110555
sg2714
F0.0
sg2715
F-2038.524256662713
sg2716
g2717
sg2718
g2719
sg2720
g2721
sg2722
NsbsI245
g0
(g2706
g2
Ntp3455
Rp3456
(dp3457
g2710
g2711
sg2712
I245
sg2713
F15102.485125655099
sg2714
F0.0
sg2715
F-2038.5242566627128
sg2716
g2717
sg2718
g2719
sg2720
g2721
sg2722
NsbsI246
g0
(g2706
g2
Ntp3458
Rp3459
(dp3460
g2710
g2711
sg2712
I246
sg2713
F10994.609171476915
sg2714
F0.0
sg2715
F-1296.5876933996569
sg2716
g2717
sg2718
g2719
sg2720
g2721
sg2722
NsbsI247
g0
(g2706
g2
Ntp3461
Rp3462
(dp3463
g2710
g2711
sg2712
I247
sg2713
F12021.578160021461
sg2714
F0.0
sg2715
F-1296.5876933996569
sg2716
g2717
sg2718
g2719
sg2720
g2721
sg2722
NsbsI248
g0
(g2706
g2
Ntp3464
Rp3465
(dp3466
g2710
g2711
sg2712
I248
sg2713
F13048.547148566007
sg2714
F0.0
sg2715
F-1296.5876933996567
sg2716
g2717
sg2718
g2719
sg2720
g2721
sg2722
NsbsI249
g0
(g2706
g2
Ntp3467
Rp3468
(dp3469
g2710
g2711
sg2712
I249
sg2713
F14075.516137110555
sg2714
F0.0
sg2715
F-1296.5876933996569
sg2716
g2717
sg2718
g2719
sg2720
g2721
sg2722
NsbsI250
g0
(g2706
g2
Ntp3470
Rp3471
(dp3472
g2710
g2711
sg2712
I250
sg2713
F15102.485125655099
sg2714
F0.0
sg2715
F-1296.5876933996569
sg2716
g2717
sg2718
g2719
sg2720
g2721
sg2722
NsbsI251
g0
(g2706
g2
Ntp3473
Rp3474
(dp3475
g2710
g2711
sg2712
I251
sg2713
F10994.609171476915
sg2714
F0.0
sg2715
F-554.65113013660084
sg2716
g2717
sg2718
g2719
sg2720
g2721
sg2722
NsbsI252
g0
(g2706
g2
Ntp3476
Rp3477
(dp3478
g2710
g2711
sg2712
I252
sg2713
F12021.578160021461
sg2714
F0.0
sg2715
F-554.65113013660084
sg2716
g2717
sg2718
g2719
sg2720
g2721
sg2722
NsbsI253
g0
(g2706
g2
Ntp3479
Rp3480
(dp3481
g2710
g2711
sg2712
I253
sg2713
F13048.547148566007
sg2714
F0.0
sg2715
F-554.65113013660084
sg2716
g2717
sg2718
g2719
sg2720
g2721
sg2722
NsbsI254
g0
(g2706
g2
Ntp3482
Rp3483
(dp3484
g2710
g2711
sg2712
I254
sg2713
F14075.516137110555
sg2714
F0.0
sg2715
F-554.65113013660084
sg2716
g2717
sg2718
g2719
sg2720
g2721
sg2722
NsbsI255
g0
(g2706
g2
Ntp3485
Rp3486
(dp3487
g2710
g2711
sg2712
I255
sg2713
F15102.485125655099
sg2714
F0.0
sg2715
F-554.65113013660084
sg2716
g2717
sg2718
g2719
sg2720
g2721
sg2722
NsbsI256
g0
(g2706
g2
Ntp3488
Rp3489
(dp3490
g2710
g2711
sg2712
I256
sg2713
F0.0
sg2714
F0.0
sg2715
F-3567.3632355077971
sg2716
g2717
sg2718
g2719
sg2720
g2721
sg2722
NsbsI257
g0
(g2706
g2
Ntp3491
Rp3492
(dp3493
g2710
g2711
sg2712
I257
sg2713
F996.76401829323811
sg2714
F0.0
sg2715
F-3567.3632355077971
sg2716
g2717
sg2718
g2719
sg2720
g2721
sg2722
NsbsI258
g0
(g2706
g2
Ntp3494
Rp3495
(dp3496
g2710
g2711
sg2712
I258
sg2713
F1993.5280365864762
sg2714
F0.0
sg2715
F-3567.3632355077971
sg2716
g2717
sg2718
g2719
sg2720
g2721
sg2722
NsbsI259
g0
(g2706
g2
Ntp3497
Rp3498
(dp3499
g2710
g2711
sg2712
I259
sg2713
F2990.2920548797142
sg2714
F0.0
sg2715
F-3567.3632355077971
sg2716
g2717
sg2718
g2719
sg2720
g2721
sg2722
NsbsI260
g0
(g2706
g2
Ntp3500
Rp3501
(dp3502
g2710
g2711
sg2712
I260
sg2713
F3987.0560731729524
sg2714
F0.0
sg2715
F-3567.3632355077971
sg2716
g2717
sg2718
g2719
sg2720
g2721
sg2722
NsbsI261
g0
(g2706
g2
Ntp3503
Rp3504
(dp3505
g2710
g2711
sg2712
I261
sg2713
F4983.8200914661902
sg2714
F0.0
sg2715
F-3567.3632355077971
sg2716
g2717
sg2718
g2719
sg2720
g2721
sg2722
NsbsI262
g0
(g2706
g2
Ntp3506
Rp3507
(dp3508
g2710
g2711
sg2712
I262
sg2713
F0.0
sg2714
F0.0
sg2715
F-2802.943746085255
sg2716
g2717
sg2718
g2719
sg2720
g2721
sg2722
NsbsI263
g0
(g2706
g2
Ntp3509
Rp3510
(dp3511
g2710
g2711
sg2712
I263
sg2713
F996.76401829323811
sg2714
F0.0
sg2715
F-2802.943746085255
sg2716
g2717
sg2718
g2719
sg2720
g2721
sg2722
NsbsI264
g0
(g2706
g2
Ntp3512
Rp3513
(dp3514
g2710
g2711
sg2712
I264
sg2713
F1993.5280365864762
sg2714
F0.0
sg2715
F-2802.943746085255
sg2716
g2717
sg2718
g2719
sg2720
g2721
sg2722
NsbsI265
g0
(g2706
g2
Ntp3515
Rp3516
(dp3517
g2710
g2711
sg2712
I265
sg2713
F2990.2920548797142
sg2714
F0.0
sg2715
F-2802.943746085255
sg2716
g2717
sg2718
g2719
sg2720
g2721
sg2722
NsbsI266
g0
(g2706
g2
Ntp3518
Rp3519
(dp3520
g2710
g2711
sg2712
I266
sg2713
F3987.0560731729524
sg2714
F0.0
sg2715
F-2802.943746085255
sg2716
g2717
sg2718
g2719
sg2720
g2721
sg2722
NsbsI267
g0
(g2706
g2
Ntp3521
Rp3522
(dp3523
g2710
g2711
sg2712
I267
sg2713
F4983.8200914661902
sg2714
F0.0
sg2715
F-2802.943746085255
sg2716
g2717
sg2718
g2719
sg2720
g2721
sg2722
NsbsI268
g0
(g2706
g2
Ntp3524
Rp3525
(dp3526
g2710
g2711
sg2712
I268
sg2713
F5980.5841097594257
sg2714
F0.0
sg2715
F-3567.3632355077971
sg2716
g2717
sg2718
g2719
sg2720
g2721
sg2722
NsbsI269
g0
(g2706
g2
Ntp3527
Rp3528
(dp3529
g2710
g2711
sg2712
I269
sg2713
F6977.3481280526621
sg2714
F0.0
sg2715
F-3567.3632355077971
sg2716
g2717
sg2718
g2719
sg2720
g2721
sg2722
NsbsI270
g0
(g2706
g2
Ntp3530
Rp3531
(dp3532
g2710
g2711
sg2712
I270
sg2713
F7974.1121463458976
sg2714
F0.0
sg2715
F-3567.3632355077971
sg2716
g2717
sg2718
g2719
sg2720
g2721
sg2722
NsbsI271
g0
(g2706
g2
Ntp3533
Rp3534
(dp3535
g2710
g2711
sg2712
I271
sg2713
F8970.876164639134
sg2714
F0.0
sg2715
F-3567.3632355077971
sg2716
g2717
sg2718
g2719
sg2720
g2721
sg2722
NsbsI272
g0
(g2706
g2
Ntp3536
Rp3537
(dp3538
g2710
g2711
sg2712
I272
sg2713
F9967.6401829323695
sg2714
F0.0
sg2715
F-3567.3632355077971
sg2716
g2717
sg2718
g2719
sg2720
g2721
sg2722
NsbsI273
g0
(g2706
g2
Ntp3539
Rp3540
(dp3541
g2710
g2711
sg2712
I273
sg2713
F5980.5841097594257
sg2714
F0.0
sg2715
F-2802.943746085255
sg2716
g2717
sg2718
g2719
sg2720
g2721
sg2722
NsbsI274
g0
(g2706
g2
Ntp3542
Rp3543
(dp3544
g2710
g2711
sg2712
I274
sg2713
F6977.3481280526621
sg2714
F0.0
sg2715
F-2802.943746085255
sg2716
g2717
sg2718
g2719
sg2720
g2721
sg2722
NsbsI275
g0
(g2706
g2
Ntp3545
Rp3546
(dp3547
g2710
g2711
sg2712
I275
sg2713
F7974.1121463458967
sg2714
F0.0
sg2715
F-2802.943746085255
sg2716
g2717
sg2718
g2719
sg2720
g2721
sg2722
NsbsI276
g0
(g2706
g2
Ntp3548
Rp3549
(dp3550
g2710
g2711
sg2712
I276
sg2713
F8970.876164639134
sg2714
F0.0
sg2715
F-2802.943746085255
sg2716
g2717
sg2718
g2719
sg2720
g2721
sg2722
NsbsI277
g0
(g2706
g2
Ntp3551
Rp3552
(dp3553
g2710
g2711
sg2712
I277
sg2713
F9967.6401829323695
sg2714
F0.0
sg2715
F-2802.943746085255
sg2716
g2717
sg2718
g2719
sg2720
g2721
sg2722
NsbsI278
g0
(g2706
g2
Ntp3554
Rp3555
(dp3556
g2710
g2711
sg2712
I278
sg2713
F10994.609171476915
sg2714
F0.0
sg2715
F-3567.3632355077971
sg2716
g2717
sg2718
g2719
sg2720
g2721
sg2722
NsbsI279
g0
(g2706
g2
Ntp3557
Rp3558
(dp3559
g2710
g2711
sg2712
I279
sg2713
F12021.578160021461
sg2714
F0.0
sg2715
F-3567.3632355077971
sg2716
g2717
sg2718
g2719
sg2720
g2721
sg2722
NsbsI280
g0
(g2706
g2
Ntp3560
Rp3561
(dp3562
g2710
g2711
sg2712
I280
sg2713
F13048.547148566007
sg2714
F0.0
sg2715
F-3567.3632355077971
sg2716
g2717
sg2718
g2719
sg2720
g2721
sg2722
NsbsI281
g0
(g2706
g2
Ntp3563
Rp3564
(dp3565
g2710
g2711
sg2712
I281
sg2713
F14075.516137110555
sg2714
F0.0
sg2715
F-3567.3632355077971
sg2716
g2717
sg2718
g2719
sg2720
g2721
sg2722
NsbsI282
g0
(g2706
g2
Ntp3566
Rp3567
(dp3568
g2710
g2711
sg2712
I282
sg2713
F15102.485125655099
sg2714
F0.0
sg2715
F-3567.3632355077971
sg2716
g2717
sg2718
g2719
sg2720
g2721
sg2722
NsbsI283
g0
(g2706
g2
Ntp3569
Rp3570
(dp3571
g2710
g2711
sg2712
I283
sg2713
F10994.609171476915
sg2714
F0.0
sg2715
F-2802.943746085255
sg2716
g2717
sg2718
g2719
sg2720
g2721
sg2722
NsbsI284
g0
(g2706
g2
Ntp3572
Rp3573
(dp3574
g2710
g2711
sg2712
I284
sg2713
F12021.578160021461
sg2714
F0.0
sg2715
F-2802.943746085255
sg2716
g2717
sg2718
g2719
sg2720
g2721
sg2722
NsbsI285
g0
(g2706
g2
Ntp3575
Rp3576
(dp3577
g2710
g2711
sg2712
I285
sg2713
F13048.547148566007
sg2714
F0.0
sg2715
F-2802.943746085255
sg2716
g2717
sg2718
g2719
sg2720
g2721
sg2722
NsbsI286
g0
(g2706
g2
Ntp3578
Rp3579
(dp3580
g2710
g2711
sg2712
I286
sg2713
F14075.516137110555
sg2714
F0.0
sg2715
F-2802.943746085255
sg2716
g2717
sg2718
g2719
sg2720
g2721
sg2722
NsbsI287
g0
(g2706
g2
Ntp3581
Rp3582
(dp3583
g2710
g2711
sg2712
I287
sg2713
F15102.485125655099
sg2714
F0.0
sg2715
F-2802.943746085255
sg2716
g2717
sg2718
g2719
sg2720
g2721
sg2722
NsbsI288
g0
(g2706
g2
Ntp3584
Rp3585
(dp3586
g2710
g2711
sg2712
I288
sg2713
F0.0
sg2714
F0.0
sg2715
F-5051.2363620339092
sg2716
g2717
sg2718
g2719
sg2720
g2721
sg2722
NsbsI289
g0
(g2706
g2
Ntp3587
Rp3588
(dp3589
g2710
g2711
sg2712
I289
sg2713
F996.76401829323811
sg2714
F0.0
sg2715
F-5051.2363620339092
sg2716
g2717
sg2718
g2719
sg2720
g2721
sg2722
NsbsI290
g0
(g2706
g2
Ntp3590
Rp3591
(dp3592
g2710
g2711
sg2712
I290
sg2713
F1993.5280365864762
sg2714
F0.0
sg2715
F-5051.2363620339092
sg2716
g2717
sg2718
g2719
sg2720
g2721
sg2722
NsbsI291
g0
(g2706
g2
Ntp3593
Rp3594
(dp3595
g2710
g2711
sg2712
I291
sg2713
F2990.2920548797142
sg2714
F0.0
sg2715
F-5051.2363620339092
sg2716
g2717
sg2718
g2719
sg2720
g2721
sg2722
NsbsI292
g0
(g2706
g2
Ntp3596
Rp3597
(dp3598
g2710
g2711
sg2712
I292
sg2713
F3987.0560731729524
sg2714
F0.0
sg2715
F-5051.2363620339092
sg2716
g2717
sg2718
g2719
sg2720
g2721
sg2722
NsbsI293
g0
(g2706
g2
Ntp3599
Rp3600
(dp3601
g2710
g2711
sg2712
I293
sg2713
F4983.8200914661902
sg2714
F0.0
sg2715
F-5051.2363620339092
sg2716
g2717
sg2718
g2719
sg2720
g2721
sg2722
NsbsI294
g0
(g2706
g2
Ntp3602
Rp3603
(dp3604
g2710
g2711
sg2712
I294
sg2713
F0.0
sg2714
F0.0
sg2715
F-4309.2997987708532
sg2716
g2717
sg2718
g2719
sg2720
g2721
sg2722
NsbsI295
g0
(g2706
g2
Ntp3605
Rp3606
(dp3607
g2710
g2711
sg2712
I295
sg2713
F996.76401829323811
sg2714
F0.0
sg2715
F-4309.2997987708532
sg2716
g2717
sg2718
g2719
sg2720
g2721
sg2722
NsbsI296
g0
(g2706
g2
Ntp3608
Rp3609
(dp3610
g2710
g2711
sg2712
I296
sg2713
F1993.5280365864762
sg2714
F0.0
sg2715
F-4309.2997987708532
sg2716
g2717
sg2718
g2719
sg2720
g2721
sg2722
NsbsI297
g0
(g2706
g2
Ntp3611
Rp3612
(dp3613
g2710
g2711
sg2712
I297
sg2713
F2990.2920548797142
sg2714
F0.0
sg2715
F-4309.2997987708532
sg2716
g2717
sg2718
g2719
sg2720
g2721
sg2722
NsbsI298
g0
(g2706
g2
Ntp3614
Rp3615
(dp3616
g2710
g2711
sg2712
I298
sg2713
F3987.0560731729524
sg2714
F0.0
sg2715
F-4309.2997987708532
sg2716
g2717
sg2718
g2719
sg2720
g2721
sg2722
NsbsI299
g0
(g2706
g2
Ntp3617
Rp3618
(dp3619
g2710
g2711
sg2712
I299
sg2713
F4983.8200914661902
sg2714
F0.0
sg2715
F-4309.2997987708532
sg2716
g2717
sg2718
g2719
sg2720
g2721
sg2722
NsbsI300
g0
(g2706
g2
Ntp3620
Rp3621
(dp3622
g2710
g2711
sg2712
I300
sg2713
F5980.5841097594257
sg2714
F0.0
sg2715
F-5051.2363620339092
sg2716
g2717
sg2718
g2719
sg2720
g2721
sg2722
NsbsI301
g0
(g2706
g2
Ntp3623
Rp3624
(dp3625
g2710
g2711
sg2712
I301
sg2713
F6977.3481280526621
sg2714
F0.0
sg2715
F-5051.2363620339092
sg2716
g2717
sg2718
g2719
sg2720
g2721
sg2722
NsbsI302
g0
(g2706
g2
Ntp3626
Rp3627
(dp3628
g2710
g2711
sg2712
I302
sg2713
F7974.1121463458976
sg2714
F0.0
sg2715
F-5051.2363620339092
sg2716
g2717
sg2718
g2719
sg2720
g2721
sg2722
NsbsI303
g0
(g2706
g2
Ntp3629
Rp3630
(dp3631
g2710
g2711
sg2712
I303
sg2713
F8970.876164639134
sg2714
F0.0
sg2715
F-5051.2363620339092
sg2716
g2717
sg2718
g2719
sg2720
g2721
sg2722
NsbsI304
g0
(g2706
g2
Ntp3632
Rp3633
(dp3634
g2710
g2711
sg2712
I304
sg2713
F9967.6401829323695
sg2714
F0.0
sg2715
F-5051.2363620339092
sg2716
g2717
sg2718
g2719
sg2720
g2721
sg2722
NsbsI305
g0
(g2706
g2
Ntp3635
Rp3636
(dp3637
g2710
g2711
sg2712
I305
sg2713
F5980.5841097594257
sg2714
F0.0
sg2715
F-4309.2997987708532
sg2716
g2717
sg2718
g2719
sg2720
g2721
sg2722
NsbsI306
g0
(g2706
g2
Ntp3638
Rp3639
(dp3640
g2710
g2711
sg2712
I306
sg2713
F6977.3481280526621
sg2714
F0.0
sg2715
F-4309.2997987708532
sg2716
g2717
sg2718
g2719
sg2720
g2721
sg2722
NsbsI307
g0
(g2706
g2
Ntp3641
Rp3642
(dp3643
g2710
g2711
sg2712
I307
sg2713
F7974.1121463458967
sg2714
F0.0
sg2715
F-4309.2997987708532
sg2716
g2717
sg2718
g2719
sg2720
g2721
sg2722
NsbsI308
g0
(g2706
g2
Ntp3644
Rp3645
(dp3646
g2710
g2711
sg2712
I308
sg2713
F8970.876164639134
sg2714
F0.0
sg2715
F-4309.2997987708532
sg2716
g2717
sg2718
g2719
sg2720
g2721
sg2722
NsbsI309
g0
(g2706
g2
Ntp3647
Rp3648
(dp3649
g2710
g2711
sg2712
I309
sg2713
F9967.6401829323695
sg2714
F0.0
sg2715
F-4309.2997987708532
sg2716
g2717
sg2718
g2719
sg2720
g2721
sg2722
NsbsI310
g0
(g2706
g2
Ntp3650
Rp3651
(dp3652
g2710
g2711
sg2712
I310
sg2713
F10994.609171476915
sg2714
F0.0
sg2715
F-5051.2363620339092
sg2716
g2717
sg2718
g2719
sg2720
g2721
sg2722
NsbsI311
g0
(g2706
g2
Ntp3653
Rp3654
(dp3655
g2710
g2711
sg2712
I311
sg2713
F12021.578160021461
sg2714
F0.0
sg2715
F-5051.2363620339092
sg2716
g2717
sg2718
g2719
sg2720
g2721
sg2722
NsbsI312
g0
(g2706
g2
Ntp3656
Rp3657
(dp3658
g2710
g2711
sg2712
I312
sg2713
F13048.547148566007
sg2714
F0.0
sg2715
F-5051.2363620339092
sg2716
g2717
sg2718
g2719
sg2720
g2721
sg2722
NsbsI313
g0
(g2706
g2
Ntp3659
Rp3660
(dp3661
g2710
g2711
sg2712
I313
sg2713
F14075.516137110555
sg2714
F0.0
sg2715
F-5051.2363620339092
sg2716
g2717
sg2718
g2719
sg2720
g2721
sg2722
NsbsI314
g0
(g2706
g2
Ntp3662
Rp3663
(dp3664
g2710
g2711
sg2712
I314
sg2713
F15102.485125655099
sg2714
F0.0
sg2715
F-5051.2363620339092
sg2716
g2717
sg2718
g2719
sg2720
g2721
sg2722
NsbsI315
g0
(g2706
g2
Ntp3665
Rp3666
(dp3667
g2710
g2711
sg2712
I315
sg2713
F10994.609171476915
sg2714
F0.0
sg2715
F-4309.2997987708532
sg2716
g2717
sg2718
g2719
sg2720
g2721
sg2722
NsbsI316
g0
(g2706
g2
Ntp3668
Rp3669
(dp3670
g2710
g2711
sg2712
I316
sg2713
F12021.578160021461
sg2714
F0.0
sg2715
F-4309.2997987708532
sg2716
g2717
sg2718
g2719
sg2720
g2721
sg2722
NsbsI317
g0
(g2706
g2
Ntp3671
Rp3672
(dp3673
g2710
g2711
sg2712
I317
sg2713
F13048.547148566007
sg2714
F0.0
sg2715
F-4309.2997987708532
sg2716
g2717
sg2718
g2719
sg2720
g2721
sg2722
NsbsI318
g0
(g2706
g2
Ntp3674
Rp3675
(dp3676
g2710
g2711
sg2712
I318
sg2713
F14075.516137110555
sg2714
F0.0
sg2715
F-4309.2997987708532
sg2716
g2717
sg2718
g2719
sg2720
g2721
sg2722
NsbsI319
g0
(g2706
g2
Ntp3677
Rp3678
(dp3679
g2710
g2711
sg2712
I319
sg2713
F15102.485125655099
sg2714
F0.0
sg2715
F-4309.2997987708532
sg2716
g2717
sg2718
g2719
sg2720
g2721
sg2722
NsbsI320
g0
(g2706
g2
Ntp3680
Rp3681
(dp3682
g2710
g2711
sg2712
I320
sg2713
F0.0
sg2714
F12255.385856883589
sg2715
F-2038.5242566627128
sg2716
g2717
sg2718
g2719
sg2720
g2721
sg2722
NsbsI321
g0
(g2706
g2
Ntp3683
Rp3684
(dp3685
g2710
g2711
sg2712
I321
sg2713
F996.76401829323811
sg2714
F12255.385856883589
sg2715
F-2038.5242566627128
sg2716
g2717
sg2718
g2719
sg2720
g2721
sg2722
NsbsI322
g0
(g2706
g2
Ntp3686
Rp3687
(dp3688
g2710
g2711
sg2712
I322
sg2713
F1993.5280365864762
sg2714
F12255.385856883589
sg2715
F-2038.5242566627128
sg2716
g2717
sg2718
g2719
sg2720
g2721
sg2722
NsbsI323
g0
(g2706
g2
Ntp3689
Rp3690
(dp3691
g2710
g2711
sg2712
I323
sg2713
F2990.2920548797142
sg2714
F12255.385856883589
sg2715
F-2038.5242566627126
sg2716
g2717
sg2718
g2719
sg2720
g2721
sg2722
NsbsI324
g0
(g2706
g2
Ntp3692
Rp3693
(dp3694
g2710
g2711
sg2712
I324
sg2713
F3987.0560731729524
sg2714
F12255.385856883589
sg2715
F-2038.524256662713
sg2716
g2717
sg2718
g2719
sg2720
g2721
sg2722
NsbsI325
g0
(g2706
g2
Ntp3695
Rp3696
(dp3697
g2710
g2711
sg2712
I325
sg2713
F4983.8200914661902
sg2714
F12255.385856883589
sg2715
F-2038.5242566627128
sg2716
g2717
sg2718
g2719
sg2720
g2721
sg2722
NsbsI326
g0
(g2706
g2
Ntp3698
Rp3699
(dp3700
g2710
g2711
sg2712
I326
sg2713
F0.0
sg2714
F12255.385856883589
sg2715
F-1296.5876933996569
sg2716
g2717
sg2718
g2719
sg2720
g2721
sg2722
NsbsI327
g0
(g2706
g2
Ntp3701
Rp3702
(dp3703
g2710
g2711
sg2712
I327
sg2713
F996.76401829323811
sg2714
F12255.385856883589
sg2715
F-1296.5876933996569
sg2716
g2717
sg2718
g2719
sg2720
g2721
sg2722
NsbsI328
g0
(g2706
g2
Ntp3704
Rp3705
(dp3706
g2710
g2711
sg2712
I328
sg2713
F1993.5280365864762
sg2714
F12255.385856883589
sg2715
F-1296.5876933996569
sg2716
g2717
sg2718
g2719
sg2720
g2721
sg2722
NsbsI329
g0
(g2706
g2
Ntp3707
Rp3708
(dp3709
g2710
g2711
sg2712
I329
sg2713
F2990.2920548797142
sg2714
F12255.385856883589
sg2715
F-1296.5876933996567
sg2716
g2717
sg2718
g2719
sg2720
g2721
sg2722
NsbsI330
g0
(g2706
g2
Ntp3710
Rp3711
(dp3712
g2710
g2711
sg2712
I330
sg2713
F3987.0560731729524
sg2714
F12255.385856883589
sg2715
F-1296.5876933996569
sg2716
g2717
sg2718
g2719
sg2720
g2721
sg2722
NsbsI331
g0
(g2706
g2
Ntp3713
Rp3714
(dp3715
g2710
g2711
sg2712
I331
sg2713
F4983.8200914661902
sg2714
F12255.385856883589
sg2715
F-1296.5876933996569
sg2716
g2717
sg2718
g2719
sg2720
g2721
sg2722
NsbsI332
g0
(g2706
g2
Ntp3716
Rp3717
(dp3718
g2710
g2711
sg2712
I332
sg2713
F0.0
sg2714
F12255.385856883589
sg2715
F-554.65113013660084
sg2716
g2717
sg2718
g2719
sg2720
g2721
sg2722
NsbsI333
g0
(g2706
g2
Ntp3719
Rp3720
(dp3721
g2710
g2711
sg2712
I333
sg2713
F996.76401829323811
sg2714
F12255.385856883589
sg2715
F-554.65113013660084
sg2716
g2717
sg2718
g2719
sg2720
g2721
sg2722
NsbsI334
g0
(g2706
g2
Ntp3722
Rp3723
(dp3724
g2710
g2711
sg2712
I334
sg2713
F1993.5280365864762
sg2714
F12255.385856883589
sg2715
F-554.65113013660084
sg2716
g2717
sg2718
g2719
sg2720
g2721
sg2722
NsbsI335
g0
(g2706
g2
Ntp3725
Rp3726
(dp3727
g2710
g2711
sg2712
I335
sg2713
F2990.2920548797142
sg2714
F12255.385856883589
sg2715
F-554.65113013660084
sg2716
g2717
sg2718
g2719
sg2720
g2721
sg2722
NsbsI336
g0
(g2706
g2
Ntp3728
Rp3729
(dp3730
g2710
g2711
sg2712
I336
sg2713
F3987.0560731729524
sg2714
F12255.385856883589
sg2715
F-554.65113013660084
sg2716
g2717
sg2718
g2719
sg2720
g2721
sg2722
NsbsI337
g0
(g2706
g2
Ntp3731
Rp3732
(dp3733
g2710
g2711
sg2712
I337
sg2713
F4983.8200914661902
sg2714
F12255.385856883589
sg2715
F-554.65113013660084
sg2716
g2717
sg2718
g2719
sg2720
g2721
sg2722
NsbsI338
g0
(g2706
g2
Ntp3734
Rp3735
(dp3736
g2710
g2711
sg2712
I338
sg2713
F5980.5841097594257
sg2714
F12255.385856883589
sg2715
F-2038.5242566627128
sg2716
g2717
sg2718
g2719
sg2720
g2721
sg2722
NsbsI339
g0
(g2706
g2
Ntp3737
Rp3738
(dp3739
g2710
g2711
sg2712
I339
sg2713
F6977.3481280526621
sg2714
F12255.385856883589
sg2715
F-2038.5242566627128
sg2716
g2717
sg2718
g2719
sg2720
g2721
sg2722
NsbsI340
g0
(g2706
g2
Ntp3740
Rp3741
(dp3742
g2710
g2711
sg2712
I340
sg2713
F7974.1121463458976
sg2714
F12255.385856883589
sg2715
F-2038.5242566627128
sg2716
g2717
sg2718
g2719
sg2720
g2721
sg2722
NsbsI341
g0
(g2706
g2
Ntp3743
Rp3744
(dp3745
g2710
g2711
sg2712
I341
sg2713
F8970.876164639134
sg2714
F12255.385856883589
sg2715
F-2038.5242566627128
sg2716
g2717
sg2718
g2719
sg2720
g2721
sg2722
NsbsI342
g0
(g2706
g2
Ntp3746
Rp3747
(dp3748
g2710
g2711
sg2712
I342
sg2713
F9967.6401829323695
sg2714
F12255.385856883589
sg2715
F-2038.5242566627128
sg2716
g2717
sg2718
g2719
sg2720
g2721
sg2722
NsbsI343
g0
(g2706
g2
Ntp3749
Rp3750
(dp3751
g2710
g2711
sg2712
I343
sg2713
F5980.5841097594257
sg2714
F12255.385856883589
sg2715
F-1296.5876933996569
sg2716
g2717
sg2718
g2719
sg2720
g2721
sg2722
NsbsI344
g0
(g2706
g2
Ntp3752
Rp3753
(dp3754
g2710
g2711
sg2712
I344
sg2713
F6977.3481280526621
sg2714
F12255.385856883589
sg2715
F-1296.5876933996569
sg2716
g2717
sg2718
g2719
sg2720
g2721
sg2722
NsbsI345
g0
(g2706
g2
Ntp3755
Rp3756
(dp3757
g2710
g2711
sg2712
I345
sg2713
F7974.1121463458967
sg2714
F12255.385856883589
sg2715
F-1296.5876933996567
sg2716
g2717
sg2718
g2719
sg2720
g2721
sg2722
NsbsI346
g0
(g2706
g2
Ntp3758
Rp3759
(dp3760
g2710
g2711
sg2712
I346
sg2713
F8970.876164639134
sg2714
F12255.385856883589
sg2715
F-1296.5876933996567
sg2716
g2717
sg2718
g2719
sg2720
g2721
sg2722
NsbsI347
g0
(g2706
g2
Ntp3761
Rp3762
(dp3763
g2710
g2711
sg2712
I347
sg2713
F9967.6401829323695
sg2714
F12255.385856883589
sg2715
F-1296.5876933996569
sg2716
g2717
sg2718
g2719
sg2720
g2721
sg2722
NsbsI348
g0
(g2706
g2
Ntp3764
Rp3765
(dp3766
g2710
g2711
sg2712
I348
sg2713
F5980.5841097594257
sg2714
F12255.385856883589
sg2715
F-554.65113013660084
sg2716
g2717
sg2718
g2719
sg2720
g2721
sg2722
NsbsI349
g0
(g2706
g2
Ntp3767
Rp3768
(dp3769
g2710
g2711
sg2712
I349
sg2713
F6977.3481280526621
sg2714
F12255.385856883589
sg2715
F-554.65113013660084
sg2716
g2717
sg2718
g2719
sg2720
g2721
sg2722
NsbsI350
g0
(g2706
g2
Ntp3770
Rp3771
(dp3772
g2710
g2711
sg2712
I350
sg2713
F7974.1121463458976
sg2714
F12255.385856883589
sg2715
F-554.65113013660084
sg2716
g2717
sg2718
g2719
sg2720
g2721
sg2722
NsbsI351
g0
(g2706
g2
Ntp3773
Rp3774
(dp3775
g2710
g2711
sg2712
I351
sg2713
F8970.876164639134
sg2714
F12255.385856883589
sg2715
F-554.65113013660084
sg2716
g2717
sg2718
g2719
sg2720
g2721
sg2722
NsbsI352
g0
(g2706
g2
Ntp3776
Rp3777
(dp3778
g2710
g2711
sg2712
I352
sg2713
F9967.6401829323695
sg2714
F12255.385856883589
sg2715
F-554.65113013660084
sg2716
g2717
sg2718
g2719
sg2720
g2721
sg2722
NsbsI353
g0
(g2706
g2
Ntp3779
Rp3780
(dp3781
g2710
g2711
sg2712
I353
sg2713
F10994.609171476915
sg2714
F12255.385856883589
sg2715
F-2038.524256662713
sg2716
g2717
sg2718
g2719
sg2720
g2721
sg2722
NsbsI354
g0
(g2706
g2
Ntp3782
Rp3783
(dp3784
g2710
g2711
sg2712
I354
sg2713
F12021.578160021461
sg2714
F12255.385856883589
sg2715
F-2038.5242566627128
sg2716
g2717
sg2718
g2719
sg2720
g2721
sg2722
NsbsI355
g0
(g2706
g2
Ntp3785
Rp3786
(dp3787
g2710
g2711
sg2712
I355
sg2713
F13048.547148566007
sg2714
F12255.385856883589
sg2715
F-2038.5242566627128
sg2716
g2717
sg2718
g2719
sg2720
g2721
sg2722
NsbsI356
g0
(g2706
g2
Ntp3788
Rp3789
(dp3790
g2710
g2711
sg2712
I356
sg2713
F14075.516137110555
sg2714
F12255.385856883589
sg2715
F-2038.524256662713
sg2716
g2717
sg2718
g2719
sg2720
g2721
sg2722
NsbsI357
g0
(g2706
g2
Ntp3791
Rp3792
(dp3793
g2710
g2711
sg2712
I357
sg2713
F15102.485125655099
sg2714
F12255.385856883589
sg2715
F-2038.5242566627128
sg2716
g2717
sg2718
g2719
sg2720
g2721
sg2722
NsbsI358
g0
(g2706
g2
Ntp3794
Rp3795
(dp3796
g2710
g2711
sg2712
I358
sg2713
F10994.609171476915
sg2714
F12255.385856883589
sg2715
F-1296.5876933996569
sg2716
g2717
sg2718
g2719
sg2720
g2721
sg2722
NsbsI359
g0
(g2706
g2
Ntp3797
Rp3798
(dp3799
g2710
g2711
sg2712
I359
sg2713
F12021.578160021461
sg2714
F12255.385856883589
sg2715
F-1296.5876933996569
sg2716
g2717
sg2718
g2719
sg2720
g2721
sg2722
NsbsI360
g0
(g2706
g2
Ntp3800
Rp3801
(dp3802
g2710
g2711
sg2712
I360
sg2713
F13048.547148566007
sg2714
F12255.385856883589
sg2715
F-1296.5876933996567
sg2716
g2717
sg2718
g2719
sg2720
g2721
sg2722
NsbsI361
g0
(g2706
g2
Ntp3803
Rp3804
(dp3805
g2710
g2711
sg2712
I361
sg2713
F14075.516137110555
sg2714
F12255.385856883589
sg2715
F-1296.5876933996569
sg2716
g2717
sg2718
g2719
sg2720
g2721
sg2722
NsbsI362
g0
(g2706
g2
Ntp3806
Rp3807
(dp3808
g2710
g2711
sg2712
I362
sg2713
F15102.485125655099
sg2714
F12255.385856883589
sg2715
F-1296.5876933996569
sg2716
g2717
sg2718
g2719
sg2720
g2721
sg2722
NsbsI363
g0
(g2706
g2
Ntp3809
Rp3810
(dp3811
g2710
g2711
sg2712
I363
sg2713
F10994.609171476915
sg2714
F12255.385856883589
sg2715
F-554.65113013660084
sg2716
g2717
sg2718
g2719
sg2720
g2721
sg2722
NsbsI364
g0
(g2706
g2
Ntp3812
Rp3813
(dp3814
g2710
g2711
sg2712
I364
sg2713
F12021.578160021461
sg2714
F12255.385856883589
sg2715
F-554.65113013660084
sg2716
g2717
sg2718
g2719
sg2720
g2721
sg2722
NsbsI365
g0
(g2706
g2
Ntp3815
Rp3816
(dp3817
g2710
g2711
sg2712
I365
sg2713
F13048.547148566007
sg2714
F12255.385856883589
sg2715
F-554.65113013660084
sg2716
g2717
sg2718
g2719
sg2720
g2721
sg2722
NsbsI366
g0
(g2706
g2
Ntp3818
Rp3819
(dp3820
g2710
g2711
sg2712
I366
sg2713
F14075.516137110555
sg2714
F12255.385856883589
sg2715
F-554.65113013660084
sg2716
g2717
sg2718
g2719
sg2720
g2721
sg2722
NsbsI367
g0
(g2706
g2
Ntp3821
Rp3822
(dp3823
g2710
g2711
sg2712
I367
sg2713
F15102.485125655099
sg2714
F12255.385856883589
sg2715
F-554.65113013660084
sg2716
g2717
sg2718
g2719
sg2720
g2721
sg2722
NsbsI368
g0
(g2706
g2
Ntp3824
Rp3825
(dp3826
g2710
g2711
sg2712
I368
sg2713
F0.0
sg2714
F12255.385856883589
sg2715
F-3567.3632355077971
sg2716
g2717
sg2718
g2719
sg2720
g2721
sg2722
NsbsI369
g0
(g2706
g2
Ntp3827
Rp3828
(dp3829
g2710
g2711
sg2712
I369
sg2713
F996.76401829323811
sg2714
F12255.385856883589
sg2715
F-3567.3632355077971
sg2716
g2717
sg2718
g2719
sg2720
g2721
sg2722
NsbsI370
g0
(g2706
g2
Ntp3830
Rp3831
(dp3832
g2710
g2711
sg2712
I370
sg2713
F1993.5280365864762
sg2714
F12255.385856883589
sg2715
F-3567.3632355077971
sg2716
g2717
sg2718
g2719
sg2720
g2721
sg2722
NsbsI371
g0
(g2706
g2
Ntp3833
Rp3834
(dp3835
g2710
g2711
sg2712
I371
sg2713
F2990.2920548797142
sg2714
F12255.385856883589
sg2715
F-3567.3632355077971
sg2716
g2717
sg2718
g2719
sg2720
g2721
sg2722
NsbsI372
g0
(g2706
g2
Ntp3836
Rp3837
(dp3838
g2710
g2711
sg2712
I372
sg2713
F3987.0560731729524
sg2714
F12255.385856883589
sg2715
F-3567.3632355077971
sg2716
g2717
sg2718
g2719
sg2720
g2721
sg2722
NsbsI373
g0
(g2706
g2
Ntp3839
Rp3840
(dp3841
g2710
g2711
sg2712
I373
sg2713
F4983.8200914661902
sg2714
F12255.385856883589
sg2715
F-3567.3632355077971
sg2716
g2717
sg2718
g2719
sg2720
g2721
sg2722
NsbsI374
g0
(g2706
g2
Ntp3842
Rp3843
(dp3844
g2710
g2711
sg2712
I374
sg2713
F0.0
sg2714
F12255.385856883589
sg2715
F-2802.943746085255
sg2716
g2717
sg2718
g2719
sg2720
g2721
sg2722
NsbsI375
g0
(g2706
g2
Ntp3845
Rp3846
(dp3847
g2710
g2711
sg2712
I375
sg2713
F996.76401829323811
sg2714
F12255.385856883589
sg2715
F-2802.943746085255
sg2716
g2717
sg2718
g2719
sg2720
g2721
sg2722
NsbsI376
g0
(g2706
g2
Ntp3848
Rp3849
(dp3850
g2710
g2711
sg2712
I376
sg2713
F1993.5280365864762
sg2714
F12255.385856883589
sg2715
F-2802.943746085255
sg2716
g2717
sg2718
g2719
sg2720
g2721
sg2722
NsbsI377
g0
(g2706
g2
Ntp3851
Rp3852
(dp3853
g2710
g2711
sg2712
I377
sg2713
F2990.2920548797142
sg2714
F12255.385856883589
sg2715
F-2802.943746085255
sg2716
g2717
sg2718
g2719
sg2720
g2721
sg2722
NsbsI378
g0
(g2706
g2
Ntp3854
Rp3855
(dp3856
g2710
g2711
sg2712
I378
sg2713
F3987.0560731729524
sg2714
F12255.385856883589
sg2715
F-2802.943746085255
sg2716
g2717
sg2718
g2719
sg2720
g2721
sg2722
NsbsI379
g0
(g2706
g2
Ntp3857
Rp3858
(dp3859
g2710
g2711
sg2712
I379
sg2713
F4983.8200914661902
sg2714
F12255.385856883589
sg2715
F-2802.943746085255
sg2716
g2717
sg2718
g2719
sg2720
g2721
sg2722
NsbsI380
g0
(g2706
g2
Ntp3860
Rp3861
(dp3862
g2710
g2711
sg2712
I380
sg2713
F5980.5841097594257
sg2714
F12255.385856883589
sg2715
F-3567.3632355077971
sg2716
g2717
sg2718
g2719
sg2720
g2721
sg2722
NsbsI381
g0
(g2706
g2
Ntp3863
Rp3864
(dp3865
g2710
g2711
sg2712
I381
sg2713
F6977.3481280526621
sg2714
F12255.385856883589
sg2715
F-3567.3632355077971
sg2716
g2717
sg2718
g2719
sg2720
g2721
sg2722
NsbsI382
g0
(g2706
g2
Ntp3866
Rp3867
(dp3868
g2710
g2711
sg2712
I382
sg2713
F7974.1121463458976
sg2714
F12255.385856883589
sg2715
F-3567.3632355077971
sg2716
g2717
sg2718
g2719
sg2720
g2721
sg2722
NsbsI383
g0
(g2706
g2
Ntp3869
Rp3870
(dp3871
g2710
g2711
sg2712
I383
sg2713
F8970.876164639134
sg2714
F12255.385856883589
sg2715
F-3567.3632355077971
sg2716
g2717
sg2718
g2719
sg2720
g2721
sg2722
NsbsI384
g0
(g2706
g2
Ntp3872
Rp3873
(dp3874
g2710
g2711
sg2712
I384
sg2713
F9967.6401829323695
sg2714
F12255.385856883589
sg2715
F-3567.3632355077971
sg2716
g2717
sg2718
g2719
sg2720
g2721
sg2722
NsbsI385
g0
(g2706
g2
Ntp3875
Rp3876
(dp3877
g2710
g2711
sg2712
I385
sg2713
F5980.5841097594257
sg2714
F12255.385856883589
sg2715
F-2802.943746085255
sg2716
g2717
sg2718
g2719
sg2720
g2721
sg2722
NsbsI386
g0
(g2706
g2
Ntp3878
Rp3879
(dp3880
g2710
g2711
sg2712
I386
sg2713
F6977.3481280526621
sg2714
F12255.385856883589
sg2715
F-2802.943746085255
sg2716
g2717
sg2718
g2719
sg2720
g2721
sg2722
NsbsI387
g0
(g2706
g2
Ntp3881
Rp3882
(dp3883
g2710
g2711
sg2712
I387
sg2713
F7974.1121463458967
sg2714
F12255.385856883589
sg2715
F-2802.943746085255
sg2716
g2717
sg2718
g2719
sg2720
g2721
sg2722
NsbsI388
g0
(g2706
g2
Ntp3884
Rp3885
(dp3886
g2710
g2711
sg2712
I388
sg2713
F8970.876164639134
sg2714
F12255.385856883589
sg2715
F-2802.943746085255
sg2716
g2717
sg2718
g2719
sg2720
g2721
sg2722
NsbsI389
g0
(g2706
g2
Ntp3887
Rp3888
(dp3889
g2710
g2711
sg2712
I389
sg2713
F9967.6401829323695
sg2714
F12255.385856883589
sg2715
F-2802.943746085255
sg2716
g2717
sg2718
g2719
sg2720
g2721
sg2722
NsbsI390
g0
(g2706
g2
Ntp3890
Rp3891
(dp3892
g2710
g2711
sg2712
I390
sg2713
F10994.609171476915
sg2714
F12255.385856883589
sg2715
F-3567.3632355077971
sg2716
g2717
sg2718
g2719
sg2720
g2721
sg2722
NsbsI391
g0
(g2706
g2
Ntp3893
Rp3894
(dp3895
g2710
g2711
sg2712
I391
sg2713
F12021.578160021461
sg2714
F12255.385856883589
sg2715
F-3567.3632355077971
sg2716
g2717
sg2718
g2719
sg2720
g2721
sg2722
NsbsI392
g0
(g2706
g2
Ntp3896
Rp3897
(dp3898
g2710
g2711
sg2712
I392
sg2713
F13048.547148566007
sg2714
F12255.385856883589
sg2715
F-3567.3632355077971
sg2716
g2717
sg2718
g2719
sg2720
g2721
sg2722
NsbsI393
g0
(g2706
g2
Ntp3899
Rp3900
(dp3901
g2710
g2711
sg2712
I393
sg2713
F14075.516137110555
sg2714
F12255.385856883589
sg2715
F-3567.3632355077971
sg2716
g2717
sg2718
g2719
sg2720
g2721
sg2722
NsbsI394
g0
(g2706
g2
Ntp3902
Rp3903
(dp3904
g2710
g2711
sg2712
I394
sg2713
F15102.485125655099
sg2714
F12255.385856883589
sg2715
F-3567.3632355077971
sg2716
g2717
sg2718
g2719
sg2720
g2721
sg2722
NsbsI395
g0
(g2706
g2
Ntp3905
Rp3906
(dp3907
g2710
g2711
sg2712
I395
sg2713
F10994.609171476915
sg2714
F12255.385856883589
sg2715
F-2802.943746085255
sg2716
g2717
sg2718
g2719
sg2720
g2721
sg2722
NsbsI396
g0
(g2706
g2
Ntp3908
Rp3909
(dp3910
g2710
g2711
sg2712
I396
sg2713
F12021.578160021461
sg2714
F12255.385856883589
sg2715
F-2802.943746085255
sg2716
g2717
sg2718
g2719
sg2720
g2721
sg2722
NsbsI397
g0
(g2706
g2
Ntp3911
Rp3912
(dp3913
g2710
g2711
sg2712
I397
sg2713
F13048.547148566007
sg2714
F12255.385856883589
sg2715
F-2802.943746085255
sg2716
g2717
sg2718
g2719
sg2720
g2721
sg2722
NsbsI398
g0
(g2706
g2
Ntp3914
Rp3915
(dp3916
g2710
g2711
sg2712
I398
sg2713
F14075.516137110555
sg2714
F12255.385856883589
sg2715
F-2802.943746085255
sg2716
g2717
sg2718
g2719
sg2720
g2721
sg2722
NsbsI399
g0
(g2706
g2
Ntp3917
Rp3918
(dp3919
g2710
g2711
sg2712
I399
sg2713
F15102.485125655099
sg2714
F12255.385856883589
sg2715
F-2802.943746085255
sg2716
g2717
sg2718
g2719
sg2720
g2721
sg2722
NsbsI400
g0
(g2706
g2
Ntp3920
Rp3921
(dp3922
g2710
g2711
sg2712
I400
sg2713
F0.0
sg2714
F12255.385856883589
sg2715
F-5051.2363620339092
sg2716
g2717
sg2718
g2719
sg2720
g2721
sg2722
NsbsI401
g0
(g2706
g2
Ntp3923
Rp3924
(dp3925
g2710
g2711
sg2712
I401
sg2713
F996.76401829323811
sg2714
F12255.385856883589
sg2715
F-5051.2363620339092
sg2716
g2717
sg2718
g2719
sg2720
g2721
sg2722
NsbsI402
g0
(g2706
g2
Ntp3926
Rp3927
(dp3928
g2710
g2711
sg2712
I402
sg2713
F1993.5280365864762
sg2714
F12255.385856883589
sg2715
F-5051.2363620339092
sg2716
g2717
sg2718
g2719
sg2720
g2721
sg2722
NsbsI403
g0
(g2706
g2
Ntp3929
Rp3930
(dp3931
g2710
g2711
sg2712
I403
sg2713
F2990.2920548797142
sg2714
F12255.385856883589
sg2715
F-5051.2363620339092
sg2716
g2717
sg2718
g2719
sg2720
g2721
sg2722
NsbsI404
g0
(g2706
g2
Ntp3932
Rp3933
(dp3934
g2710
g2711
sg2712
I404
sg2713
F3987.0560731729524
sg2714
F12255.385856883589
sg2715
F-5051.2363620339092
sg2716
g2717
sg2718
g2719
sg2720
g2721
sg2722
NsbsI405
g0
(g2706
g2
Ntp3935
Rp3936
(dp3937
g2710
g2711
sg2712
I405
sg2713
F4983.8200914661902
sg2714
F12255.385856883589
sg2715
F-5051.2363620339092
sg2716
g2717
sg2718
g2719
sg2720
g2721
sg2722
NsbsI406
g0
(g2706
g2
Ntp3938
Rp3939
(dp3940
g2710
g2711
sg2712
I406
sg2713
F0.0
sg2714
F12255.385856883589
sg2715
F-4309.2997987708532
sg2716
g2717
sg2718
g2719
sg2720
g2721
sg2722
NsbsI407
g0
(g2706
g2
Ntp3941
Rp3942
(dp3943
g2710
g2711
sg2712
I407
sg2713
F996.76401829323811
sg2714
F12255.385856883589
sg2715
F-4309.2997987708532
sg2716
g2717
sg2718
g2719
sg2720
g2721
sg2722
NsbsI408
g0
(g2706
g2
Ntp3944
Rp3945
(dp3946
g2710
g2711
sg2712
I408
sg2713
F1993.5280365864762
sg2714
F12255.385856883589
sg2715
F-4309.2997987708532
sg2716
g2717
sg2718
g2719
sg2720
g2721
sg2722
NsbsI409
g0
(g2706
g2
Ntp3947
Rp3948
(dp3949
g2710
g2711
sg2712
I409
sg2713
F2990.2920548797142
sg2714
F12255.385856883589
sg2715
F-4309.2997987708532
sg2716
g2717
sg2718
g2719
sg2720
g2721
sg2722
NsbsI410
g0
(g2706
g2
Ntp3950
Rp3951
(dp3952
g2710
g2711
sg2712
I410
sg2713
F3987.0560731729524
sg2714
F12255.385856883589
sg2715
F-4309.2997987708532
sg2716
g2717
sg2718
g2719
sg2720
g2721
sg2722
NsbsI411
g0
(g2706
g2
Ntp3953
Rp3954
(dp3955
g2710
g2711
sg2712
I411
sg2713
F4983.8200914661902
sg2714
F12255.385856883589
sg2715
F-4309.2997987708532
sg2716
g2717
sg2718
g2719
sg2720
g2721
sg2722
NsbsI412
g0
(g2706
g2
Ntp3956
Rp3957
(dp3958
g2710
g2711
sg2712
I412
sg2713
F5980.5841097594257
sg2714
F12255.385856883589
sg2715
F-5051.2363620339092
sg2716
g2717
sg2718
g2719
sg2720
g2721
sg2722
NsbsI413
g0
(g2706
g2
Ntp3959
Rp3960
(dp3961
g2710
g2711
sg2712
I413
sg2713
F6977.3481280526621
sg2714
F12255.385856883589
sg2715
F-5051.2363620339092
sg2716
g2717
sg2718
g2719
sg2720
g2721
sg2722
NsbsI414
g0
(g2706
g2
Ntp3962
Rp3963
(dp3964
g2710
g2711
sg2712
I414
sg2713
F7974.1121463458976
sg2714
F12255.385856883589
sg2715
F-5051.2363620339092
sg2716
g2717
sg2718
g2719
sg2720
g2721
sg2722
NsbsI415
g0
(g2706
g2
Ntp3965
Rp3966
(dp3967
g2710
g2711
sg2712
I415
sg2713
F8970.876164639134
sg2714
F12255.385856883589
sg2715
F-5051.2363620339092
sg2716
g2717
sg2718
g2719
sg2720
g2721
sg2722
NsbsI416
g0
(g2706
g2
Ntp3968
Rp3969
(dp3970
g2710
g2711
sg2712
I416
sg2713
F9967.6401829323695
sg2714
F12255.385856883589
sg2715
F-5051.2363620339092
sg2716
g2717
sg2718
g2719
sg2720
g2721
sg2722
NsbsI417
g0
(g2706
g2
Ntp3971
Rp3972
(dp3973
g2710
g2711
sg2712
I417
sg2713
F5980.5841097594257
sg2714
F12255.385856883589
sg2715
F-4309.2997987708532
sg2716
g2717
sg2718
g2719
sg2720
g2721
sg2722
NsbsI418
g0
(g2706
g2
Ntp3974
Rp3975
(dp3976
g2710
g2711
sg2712
I418
sg2713
F6977.3481280526621
sg2714
F12255.385856883589
sg2715
F-4309.2997987708532
sg2716
g2717
sg2718
g2719
sg2720
g2721
sg2722
NsbsI419
g0
(g2706
g2
Ntp3977
Rp3978
(dp3979
g2710
g2711
sg2712
I419
sg2713
F7974.1121463458967
sg2714
F12255.385856883589
sg2715
F-4309.2997987708532
sg2716
g2717
sg2718
g2719
sg2720
g2721
sg2722
NsbsI420
g0
(g2706
g2
Ntp3980
Rp3981
(dp3982
g2710
g2711
sg2712
I420
sg2713
F8970.876164639134
sg2714
F12255.385856883589
sg2715
F-4309.2997987708532
sg2716
g2717
sg2718
g2719
sg2720
g2721
sg2722
NsbsI421
g0
(g2706
g2
Ntp3983
Rp3984
(dp3985
g2710
g2711
sg2712
I421
sg2713
F9967.6401829323695
sg2714
F12255.385856883589
sg2715
F-4309.2997987708532
sg2716
g2717
sg2718
g2719
sg2720
g2721
sg2722
NsbsI422
g0
(g2706
g2
Ntp3986
Rp3987
(dp3988
g2710
g2711
sg2712
I422
sg2713
F10994.609171476915
sg2714
F12255.385856883589
sg2715
F-5051.2363620339092
sg2716
g2717
sg2718
g2719
sg2720
g2721
sg2722
NsbsI423
g0
(g2706
g2
Ntp3989
Rp3990
(dp3991
g2710
g2711
sg2712
I423
sg2713
F12021.578160021461
sg2714
F12255.385856883589
sg2715
F-5051.2363620339092
sg2716
g2717
sg2718
g2719
sg2720
g2721
sg2722
NsbsI424
g0
(g2706
g2
Ntp3992
Rp3993
(dp3994
g2710
g2711
sg2712
I424
sg2713
F13048.547148566007
sg2714
F12255.385856883589
sg2715
F-5051.2363620339092
sg2716
g2717
sg2718
g2719
sg2720
g2721
sg2722
NsbsI425
g0
(g2706
g2
Ntp3995
Rp3996
(dp3997
g2710
g2711
sg2712
I425
sg2713
F14075.516137110555
sg2714
F12255.385856883589
sg2715
F-5051.2363620339092
sg2716
g2717
sg2718
g2719
sg2720
g2721
sg2722
NsbsI426
g0
(g2706
g2
Ntp3998
Rp3999
(dp4000
g2710
g2711
sg2712
I426
sg2713
F15102.485125655099
sg2714
F12255.385856883589
sg2715
F-5051.2363620339092
sg2716
g2717
sg2718
g2719
sg2720
g2721
sg2722
NsbsI427
g0
(g2706
g2
Ntp4001
Rp4002
(dp4003
g2710
g2711
sg2712
I427
sg2713
F10994.609171476915
sg2714
F12255.385856883589
sg2715
F-4309.2997987708532
sg2716
g2717
sg2718
g2719
sg2720
g2721
sg2722
NsbsI428
g0
(g2706
g2
Ntp4004
Rp4005
(dp4006
g2710
g2711
sg2712
I428
sg2713
F12021.578160021461
sg2714
F12255.385856883589
sg2715
F-4309.2997987708532
sg2716
g2717
sg2718
g2719
sg2720
g2721
sg2722
NsbsI429
g0
(g2706
g2
Ntp4007
Rp4008
(dp4009
g2710
g2711
sg2712
I429
sg2713
F13048.547148566007
sg2714
F12255.385856883589
sg2715
F-4309.2997987708532
sg2716
g2717
sg2718
g2719
sg2720
g2721
sg2722
NsbsI430
g0
(g2706
g2
Ntp4010
Rp4011
(dp4012
g2710
g2711
sg2712
I430
sg2713
F14075.516137110555
sg2714
F12255.385856883589
sg2715
F-4309.2997987708532
sg2716
g2717
sg2718
g2719
sg2720
g2721
sg2722
NsbsI431
g0
(g2706
g2
Ntp4013
Rp4014
(dp4015
g2710
g2711
sg2712
I431
sg2713
F15102.485125655099
sg2714
F12255.385856883589
sg2715
F-4309.2997987708532
sg2716
g2717
sg2718
g2719
sg2720
g2721
sg2722
NsbssS'node_index'
p4016
(dp4017
S'7974.112,0.000,-3567.363'
p4018
I270
sS'2990.292,12255.386,-554.651'
p4019
I335
sS'1993.528,0.000,-2802.944'
p4020
I264
sS'15102.485,8211.109,0.000'
p4021
I139
sS'3987.056,0.000,0.000'
p4022
I4
sS'8970.876,12255.386,-4309.300'
p4023
I420
sS'3987.056,9222.178,0.000'
p4024
I40
sS'8970.876,1011.069,0.000'
p4025
I68
sS'0.000,5085.985,0.000'
p4026
I160
sS'8970.876,0.000,-3567.363'
p4027
I271
sS'6977.348,0.000,-554.651'
p4028
I237
sS'0.000,0.000,-2802.944'
p4029
I262
sS'0.000,0.000,-5051.236'
p4030
I288
sS'6977.348,5085.985,0.000'
p4031
I179
sS'10994.609,11244.317,0.000'
p4032
I150
sS'6977.348,0.000,-4309.300'
p4033
I306
sS'13048.547,0.000,-2802.944'
p4034
I285
sS'2990.292,6127.693,0.000'
p4035
I169
sS'3987.056,7169.401,0.000'
p4036
I176
sS'13048.547,7169.401,0.000'
p4037
I205
sS'14075.516,0.000,-3567.363'
p4038
I281
sS'0.000,7169.401,0.000'
p4039
I172
sS'13048.547,0.000,-3567.363'
p4040
I280
sS'3987.056,12255.386,-4309.300'
p4041
I410
sS'9967.640,10233.247,0.000'
p4042
I99
sS'1993.528,4044.277,0.000'
p4043
I26
sS'14075.516,8211.109,0.000'
p4044
I138
sS'12021.578,12255.386,-1296.588'
p4045
I359
sS'8970.876,0.000,-2802.944'
p4046
I276
sS'12021.578,0.000,-554.651'
p4047
I252
sS'2990.292,2022.139,0.000'
p4048
I15
sS'6977.348,1011.069,0.000'
p4049
I66
sS'9967.640,1011.069,0.000'
p4050
I69
sS'2990.292,0.000,-554.651'
p4051
I223
sS'3987.056,0.000,-2038.524'
p4052
I212
sS'15102.485,3033.208,0.000'
p4053
I129
sS'14075.516,1011.069,0.000'
p4054
I118
sS'14075.516,9222.178,0.000'
p4055
I143
sS'4983.820,2022.139,0.000'
p4056
I17
sS'6977.348,0.000,0.000'
p4057
I61
sS'7974.112,10233.247,0.000'
p4058
I97
sS'0.000,12255.386,-1296.588'
p4059
I326
sS'4983.820,12255.386,-3567.363'
p4060
I373
sS'8970.876,0.000,-4309.300'
p4061
I308
sS'6977.348,0.000,-1296.588'
p4062
I232
sS'10994.609,0.000,-2802.944'
p4063
I283
sS'9967.640,12255.386,-1296.588'
p4064
I347
sS'10994.609,2022.139,0.000'
p4065
I120
sS'8970.876,12255.386,0.000'
p4066
I108
sS'12021.578,12255.386,-5051.236'
p4067
I423
sS'13048.547,1011.069,0.000'
p4068
I117
sS'0.000,0.000,0.000'
p4069
I0
sS'996.764,0.000,-5051.236'
p4070
I289
sS'7974.112,0.000,-554.651'
p4071
I238
sS'15102.485,12255.386,-3567.363'
p4072
I394
sS'0.000,4044.277,0.000'
p4073
I24
sS'4983.820,0.000,-5051.236'
p4074
I293
sS'13048.547,12255.386,-1296.588'
p4075
I360
sS'10994.609,12255.386,-1296.588'
p4076
I358
sS'15102.485,2022.139,0.000'
p4077
I124
sS'8970.876,12255.386,-2802.944'
p4078
I388
sS'3987.056,4044.277,0.000'
p4079
I28
sS'6977.348,3033.208,0.000'
p4080
I76
sS'3987.056,12255.386,-2038.524'
p4081
I324
sS'14075.516,12255.386,-1296.588'
p4082
I361
sS'1993.528,1011.069,0.000'
p4083
I8
sS'5980.584,12255.386,-2802.944'
p4084
I385
sS'4983.820,7169.401,0.000'
p4085
I177
sS'13048.547,0.000,-5051.236'
p4086
I312
sS'4983.820,5085.985,0.000'
p4087
I165
sS'996.764,11244.317,0.000'
p4088
I49
sS'14075.516,0.000,-5051.236'
p4089
I313
sS'2990.292,12255.386,-2802.944'
p4090
I377
sS'14075.516,4044.277,0.000'
p4091
I133
sS'2990.292,0.000,-2802.944'
p4092
I265
sS'15102.485,11244.317,0.000'
p4093
I154
sS'4983.820,9222.178,0.000'
p4094
I41
sS'3987.056,5085.985,0.000'
p4095
I164
sS'6977.348,12255.386,-554.651'
p4096
I349
sS'15102.485,9222.178,0.000'
p4097
I144
sS'4983.820,12255.386,-2038.524'
p4098
I325
sS'2990.292,9222.178,0.000'
p4099
I39
sS'0.000,3033.208,0.000'
p4100
I18
sS'12021.578,4044.277,0.000'
p4101
I131
sS'9967.640,12255.386,-554.651'
p4102
I352
sS'9967.640,12255.386,-5051.236'
p4103
I416
sS'6977.348,0.000,-2802.944'
p4104
I274
sS'2990.292,12255.386,-1296.588'
p4105
I329
sS'2990.292,0.000,0.000'
p4106
I3
sS'5980.584,0.000,-4309.300'
p4107
I305
sS'1993.528,0.000,-4309.300'
p4108
I296
sS'4983.820,6127.693,0.000'
p4109
I171
sS'6977.348,11244.317,0.000'
p4110
I101
sS'3987.056,12255.386,-1296.588'
p4111
I330
sS'4983.820,11244.317,0.000'
p4112
I53
sS'13048.547,12255.386,-2802.944'
p4113
I397
sS'5980.584,0.000,-554.651'
p4114
I236
sS'1993.528,9222.178,0.000'
p4115
I38
sS'996.764,12255.386,-554.651'
p4116
I333
sS'10994.609,0.000,-4309.300'
p4117
I315
sS'9967.640,12255.386,-2038.524'
p4118
I342
sS'14075.516,0.000,-2802.944'
p4119
I286
sS'1993.528,6127.693,0.000'
p4120
I168
sS'1993.528,12255.386,0.000'
p4121
I56
sS'6977.348,4044.277,0.000'
p4122
I81
sS'10994.609,10233.247,0.000'
p4123
I145
sS'9967.640,0.000,-2038.524'
p4124
I230
sS'996.764,0.000,-2038.524'
p4125
I209
sS'1993.528,12255.386,-554.651'
p4126
I334
sS'7974.112,8211.109,0.000'
p4127
I87
sS'7974.112,1011.069,0.000'
p4128
I67
sS'5980.584,12255.386,-3567.363'
p4129
I380
sS'7974.112,2022.139,0.000'
p4130
I72
sS'4983.820,0.000,-1296.588'
p4131
I219
sS'996.764,12255.386,-2038.524'
p4132
I321
sS'8970.876,0.000,-2038.524'
p4133
I229
sS'10994.609,3033.208,0.000'
p4134
I125
sS'2990.292,11244.317,0.000'
p4135
I51
sS'1993.528,0.000,-1296.588'
p4136
I216
sS'15102.485,12255.386,-4309.300'
p4137
I431
sS'10994.609,0.000,-1296.588'
p4138
I246
sS'996.764,4044.277,0.000'
p4139
I25
sS'2990.292,12255.386,-3567.363'
p4140
I371
sS'13048.547,12255.386,-5051.236'
p4141
I424
sS'15102.485,7169.401,0.000'
p4142
I207
sS'2990.292,10233.247,0.000'
p4143
I45
sS'14075.516,0.000,-554.651'
p4144
I254
sS'15102.485,12255.386,-1296.588'
p4145
I362
sS'10994.609,5085.985,0.000'
p4146
I193
sS'9967.640,9222.178,0.000'
p4147
I94
sS'0.000,12255.386,-4309.300'
p4148
I406
sS'12021.578,7169.401,0.000'
p4149
I204
sS'12021.578,11244.317,0.000'
p4150
I151
sS'4983.820,10233.247,0.000'
p4151
I47
sS'12021.578,1011.069,0.000'
p4152
I116
sS'14075.516,12255.386,-2038.524'
p4153
I356
sS'3987.056,12255.386,-554.651'
p4154
I336
sS'14075.516,12255.386,-5051.236'
p4155
I425
sS'1993.528,11244.317,0.000'
p4156
I50
sS'1993.528,0.000,-2038.524'
p4157
I210
sS'0.000,6127.693,0.000'
p4158
I166
sS'5980.584,8211.109,0.000'
p4159
I85
sS'7974.112,0.000,0.000'
p4160
I62
sS'10994.609,7169.401,0.000'
p4161
I203
sS'1993.528,3033.208,0.000'
p4162
I20
sS'6977.348,6127.693,0.000'
p4163
I184
sS'13048.547,5085.985,0.000'
p4164
I195
sS'9967.640,12255.386,-4309.300'
p4165
I421
sS'13048.547,12255.386,-554.651'
p4166
I365
sS'14075.516,0.000,0.000'
p4167
I113
sS'9967.640,8211.109,0.000'
p4168
I89
sS'4983.820,0.000,0.000'
p4169
I5
sS'5980.584,0.000,-1296.588'
p4170
I231
sS'15102.485,12255.386,-2038.524'
p4171
I357
sS'9967.640,0.000,0.000'
p4172
I64
sS'14075.516,12255.386,-2802.944'
p4173
I398
sS'12021.578,3033.208,0.000'
p4174
I126
sS'7974.112,3033.208,0.000'
p4175
I77
sS'0.000,0.000,-1296.588'
p4176
I214
sS'5980.584,0.000,-5051.236'
p4177
I300
sS'12021.578,2022.139,0.000'
p4178
I121
sS'10994.609,12255.386,0.000'
p4179
I155
sS'9967.640,12255.386,-3567.363'
p4180
I384
sS'0.000,12255.386,-3567.363'
p4181
I368
sS'8970.876,12255.386,-2038.524'
p4182
I341
sS'3987.056,8211.109,0.000'
p4183
I34
sS'8970.876,3033.208,0.000'
p4184
I78
sS'0.000,10233.247,0.000'
p4185
I42
sS'8970.876,12255.386,-554.651'
p4186
I351
sS'3987.056,0.000,-2802.944'
p4187
I266
sS'13048.547,9222.178,0.000'
p4188
I142
sS'5980.584,12255.386,-5051.236'
p4189
I412
sS'9967.640,12255.386,0.000'
p4190
I109
sS'8970.876,9222.178,0.000'
p4191
I93
sS'3987.056,1011.069,0.000'
p4192
I10
sS'2990.292,7169.401,0.000'
p4193
I175
sS'9967.640,5085.985,0.000'
p4194
I182
sS'7974.112,0.000,-1296.588'
p4195
I233
sS'1993.528,2022.139,0.000'
p4196
I14
sS'4983.820,4044.277,0.000'
p4197
I29
sS'15102.485,0.000,0.000'
p4198
I114
sS'8970.876,2022.139,0.000'
p4199
I73
sS'5980.584,12255.386,-1296.588'
p4200
I343
sS'0.000,9222.178,0.000'
p4201
I36
sS'1993.528,12255.386,-2038.524'
p4202
I322
sS'3987.056,0.000,-554.651'
p4203
I224
sS'8970.876,12255.386,-5051.236'
p4204
I415
sS'14075.516,12255.386,-554.651'
p4205
I366
sS'2990.292,3033.208,0.000'
p4206
I21
sS'10994.609,12255.386,-4309.300'
p4207
I427
sS'4983.820,0.000,-3567.363'
p4208
I261
sS'10994.609,4044.277,0.000'
p4209
I130
sS'8970.876,0.000,-1296.588'
p4210
I234
sS'10994.609,0.000,-5051.236'
p4211
I310
sS'3987.056,12255.386,-2802.944'
p4212
I378
sS'4983.820,8211.109,0.000'
p4213
I35
sS'996.764,12255.386,-1296.588'
p4214
I327
sS'996.764,0.000,-2802.944'
p4215
I263
sS'14075.516,6127.693,0.000'
p4216
I201
sS'13048.547,12255.386,-2038.524'
p4217
I355
sS'13048.547,0.000,-4309.300'
p4218
I317
sS'7974.112,9222.178,0.000'
p4219
I92
sS'13048.547,0.000,0.000'
p4220
I112
sS'12021.578,0.000,-2038.524'
p4221
I242
sS'5980.584,1011.069,0.000'
p4222
I65
sS'14075.516,0.000,-4309.300'
p4223
I318
sS'7974.112,12255.386,-2802.944'
p4224
I387
sS'8970.876,12255.386,-3567.363'
p4225
I383
sS'1993.528,10233.247,0.000'
p4226
I44
sS'14075.516,10233.247,0.000'
p4227
I148
sS'996.764,12255.386,-2802.944'
p4228
I375
sS'4983.820,1011.069,0.000'
p4229
I11
sS'12021.578,0.000,-5051.236'
p4230
I311
sS'4983.820,0.000,-554.651'
p4231
I225
sS'6977.348,12255.386,-2802.944'
p4232
I386
sS'1993.528,5085.985,0.000'
p4233
I162
sS'996.764,8211.109,0.000'
p4234
I31
sS'7974.112,7169.401,0.000'
p4235
I190
sS'4983.820,0.000,-2802.944'
p4236
I267
sS'7974.112,12255.386,-1296.588'
p4237
I345
sS'6977.348,10233.247,0.000'
p4238
I96
sS'7974.112,0.000,-2802.944'
p4239
I275
sS'12021.578,12255.386,-2038.524'
p4240
I354
sS'5980.584,12255.386,-554.651'
p4241
I348
sS'14075.516,11244.317,0.000'
p4242
I153
sS'996.764,2022.139,0.000'
p4243
I13
sS'4983.820,0.000,-2038.524'
p4244
I213
sS'12021.578,0.000,0.000'
p4245
I111
sS'13048.547,0.000,-554.651'
p4246
I253
sS'0.000,8211.109,0.000'
p4247
I30
sS'6977.348,12255.386,-3567.363'
p4248
I381
sS'7974.112,12255.386,-4309.300'
p4249
I419
sS'10994.609,1011.069,0.000'
p4250
I115
sS'9967.640,0.000,-5051.236'
p4251
I304
sS'15102.485,0.000,-2038.524'
p4252
I245
sS'10994.609,0.000,-554.651'
p4253
I251
sS'6977.348,12255.386,-4309.300'
p4254
I418
sS'13048.547,4044.277,0.000'
p4255
I132
sS'2990.292,1011.069,0.000'
p4256
I9
sS'5980.584,12255.386,-2038.524'
p4257
I338
sS'5980.584,9222.178,0.000'
p4258
I90
sS'0.000,0.000,-3567.363'
p4259
I256
sS'0.000,0.000,-2038.524'
p4260
I208
sS'10994.609,12255.386,-5051.236'
p4261
I422
sS'996.764,5085.985,0.000'
p4262
I161
sS'7974.112,12255.386,-554.651'
p4263
I350
sS'15102.485,4044.277,0.000'
p4264
I134
sS'15102.485,6127.693,0.000'
p4265
I202
sS'15102.485,10233.247,0.000'
p4266
I149
sS'7974.112,12255.386,-3567.363'
p4267
I382
sS'5980.584,12255.386,0.000'
p4268
I105
sS'1993.528,12255.386,-5051.236'
p4269
I402
sS'1993.528,0.000,-3567.363'
p4270
I258
sS'0.000,0.000,-4309.300'
p4271
I294
sS'8970.876,0.000,-554.651'
p4272
I239
sS'3987.056,6127.693,0.000'
p4273
I170
sS'9967.640,4044.277,0.000'
p4274
I84
sS'6977.348,12255.386,0.000'
p4275
I106
sS'13048.547,0.000,-2038.524'
p4276
I243
sS'15102.485,0.000,-2802.944'
p4277
I287
sS'13048.547,11244.317,0.000'
p4278
I152
sS'13048.547,12255.386,0.000'
p4279
I157
sS'6977.348,0.000,-3567.363'
p4280
I269
sS'12021.578,10233.247,0.000'
p4281
I146
sS'13048.547,8211.109,0.000'
p4282
I137
sS'4983.820,12255.386,-1296.588'
p4283
I331
sS'9967.640,0.000,-2802.944'
p4284
I277
sS'12021.578,8211.109,0.000'
p4285
I136
sS'14075.516,0.000,-1296.588'
p4286
I249
sS'9967.640,0.000,-3567.363'
p4287
I272
sS'996.764,3033.208,0.000'
p4288
I19
sS'9967.640,6127.693,0.000'
p4289
I187
sS'8970.876,5085.985,0.000'
p4290
I181
sS'5980.584,2022.139,0.000'
p4291
I70
sS'5980.584,0.000,-2038.524'
p4292
I226
sS'6977.348,7169.401,0.000'
p4293
I189
sS'9967.640,7169.401,0.000'
p4294
I192
sS'996.764,0.000,-554.651'
p4295
I221
sS'2990.292,0.000,-4309.300'
p4296
I297
sS'15102.485,0.000,-5051.236'
p4297
I314
sS'0.000,11244.317,0.000'
p4298
I48
sS'5980.584,10233.247,0.000'
p4299
I95
sS'5980.584,11244.317,0.000'
p4300
I100
sS'9967.640,12255.386,-2802.944'
p4301
I389
sS'3987.056,11244.317,0.000'
p4302
I52
sS'6977.348,8211.109,0.000'
p4303
I86
sS'996.764,7169.401,0.000'
p4304
I173
sS'14075.516,0.000,-2038.524'
p4305
I244
sS'6977.348,12255.386,-5051.236'
p4306
I413
sS'1993.528,12255.386,-4309.300'
p4307
I408
sS'4983.820,12255.386,-2802.944'
p4308
I379
sS'14075.516,2022.139,0.000'
p4309
I123
sS'1993.528,0.000,-554.651'
p4310
I222
sS'15102.485,1011.069,0.000'
p4311
I119
sS'15102.485,0.000,-1296.588'
p4312
I250
sS'996.764,0.000,-4309.300'
p4313
I295
sS'3987.056,2022.139,0.000'
p4314
I16
sS'14075.516,3033.208,0.000'
p4315
I128
sS'1993.528,12255.386,-3567.363'
p4316
I370
sS'12021.578,12255.386,-3567.363'
p4317
I391
sS'10994.609,12255.386,-2038.524'
p4318
I353
sS'2990.292,4044.277,0.000'
p4319
I27
sS'996.764,12255.386,-3567.363'
p4320
I369
sS'9967.640,2022.139,0.000'
p4321
I74
sS'1993.528,7169.401,0.000'
p4322
I174
sS'12021.578,5085.985,0.000'
p4323
I194
sS'12021.578,0.000,-4309.300'
p4324
I316
sS'3987.056,0.000,-4309.300'
p4325
I298
sS'10994.609,0.000,0.000'
p4326
I110
sS'13048.547,10233.247,0.000'
p4327
I147
sS'14075.516,5085.985,0.000'
p4328
I196
sS'5980.584,0.000,-3567.363'
p4329
I268
sS'0.000,12255.386,-5051.236'
p4330
I400
sS'3987.056,0.000,-5051.236'
p4331
I292
sS'12021.578,12255.386,-2802.944'
p4332
I396
sS'2990.292,12255.386,-2038.524'
p4333
I323
sS'7974.112,12255.386,-5051.236'
p4334
I414
sS'6977.348,0.000,-5051.236'
p4335
I301
sS'1993.528,8211.109,0.000'
p4336
I32
sS'13048.547,3033.208,0.000'
p4337
I127
sS'996.764,1011.069,0.000'
p4338
I7
sS'15102.485,12255.386,-5051.236'
p4339
I426
sS'996.764,0.000,-3567.363'
p4340
I257
sS'996.764,10233.247,0.000'
p4341
I43
sS'6977.348,12255.386,-1296.588'
p4342
I344
sS'15102.485,5085.985,0.000'
p4343
I197
sS'4983.820,12255.386,-4309.300'
p4344
I411
sS'2990.292,8211.109,0.000'
p4345
I33
sS'9967.640,3033.208,0.000'
p4346
I79
sS'14075.516,12255.386,-4309.300'
p4347
I430
sS'8970.876,6127.693,0.000'
p4348
I186
sS'0.000,12255.386,0.000'
p4349
I54
sS'8970.876,12255.386,-1296.588'
p4350
I346
sS'9967.640,0.000,-554.651'
p4351
I240
sS'8970.876,8211.109,0.000'
p4352
I88
sS'0.000,12255.386,-2802.944'
p4353
I374
sS'12021.578,0.000,-3567.363'
p4354
I279
sS'7974.112,12255.386,0.000'
p4355
I107
sS'2990.292,12255.386,-5051.236'
p4356
I403
sS'6977.348,9222.178,0.000'
p4357
I91
sS'7974.112,0.000,-5051.236'
p4358
I302
sS'8970.876,7169.401,0.000'
p4359
I191
sS'7974.112,4044.277,0.000'
p4360
I82
sS'10994.609,12255.386,-2802.944'
p4361
I395
sS'6977.348,12255.386,-2038.524'
p4362
I339
sS'996.764,12255.386,0.000'
p4363
I55
sS'14075.516,7169.401,0.000'
p4364
I206
sS'13048.547,12255.386,-4309.300'
p4365
I429
sS'5980.584,12255.386,-4309.300'
p4366
I417
sS'1993.528,12255.386,-2802.944'
p4367
I376
sS'3987.056,12255.386,-5051.236'
p4368
I404
sS'10994.609,0.000,-3567.363'
p4369
I278
sS'0.000,1011.069,0.000'
p4370
I6
sS'996.764,9222.178,0.000'
p4371
I37
sS'12021.578,12255.386,-4309.300'
p4372
I428
sS'996.764,12255.386,-4309.300'
p4373
I407
sS'12021.578,9222.178,0.000'
p4374
I141
sS'15102.485,0.000,-554.651'
p4375
I255
sS'15102.485,0.000,-4309.300'
p4376
I319
sS'3987.056,0.000,-1296.588'
p4377
I218
sS'6977.348,2022.139,0.000'
p4378
I71
sS'8970.876,4044.277,0.000'
p4379
I83
sS'2990.292,0.000,-3567.363'
p4380
I259
sS'0.000,0.000,-554.651'
p4381
I220
sS'12021.578,0.000,-2802.944'
p4382
I284
sS'7974.112,6127.693,0.000'
p4383
I185
sS'2990.292,0.000,-1296.588'
p4384
I217
sS'10994.609,6127.693,0.000'
p4385
I198
sS'10994.609,0.000,-2038.524'
p4386
I241
sS'2990.292,12255.386,-4309.300'
p4387
I409
sS'7974.112,11244.317,0.000'
p4388
I102
sS'6977.348,0.000,-2038.524'
p4389
I227
sS'0.000,2022.139,0.000'
p4390
I12
sS'2990.292,12255.386,0.000'
p4391
I57
sS'15102.485,0.000,-3567.363'
p4392
I282
sS'4983.820,0.000,-4309.300'
p4393
I299
sS'10994.609,9222.178,0.000'
p4394
I140
sS'7974.112,0.000,-4309.300'
p4395
I307
sS'0.000,12255.386,-2038.524'
p4396
I320
sS'2990.292,5085.985,0.000'
p4397
I163
sS'1993.528,12255.386,-1296.588'
p4398
I328
sS'10994.609,8211.109,0.000'
p4399
I135
sS'3987.056,0.000,-3567.363'
p4400
I260
sS'12021.578,6127.693,0.000'
p4401
I199
sS'3987.056,12255.386,-3567.363'
p4402
I372
sS'12021.578,12255.386,0.000'
p4403
I156
sS'2990.292,0.000,-2038.524'
p4404
I211
sS'15102.485,12255.386,-2802.944'
p4405
I399
sS'13048.547,6127.693,0.000'
p4406
I200
sS'8970.876,11244.317,0.000'
p4407
I103
sS'4983.820,3033.208,0.000'
p4408
I23
sS'0.000,12255.386,-554.651'
p4409
I332
sS'996.764,12255.386,-5051.236'
p4410
I401
sS'2990.292,0.000,-5051.236'
p4411
I291
sS'13048.547,0.000,-1296.588'
p4412
I248
sS'15102.485,12255.386,0.000'
p4413
I159
sS'5980.584,0.000,-2802.944'
p4414
I273
sS'5980.584,0.000,0.000'
p4415
I60
sS'15102.485,12255.386,-554.651'
p4416
I367
sS'7974.112,5085.985,0.000'
p4417
I180
sS'1993.528,0.000,-5051.236'
p4418
I290
sS'7974.112,12255.386,-2038.524'
p4419
I340
sS'10994.609,12255.386,-3567.363'
p4420
I390
sS'5980.584,7169.401,0.000'
p4421
I188
sS'996.764,0.000,0.000'
p4422
I1
sS'996.764,6127.693,0.000'
p4423
I167
sS'8970.876,0.000,-5051.236'
p4424
I303
sS'5980.584,4044.277,0.000'
p4425
I80
sS'12021.578,12255.386,-554.651'
p4426
I364
sS'3987.056,12255.386,0.000'
p4427
I58
sS'8970.876,10233.247,0.000'
p4428
I98
sS'5980.584,5085.985,0.000'
p4429
I178
sS'7974.112,0.000,-2038.524'
p4430
I228
sS'5980.584,6127.693,0.000'
p4431
I183
sS'14075.516,12255.386,0.000'
p4432
I158
sS'13048.547,2022.139,0.000'
p4433
I122
sS'4983.820,12255.386,-554.651'
p4434
I337
sS'5980.584,3033.208,0.000'
p4435
I75
sS'3987.056,3033.208,0.000'
p4436
I22
sS'12021.578,0.000,-1296.588'
p4437
I247
sS'9967.640,0.000,-1296.588'
p4438
I235
sS'9967.640,11244.317,0.000'
p4439
I104
sS'4983.820,12255.386,-5051.236'
p4440
I405
sS'14075.516,12255.386,-3567.363'
p4441
I393
sS'3987.056,10233.247,0.000'
p4442
I46
sS'996.764,0.000,-1296.588'
p4443
I215
sS'1993.528,0.000,0.000'
p4444
I2
sS'10994.609,12255.386,-554.651'
p4445
I363
sS'13048.547,12255.386,-3567.363'
p4446
I392
sS'8970.876,0.000,0.000'
p4447
I63
sS'4983.820,12255.386,0.000'
p4448
I59
sS'9967.640,0.000,-4309.300'
p4449
I309
ssS'path'
p4450
S'C:\\Temp\\'
p4451
sS'results'
p4452
(dp4453
S'step_2'
p4454
S'ERROR'
p4455
sS'step_3'
p4456
g4455
sS'step_4'
p4457
g4455
sS'step_1'
p4458
g4455
ssS'sections'
p4459
(dp4460
g2155
g0
(ccompas_fea.structure.section
ShellSection
p4461
g2
Ntp4462
Rp4463
(dp4464
g15
I1
sS'__name__'
p4465
S'ShellSection'
p4466
sS'name'
p4467
g2155
sS'geometry'
p4468
(dp4469
S't'
p4470
F357.9878384055894
ssS'loc_coords_OR'
p4471
(dp4472
S'ORxyz'
p4473
(lp4474
I0
aI0
aF-4496.5852318999996
assS'loc_coords_XA'
p4475
(dp4476
S'XAxyz'
p4477
(lp4478
I1
aI0
aF-4496.5852318999996
assS'loc_coords_YA'
p4479
(dp4480
S'YAxyz'
p4481
(lp4482
F4496.5852318999996
aF-4496.5852318999996
aF-4495.5852318999996
assS'loc_coords_EV_XA'
p4483
(dp4484
S'EV_XA'
p4485
(lp4486
F1.0
aF0.0
aF0.0
assS'loc_coords_EV_YA'
p4487
(dp4488
S'EV_YA'
p4489
(lp4490
F0.70710677244357034
aF-0.70710677244357034
aF0.00015725416865828816
assS'loc_coords_EV_ZA'
p4491
(dp4492
S'EV_ZA'
p4493
(lp4494
F0.0
aF-1.0
aF0.0
assS'nr_layers'
p4495
(dp4496
S'nn'
p4497
F30.0
ssS'offset'
p4498
(dp4499
S'mode'
p4500
S'mid'
p4501
ssbsg2169
g0
(g4461
g2
Ntp4502
Rp4503
(dp4504
g15
I0
sg4465
g4466
sg4467
g2169
sg4468
(dp4505
g4470
F554.65113013660084
ssg4471
(dp4506
g4473
(lp4507
I0
aI0
aI0
assg4475
(dp4508
g4477
(lp4509
I1
aI0
aI0
assg4479
(dp4510
g4481
(lp4511
F0.0
aF1.0
aF0.0
assg4483
(dp4512
g4485
(lp4513
F1.0
aF0.0
aF0.0
assg4487
(dp4514
g4489
(lp4515
F0.0
aF1.0
aF0.0
assg4491
(dp4516
g4493
(lp4517
F0.0
aF0.0
aF1.0
assg4495
(dp4518
g4497
F30.0
ssg4498
(dp4519
g4500
S'top'
p4520
ssbsg2146
g0
(g4461
g2
Ntp4521
Rp4522
(dp4523
g15
I2
sg4465
g4466
sg4467
g2146
sg4468
(dp4524
g4470
F357.9878384055894
ssg4471
(dp4525
g4473
(lp4526
I0
aF12255.3858569
aF-4496.5852318999996
assg4475
(dp4527
g4477
(lp4528
I1
aF12255.3858569
aF-4496.5852318999996
assg4479
(dp4529
g4481
(lp4530
F-4496.5852319002151
aF7758.8006250000008
aF-16752.971088800001
assg4483
(dp4531
g4485
(lp4532
F1.0
aF0.0
aF0.0
assg4487
(dp4533
g4489
(lp4534
F-0.32565355522761802
aF-0.32565355522760236
aF-0.88763704515710451
assg4491
(dp4535
g4493
(lp4536
F0.0
aF1.0
aF0.0
assg4495
(dp4537
g4497
F30.0
ssg4498
(dp4538
g4500
g4501
ssbsg2239
g0
(ccompas_fea.structure.section
MPCSection
p4539
g2
Ntp4540
Rp4541
(dp4542
g15
I3
sg4465
S'MPCSection'
p4543
sg4467
g2239
sg4468
NsS'nr_layers'
p4544
NsbssS'sets'
p4545
(dp4546
g2264
g0
(ccompas_fea.structure.set
Set
p4547
g2
Ntp4548
Rp4549
(dp4550
S'__name__'
p4551
S'Set'
p4552
sS'name'
p4553
g2264
sS'type'
p4554
S'element'
p4555
sS'selection'
p4556
(lp4557
I224
aI225
aI226
aI227
aI228
aI229
aI220
aI221
aI222
aI223
asS'index'
p4558
I13
sbsg2240
g0
(g4547
g2
Ntp4559
Rp4560
(dp4561
g4551
g4552
sg4553
g2240
sg4554
g4555
sg4556
(lp4562
I384
aI385
aI386
aI387
aI388
aI389
aI390
aI391
aI360
aI361
aI362
aI363
aI364
aI365
aI366
aI367
aI368
aI369
aI370
aI371
aI372
aI373
aI374
aI375
aI376
aI377
aI378
aI379
aI380
aI381
aI382
aI383
asg4558
I27
sbsg2148
g0
(g4547
g2
Ntp4563
Rp4564
(dp4565
g4551
g4552
sg4553
g2148
sg4554
g4555
sg4556
(lp4566
I304
aI305
aI306
aI307
aI308
aI309
aI300
aI301
aI302
aI303
asg4558
I21
sbsg2194
g0
(g4547
g2
Ntp4567
Rp4568
(dp4569
g4551
g4552
sg4553
g2194
sg4554
g4555
sg4556
(lp4570
I40
aI41
aI42
aI43
aI44
aI45
aI46
aI47
aI48
aI49
aI50
aI51
aI52
aI53
aI54
aI55
aI56
aI57
aI58
aI59
asg4558
I2
sbsg2160
g0
(g4547
g2
Ntp4571
Rp4572
(dp4573
g4551
g4552
sg4553
g2160
sg4554
g4555
sg4556
(lp4574
I256
aI257
aI258
aI259
aI250
aI251
aI252
aI253
aI254
aI255
asg4558
I16
sbsg2256
g0
(g4547
g2
Ntp4575
Rp4576
(dp4577
g4551
g4552
sg4553
g2256
sg4554
g4555
sg4556
(lp4578
I272
aI273
aI274
aI275
aI276
aI277
aI278
aI279
aI270
aI271
asg4558
I18
sbsg2234
g0
(g4547
g2
Ntp4579
Rp4580
(dp4581
g4551
g4552
sg4553
g2234
sg4554
g4555
sg4556
(lp4582
I32
aI33
aI34
aI35
aI36
aI37
aI38
aI39
aI20
aI21
aI22
aI23
aI24
aI25
aI26
aI27
aI28
aI29
aI30
aI31
asg4558
I1
sbsg2170
g0
(g4547
g2
Ntp4583
Rp4584
(dp4585
g4551
g4552
sg4553
g2170
sg4554
g4555
sg4556
(lp4586
I0
aI1
aI2
aI3
aI4
aI5
aI6
aI7
aI8
aI9
aI10
aI11
aI12
aI13
aI14
aI15
aI16
aI17
aI18
aI19
asg4558
I0
sbsg2222
g0
(g4547
g2
Ntp4587
Rp4588
(dp4589
g4551
g4552
sg4553
g2222
sg4554
g4555
sg4556
(lp4590
I128
aI129
aI130
aI131
aI132
aI133
aI134
aI135
aI136
aI137
aI138
aI139
aI120
aI121
aI122
aI123
aI124
aI125
aI126
aI127
asg4558
I6
sbsg2260
g0
(g4547
g2
Ntp4591
Rp4592
(dp4593
g4551
g4552
sg4553
g2260
sg4554
g4555
sg4556
(lp4594
I100
aI101
aI102
aI103
aI104
aI105
aI106
aI107
aI108
aI109
aI110
aI111
aI112
aI113
aI114
aI115
aI116
aI117
aI118
aI119
asg4558
I5
sbsg2186
g0
(g4547
g2
Ntp4595
Rp4596
(dp4597
g4551
g4552
sg4553
g2186
sg4554
g4555
sg4556
(lp4598
I96
aI97
aI98
aI99
aI80
aI81
aI82
aI83
aI84
aI85
aI86
aI87
aI88
aI89
aI90
aI91
aI92
aI93
aI94
aI95
asg4558
I4
sbsg2230
g0
(g4547
g2
Ntp4599
Rp4600
(dp4601
g4551
g4552
sg4553
g2230
sg4554
g4555
sg4556
(lp4602
I64
aI65
aI66
aI67
aI68
aI69
aI70
aI71
aI72
aI73
aI74
aI75
aI76
aI77
aI78
aI79
aI60
aI61
aI62
aI63
asg4558
I3
sbsg2178
g0
(g4547
g2
Ntp4603
Rp4604
(dp4605
g4551
g4552
sg4553
g2178
sg4554
g4555
sg4556
(lp4606
I160
aI161
aI162
aI163
aI164
aI165
aI166
aI167
aI168
aI169
aI170
aI171
aI172
aI173
aI174
aI175
aI176
aI177
aI178
aI179
asg4558
I8
sbsg2214
g0
(g4547
g2
Ntp4607
Rp4608
(dp4609
g4551
g4552
sg4553
g2214
sg4554
g4555
sg4556
(lp4610
I140
aI141
aI142
aI143
aI144
aI145
aI146
aI147
aI148
aI149
aI150
aI151
aI152
aI153
aI154
aI155
aI156
aI157
aI158
aI159
asg4558
I7
sbsg2190
g0
(g4547
g2
Ntp4611
Rp4612
(dp4613
g4551
g4552
sg4553
g2190
sg4554
g4555
sg4556
(lp4614
I208
aI209
aI200
aI201
aI202
aI203
aI204
aI205
aI206
aI207
asg4558
I11
sbsg2252
g0
(g4547
g2
Ntp4615
Rp4616
(dp4617
g4551
g4552
sg4553
g2252
sg4554
g4555
sg4556
(lp4618
I352
aI353
aI354
aI355
aI356
aI357
aI358
aI359
aI350
aI351
asg4558
I26
sbsg2202
g0
(g4547
g2
Ntp4619
Rp4620
(dp4621
g4551
g4552
sg4553
g2202
sg4554
g4555
sg4556
(lp4622
I320
aI321
aI322
aI323
aI324
aI325
aI326
aI327
aI328
aI329
asg4558
I23
sbsg2182
g0
(g4547
g2
Ntp4623
Rp4624
(dp4625
g4551
g4552
sg4553
g2182
sg4554
g4555
sg4556
(lp4626
I230
aI231
aI232
aI233
aI234
aI235
aI236
aI237
aI238
aI239
asg4558
I14
sbsg2198
g0
(g4547
g2
Ntp4627
Rp4628
(dp4629
g4551
g4552
sg4553
g2198
sg4554
g4555
sg4556
(lp4630
I290
aI291
aI292
aI293
aI294
aI295
aI296
aI297
aI298
aI299
asg4558
I20
sbsg2218
g0
(g4547
g2
Ntp4631
Rp4632
(dp4633
g4551
g4552
sg4553
g2218
sg4554
g4555
sg4556
(lp4634
I180
aI181
aI182
aI183
aI184
aI185
aI186
aI187
aI188
aI189
asg4558
I9
sbsg2210
g0
(g4547
g2
Ntp4635
Rp4636
(dp4637
g4551
g4552
sg4553
g2210
sg4554
g4555
sg4556
(lp4638
I260
aI261
aI262
aI263
aI264
aI265
aI266
aI267
aI268
aI269
asg4558
I17
sbsg35
g0
(g4547
g2
Ntp4639
Rp4640
(dp4641
g4551
g4552
sg4553
g35
sg4554
S'node'
p4642
sg4556
(lp4643
I426
aI425
aI424
aI423
aI422
aI416
aI415
aI414
aI413
aI412
aI405
aI404
aI403
aI402
aI401
aI400
asg4558
I29
sbsg2206
g0
(g4547
g2
Ntp4644
Rp4645
(dp4646
g4551
g4552
sg4553
g2206
sg4554
g4555
sg4556
(lp4647
I210
aI211
aI212
aI213
aI214
aI215
aI216
aI217
aI218
aI219
asg4558
I12
sbsg2226
g0
(g4547
g2
Ntp4648
Rp4649
(dp4650
g4551
g4552
sg4553
g2226
sg4554
g4555
sg4556
(lp4651
I340
aI341
aI342
aI343
aI344
aI345
aI346
aI347
aI348
aI349
asg4558
I25
sbsg2174
g0
(g4547
g2
Ntp4652
Rp4653
(dp4654
g4551
g4552
sg4553
g2174
sg4554
g4555
sg4556
(lp4655
I310
aI311
aI312
aI313
aI314
aI315
aI316
aI317
aI318
aI319
asg4558
I22
sbsg20
g0
(g4547
g2
Ntp4656
Rp4657
(dp4658
g4551
g4552
sg4553
g20
sg4554
g4642
sg4556
(lp4659
I314
aI313
aI312
aI311
aI310
aI304
aI303
aI302
aI301
aI300
aI293
aI292
aI291
aI290
aI289
aI288
asg4558
I28
sbsg2244
g0
(g4547
g2
Ntp4660
Rp4661
(dp4662
g4551
g4552
sg4553
g2244
sg4554
g4555
sg4556
(lp4663
I240
aI241
aI242
aI243
aI244
aI245
aI246
aI247
aI248
aI249
asg4558
I15
sbsg2164
g0
(g4547
g2
Ntp4664
Rp4665
(dp4666
g4551
g4552
sg4553
g2164
sg4554
g4555
sg4556
(lp4667
I288
aI289
aI280
aI281
aI282
aI283
aI284
aI285
aI286
aI287
asg4558
I19
sbsg2156
g0
(g4547
g2
Ntp4668
Rp4669
(dp4670
g4551
g4552
sg4553
g2156
sg4554
g4555
sg4556
(lp4671
I192
aI193
aI194
aI195
aI196
aI197
aI198
aI199
aI190
aI191
asg4558
I10
sbsg2248
g0
(g4547
g2
Ntp4672
Rp4673
(dp4674
g4551
g4552
sg4553
g2248
sg4554
g4555
sg4556
(lp4675
I336
aI337
aI338
aI339
aI330
aI331
aI332
aI333
aI334
aI335
asg4558
I24
sbssS'steps'
p4676
(dp4677
g4454
g0
(ccompas_fea.structure.step
GeneralStep
p4678
g2
Ntp4679
Rp4680
(dp4681
g15
I1
sS'__name__'
p4682
S'GeneralStep'
p4683
sS'name'
p4684
g4454
sS'attr_list'
p4685
(lp4686
g2287
aS'increments'
p4687
aS'iterations'
p4688
aS'factor'
p4689
aS'nlgeom'
p4690
aS'nlmat'
p4691
aS'displacements'
p4692
aS'loads'
p4693
aS'type'
p4694
aS'tolerance'
p4695
aS'modify'
p4696
asS'increments'
p4697
I1
sS'iterations'
p4698
I100
sS'tolerance'
p4699
F0.01
sS'factor'
p4700
F1.0
sS'nlgeom'
p4701
I00
sS'nlmat'
p4702
I01
sS'displacements'
p4703
(lp4704
sS'loads'
p4705
(lp4706
g2342
asS'modify'
p4707
I01
sS'type'
p4708
S'static'
p4709
sbsg4456
g0
(g4678
g2
Ntp4710
Rp4711
(dp4712
g15
I2
sg4682
g4683
sg4684
g4456
sg4685
(lp4713
g2287
ag4687
ag4688
ag4689
ag4690
ag4691
ag4692
ag4693
ag4694
ag4695
ag4696
asg4697
I1
sg4698
I100
sg4699
F0.01
sg4700
F1.0
sg4701
I00
sg4702
I01
sg4703
(lp4714
sg4705
(lp4715
g2321
ag2307
ag2300
asg4707
I01
sg4708
g4709
sbsg4457
g0
(g4678
g2
Ntp4716
Rp4717
(dp4718
g15
I3
sg4682
g4683
sg4684
g4457
sg4685
(lp4719
g2287
ag4687
ag4688
ag4689
ag4690
ag4691
ag4692
ag4693
ag4694
ag4695
ag4696
asg4697
I1
sg4698
I100
sg4699
F0.01
sg4700
F1.0
sg4701
I00
sg4702
I01
sg4703
(lp4720
sg4705
(lp4721
g2335
ag2314
ag2328
ag2353
ag2292
ag2269
asg4707
I01
sg4708
g4709
sbsg4458
g0
(g4678
g2
Ntp4722
Rp4723
(dp4724
g15
I0
sg4682
g4683
sg4684
g4458
sg4685
(lp4725
g2287
ag4687
ag4688
ag4689
ag4690
ag4691
ag4692
ag4693
ag4694
ag4695
ag4696
asg4697
I1
sg4698
I100
sg4699
F0.01
sg4700
F1.0
sg4701
I00
sg4702
I01
sg4703
(lp4726
g10
ag31
asg4705
(lp4727
sg4707
I01
sg4708
g4709
sbssS'loc_coor'
p4728
(dp4729
sS'steps_order'
p4730
(lp4731
g4458
ag4454
ag4456
ag4457
asS'tol'
p4732
S'3'
p4733
sS'virtual_nodes'
p4734
(dp4735
sS'virtual_node_index'
p4736
(dp4737
sS'virtual_elements'
p4738
(dp4739
sS'virtual_element_index'
p4740
(dp4741
sb.