ccopy_reg
_reconstructor
p0
(ccompas_fea.structure.structure
Structure
p1
c__builtin__
object
p2
Ntp3
Rp4
(dp5
S'constraints'
p6
(dp7
sS'displacements'
p8
(dp9
S'nset_pinned_set_disp_1'
p10
g0
(ccompas_fea.structure.displacement
GeneralDisplacement
p11
g2
Ntp12
Rp13
(dp14
S'index'
p15
I0
sS'__name__'
p16
S'GeneralDisplacement'
p17
sS'name'
p18
g10
sS'nodes'
p19
S'nset_support_wall1'
p20
sS'components'
p21
(dp22
S'z'
p23
I0
sS'xx'
p24
I0
sS'zz'
p25
I0
sS'yy'
p26
I0
sS'y'
p27
I0
sS'x'
p28
I0
ssS'axes'
p29
S'global'
p30
sbsS'nset_pinned_set_disp_2'
p31
g0
(g11
g2
Ntp32
Rp33
(dp34
g15
I1
sg16
g17
sg18
g31
sg19
S'nset_support_wall2'
p35
sg21
(dp36
g23
I0
sg24
I0
sg25
I0
sg26
I0
sg27
I0
sg28
I0
ssg29
g30
sbssS'elements'
p37
(dp38
I0
g0
(ccompas_fea.structure.element
ShellElement
p39
g2
Ntp40
Rp41
(dp42
S'mass'
p43
NsS'__name__'
p44
S'ShellElement'
p45
sS'nodes'
p46
(lp47
I0
aI1
aI3
aI2
asS'number'
p48
I0
sS'thermal'
p49
I00
sS'axes'
p50
(dp51
S'ey'
p52
NsS'ez'
p53
NsS'ex'
p54
NssS'element_property'
p55
S'elset_plate_1_element_prop'
p56
sbsI1
g0
(g39
g2
Ntp57
Rp58
(dp59
g43
Nsg44
g45
sg46
(lp60
I2
aI3
aI5
aI4
asg48
I1
sg49
I00
sg50
g51
sg55
g56
sbsI2
g0
(g39
g2
Ntp61
Rp62
(dp63
g43
Nsg44
g45
sg46
(lp64
I4
aI5
aI7
aI6
asg48
I2
sg49
I00
sg50
g51
sg55
g56
sbsI3
g0
(g39
g2
Ntp65
Rp66
(dp67
g43
Nsg44
g45
sg46
(lp68
I8
aI9
aI11
aI10
asg48
I3
sg49
I00
sg50
(dp69
g52
Nsg53
Nsg54
Nssg55
S'elset_plate_2_element_prop'
p70
sbsI4
g0
(g39
g2
Ntp71
Rp72
(dp73
g43
Nsg44
g45
sg46
(lp74
I10
aI11
aI13
aI12
asg48
I4
sg49
I00
sg50
g69
sg55
g70
sbsI5
g0
(g39
g2
Ntp75
Rp76
(dp77
g43
Nsg44
g45
sg46
(lp78
I12
aI13
aI15
aI14
asg48
I5
sg49
I00
sg50
g69
sg55
g70
sbsI6
g0
(g39
g2
Ntp79
Rp80
(dp81
g43
Nsg44
g45
sg46
(lp82
I1
aI16
aI17
aI3
asg48
I6
sg49
I00
sg50
(dp83
g52
Nsg53
Nsg54
Nssg55
S'elset_plate_3_element_prop'
p84
sbsI7
g0
(g39
g2
Ntp85
Rp86
(dp87
g43
Nsg44
g45
sg46
(lp88
I3
aI17
aI18
aI5
asg48
I7
sg49
I00
sg50
g83
sg55
g84
sbsI8
g0
(g39
g2
Ntp89
Rp90
(dp91
g43
Nsg44
g45
sg46
(lp92
I5
aI18
aI19
aI7
asg48
I8
sg49
I00
sg50
g83
sg55
g84
sbsI9
g0
(g39
g2
Ntp93
Rp94
(dp95
g43
Nsg44
g45
sg46
(lp96
I9
aI20
aI21
aI11
asg48
I9
sg49
I00
sg50
(dp97
g52
Nsg53
Nsg54
Nssg55
S'elset_plate_4_element_prop'
p98
sbsI10
g0
(g39
g2
Ntp99
Rp100
(dp101
g43
Nsg44
g45
sg46
(lp102
I11
aI21
aI22
aI13
asg48
I10
sg49
I00
sg50
g97
sg55
g98
sbsI11
g0
(g39
g2
Ntp103
Rp104
(dp105
g43
Nsg44
g45
sg46
(lp106
I13
aI22
aI23
aI15
asg48
I11
sg49
I00
sg50
g97
sg55
g98
sbsI12
g0
(g39
g2
Ntp107
Rp108
(dp109
g43
Nsg44
g45
sg46
(lp110
I16
aI24
aI26
aI17
asg48
I12
sg49
I00
sg50
(dp111
g52
Nsg53
Nsg54
Nssg55
S'elset_plate_5_element_prop'
p112
sbsI13
g0
(g39
g2
Ntp113
Rp114
(dp115
g43
Nsg44
g45
sg46
(lp116
I24
aI25
aI27
aI26
asg48
I13
sg49
I00
sg50
g111
sg55
g112
sbsI14
g0
(g39
g2
Ntp117
Rp118
(dp119
g43
Nsg44
g45
sg46
(lp120
I17
aI26
aI28
aI18
asg48
I14
sg49
I00
sg50
g111
sg55
g112
sbsI15
g0
(g39
g2
Ntp121
Rp122
(dp123
g43
Nsg44
g45
sg46
(lp124
I26
aI27
aI29
aI28
asg48
I15
sg49
I00
sg50
g111
sg55
g112
sbsI16
g0
(g39
g2
Ntp125
Rp126
(dp127
g43
Nsg44
g45
sg46
(lp128
I18
aI28
aI30
aI19
asg48
I16
sg49
I00
sg50
g111
sg55
g112
sbsI17
g0
(g39
g2
Ntp129
Rp130
(dp131
g43
Nsg44
g45
sg46
(lp132
I28
aI29
aI31
aI30
asg48
I17
sg49
I00
sg50
g111
sg55
g112
sbsI18
g0
(g39
g2
Ntp133
Rp134
(dp135
g43
Nsg44
g45
sg46
(lp136
I20
aI32
aI34
aI21
asg48
I18
sg49
I00
sg50
(dp137
g52
Nsg53
Nsg54
Nssg55
S'elset_plate_6_element_prop'
p138
sbsI19
g0
(g39
g2
Ntp139
Rp140
(dp141
g43
Nsg44
g45
sg46
(lp142
I32
aI33
aI35
aI34
asg48
I19
sg49
I00
sg50
g137
sg55
g138
sbsI20
g0
(g39
g2
Ntp143
Rp144
(dp145
g43
Nsg44
g45
sg46
(lp146
I21
aI34
aI36
aI22
asg48
I20
sg49
I00
sg50
g137
sg55
g138
sbsI21
g0
(g39
g2
Ntp147
Rp148
(dp149
g43
Nsg44
g45
sg46
(lp150
I34
aI35
aI37
aI36
asg48
I21
sg49
I00
sg50
g137
sg55
g138
sbsI22
g0
(g39
g2
Ntp151
Rp152
(dp153
g43
Nsg44
g45
sg46
(lp154
I22
aI36
aI38
aI23
asg48
I22
sg49
I00
sg50
g137
sg55
g138
sbsI23
g0
(g39
g2
Ntp155
Rp156
(dp157
g43
Nsg44
g45
sg46
(lp158
I36
aI37
aI39
aI38
asg48
I23
sg49
I00
sg50
g137
sg55
g138
sbsI24
g0
(g39
g2
Ntp159
Rp160
(dp161
g43
Nsg44
g45
sg46
(lp162
I6
aI7
aI41
aI40
asg48
I24
sg49
I00
sg50
(dp163
g52
Nsg53
Nsg54
Nssg55
S'elset_plate_7_element_prop'
p164
sbsI25
g0
(g39
g2
Ntp165
Rp166
(dp167
g43
Nsg44
g45
sg46
(lp168
I40
aI41
aI43
aI42
asg48
I25
sg49
I00
sg50
g163
sg55
g164
sbsI26
g0
(g39
g2
Ntp169
Rp170
(dp171
g43
Nsg44
g45
sg46
(lp172
I42
aI43
aI45
aI44
asg48
I26
sg49
I00
sg50
g163
sg55
g164
sbsI27
g0
(g39
g2
Ntp173
Rp174
(dp175
g43
Nsg44
g45
sg46
(lp176
I44
aI45
aI9
aI8
asg48
I27
sg49
I00
sg50
g163
sg55
g164
sbsI28
g0
(g39
g2
Ntp177
Rp178
(dp179
g43
Nsg44
g45
sg46
(lp180
I7
aI19
aI46
aI41
asg48
I28
sg49
I00
sg50
(dp181
g52
Nsg53
Nsg54
Nssg55
S'elset_plate_8_element_prop'
p182
sbsI29
g0
(g39
g2
Ntp183
Rp184
(dp185
g43
Nsg44
g45
sg46
(lp186
I41
aI46
aI47
aI43
asg48
I29
sg49
I00
sg50
g181
sg55
g182
sbsI30
g0
(g39
g2
Ntp187
Rp188
(dp189
g43
Nsg44
g45
sg46
(lp190
I43
aI47
aI48
aI45
asg48
I30
sg49
I00
sg50
g181
sg55
g182
sbsI31
g0
(g39
g2
Ntp191
Rp192
(dp193
g43
Nsg44
g45
sg46
(lp194
I45
aI48
aI20
aI9
asg48
I31
sg49
I00
sg50
g181
sg55
g182
sbsI32
g0
(g39
g2
Ntp195
Rp196
(dp197
g43
Nsg44
g45
sg46
(lp198
I19
aI30
aI49
aI46
asg48
I32
sg49
I00
sg50
(dp199
g52
Nsg53
Nsg54
Nssg55
S'elset_plate_9_element_prop'
p200
sbsI33
g0
(g39
g2
Ntp201
Rp202
(dp203
g43
Nsg44
g45
sg46
(lp204
I30
aI31
aI50
aI49
asg48
I33
sg49
I00
sg50
g199
sg55
g200
sbsI34
g0
(g39
g2
Ntp205
Rp206
(dp207
g43
Nsg44
g45
sg46
(lp208
I46
aI49
aI51
aI47
asg48
I34
sg49
I00
sg50
g199
sg55
g200
sbsI35
g0
(g39
g2
Ntp209
Rp210
(dp211
g43
Nsg44
g45
sg46
(lp212
I49
aI50
aI52
aI51
asg48
I35
sg49
I00
sg50
g199
sg55
g200
sbsI36
g0
(g39
g2
Ntp213
Rp214
(dp215
g43
Nsg44
g45
sg46
(lp216
I47
aI51
aI53
aI48
asg48
I36
sg49
I00
sg50
g199
sg55
g200
sbsI37
g0
(g39
g2
Ntp217
Rp218
(dp219
g43
Nsg44
g45
sg46
(lp220
I51
aI52
aI54
aI53
asg48
I37
sg49
I00
sg50
g199
sg55
g200
sbsI38
g0
(g39
g2
Ntp221
Rp222
(dp223
g43
Nsg44
g45
sg46
(lp224
I48
aI53
aI32
aI20
asg48
I38
sg49
I00
sg50
g199
sg55
g200
sbsI39
g0
(g39
g2
Ntp225
Rp226
(dp227
g43
Nsg44
g45
sg46
(lp228
I53
aI54
aI33
aI32
asg48
I39
sg49
I00
sg50
g199
sg55
g200
sbsI40
g0
(g39
g2
Ntp229
Rp230
(dp231
g43
Nsg44
g45
sg46
(lp232
I55
aI56
aI58
aI57
asg48
I40
sg49
I00
sg50
(dp233
g52
Nsg53
Nsg54
Nssg55
S'elset_wall_1_1_element_prop'
p234
sbsI41
g0
(g39
g2
Ntp235
Rp236
(dp237
g43
Nsg44
g45
sg46
(lp238
I56
aI59
aI60
aI58
asg48
I41
sg49
I00
sg50
(dp239
g52
Nsg53
Nsg54
Nssg55
S'elset_wall_1_2_element_prop'
p240
sbsI42
g0
(g39
g2
Ntp241
Rp242
(dp243
g43
Nsg44
g45
sg46
(lp244
I59
aI61
aI63
aI60
asg48
I42
sg49
I00
sg50
(dp245
g52
Nsg53
Nsg54
Nssg55
S'elset_wall_1_3_element_prop'
p246
sbsI43
g0
(g39
g2
Ntp247
Rp248
(dp249
g43
Nsg44
g45
sg46
(lp250
I61
aI62
aI64
aI63
asg48
I43
sg49
I00
sg50
g245
sg55
g246
sbsI44
g0
(g39
g2
Ntp251
Rp252
(dp253
g43
Nsg44
g45
sg46
(lp254
I65
aI66
aI56
aI55
asg48
I44
sg49
I00
sg50
(dp255
g52
Nsg53
Nsg54
Nssg55
S'elset_wall_1_4_element_prop'
p256
sbsI45
g0
(g39
g2
Ntp257
Rp258
(dp259
g43
Nsg44
g45
sg46
(lp260
I66
aI67
aI59
aI56
asg48
I45
sg49
I00
sg50
(dp261
g52
Nsg53
Nsg54
Nssg55
S'elset_wall_1_5_element_prop'
p262
sbsI46
g0
(g39
g2
Ntp263
Rp264
(dp265
g43
Nsg44
g45
sg46
(lp266
I67
aI68
aI61
aI59
asg48
I46
sg49
I00
sg50
(dp267
g52
Nsg53
Nsg54
Nssg55
S'elset_wall_1_6_element_prop'
p268
sbsI47
g0
(g39
g2
Ntp269
Rp270
(dp271
g43
Nsg44
g45
sg46
(lp272
I68
aI69
aI62
aI61
asg48
I47
sg49
I00
sg50
g267
sg55
g268
sbsI48
g0
(g39
g2
Ntp273
Rp274
(dp275
g43
Nsg44
g45
sg46
(lp276
I70
aI71
aI66
aI65
asg48
I48
sg49
I00
sg50
(dp277
g52
Nsg53
Nsg54
Nssg55
S'elset_wall_1_7_element_prop'
p278
sbsI49
g0
(g39
g2
Ntp279
Rp280
(dp281
g43
Nsg44
g45
sg46
(lp282
I71
aI72
aI67
aI66
asg48
I49
sg49
I00
sg50
(dp283
g52
Nsg53
Nsg54
Nssg55
S'elset_wall_1_8_element_prop'
p284
sbsI50
g0
(g39
g2
Ntp285
Rp286
(dp287
g43
Nsg44
g45
sg46
(lp288
I72
aI73
aI68
aI67
asg48
I50
sg49
I00
sg50
(dp289
g52
Nsg53
Nsg54
Nssg55
S'elset_wall_1_9_element_prop'
p290
sbsI51
g0
(g39
g2
Ntp291
Rp292
(dp293
g43
Nsg44
g45
sg46
(lp294
I73
aI74
aI69
aI68
asg48
I51
sg49
I00
sg50
g289
sg55
g290
sbsI52
g0
(g39
g2
Ntp295
Rp296
(dp297
g43
Nsg44
g45
sg46
(lp298
I75
aI77
aI78
aI76
asg48
I52
sg49
I00
sg50
(dp299
g52
Nsg53
Nsg54
Nssg55
S'elset_wall_2_1_element_prop'
p300
sbsI53
g0
(g39
g2
Ntp301
Rp302
(dp303
g43
Nsg44
g45
sg46
(lp304
I76
aI78
aI80
aI79
asg48
I53
sg49
I00
sg50
(dp305
g52
Nsg53
Nsg54
Nssg55
S'elset_wall_2_2_element_prop'
p306
sbsI54
g0
(g39
g2
Ntp307
Rp308
(dp309
g43
Nsg44
g45
sg46
(lp310
I79
aI80
aI83
aI81
asg48
I54
sg49
I00
sg50
(dp311
g52
Nsg53
Nsg54
Nssg55
S'elset_wall_2_3_element_prop'
p312
sbsI55
g0
(g39
g2
Ntp313
Rp314
(dp315
g43
Nsg44
g45
sg46
(lp316
I81
aI83
aI84
aI82
asg48
I55
sg49
I00
sg50
g311
sg55
g312
sbsI56
g0
(g39
g2
Ntp317
Rp318
(dp319
g43
Nsg44
g45
sg46
(lp320
I85
aI75
aI76
aI86
asg48
I56
sg49
I00
sg50
(dp321
g52
Nsg53
Nsg54
Nssg55
S'elset_wall_2_4_element_prop'
p322
sbsI57
g0
(g39
g2
Ntp323
Rp324
(dp325
g43
Nsg44
g45
sg46
(lp326
I86
aI76
aI79
aI87
asg48
I57
sg49
I00
sg50
(dp327
g52
Nsg53
Nsg54
Nssg55
S'elset_wall_2_5_element_prop'
p328
sbsI58
g0
(g39
g2
Ntp329
Rp330
(dp331
g43
Nsg44
g45
sg46
(lp332
I87
aI79
aI81
aI88
asg48
I58
sg49
I00
sg50
(dp333
g52
Nsg53
Nsg54
Nssg55
S'elset_wall_2_6_element_prop'
p334
sbsI59
g0
(g39
g2
Ntp335
Rp336
(dp337
g43
Nsg44
g45
sg46
(lp338
I88
aI81
aI82
aI89
asg48
I59
sg49
I00
sg50
g333
sg55
g334
sbsI60
g0
(g39
g2
Ntp339
Rp340
(dp341
g43
Nsg44
g45
sg46
(lp342
I90
aI85
aI86
aI91
asg48
I60
sg49
I00
sg50
(dp343
g52
Nsg53
Nsg54
Nssg55
S'elset_wall_2_7_element_prop'
p344
sbsI61
g0
(g39
g2
Ntp345
Rp346
(dp347
g43
Nsg44
g45
sg46
(lp348
I91
aI86
aI87
aI92
asg48
I61
sg49
I00
sg50
(dp349
g52
Nsg53
Nsg54
Nssg55
S'elset_wall_2_8_element_prop'
p350
sbsI62
g0
(g39
g2
Ntp351
Rp352
(dp353
g43
Nsg44
g45
sg46
(lp354
I92
aI87
aI88
aI93
asg48
I62
sg49
I00
sg50
(dp355
g52
Nsg53
Nsg54
Nssg55
S'elset_wall_2_9_element_prop'
p356
sbsI63
g0
(g39
g2
Ntp357
Rp358
(dp359
g43
Nsg44
g45
sg46
(lp360
I93
aI88
aI89
aI94
asg48
I63
sg49
I00
sg50
g355
sg55
g356
sbsI64
g0
(ccompas_fea.structure.element
MPCElement
p361
g2
Ntp362
Rp363
(dp364
g43
Nsg44
S'MPCElement'
p365
sg46
(lp366
I84
aI39
asg48
I64
sg49
I00
sg50
(dp367
g52
Nsg53
(lp368
F-2.7284841053187847e-12
aF0.0
aF606.64116222640291
asg54
Nssg55
S'elset_mpc_element_prop'
p369
sbsI65
g0
(g361
g2
Ntp370
Rp371
(dp372
g43
Nsg44
g365
sg46
(lp373
I83
aI38
asg48
I65
sg49
I00
sg50
(dp374
g52
Nsg53
(lp375
F-9.0949470177292824e-13
aF0.0
aF606.64116222640291
asg54
Nssg55
g369
sbsI66
g0
(g361
g2
Ntp376
Rp377
(dp378
g43
Nsg44
g365
sg46
(lp379
I80
aI23
asg48
I66
sg49
I00
sg50
(dp380
g52
Nsg53
(lp381
F-4.5474735088646412e-13
aF0.0
aF606.64116222640291
asg54
Nssg55
g369
sbsI67
g0
(g361
g2
Ntp382
Rp383
(dp384
g43
Nsg44
g365
sg46
(lp385
I78
aI15
asg48
I67
sg49
I00
sg50
(dp386
g52
Nsg53
(lp387
F4.7748471843078732e-12
aF0.0
aF606.64116222640291
asg54
Nssg55
g369
sbsI68
g0
(g361
g2
Ntp388
Rp389
(dp390
g43
Nsg44
g365
sg46
(lp391
I77
aI14
asg48
I68
sg49
I00
sg50
(dp392
g52
Nsg53
(lp393
F0.0
aF0.0
aF606.64116222640291
asg54
Nssg55
g369
sbsI69
g0
(g361
g2
Ntp394
Rp395
(dp396
g43
Nsg44
g365
sg46
(lp397
I64
aI25
asg48
I69
sg49
I00
sg50
(dp398
g52
Nsg53
(lp399
F-2.7284841053187847e-12
aF0.0
aF606.64116222640291
asg54
Nssg55
g369
sbsI70
g0
(g361
g2
Ntp400
Rp401
(dp402
g43
Nsg44
g365
sg46
(lp403
I63
aI24
asg48
I70
sg49
I00
sg50
(dp404
g52
Nsg53
(lp405
F-9.0949470177292824e-13
aF0.0
aF606.64116222640291
asg54
Nssg55
g369
sbsI71
g0
(g361
g2
Ntp406
Rp407
(dp408
g43
Nsg44
g365
sg46
(lp409
I60
aI16
asg48
I71
sg49
I00
sg50
(dp410
g52
Nsg53
(lp411
F-4.5474735088646412e-13
aF0.0
aF606.64116222640291
asg54
Nssg55
g369
sbsI72
g0
(g361
g2
Ntp412
Rp413
(dp414
g43
Nsg44
g365
sg46
(lp415
I58
aI1
asg48
I72
sg49
I00
sg50
(dp416
g52
Nsg53
(lp417
F4.7748471843078732e-12
aF0.0
aF606.64116222640291
asg54
Nssg55
g369
sbsI73
g0
(g361
g2
Ntp418
Rp419
(dp420
g43
Nsg44
g365
sg46
(lp421
I57
aI0
asg48
I73
sg49
I00
sg50
(dp422
g52
Nsg53
(lp423
F0.0
aF0.0
aF606.64116222640291
asg54
Nssg55
g369
sbssS'element_index'
p424
(dp425
S'4935.688,11751.485,0.000'
p426
I19
sS'4018.675,11751.485,0.000'
p427
I18
sS'4018.675,2674.476,0.000'
p428
I14
sS'2670.126,13534.468,0.000'
p429
I10
sS'2670.126,0.000,-2539.542'
p430
I49
sS'5394.195,0.000,-303.321'
p431
I69
sS'4935.688,891.492,0.000'
p432
I13
sS'4935.688,0.000,-1764.067'
p433
I47
sS'4935.688,4457.460,0.000'
p434
I17
sS'890.042,0.000,-988.592'
p435
I40
sS'4477.182,16208.944,-303.321'
p436
I65
sS'4935.688,16208.944,-1764.067'
p437
I59
sS'3560.169,16208.944,-303.321'
p438
I66
sS'890.042,11751.485,0.000'
p439
I3
sS'2670.126,0.000,-988.592'
p440
I41
sS'2670.126,2674.476,0.000'
p441
I7
sS'0.000,0.000,-303.321'
p442
I73
sS'4018.675,7415.592,0.000'
p443
I34
sS'4018.675,4457.460,0.000'
p444
I16
sS'4935.688,16208.944,-2539.542'
p445
I63
sS'2670.126,6037.832,0.000'
p446
I28
sS'2670.126,4457.460,0.000'
p447
I8
sS'4018.675,16208.944,-1764.067'
p448
I58
sS'4935.688,6037.832,0.000'
p449
I33
sS'4018.675,16208.944,-2539.542'
p450
I62
sS'5394.195,16208.944,-303.321'
p451
I64
sS'890.042,0.000,-2539.542'
p452
I48
sS'2670.126,10171.113,0.000'
p453
I31
sS'1780.084,0.000,-303.321'
p454
I72
sS'890.042,0.000,-1764.067'
p455
I44
sS'2670.126,0.000,-1764.067'
p456
I45
sS'4935.688,2674.476,0.000'
p457
I15
sS'4018.675,15317.452,0.000'
p458
I22
sS'890.042,16208.944,-2539.542'
p459
I60
sS'890.042,13534.468,0.000'
p460
I4
sS'2670.126,8793.352,0.000'
p461
I30
sS'2670.126,15317.452,0.000'
p462
I11
sS'4477.182,0.000,-303.321'
p463
I70
sS'4935.688,15317.452,0.000'
p464
I23
sS'890.042,8793.352,0.000'
p465
I26
sS'4018.675,891.492,0.000'
p466
I12
sS'2670.126,16208.944,-2539.542'
p467
I61
sS'4018.675,0.000,-2539.542'
p468
I50
sS'2670.126,7415.592,0.000'
p469
I29
sS'4935.688,0.000,-2539.542'
p470
I51
sS'2670.126,891.492,0.000'
p471
I6
sS'4018.675,8793.352,0.000'
p472
I36
sS'4935.688,0.000,-988.592'
p473
I43
sS'4935.688,7415.592,0.000'
p474
I35
sS'4935.688,8793.352,0.000'
p475
I37
sS'2670.126,16208.944,-1764.067'
p476
I57
sS'3560.169,0.000,-303.321'
p477
I71
sS'2670.126,16208.944,-988.592'
p478
I53
sS'4018.675,0.000,-988.592'
p479
I42
sS'890.042,891.492,0.000'
p480
I0
sS'890.042,15317.452,0.000'
p481
I5
sS'890.042,6037.832,0.000'
p482
I24
sS'4018.675,6037.832,0.000'
p483
I32
sS'4935.688,10171.113,0.000'
p484
I39
sS'4018.675,0.000,-1764.067'
p485
I46
sS'2670.126,11751.485,0.000'
p486
I9
sS'890.042,16208.944,-988.592'
p487
I52
sS'4018.675,16208.944,-988.592'
p488
I54
sS'0.000,16208.944,-303.321'
p489
I68
sS'890.042,2674.476,0.000'
p490
I1
sS'4018.675,13534.468,0.000'
p491
I20
sS'4018.675,10171.113,0.000'
p492
I38
sS'890.042,4457.460,0.000'
p493
I2
sS'4935.688,13534.468,0.000'
p494
I21
sS'4935.688,16208.944,-988.592'
p495
I55
sS'890.042,16208.944,-1764.067'
p496
I56
sS'890.042,10171.113,0.000'
p497
I27
sS'1780.084,16208.944,-303.321'
p498
I67
sS'890.042,7415.592,0.000'
p499
I25
ssS'element_properties'
p500
(dp501
g322
g0
(ccompas_fea.structure.element_properties
ElementProperties
p502
g2
Ntp503
Rp504
(dp505
g15
I21
sS'__name__'
p506
S'ElementProperties'
p507
sS'name'
p508
g322
sS'material'
p509
S'wall_element_mat'
p510
sS'section'
p511
S'wall2_element_sec'
p512
sS'elset'
p513
S'elset_wall_2_4'
p514
sS'elements'
p515
NsS'rebar'
p516
(dp517
sbsg240
g0
(g502
g2
Ntp518
Rp519
(dp520
g15
I10
sg506
g507
sg508
g240
sg509
g510
sg511
S'wall1_element_sec'
p521
sg513
S'elset_wall_1_2'
p522
sg515
Nsg516
g517
sbsg284
g0
(g502
g2
Ntp523
Rp524
(dp525
g15
I16
sg506
g507
sg508
g284
sg509
g510
sg511
g521
sg513
S'elset_wall_1_8'
p526
sg515
Nsg516
g517
sbsg306
g0
(g502
g2
Ntp527
Rp528
(dp529
g15
I19
sg506
g507
sg508
g306
sg509
g510
sg511
g512
sg513
S'elset_wall_2_2'
p530
sg515
Nsg516
g517
sbsg56
g0
(g502
g2
Ntp531
Rp532
(dp533
g15
I0
sg506
g507
sg508
g56
sg509
S'plate_element_mat'
p534
sg511
S'plate_element_sec'
p535
sg513
S'elset_plate_1'
p536
sg515
Nsg516
g517
sbsg328
g0
(g502
g2
Ntp537
Rp538
(dp539
g15
I22
sg506
g507
sg508
g328
sg509
g510
sg511
g512
sg513
S'elset_wall_2_5'
p540
sg515
Nsg516
g517
sbsg200
g0
(g502
g2
Ntp541
Rp542
(dp543
g15
I8
sg506
g507
sg508
g200
sg509
g534
sg511
g535
sg513
S'elset_plate_9'
p544
sg515
Nsg516
g517
sbsg268
g0
(g502
g2
Ntp545
Rp546
(dp547
g15
I14
sg506
g507
sg508
g268
sg509
g510
sg511
g521
sg513
S'elset_wall_1_6'
p548
sg515
Nsg516
g517
sbsg112
g0
(g502
g2
Ntp549
Rp550
(dp551
g15
I4
sg506
g507
sg508
g112
sg509
g534
sg511
g535
sg513
S'elset_plate_5'
p552
sg515
Nsg516
g517
sbsg246
g0
(g502
g2
Ntp553
Rp554
(dp555
g15
I11
sg506
g507
sg508
g246
sg509
g510
sg511
g521
sg513
S'elset_wall_1_3'
p556
sg515
Nsg516
g517
sbsg84
g0
(g502
g2
Ntp557
Rp558
(dp559
g15
I2
sg506
g507
sg508
g84
sg509
g534
sg511
g535
sg513
S'elset_plate_3'
p560
sg515
Nsg516
g517
sbsg312
g0
(g502
g2
Ntp561
Rp562
(dp563
g15
I20
sg506
g507
sg508
g312
sg509
g510
sg511
g512
sg513
S'elset_wall_2_3'
p564
sg515
Nsg516
g517
sbsg334
g0
(g502
g2
Ntp565
Rp566
(dp567
g15
I23
sg506
g507
sg508
g334
sg509
g510
sg511
g512
sg513
S'elset_wall_2_6'
p568
sg515
Nsg516
g517
sbsg256
g0
(g502
g2
Ntp569
Rp570
(dp571
g15
I12
sg506
g507
sg508
g256
sg509
g510
sg511
g521
sg513
S'elset_wall_1_4'
p572
sg515
Nsg516
g517
sbsg290
g0
(g502
g2
Ntp573
Rp574
(dp575
g15
I17
sg506
g507
sg508
g290
sg509
g510
sg511
g521
sg513
S'elset_wall_1_9'
p576
sg515
Nsg516
g517
sbsg182
g0
(g502
g2
Ntp577
Rp578
(dp579
g15
I7
sg506
g507
sg508
g182
sg509
g534
sg511
g535
sg513
S'elset_plate_8'
p580
sg515
Nsg516
g517
sbsg234
g0
(g502
g2
Ntp581
Rp582
(dp583
g15
I9
sg506
g507
sg508
g234
sg509
g510
sg511
g521
sg513
S'elset_wall_1_1'
p584
sg515
Nsg516
g517
sbsg164
g0
(g502
g2
Ntp585
Rp586
(dp587
g15
I6
sg506
g507
sg508
g164
sg509
g534
sg511
g535
sg513
S'elset_plate_7'
p588
sg515
Nsg516
g517
sbsg350
g0
(g502
g2
Ntp589
Rp590
(dp591
g15
I25
sg506
g507
sg508
g350
sg509
g510
sg511
g512
sg513
S'elset_wall_2_8'
p592
sg515
Nsg516
g517
sbsg98
g0
(g502
g2
Ntp593
Rp594
(dp595
g15
I3
sg506
g507
sg508
g98
sg509
g534
sg511
g535
sg513
S'elset_plate_4'
p596
sg515
Nsg516
g517
sbsg70
g0
(g502
g2
Ntp597
Rp598
(dp599
g15
I1
sg506
g507
sg508
g70
sg509
g534
sg511
g535
sg513
S'elset_plate_2'
p600
sg515
Nsg516
g517
sbsg369
g0
(g502
g2
Ntp601
Rp602
(dp603
g15
I27
sg506
g507
sg508
g369
sg509
S'elset_mpc_element_mat'
p604
sg511
S'sec_mpc'
p605
sg513
S'elset_mpcs'
p606
sg515
Nsg516
g517
sbsg278
g0
(g502
g2
Ntp607
Rp608
(dp609
g15
I15
sg506
g507
sg508
g278
sg509
g510
sg511
g521
sg513
S'elset_wall_1_7'
p610
sg515
Nsg516
g517
sbsg344
g0
(g502
g2
Ntp611
Rp612
(dp613
g15
I24
sg506
g507
sg508
g344
sg509
g510
sg511
g512
sg513
S'elset_wall_2_7'
p614
sg515
Nsg516
g517
sbsg356
g0
(g502
g2
Ntp615
Rp616
(dp617
g15
I26
sg506
g507
sg508
g356
sg509
g510
sg511
g512
sg513
S'elset_wall_2_9'
p618
sg515
Nsg516
g517
sbsg300
g0
(g502
g2
Ntp619
Rp620
(dp621
g15
I18
sg506
g507
sg508
g300
sg509
g510
sg511
g512
sg513
S'elset_wall_2_1'
p622
sg515
Nsg516
g517
sbsg138
g0
(g502
g2
Ntp623
Rp624
(dp625
g15
I5
sg506
g507
sg508
g138
sg509
g534
sg511
g535
sg513
S'elset_plate_6'
p626
sg515
Nsg516
g517
sbsg262
g0
(g502
g2
Ntp627
Rp628
(dp629
g15
I13
sg506
g507
sg508
g262
sg509
g510
sg511
g521
sg513
S'elset_wall_1_5'
p630
sg515
Nsg516
g517
sbssS'interactions'
p631
(dp632
sS'loads'
p633
(dp634
S'Gleis1_BAHNLASTEN_Lasteinzugsflache_Lastblock_-3'
p635
g0
(ccompas_fea.structure.load
AreaLoad
p636
g2
Ntp637
Rp638
(dp639
g15
I5
sS'__name__'
p640
S'AreaLoad'
p641
sS'name'
p642
g635
sS'axes'
p643
S'global'
p644
sS'components'
p645
(dp646
g23
F0.085453103254663501
sg27
I0
sg28
I0
ssS'nodes'
p647
(lp648
sS'elements'
p649
(lp650
I8
asS'attr_list'
p651
(lp652
S'name'
p653
aS'axes'
p654
aS'components'
p655
aS'nodes'
p656
aS'elements'
p657
asbsS'earthPressure_liveLoad'
p658
g0
(g636
g2
Ntp659
Rp660
(dp661
g15
I7
sg640
g641
sg642
g658
sg643
S'local'
p662
sg645
(dp663
g23
F0.037699999999999997
sg27
I0
sg28
I0
ssg647
g648
sg649
(lp664
I43
aI44
aI47
aI48
aI51
aI52
asg651
(lp665
g653
ag654
ag655
ag656
ag657
asbsS'Gleis1_BAHNLASTEN_Lasteinzugsflache_Lastblock_-2'
p666
g0
(g636
g2
Ntp667
Rp668
(dp669
g15
I4
sg640
g641
sg642
g666
sg643
g644
sg645
(dp670
g23
F0.085453103254663501
sg27
I0
sg28
I0
ssg647
g648
sg649
(lp671
I2
aI3
asg651
(lp672
g653
ag654
ag655
ag656
ag657
asbsS'Gleis1_EIGENGEWICHTE_SCHIENE_Lasteinzugsflache'
p673
g0
(g636
g2
Ntp674
Rp675
(dp676
g15
I3
sg640
g641
sg642
g673
sg643
g644
sg645
(dp677
g23
F0.0024330116596859154
sg27
I0
sg28
I0
ssg647
g648
sg649
(lp678
I2
aI3
aI7
aI8
aI13
aI14
aI15
aI25
asg651
(lp679
g653
ag654
ag655
ag656
ag657
asbsS'Gleis1_BAHNLASTEN_Lasteinzugsflache_Lastblock_-4'
p680
g0
(g636
g2
Ntp681
Rp682
(dp683
g15
I6
sg640
g641
sg642
g680
sg643
g644
sg645
(dp684
g23
F0.085453103254663501
sg27
I0
sg28
I0
ssg647
g648
sg649
(lp685
I13
aI14
asg651
(lp686
g653
ag654
ag655
ag656
ag657
asbsS'earthPressure_backfill'
p687
g0
(g636
g2
Ntp688
Rp689
(dp690
g15
I2
sg640
g641
sg642
g687
sg643
g662
sg645
(dp691
g23
F0.041925890425045756
sg27
I0
sg28
I0
ssg647
g648
sg649
(lp692
g584
ag522
ag556
ag572
ag630
ag548
ag610
ag526
ag576
ag622
ag530
ag564
ag514
ag540
ag568
ag614
ag592
ag618
asg651
(lp693
g653
ag654
ag655
ag656
ag657
asbsS'earthPressure_gravel'
p694
g0
(g636
g2
Ntp695
Rp696
(dp697
g15
I1
sg640
g641
sg642
g694
sg643
g644
sg645
(dp698
g23
F0.013500000000000002
sg27
I0
sg28
I0
ssg647
g648
sg649
(lp699
g536
ag600
ag560
ag596
ag552
ag626
ag588
ag580
ag544
asg651
(lp700
g653
ag654
ag655
ag656
ag657
asbsS'load_gravity'
p701
g0
(ccompas_fea.structure.load
GravityLoad
p702
g2
Ntp703
Rp704
(dp705
S'index'
p706
I0
sg640
S'GravityLoad'
p707
sg642
g701
sg643
g644
sg645
(dp708
g23
F1.3500000000000001
sg27
F0.0
sg28
F0.0
ssg647
g648
sg649
(lp709
g536
ag600
ag560
ag596
ag552
ag626
ag588
ag580
ag544
ag584
ag522
ag556
ag572
ag630
ag548
ag610
ag526
ag576
ag622
ag530
ag564
ag514
ag540
ag568
ag614
ag592
ag618
asg651
(lp710
g653
ag654
ag655
ag656
ag657
aS'g'
p711
asS'g'
p712
F-9.8100000000000005
sbssS'materials'
p713
(dp714
g604
g0
(ccompas_fea.structure.material
MPCStiff
p715
g2
Ntp716
Rp717
(dp718
g706
I2
sS'__name__'
p719
S'MPCStiff'
p720
sS'name'
p721
g604
sS'attr_list'
p722
(lp723
g653
aS'E'
p724
aS'v'
p725
aS'G'
p726
aS'p'
p727
aS'tension'
p728
aS'compression'
p729
asS'E'
p730
(dp731
g724
L10000000000000L
ssS'v'
p732
(dp733
g725
F0.29999999999999999
ssS'G'
p734
(dp735
g726
F3846153846153.8462
ssS'p'
p736
F0.10000000000000001
sS'tension'
p737
I01
sS'compression'
p738
I01
sbsg510
g0
(ccompas_fea.structure.material
CMMUsermat
p739
g2
Ntp740
Rp741
(dp742
g15
I1
sg719
S'CMMUsermat'
p743
sg721
g510
sg722
(lp744
g653
ag724
ag725
ag726
ag727
aS'R_Rohr'
p745
aS'rho'
p746
aS'oo'
p747
aS'uu'
p748
aS'beton'
p749
aS'fcc'
p750
aS'vc'
p751
aS'ecu'
p752
aS'k_E'
p753
aS'theta_b0'
p754
aS'theta_b1'
p755
aS'k_riss'
p756
aS'Entfestigung'
p757
aS'lambdaTS'
p758
aS'srmx'
p759
aS'srmy'
p760
aS'Begrenzung'
p761
aS'KritQ'
p762
aS'winkelD'
p763
aS'k_vr'
p764
aS'fswy'
p765
aS'stahl1'
p766
aS'zm1'
p767
aS'fsy1'
p768
aS'fsu1'
p769
aS'esu1'
p770
aS'esv1'
p771
aS'Es1'
p772
aS'ka1'
p773
aS'kb1'
p774
aS'kc1'
p775
aS'as1'
p776
aS'dm1'
p777
aS'psi1'
p778
aS'stahl2'
p779
aS'zm2'
p780
aS'fsy2'
p781
aS'fsu2'
p782
aS'esu2'
p783
aS'esv2'
p784
aS'Es2'
p785
aS'ka2'
p786
aS'kb2'
p787
aS'kc2'
p788
aS'as2'
p789
aS'dm2'
p790
aS'psi2'
p791
aS'stahl3'
p792
aS'zm3'
p793
aS'fsy3'
p794
aS'fsu3'
p795
aS'esu3'
p796
aS'esv3'
p797
aS'Es3'
p798
aS'ka3'
p799
aS'kb3'
p800
aS'kc3'
p801
aS'as3'
p802
aS'dm3'
p803
aS'psi3'
p804
aS'stahl4'
p805
aS'zm4'
p806
aS'fsy4'
p807
aS'fsu4'
p808
aS'esu4'
p809
aS'esv4'
p810
aS'Es4'
p811
aS'ka4'
p812
aS'kb4'
p813
aS'kc4'
p814
aS'as4'
p815
aS'dm4'
p816
aS'psi4'
p817
asS'E'
p818
(dp819
S'E'
p820
I200000
ssS'v'
p821
(dp822
S'v'
p823
F0.10000000000000001
ssS'G'
p824
(dp825
g726
F90909.090909090897
ssS'p'
p826
F2.5000000000000002e-06
sS'R_Rohr'
p827
(dp828
g745
I-1
ssS'rho'
p829
(dp830
g746
F2.5000000000000002e-06
ssS'oo'
p831
(dp832
g747
I30
ssS'uu'
p833
(dp834
g748
I30
ssS'beton'
p835
(dp836
g749
I2
ssS'fcc'
p837
(dp838
g750
I44
ssS'vc'
p839
(dp840
g751
I0
ssS'ecu'
p841
(dp842
g752
F-0.002
ssS'k_E'
p843
(dp844
g753
I10000
ssS'theta_b0'
p845
(dp846
g754
I2
ssS'theta_b1'
p847
(dp848
g755
I1
ssS'k_riss'
p849
(dp850
g756
I0
ssS'Entfestigung'
p851
(dp852
g757
I0
ssS'lambdaTS'
p853
(dp854
g758
F0.67000000000000004
ssS'srmx'
p855
(dp856
g759
I1
ssS'srmy'
p857
(dp858
g760
I1
ssS'Begrenzung'
p859
(dp860
g761
I2
ssS'KritQ'
p861
(dp862
g762
I0
ssS'winkelD'
p863
(dp864
g763
I45
ssS'k_vr'
p865
(dp866
g764
I1
ssS'fswy'
p867
(dp868
g765
I500
ssS'stahl1'
p869
(dp870
g766
I1
ssS'zm1'
p871
(dp872
g767
I2
ssS'fsy1'
p873
(dp874
g768
I430
ssS'fsu1'
p875
(dp876
g769
I465
ssS'esu1'
p877
(dp878
g770
F0.044999999999999998
ssS'esv1'
p879
(dp880
g771
F0.02
ssS'Es1'
p881
(dp882
g772
I200000
ssS'ka1'
p883
(dp884
g773
I-1
ssS'kb1'
p885
(dp886
g774
I-1
ssS'kc1'
p887
(dp888
g775
I-1
ssS'as1'
p889
(dp890
g776
F1.3710205290524231
ssS'dm1'
p891
(dp892
g777
F24.531249768305877
ssS'psi1'
p893
(dp894
g778
I90
ssS'stahl2'
p895
(dp896
g779
I1
ssS'zm2'
p897
(dp898
g780
I2
ssS'fsy2'
p899
(dp900
g781
I430
ssS'fsu2'
p901
(dp902
g782
I465
ssS'esu2'
p903
(dp904
g783
F0.044999999999999998
ssS'esv2'
p905
(dp906
g784
F0.02
ssS'Es2'
p907
(dp908
g785
I200000
ssS'ka2'
p909
(dp910
g786
I-1
ssS'kb2'
p911
(dp912
g787
I-1
ssS'kc2'
p913
(dp914
g788
I-1
ssS'as2'
p915
(dp916
g789
F0.32807044010028252
ssS'dm2'
p917
(dp918
g790
F12.0
ssS'psi2'
p919
(dp920
g791
I0
ssS'stahl3'
p921
(dp922
g792
I1
ssS'zm3'
p923
(dp924
g793
I2
ssS'fsy3'
p925
(dp926
g794
I430
ssS'fsu3'
p927
(dp928
g795
I465
ssS'esu3'
p929
(dp930
g796
F0.044999999999999998
ssS'esv3'
p931
(dp932
g797
F0.02
ssS'Es3'
p933
(dp934
g798
I200000
ssS'ka3'
p935
(dp936
g799
I-1
ssS'kb3'
p937
(dp938
g800
I-1
ssS'kc3'
p939
(dp940
g801
I-1
ssS'as3'
p941
(dp942
g802
F0.32807044010028252
ssS'dm3'
p943
(dp944
g803
F12.0
ssS'psi3'
p945
(dp946
g804
I0
ssS'stahl4'
p947
(dp948
g805
I1
ssS'zm4'
p949
(dp950
g806
I2
ssS'fsy4'
p951
(dp952
g807
I430
ssS'fsu4'
p953
(dp954
g808
I465
ssS'esu4'
p955
(dp956
g809
F0.044999999999999998
ssS'esv4'
p957
(dp958
g810
F0.02
ssS'Es4'
p959
(dp960
g811
I200000
ssS'ka4'
p961
(dp962
g812
I-1
ssS'kb4'
p963
(dp964
g813
I-1
ssS'kc4'
p965
(dp966
g814
I-1
ssS'as4'
p967
(dp968
g815
F1.2579713240447274
ssS'dm4'
p969
(dp970
g816
F23.498117228033863
ssS'psi4'
p971
(dp972
g817
I90
ssbsg534
g0
(g739
g2
Ntp973
Rp974
(dp975
g15
I0
sg719
g743
sg721
g534
sg722
(lp976
g653
ag724
ag725
ag726
ag727
ag745
ag746
ag747
ag748
ag749
ag750
ag751
ag752
ag753
ag754
ag755
ag756
ag757
ag758
ag759
ag760
ag761
ag762
ag763
ag764
ag765
ag766
ag767
ag768
ag769
ag770
ag771
ag772
ag773
ag774
ag775
ag776
ag777
ag778
ag779
ag780
ag781
ag782
ag783
ag784
ag785
ag786
ag787
ag788
ag789
ag790
ag791
ag792
ag793
ag794
ag795
ag796
ag797
ag798
ag799
ag800
ag801
ag802
ag803
ag804
ag805
ag806
ag807
ag808
ag809
ag810
ag811
ag812
ag813
ag814
ag815
ag816
ag817
asg818
(dp977
g820
I200000
ssg821
(dp978
g823
F0.10000000000000001
ssg824
(dp979
g726
F90909.090909090897
ssg826
F2.5000000000000002e-06
sg827
(dp980
g745
I-1
ssg829
(dp981
g746
F2.5000000000000002e-06
ssg831
(dp982
g747
I30
ssg833
(dp983
g748
I30
ssg835
(dp984
g749
I2
ssg837
(dp985
g750
I44
ssg839
(dp986
g751
I0
ssg841
(dp987
g752
F-0.002
ssg843
(dp988
g753
I10000
ssg845
(dp989
g754
I2
ssg847
(dp990
g755
I1
ssg849
(dp991
g756
I0
ssg851
(dp992
g757
I0
ssg853
(dp993
g758
F0.67000000000000004
ssg855
(dp994
g759
I1
ssg857
(dp995
g760
I1
ssg859
(dp996
g761
I2
ssg861
(dp997
g762
I0
ssg863
(dp998
g763
I45
ssg865
(dp999
g764
I1
ssg867
(dp1000
g765
I500
ssg869
(dp1001
g766
I1
ssg871
(dp1002
g767
I2
ssg873
(dp1003
g768
I430
ssg875
(dp1004
g769
I465
ssg877
(dp1005
g770
F0.044999999999999998
ssg879
(dp1006
g771
F0.02
ssg881
(dp1007
g772
I200000
ssg883
(dp1008
g773
I-1
ssg885
(dp1009
g774
I-1
ssg887
(dp1010
g775
I-1
ssg889
(dp1011
g776
F0.32116462073871366
ssg891
(dp1012
g777
F12.786022460482705
ssg893
(dp1013
g778
I90
ssg895
(dp1014
g779
I1
ssg897
(dp1015
g780
I2
ssg899
(dp1016
g781
I430
ssg901
(dp1017
g782
I465
ssg903
(dp1018
g783
F0.044999999999999998
ssg905
(dp1019
g784
F0.02
ssg907
(dp1020
g785
I200000
ssg909
(dp1021
g786
I-1
ssg911
(dp1022
g787
I-1
ssg913
(dp1023
g788
I-1
ssg915
(dp1024
g789
F0.40774296261810683
ssg917
(dp1025
g790
F14.406711230757574
ssg919
(dp1026
g791
I0
ssg921
(dp1027
g792
I1
ssg923
(dp1028
g793
I2
ssg925
(dp1029
g794
I430
ssg927
(dp1030
g795
I465
ssg929
(dp1031
g796
F0.044999999999999998
ssg931
(dp1032
g797
F0.02
ssg933
(dp1033
g798
I200000
ssg935
(dp1034
g799
I-1
ssg937
(dp1035
g800
I-1
ssg939
(dp1036
g801
I-1
ssg941
(dp1037
g802
F0.28289108657124912
ssg943
(dp1038
g803
F12.0
ssg945
(dp1039
g804
I0
ssg947
(dp1040
g805
I1
ssg949
(dp1041
g806
I2
ssg951
(dp1042
g807
I430
ssg953
(dp1043
g808
I465
ssg955
(dp1044
g809
F0.044999999999999998
ssg957
(dp1045
g810
F0.02
ssg959
(dp1046
g811
I200000
ssg961
(dp1047
g812
I-1
ssg963
(dp1048
g813
I-1
ssg965
(dp1049
g814
I-1
ssg967
(dp1050
g815
F0.79081163769799467
ssg969
(dp1051
g816
F20.063566700133652
ssg971
(dp1052
g817
I90
ssbssS'misc'
p1053
(dp1054
sS'name'
p1055
S'NLFE_CFB1'
p1056
sS'nodes'
p1057
(dp1058
I0
g0
(ccompas_fea.structure.node
Node
p1059
g2
Ntp1060
Rp1061
(dp1062
S'__name__'
p1063
S'Node'
p1064
sS'key'
p1065
I0
sS'x'
p1066
F0.0
sS'y'
p1067
F0.0
sS'z'
p1068
F0.0
sS'ex'
p1069
(lp1070
I1
aI0
aI0
asS'ey'
p1071
(lp1072
I0
aI1
aI0
asS'ez'
p1073
(lp1074
I0
aI0
aI1
asS'mass'
p1075
NsbsI1
g0
(g1059
g2
Ntp1076
Rp1077
(dp1078
g1063
g1064
sg1065
I1
sg1066
F1780.0842827285849
sg1067
F0.0
sg1068
F0.0
sg1069
g1070
sg1071
g1072
sg1073
g1074
sg1075
NsbsI2
g0
(g1059
g2
Ntp1079
Rp1080
(dp1081
g1063
g1064
sg1065
I2
sg1066
F0.0
sg1067
F1782.9838703369128
sg1068
F0.0
sg1069
g1070
sg1071
g1072
sg1073
g1074
sg1075
NsbsI3
g0
(g1059
g2
Ntp1082
Rp1083
(dp1084
g1063
g1064
sg1065
I3
sg1066
F1780.0842827285851
sg1067
F1782.9838703369128
sg1068
F0.0
sg1069
g1070
sg1071
g1072
sg1073
g1074
sg1075
NsbsI4
g0
(g1059
g2
Ntp1085
Rp1086
(dp1087
g1063
g1064
sg1065
I4
sg1066
F0.0
sg1067
F3565.9677406738256
sg1068
F0.0
sg1069
g1070
sg1071
g1072
sg1073
g1074
sg1075
NsbsI5
g0
(g1059
g2
Ntp1088
Rp1089
(dp1090
g1063
g1064
sg1065
I5
sg1066
F1780.0842827285851
sg1067
F3565.9677406738256
sg1068
F0.0
sg1069
g1070
sg1071
g1072
sg1073
g1074
sg1075
NsbsI6
g0
(g1059
g2
Ntp1091
Rp1092
(dp1093
g1063
g1064
sg1065
I6
sg1066
F0.0
sg1067
F5348.9516110107379
sg1068
F0.0
sg1069
g1070
sg1071
g1072
sg1073
g1074
sg1075
NsbsI7
g0
(g1059
g2
Ntp1094
Rp1095
(dp1096
g1063
g1064
sg1065
I7
sg1066
F1780.0842827285849
sg1067
F5348.9516110107379
sg1068
F0.0
sg1069
g1070
sg1071
g1072
sg1073
g1074
sg1075
NsbsI8
g0
(g1059
g2
Ntp1097
Rp1098
(dp1099
g1063
g1064
sg1065
I8
sg1066
F0.0
sg1067
F10859.992664779376
sg1068
F0.0
sg1069
g1070
sg1071
g1072
sg1073
g1074
sg1075
NsbsI9
g0
(g1059
g2
Ntp1100
Rp1101
(dp1102
g1063
g1064
sg1065
I9
sg1066
F1780.0842827285849
sg1067
F10859.992664779376
sg1068
F0.0
sg1069
g1070
sg1071
g1072
sg1073
g1074
sg1075
NsbsI10
g0
(g1059
g2
Ntp1103
Rp1104
(dp1105
g1063
g1064
sg1065
I10
sg1066
F0.0
sg1067
F12642.97653511629
sg1068
F0.0
sg1069
g1070
sg1071
g1072
sg1073
g1074
sg1075
NsbsI11
g0
(g1059
g2
Ntp1106
Rp1107
(dp1108
g1063
g1064
sg1065
I11
sg1066
F1780.0842827285851
sg1067
F12642.97653511629
sg1068
F0.0
sg1069
g1070
sg1071
g1072
sg1073
g1074
sg1075
NsbsI12
g0
(g1059
g2
Ntp1109
Rp1110
(dp1111
g1063
g1064
sg1065
I12
sg1066
F0.0
sg1067
F14425.960405453203
sg1068
F0.0
sg1069
g1070
sg1071
g1072
sg1073
g1074
sg1075
NsbsI13
g0
(g1059
g2
Ntp1112
Rp1113
(dp1114
g1063
g1064
sg1065
I13
sg1066
F1780.0842827285851
sg1067
F14425.960405453203
sg1068
F0.0
sg1069
g1070
sg1071
g1072
sg1073
g1074
sg1075
NsbsI14
g0
(g1059
g2
Ntp1115
Rp1116
(dp1117
g1063
g1064
sg1065
I14
sg1066
F0.0
sg1067
F16208.944275790114
sg1068
F0.0
sg1069
g1070
sg1071
g1072
sg1073
g1074
sg1075
NsbsI15
g0
(g1059
g2
Ntp1118
Rp1119
(dp1120
g1063
g1064
sg1065
I15
sg1066
F1780.0842827285849
sg1067
F16208.944275790114
sg1068
F0.0
sg1069
g1070
sg1071
g1072
sg1073
g1074
sg1075
NsbsI16
g0
(g1059
g2
Ntp1121
Rp1122
(dp1123
g1063
g1064
sg1065
I16
sg1066
F3560.1685654571697
sg1067
F0.0
sg1068
F0.0
sg1069
g1070
sg1071
g1072
sg1073
g1074
sg1075
NsbsI17
g0
(g1059
g2
Ntp1124
Rp1125
(dp1126
g1063
g1064
sg1065
I17
sg1066
F3560.1685654571702
sg1067
F1782.9838703369128
sg1068
F0.0
sg1069
g1070
sg1071
g1072
sg1073
g1074
sg1075
NsbsI18
g0
(g1059
g2
Ntp1127
Rp1128
(dp1129
g1063
g1064
sg1065
I18
sg1066
F3560.1685654571702
sg1067
F3565.9677406738256
sg1068
F0.0
sg1069
g1070
sg1071
g1072
sg1073
g1074
sg1075
NsbsI19
g0
(g1059
g2
Ntp1130
Rp1131
(dp1132
g1063
g1064
sg1065
I19
sg1066
F3560.1685654571697
sg1067
F5348.9516110107379
sg1068
F0.0
sg1069
g1070
sg1071
g1072
sg1073
g1074
sg1075
NsbsI20
g0
(g1059
g2
Ntp1133
Rp1134
(dp1135
g1063
g1064
sg1065
I20
sg1066
F3560.1685654571697
sg1067
F10859.992664779376
sg1068
F0.0
sg1069
g1070
sg1071
g1072
sg1073
g1074
sg1075
NsbsI21
g0
(g1059
g2
Ntp1136
Rp1137
(dp1138
g1063
g1064
sg1065
I21
sg1066
F3560.1685654571702
sg1067
F12642.97653511629
sg1068
F0.0
sg1069
g1070
sg1071
g1072
sg1073
g1074
sg1075
NsbsI22
g0
(g1059
g2
Ntp1139
Rp1140
(dp1141
g1063
g1064
sg1065
I22
sg1066
F3560.1685654571702
sg1067
F14425.960405453203
sg1068
F0.0
sg1069
g1070
sg1071
g1072
sg1073
g1074
sg1075
NsbsI23
g0
(g1059
g2
Ntp1142
Rp1143
(dp1144
g1063
g1064
sg1065
I23
sg1066
F3560.1685654571697
sg1067
F16208.944275790114
sg1068
F0.0
sg1069
g1070
sg1071
g1072
sg1073
g1074
sg1075
NsbsI24
g0
(g1059
g2
Ntp1145
Rp1146
(dp1147
g1063
g1064
sg1065
I24
sg1066
F4477.1816808021986
sg1067
F0.0
sg1068
F0.0
sg1069
g1070
sg1071
g1072
sg1073
g1074
sg1075
NsbsI25
g0
(g1059
g2
Ntp1148
Rp1149
(dp1150
g1063
g1064
sg1065
I25
sg1066
F5394.194796147227
sg1067
F0.0
sg1068
F0.0
sg1069
g1070
sg1071
g1072
sg1073
g1074
sg1075
NsbsI26
g0
(g1059
g2
Ntp1151
Rp1152
(dp1153
g1063
g1064
sg1065
I26
sg1066
F4477.1816808021995
sg1067
F1782.9838703369128
sg1068
F0.0
sg1069
g1070
sg1071
g1072
sg1073
g1074
sg1075
NsbsI27
g0
(g1059
g2
Ntp1154
Rp1155
(dp1156
g1063
g1064
sg1065
I27
sg1066
F5394.1947961472279
sg1067
F1782.9838703369128
sg1068
F0.0
sg1069
g1070
sg1071
g1072
sg1073
g1074
sg1075
NsbsI28
g0
(g1059
g2
Ntp1157
Rp1158
(dp1159
g1063
g1064
sg1065
I28
sg1066
F4477.1816808021986
sg1067
F3565.9677406738256
sg1068
F0.0
sg1069
g1070
sg1071
g1072
sg1073
g1074
sg1075
NsbsI29
g0
(g1059
g2
Ntp1160
Rp1161
(dp1162
g1063
g1064
sg1065
I29
sg1066
F5394.1947961472279
sg1067
F3565.9677406738256
sg1068
F0.0
sg1069
g1070
sg1071
g1072
sg1073
g1074
sg1075
NsbsI30
g0
(g1059
g2
Ntp1163
Rp1164
(dp1165
g1063
g1064
sg1065
I30
sg1066
F4477.1816808021986
sg1067
F5348.9516110107379
sg1068
F0.0
sg1069
g1070
sg1071
g1072
sg1073
g1074
sg1075
NsbsI31
g0
(g1059
g2
Ntp1166
Rp1167
(dp1168
g1063
g1064
sg1065
I31
sg1066
F5394.194796147227
sg1067
F5348.9516110107379
sg1068
F0.0
sg1069
g1070
sg1071
g1072
sg1073
g1074
sg1075
NsbsI32
g0
(g1059
g2
Ntp1169
Rp1170
(dp1171
g1063
g1064
sg1065
I32
sg1066
F4477.1816808021986
sg1067
F10859.992664779376
sg1068
F0.0
sg1069
g1070
sg1071
g1072
sg1073
g1074
sg1075
NsbsI33
g0
(g1059
g2
Ntp1172
Rp1173
(dp1174
g1063
g1064
sg1065
I33
sg1066
F5394.194796147227
sg1067
F10859.992664779376
sg1068
F0.0
sg1069
g1070
sg1071
g1072
sg1073
g1074
sg1075
NsbsI34
g0
(g1059
g2
Ntp1175
Rp1176
(dp1177
g1063
g1064
sg1065
I34
sg1066
F4477.1816808021995
sg1067
F12642.976535116291
sg1068
F0.0
sg1069
g1070
sg1071
g1072
sg1073
g1074
sg1075
NsbsI35
g0
(g1059
g2
Ntp1178
Rp1179
(dp1180
g1063
g1064
sg1065
I35
sg1066
F5394.1947961472279
sg1067
F12642.97653511629
sg1068
F0.0
sg1069
g1070
sg1071
g1072
sg1073
g1074
sg1075
NsbsI36
g0
(g1059
g2
Ntp1181
Rp1182
(dp1183
g1063
g1064
sg1065
I36
sg1066
F4477.1816808021986
sg1067
F14425.960405453203
sg1068
F0.0
sg1069
g1070
sg1071
g1072
sg1073
g1074
sg1075
NsbsI37
g0
(g1059
g2
Ntp1184
Rp1185
(dp1186
g1063
g1064
sg1065
I37
sg1066
F5394.1947961472279
sg1067
F14425.960405453203
sg1068
F0.0
sg1069
g1070
sg1071
g1072
sg1073
g1074
sg1075
NsbsI38
g0
(g1059
g2
Ntp1187
Rp1188
(dp1189
g1063
g1064
sg1065
I38
sg1066
F4477.1816808021986
sg1067
F16208.944275790114
sg1068
F0.0
sg1069
g1070
sg1071
g1072
sg1073
g1074
sg1075
NsbsI39
g0
(g1059
g2
Ntp1190
Rp1191
(dp1192
g1063
g1064
sg1065
I39
sg1066
F5394.194796147227
sg1067
F16208.944275790114
sg1068
F0.0
sg1069
g1070
sg1071
g1072
sg1073
g1074
sg1075
NsbsI40
g0
(g1059
g2
Ntp1193
Rp1194
(dp1195
g1063
g1064
sg1065
I40
sg1066
F0.0
sg1067
F6726.7118744528971
sg1068
F0.0
sg1069
g1070
sg1071
g1072
sg1073
g1074
sg1075
NsbsI41
g0
(g1059
g2
Ntp1196
Rp1197
(dp1198
g1063
g1064
sg1065
I41
sg1066
F1780.0842827285846
sg1067
F6726.7118744528971
sg1068
F0.0
sg1069
g1070
sg1071
g1072
sg1073
g1074
sg1075
NsbsI42
g0
(g1059
g2
Ntp1199
Rp1200
(dp1201
g1063
g1064
sg1065
I42
sg1066
F0.0
sg1067
F8104.4721378950571
sg1068
F0.0
sg1069
g1070
sg1071
g1072
sg1073
g1074
sg1075
NsbsI43
g0
(g1059
g2
Ntp1202
Rp1203
(dp1204
g1063
g1064
sg1065
I43
sg1066
F1780.0842827285849
sg1067
F8104.4721378950571
sg1068
F0.0
sg1069
g1070
sg1071
g1072
sg1073
g1074
sg1075
NsbsI44
g0
(g1059
g2
Ntp1205
Rp1206
(dp1207
g1063
g1064
sg1065
I44
sg1066
F0.0
sg1067
F9482.2324013372163
sg1068
F0.0
sg1069
g1070
sg1071
g1072
sg1073
g1074
sg1075
NsbsI45
g0
(g1059
g2
Ntp1208
Rp1209
(dp1210
g1063
g1064
sg1065
I45
sg1066
F1780.0842827285846
sg1067
F9482.2324013372163
sg1068
F0.0
sg1069
g1070
sg1071
g1072
sg1073
g1074
sg1075
NsbsI46
g0
(g1059
g2
Ntp1211
Rp1212
(dp1213
g1063
g1064
sg1065
I46
sg1066
F3560.1685654571693
sg1067
F6726.7118744528971
sg1068
F0.0
sg1069
g1070
sg1071
g1072
sg1073
g1074
sg1075
NsbsI47
g0
(g1059
g2
Ntp1214
Rp1215
(dp1216
g1063
g1064
sg1065
I47
sg1066
F3560.1685654571697
sg1067
F8104.4721378950571
sg1068
F0.0
sg1069
g1070
sg1071
g1072
sg1073
g1074
sg1075
NsbsI48
g0
(g1059
g2
Ntp1217
Rp1218
(dp1219
g1063
g1064
sg1065
I48
sg1066
F3560.1685654571693
sg1067
F9482.2324013372163
sg1068
F0.0
sg1069
g1070
sg1071
g1072
sg1073
g1074
sg1075
NsbsI49
g0
(g1059
g2
Ntp1220
Rp1221
(dp1222
g1063
g1064
sg1065
I49
sg1066
F4477.1816808021977
sg1067
F6726.7118744528971
sg1068
F0.0
sg1069
g1070
sg1071
g1072
sg1073
g1074
sg1075
NsbsI50
g0
(g1059
g2
Ntp1223
Rp1224
(dp1225
g1063
g1064
sg1065
I50
sg1066
F5394.194796147227
sg1067
F6726.7118744528971
sg1068
F0.0
sg1069
g1070
sg1071
g1072
sg1073
g1074
sg1075
NsbsI51
g0
(g1059
g2
Ntp1226
Rp1227
(dp1228
g1063
g1064
sg1065
I51
sg1066
F4477.1816808021986
sg1067
F8104.4721378950571
sg1068
F0.0
sg1069
g1070
sg1071
g1072
sg1073
g1074
sg1075
NsbsI52
g0
(g1059
g2
Ntp1229
Rp1230
(dp1231
g1063
g1064
sg1065
I52
sg1066
F5394.194796147227
sg1067
F8104.4721378950571
sg1068
F0.0
sg1069
g1070
sg1071
g1072
sg1073
g1074
sg1075
NsbsI53
g0
(g1059
g2
Ntp1232
Rp1233
(dp1234
g1063
g1064
sg1065
I53
sg1066
F4477.1816808021977
sg1067
F9482.2324013372163
sg1068
F0.0
sg1069
g1070
sg1071
g1072
sg1073
g1074
sg1075
NsbsI54
g0
(g1059
g2
Ntp1235
Rp1236
(dp1237
g1063
g1064
sg1065
I54
sg1066
F5394.194796147227
sg1067
F9482.2324013372163
sg1068
F0.0
sg1069
g1070
sg1071
g1072
sg1073
g1074
sg1075
NsbsI55
g0
(g1059
g2
Ntp1238
Rp1239
(dp1240
g1063
g1064
sg1065
I55
sg1066
F0.0
sg1067
F0.0
sg1068
F-1370.5422655347102
sg1069
g1070
sg1071
g1072
sg1073
g1074
sg1075
NsbsI56
g0
(g1059
g2
Ntp1241
Rp1242
(dp1243
g1063
g1064
sg1065
I56
sg1066
F1780.0842827285801
sg1067
F0.0
sg1068
F-1370.5422655347102
sg1069
g1070
sg1071
g1072
sg1073
g1074
sg1075
NsbsI57
g0
(g1059
g2
Ntp1244
Rp1245
(dp1246
g1063
g1064
sg1065
I57
sg1066
F0.0
sg1067
F0.0
sg1068
F-606.64116222640291
sg1069
g1070
sg1071
g1072
sg1073
g1074
sg1075
NsbsI58
g0
(g1059
g2
Ntp1247
Rp1248
(dp1249
g1063
g1064
sg1065
I58
sg1066
F1780.0842827285801
sg1067
F0.0
sg1068
F-606.64116222640291
sg1069
g1070
sg1071
g1072
sg1073
g1074
sg1075
NsbsI59
g0
(g1059
g2
Ntp1250
Rp1251
(dp1252
g1063
g1064
sg1065
I59
sg1066
F3560.1685654571702
sg1067
F0.0
sg1068
F-1370.5422655347102
sg1069
g1070
sg1071
g1072
sg1073
g1074
sg1075
NsbsI60
g0
(g1059
g2
Ntp1253
Rp1254
(dp1255
g1063
g1064
sg1065
I60
sg1066
F3560.1685654571702
sg1067
F0.0
sg1068
F-606.64116222640291
sg1069
g1070
sg1071
g1072
sg1073
g1074
sg1075
NsbsI61
g0
(g1059
g2
Ntp1256
Rp1257
(dp1258
g1063
g1064
sg1065
I61
sg1066
F4477.1816808021995
sg1067
F0.0
sg1068
F-1370.5422655347102
sg1069
g1070
sg1071
g1072
sg1073
g1074
sg1075
NsbsI62
g0
(g1059
g2
Ntp1259
Rp1260
(dp1261
g1063
g1064
sg1065
I62
sg1066
F5394.1947961472297
sg1067
F0.0
sg1068
F-1370.5422655347102
sg1069
g1070
sg1071
g1072
sg1073
g1074
sg1075
NsbsI63
g0
(g1059
g2
Ntp1262
Rp1263
(dp1264
g1063
g1064
sg1065
I63
sg1066
F4477.1816808021995
sg1067
F0.0
sg1068
F-606.64116222640291
sg1069
g1070
sg1071
g1072
sg1073
g1074
sg1075
NsbsI64
g0
(g1059
g2
Ntp1265
Rp1266
(dp1267
g1063
g1064
sg1065
I64
sg1066
F5394.1947961472297
sg1067
F0.0
sg1068
F-606.64116222640291
sg1069
g1070
sg1071
g1072
sg1073
g1074
sg1075
NsbsI65
g0
(g1059
g2
Ntp1268
Rp1269
(dp1270
g1063
g1064
sg1065
I65
sg1066
F0.0
sg1067
F0.0
sg1068
F-2157.5918871250869
sg1069
g1070
sg1071
g1072
sg1073
g1074
sg1075
NsbsI66
g0
(g1059
g2
Ntp1271
Rp1272
(dp1273
g1063
g1064
sg1065
I66
sg1066
F1780.0842827285801
sg1067
F0.0
sg1068
F-2157.5918871250869
sg1069
g1070
sg1071
g1072
sg1073
g1074
sg1075
NsbsI67
g0
(g1059
g2
Ntp1274
Rp1275
(dp1276
g1063
g1064
sg1065
I67
sg1066
F3560.1685654571702
sg1067
F0.0
sg1068
F-2157.5918871250869
sg1069
g1070
sg1071
g1072
sg1073
g1074
sg1075
NsbsI68
g0
(g1059
g2
Ntp1277
Rp1278
(dp1279
g1063
g1064
sg1065
I68
sg1066
F4477.1816808021995
sg1067
F0.0
sg1068
F-2157.5918871250869
sg1069
g1070
sg1071
g1072
sg1073
g1074
sg1075
NsbsI69
g0
(g1059
g2
Ntp1280
Rp1281
(dp1282
g1063
g1064
sg1065
I69
sg1066
F5394.1947961472297
sg1067
F0.0
sg1068
F-2157.5918871250869
sg1069
g1070
sg1071
g1072
sg1073
g1074
sg1075
NsbsI70
g0
(g1059
g2
Ntp1283
Rp1284
(dp1285
g1063
g1064
sg1065
I70
sg1066
F0.0
sg1067
F0.0
sg1068
F-2921.492990433394
sg1069
g1070
sg1071
g1072
sg1073
g1074
sg1075
NsbsI71
g0
(g1059
g2
Ntp1286
Rp1287
(dp1288
g1063
g1064
sg1065
I71
sg1066
F1780.0842827285801
sg1067
F0.0
sg1068
F-2921.492990433394
sg1069
g1070
sg1071
g1072
sg1073
g1074
sg1075
NsbsI72
g0
(g1059
g2
Ntp1289
Rp1290
(dp1291
g1063
g1064
sg1065
I72
sg1066
F3560.1685654571702
sg1067
F0.0
sg1068
F-2921.492990433394
sg1069
g1070
sg1071
g1072
sg1073
g1074
sg1075
NsbsI73
g0
(g1059
g2
Ntp1292
Rp1293
(dp1294
g1063
g1064
sg1065
I73
sg1066
F4477.1816808021995
sg1067
F0.0
sg1068
F-2921.492990433394
sg1069
g1070
sg1071
g1072
sg1073
g1074
sg1075
NsbsI74
g0
(g1059
g2
Ntp1295
Rp1296
(dp1297
g1063
g1064
sg1065
I74
sg1066
F5394.1947961472297
sg1067
F0.0
sg1068
F-2921.492990433394
sg1069
g1070
sg1071
g1072
sg1073
g1074
sg1075
NsbsI75
g0
(g1059
g2
Ntp1298
Rp1299
(dp1300
g1063
g1064
sg1065
I75
sg1066
F0.0
sg1067
F16208.944275790114
sg1068
F-1370.5422655347102
sg1069
g1070
sg1071
g1072
sg1073
g1074
sg1075
NsbsI76
g0
(g1059
g2
Ntp1301
Rp1302
(dp1303
g1063
g1064
sg1065
I76
sg1066
F1780.0842827285801
sg1067
F16208.944275790114
sg1068
F-1370.5422655347102
sg1069
g1070
sg1071
g1072
sg1073
g1074
sg1075
NsbsI77
g0
(g1059
g2
Ntp1304
Rp1305
(dp1306
g1063
g1064
sg1065
I77
sg1066
F0.0
sg1067
F16208.944275790114
sg1068
F-606.64116222640291
sg1069
g1070
sg1071
g1072
sg1073
g1074
sg1075
NsbsI78
g0
(g1059
g2
Ntp1307
Rp1308
(dp1309
g1063
g1064
sg1065
I78
sg1066
F1780.0842827285801
sg1067
F16208.944275790114
sg1068
F-606.64116222640291
sg1069
g1070
sg1071
g1072
sg1073
g1074
sg1075
NsbsI79
g0
(g1059
g2
Ntp1310
Rp1311
(dp1312
g1063
g1064
sg1065
I79
sg1066
F3560.1685654571702
sg1067
F16208.944275790114
sg1068
F-1370.5422655347102
sg1069
g1070
sg1071
g1072
sg1073
g1074
sg1075
NsbsI80
g0
(g1059
g2
Ntp1313
Rp1314
(dp1315
g1063
g1064
sg1065
I80
sg1066
F3560.1685654571702
sg1067
F16208.944275790114
sg1068
F-606.64116222640291
sg1069
g1070
sg1071
g1072
sg1073
g1074
sg1075
NsbsI81
g0
(g1059
g2
Ntp1316
Rp1317
(dp1318
g1063
g1064
sg1065
I81
sg1066
F4477.1816808021995
sg1067
F16208.944275790114
sg1068
F-1370.5422655347102
sg1069
g1070
sg1071
g1072
sg1073
g1074
sg1075
NsbsI82
g0
(g1059
g2
Ntp1319
Rp1320
(dp1321
g1063
g1064
sg1065
I82
sg1066
F5394.1947961472297
sg1067
F16208.944275790114
sg1068
F-1370.5422655347102
sg1069
g1070
sg1071
g1072
sg1073
g1074
sg1075
NsbsI83
g0
(g1059
g2
Ntp1322
Rp1323
(dp1324
g1063
g1064
sg1065
I83
sg1066
F4477.1816808021995
sg1067
F16208.944275790114
sg1068
F-606.64116222640291
sg1069
g1070
sg1071
g1072
sg1073
g1074
sg1075
NsbsI84
g0
(g1059
g2
Ntp1325
Rp1326
(dp1327
g1063
g1064
sg1065
I84
sg1066
F5394.1947961472297
sg1067
F16208.944275790114
sg1068
F-606.64116222640291
sg1069
g1070
sg1071
g1072
sg1073
g1074
sg1075
NsbsI85
g0
(g1059
g2
Ntp1328
Rp1329
(dp1330
g1063
g1064
sg1065
I85
sg1066
F0.0
sg1067
F16208.944275790114
sg1068
F-2157.5918871250869
sg1069
g1070
sg1071
g1072
sg1073
g1074
sg1075
NsbsI86
g0
(g1059
g2
Ntp1331
Rp1332
(dp1333
g1063
g1064
sg1065
I86
sg1066
F1780.0842827285801
sg1067
F16208.944275790114
sg1068
F-2157.5918871250869
sg1069
g1070
sg1071
g1072
sg1073
g1074
sg1075
NsbsI87
g0
(g1059
g2
Ntp1334
Rp1335
(dp1336
g1063
g1064
sg1065
I87
sg1066
F3560.1685654571702
sg1067
F16208.944275790114
sg1068
F-2157.5918871250869
sg1069
g1070
sg1071
g1072
sg1073
g1074
sg1075
NsbsI88
g0
(g1059
g2
Ntp1337
Rp1338
(dp1339
g1063
g1064
sg1065
I88
sg1066
F4477.1816808021995
sg1067
F16208.944275790114
sg1068
F-2157.5918871250869
sg1069
g1070
sg1071
g1072
sg1073
g1074
sg1075
NsbsI89
g0
(g1059
g2
Ntp1340
Rp1341
(dp1342
g1063
g1064
sg1065
I89
sg1066
F5394.1947961472297
sg1067
F16208.944275790114
sg1068
F-2157.5918871250869
sg1069
g1070
sg1071
g1072
sg1073
g1074
sg1075
NsbsI90
g0
(g1059
g2
Ntp1343
Rp1344
(dp1345
g1063
g1064
sg1065
I90
sg1066
F0.0
sg1067
F16208.944275790114
sg1068
F-2921.492990433394
sg1069
g1070
sg1071
g1072
sg1073
g1074
sg1075
NsbsI91
g0
(g1059
g2
Ntp1346
Rp1347
(dp1348
g1063
g1064
sg1065
I91
sg1066
F1780.0842827285801
sg1067
F16208.944275790114
sg1068
F-2921.492990433394
sg1069
g1070
sg1071
g1072
sg1073
g1074
sg1075
NsbsI92
g0
(g1059
g2
Ntp1349
Rp1350
(dp1351
g1063
g1064
sg1065
I92
sg1066
F3560.1685654571702
sg1067
F16208.944275790114
sg1068
F-2921.492990433394
sg1069
g1070
sg1071
g1072
sg1073
g1074
sg1075
NsbsI93
g0
(g1059
g2
Ntp1352
Rp1353
(dp1354
g1063
g1064
sg1065
I93
sg1066
F4477.1816808021995
sg1067
F16208.944275790114
sg1068
F-2921.492990433394
sg1069
g1070
sg1071
g1072
sg1073
g1074
sg1075
NsbsI94
g0
(g1059
g2
Ntp1355
Rp1356
(dp1357
g1063
g1064
sg1065
I94
sg1066
F5394.1947961472297
sg1067
F16208.944275790114
sg1068
F-2921.492990433394
sg1069
g1070
sg1071
g1072
sg1073
g1074
sg1075
NsbssS'node_index'
p1358
(dp1359
S'0.000,1782.984,0.000'
p1360
I2
sS'4477.182,16208.944,-606.641'
p1361
I83
sS'0.000,14425.960,0.000'
p1362
I12
sS'4477.182,0.000,0.000'
p1363
I24
sS'3560.169,5348.952,0.000'
p1364
I19
sS'4477.182,0.000,-2157.592'
p1365
I68
sS'0.000,0.000,-606.641'
p1366
I57
sS'3560.169,3565.968,0.000'
p1367
I18
sS'5394.195,0.000,-1370.542'
p1368
I62
sS'1780.084,9482.232,0.000'
p1369
I45
sS'1780.084,5348.952,0.000'
p1370
I7
sS'1780.084,0.000,0.000'
p1371
I1
sS'5394.195,16208.944,-2157.592'
p1372
I89
sS'4477.182,14425.960,0.000'
p1373
I36
sS'1780.084,0.000,-2157.592'
p1374
I66
sS'4477.182,3565.968,0.000'
p1375
I28
sS'0.000,0.000,0.000'
p1376
I0
sS'4477.182,16208.944,-1370.542'
p1377
I81
sS'5394.195,0.000,0.000'
p1378
I25
sS'0.000,10859.993,0.000'
p1379
I8
sS'5394.195,0.000,-2157.592'
p1380
I69
sS'5394.195,0.000,-2921.493'
p1381
I74
sS'3560.169,16208.944,-1370.542'
p1382
I79
sS'5394.195,12642.977,0.000'
p1383
I35
sS'4477.182,16208.944,0.000'
p1384
I38
sS'1780.084,16208.944,-606.641'
p1385
I78
sS'5394.195,16208.944,-2921.493'
p1386
I94
sS'3560.169,0.000,-2157.592'
p1387
I67
sS'0.000,16208.944,0.000'
p1388
I14
sS'0.000,9482.232,0.000'
p1389
I44
sS'0.000,16208.944,-606.641'
p1390
I77
sS'0.000,0.000,-2157.592'
p1391
I65
sS'5394.195,9482.232,0.000'
p1392
I54
sS'3560.169,8104.472,0.000'
p1393
I47
sS'0.000,8104.472,0.000'
p1394
I42
sS'5394.195,5348.952,0.000'
p1395
I31
sS'5394.195,0.000,-606.641'
p1396
I64
sS'3560.169,16208.944,-606.641'
p1397
I80
sS'1780.084,0.000,-1370.542'
p1398
I56
sS'4477.182,1782.984,0.000'
p1399
I26
sS'5394.195,1782.984,0.000'
p1400
I27
sS'3560.169,1782.984,0.000'
p1401
I17
sS'3560.169,12642.977,0.000'
p1402
I21
sS'0.000,16208.944,-2157.592'
p1403
I85
sS'1780.084,16208.944,-2157.592'
p1404
I86
sS'1780.084,14425.960,0.000'
p1405
I13
sS'3560.169,0.000,-1370.542'
p1406
I59
sS'0.000,16208.944,-2921.493'
p1407
I90
sS'4477.182,6726.712,0.000'
p1408
I49
sS'4477.182,8104.472,0.000'
p1409
I51
sS'3560.169,0.000,-606.641'
p1410
I60
sS'3560.169,9482.232,0.000'
p1411
I48
sS'3560.169,16208.944,-2921.493'
p1412
I92
sS'0.000,0.000,-1370.542'
p1413
I55
sS'5394.195,10859.993,0.000'
p1414
I33
sS'1780.084,6726.712,0.000'
p1415
I41
sS'4477.182,16208.944,-2921.493'
p1416
I93
sS'1780.084,12642.977,0.000'
p1417
I11
sS'1780.084,16208.944,0.000'
p1418
I15
sS'1780.084,8104.472,0.000'
p1419
I43
sS'0.000,16208.944,-1370.542'
p1420
I75
sS'5394.195,14425.960,0.000'
p1421
I37
sS'3560.169,0.000,-2921.493'
p1422
I72
sS'1780.084,10859.993,0.000'
p1423
I9
sS'0.000,0.000,-2921.493'
p1424
I70
sS'0.000,6726.712,0.000'
p1425
I40
sS'3560.169,16208.944,0.000'
p1426
I23
sS'1780.084,0.000,-606.641'
p1427
I58
sS'4477.182,10859.993,0.000'
p1428
I32
sS'3560.169,6726.712,0.000'
p1429
I46
sS'3560.169,14425.960,0.000'
p1430
I22
sS'4477.182,12642.977,0.000'
p1431
I34
sS'5394.195,16208.944,-1370.542'
p1432
I82
sS'1780.084,16208.944,-1370.542'
p1433
I76
sS'1780.084,3565.968,0.000'
p1434
I5
sS'5394.195,16208.944,-606.641'
p1435
I84
sS'1780.084,0.000,-2921.493'
p1436
I71
sS'5394.195,3565.968,0.000'
p1437
I29
sS'3560.169,0.000,0.000'
p1438
I16
sS'4477.182,0.000,-1370.542'
p1439
I61
sS'4477.182,5348.952,0.000'
p1440
I30
sS'1780.084,1782.984,0.000'
p1441
I3
sS'5394.195,8104.472,0.000'
p1442
I52
sS'4477.182,0.000,-606.641'
p1443
I63
sS'0.000,3565.968,0.000'
p1444
I4
sS'0.000,12642.977,0.000'
p1445
I10
sS'4477.182,16208.944,-2157.592'
p1446
I88
sS'4477.182,9482.232,0.000'
p1447
I53
sS'3560.169,10859.993,0.000'
p1448
I20
sS'0.000,5348.952,0.000'
p1449
I6
sS'5394.195,6726.712,0.000'
p1450
I50
sS'4477.182,0.000,-2921.493'
p1451
I73
sS'3560.169,16208.944,-2157.592'
p1452
I87
sS'1780.084,16208.944,-2921.493'
p1453
I91
sS'5394.195,16208.944,0.000'
p1454
I39
ssS'path'
p1455
S'C:\\Temp\\'
p1456
sS'results'
p1457
(dp1458
S'step_2'
p1459
S'ERROR'
p1460
sS'step_3'
p1461
g1460
sS'step_4'
p1462
g1460
sS'step_1'
p1463
g1460
ssS'sections'
p1464
(dp1465
g521
g0
(ccompas_fea.structure.section
ShellSection
p1466
g2
Ntp1467
Rp1468
(dp1469
g15
I1
sS'__name__'
p1470
S'ShellSection'
p1471
sS'name'
p1472
g521
sS'geometry'
p1473
(dp1474
S't'
p1475
F868.38570160858114
ssS'loc_coords_OR'
p1476
(dp1477
S'ORxyz'
p1478
(lp1479
I0
aI0
aF-2314.8518282099999
assS'loc_coords_XA'
p1480
(dp1481
S'XAxyz'
p1482
(lp1483
I1
aI0
aF-2314.8518282099999
assS'loc_coords_YA'
p1484
(dp1485
S'YAxyz'
p1486
(lp1487
F2314.8518282099999
aF-2314.8518282099999
aF-2313.8518282099999
assS'loc_coords_EV_XA'
p1488
(dp1489
S'EV_XA'
p1490
(lp1491
F1.0
aF0.0
aF0.0
assS'loc_coords_EV_YA'
p1492
(dp1493
S'EV_YA'
p1494
(lp1495
F0.70710674819683084
aF-0.70710674819683084
aF0.00030546523089713853
assS'loc_coords_EV_ZA'
p1496
(dp1497
S'EV_ZA'
p1498
(lp1499
F0.0
aF-1.0
aF0.0
assS'nr_layers'
p1500
(dp1501
S'nn'
p1502
F51.0
ssS'offset'
p1503
(dp1504
S'mode'
p1505
S'mid'
p1506
ssbsg535
g0
(g1466
g2
Ntp1507
Rp1508
(dp1509
g15
I0
sg1470
g1471
sg1472
g535
sg1473
(dp1510
g1475
F606.64116222640291
ssg1476
(dp1511
g1478
(lp1512
I0
aI0
aI0
assg1480
(dp1513
g1482
(lp1514
I1
aI0
aI0
assg1484
(dp1515
g1486
(lp1516
F0.0
aF1.0
aF0.0
assg1488
(dp1517
g1490
(lp1518
F1.0
aF0.0
aF0.0
assg1492
(dp1519
g1494
(lp1520
F0.0
aF1.0
aF0.0
assg1496
(dp1521
g1498
(lp1522
F0.0
aF0.0
aF1.0
assg1500
(dp1523
g1502
F51.0
ssg1503
(dp1524
g1505
S'top'
p1525
ssbsg512
g0
(g1466
g2
Ntp1526
Rp1527
(dp1528
g15
I2
sg1470
g1471
sg1472
g512
sg1473
(dp1529
g1475
F868.38570160858114
ssg1476
(dp1530
g1478
(lp1531
I0
aF16208.9442758
aF-2314.8518282099999
assg1480
(dp1532
g1482
(lp1533
I1
aF16208.9442758
aF-2314.8518282099999
assg1484
(dp1534
g1486
(lp1535
F-2314.8518282100558
aF13894.092447590001
aF-18524.796104010002
assg1488
(dp1536
g1490
(lp1537
F1.0
aF0.0
aF0.0
assg1492
(dp1538
g1494
(lp1539
F-0.13997836320408782
aF-0.13997836320408441
aF-0.98021024054506278
assg1496
(dp1540
g1498
(lp1541
F0.0
aF1.0
aF0.0
assg1500
(dp1542
g1502
F51.0
ssg1503
(dp1543
g1505
g1506
ssbsg605
g0
(ccompas_fea.structure.section
MPCSection
p1544
g2
Ntp1545
Rp1546
(dp1547
g706
I3
sg1470
S'MPCSection'
p1548
sg1472
g605
sg1473
NsS'nr_layers'
p1549
NsbssS'sets'
p1550
(dp1551
g630
g0
(ccompas_fea.structure.set
Set
p1552
g2
Ntp1553
Rp1554
(dp1555
S'__name__'
p1556
S'Set'
p1557
sS'name'
p1558
g630
sS'type'
p1559
S'element'
p1560
sS'selection'
p1561
(lp1562
I45
asS'index'
p1563
I13
sbsg606
g0
(g1552
g2
Ntp1564
Rp1565
(dp1566
g1556
g1557
sg1558
g606
sg1559
g1560
sg1561
(lp1567
I64
aI65
aI66
aI67
aI68
aI69
aI70
aI71
aI72
aI73
asg1563
I27
sbsg514
g0
(g1552
g2
Ntp1568
Rp1569
(dp1570
g1556
g1557
sg1558
g514
sg1559
g1560
sg1561
(lp1571
I56
asg1563
I21
sbsg560
g0
(g1552
g2
Ntp1572
Rp1573
(dp1574
g1556
g1557
sg1558
g560
sg1559
g1560
sg1561
(lp1575
I8
aI6
aI7
asg1563
I2
sbsg526
g0
(g1552
g2
Ntp1576
Rp1577
(dp1578
g1556
g1557
sg1558
g526
sg1559
g1560
sg1561
(lp1579
I49
asg1563
I16
sbsg622
g0
(g1552
g2
Ntp1580
Rp1581
(dp1582
g1556
g1557
sg1558
g622
sg1559
g1560
sg1561
(lp1583
I52
asg1563
I18
sbsg600
g0
(g1552
g2
Ntp1584
Rp1585
(dp1586
g1556
g1557
sg1558
g600
sg1559
g1560
sg1561
(lp1587
I3
aI4
aI5
asg1563
I1
sbsg536
g0
(g1552
g2
Ntp1588
Rp1589
(dp1590
g1556
g1557
sg1558
g536
sg1559
g1560
sg1561
(lp1591
I0
aI1
aI2
asg1563
I0
sbsg588
g0
(g1552
g2
Ntp1592
Rp1593
(dp1594
g1556
g1557
sg1558
g588
sg1559
g1560
sg1561
(lp1595
I24
aI25
aI26
aI27
asg1563
I6
sbsg626
g0
(g1552
g2
Ntp1596
Rp1597
(dp1598
g1556
g1557
sg1558
g626
sg1559
g1560
sg1561
(lp1599
I18
aI19
aI20
aI21
aI22
aI23
asg1563
I5
sbsg552
g0
(g1552
g2
Ntp1600
Rp1601
(dp1602
g1556
g1557
sg1558
g552
sg1559
g1560
sg1561
(lp1603
I16
aI17
aI12
aI13
aI14
aI15
asg1563
I4
sbsg596
g0
(g1552
g2
Ntp1604
Rp1605
(dp1606
g1556
g1557
sg1558
g596
sg1559
g1560
sg1561
(lp1607
I9
aI10
aI11
asg1563
I3
sbsg544
g0
(g1552
g2
Ntp1608
Rp1609
(dp1610
g1556
g1557
sg1558
g544
sg1559
g1560
sg1561
(lp1611
I32
aI33
aI34
aI35
aI36
aI37
aI38
aI39
asg1563
I8
sbsg580
g0
(g1552
g2
Ntp1612
Rp1613
(dp1614
g1556
g1557
sg1558
g580
sg1559
g1560
sg1561
(lp1615
I28
aI29
aI30
aI31
asg1563
I7
sbsg556
g0
(g1552
g2
Ntp1616
Rp1617
(dp1618
g1556
g1557
sg1558
g556
sg1559
g1560
sg1561
(lp1619
I42
aI43
asg1563
I11
sbsg618
g0
(g1552
g2
Ntp1620
Rp1621
(dp1622
g1556
g1557
sg1558
g618
sg1559
g1560
sg1561
(lp1623
I62
aI63
asg1563
I26
sbsg568
g0
(g1552
g2
Ntp1624
Rp1625
(dp1626
g1556
g1557
sg1558
g568
sg1559
g1560
sg1561
(lp1627
I58
aI59
asg1563
I23
sbsg548
g0
(g1552
g2
Ntp1628
Rp1629
(dp1630
g1556
g1557
sg1558
g548
sg1559
g1560
sg1561
(lp1631
I46
aI47
asg1563
I14
sbsg564
g0
(g1552
g2
Ntp1632
Rp1633
(dp1634
g1556
g1557
sg1558
g564
sg1559
g1560
sg1561
(lp1635
I54
aI55
asg1563
I20
sbsg584
g0
(g1552
g2
Ntp1636
Rp1637
(dp1638
g1556
g1557
sg1558
g584
sg1559
g1560
sg1561
(lp1639
I40
asg1563
I9
sbsg576
g0
(g1552
g2
Ntp1640
Rp1641
(dp1642
g1556
g1557
sg1558
g576
sg1559
g1560
sg1561
(lp1643
I50
aI51
asg1563
I17
sbsg35
g0
(g1552
g2
Ntp1644
Rp1645
(dp1646
g1556
g1557
sg1558
g35
sg1559
S'node'
p1647
sg1561
(lp1648
I94
aI93
aI92
aI91
aI90
asg1563
I29
sbsg572
g0
(g1552
g2
Ntp1649
Rp1650
(dp1651
g1556
g1557
sg1558
g572
sg1559
g1560
sg1561
(lp1652
I44
asg1563
I12
sbsg592
g0
(g1552
g2
Ntp1653
Rp1654
(dp1655
g1556
g1557
sg1558
g592
sg1559
g1560
sg1561
(lp1656
I61
asg1563
I25
sbsg540
g0
(g1552
g2
Ntp1657
Rp1658
(dp1659
g1556
g1557
sg1558
g540
sg1559
g1560
sg1561
(lp1660
I57
asg1563
I22
sbsg20
g0
(g1552
g2
Ntp1661
Rp1662
(dp1663
g1556
g1557
sg1558
g20
sg1559
g1647
sg1561
(lp1664
I74
aI73
aI72
aI71
aI70
asg1563
I28
sbsg610
g0
(g1552
g2
Ntp1665
Rp1666
(dp1667
g1556
g1557
sg1558
g610
sg1559
g1560
sg1561
(lp1668
I48
asg1563
I15
sbsg530
g0
(g1552
g2
Ntp1669
Rp1670
(dp1671
g1556
g1557
sg1558
g530
sg1559
g1560
sg1561
(lp1672
I53
asg1563
I19
sbsg522
g0
(g1552
g2
Ntp1673
Rp1674
(dp1675
g1556
g1557
sg1558
g522
sg1559
g1560
sg1561
(lp1676
I41
asg1563
I10
sbsg614
g0
(g1552
g2
Ntp1677
Rp1678
(dp1679
g1556
g1557
sg1558
g614
sg1559
g1560
sg1561
(lp1680
I60
asg1563
I24
sbssS'steps'
p1681
(dp1682
g1459
g0
(ccompas_fea.structure.step
GeneralStep
p1683
g2
Ntp1684
Rp1685
(dp1686
g15
I1
sS'__name__'
p1687
S'GeneralStep'
p1688
sS'name'
p1689
g1459
sS'attr_list'
p1690
(lp1691
g653
aS'increments'
p1692
aS'iterations'
p1693
aS'factor'
p1694
aS'nlgeom'
p1695
aS'nlmat'
p1696
aS'displacements'
p1697
aS'loads'
p1698
aS'type'
p1699
aS'tolerance'
p1700
aS'modify'
p1701
asS'increments'
p1702
I1
sS'iterations'
p1703
I100
sS'tolerance'
p1704
F0.01
sS'factor'
p1705
F1.0
sS'nlgeom'
p1706
I00
sS'nlmat'
p1707
I01
sS'displacements'
p1708
(lp1709
sS'loads'
p1710
(lp1711
g701
asS'modify'
p1712
I01
sS'type'
p1713
S'static'
p1714
sbsg1461
g0
(g1683
g2
Ntp1715
Rp1716
(dp1717
g15
I2
sg1687
g1688
sg1689
g1461
sg1690
(lp1718
g653
ag1692
ag1693
ag1694
ag1695
ag1696
ag1697
ag1698
ag1699
ag1700
ag1701
asg1702
I1
sg1703
I100
sg1704
F0.01
sg1705
F1.0
sg1706
I00
sg1707
I01
sg1708
(lp1719
sg1710
(lp1720
g694
ag687
ag673
asg1712
I01
sg1713
g1714
sbsg1462
g0
(g1683
g2
Ntp1721
Rp1722
(dp1723
g15
I3
sg1687
g1688
sg1689
g1462
sg1690
(lp1724
g653
ag1692
ag1693
ag1694
ag1695
ag1696
ag1697
ag1698
ag1699
ag1700
ag1701
asg1702
I1
sg1703
I100
sg1704
F0.01
sg1705
F1.0
sg1706
I00
sg1707
I01
sg1708
(lp1725
sg1710
(lp1726
g666
ag635
ag680
ag658
asg1712
I01
sg1713
g1714
sbsg1463
g0
(g1683
g2
Ntp1727
Rp1728
(dp1729
g15
I0
sg1687
g1688
sg1689
g1463
sg1690
(lp1730
g653
ag1692
ag1693
ag1694
ag1695
ag1696
ag1697
ag1698
ag1699
ag1700
ag1701
asg1702
I1
sg1703
I100
sg1704
F0.01
sg1705
F1.0
sg1706
I00
sg1707
I01
sg1708
(lp1731
g10
ag31
asg1710
(lp1732
sg1712
I01
sg1713
g1714
sbssS'loc_coor'
p1733
(dp1734
sS'steps_order'
p1735
(lp1736
g1463
ag1459
ag1461
ag1462
asS'tol'
p1737
S'3'
p1738
sS'virtual_nodes'
p1739
(dp1740
sS'virtual_node_index'
p1741
(dp1742
sS'virtual_elements'
p1743
(dp1744
sS'virtual_element_index'
p1745
(dp1746
sb.