ccopy_reg
_reconstructor
p0
(ccompas_fea.structure.structure
Structure
p1
c__builtin__
object
p2
Ntp3
Rp4
(dp5
S'constraints'
p6
(dp7
sS'displacements'
p8
(dp9
S'nset_pinned_set_disp_1'
p10
g0
(ccompas_fea.structure.displacement
GeneralDisplacement
p11
g2
Ntp12
Rp13
(dp14
S'index'
p15
I0
sS'__name__'
p16
S'GeneralDisplacement'
p17
sS'name'
p18
g10
sS'nodes'
p19
S'nset_support_wall1'
p20
sS'components'
p21
(dp22
S'z'
p23
I0
sS'xx'
p24
I0
sS'zz'
p25
I0
sS'yy'
p26
I0
sS'y'
p27
I0
sS'x'
p28
I0
ssS'axes'
p29
S'global'
p30
sbsS'nset_pinned_set_disp_2'
p31
g0
(g11
g2
Ntp32
Rp33
(dp34
g15
I1
sg16
g17
sg18
g31
sg19
S'nset_support_wall2'
p35
sg21
(dp36
g23
I0
sg24
I0
sg25
I0
sg26
I0
sg27
I0
sg28
I0
ssg29
g30
sbssS'elements'
p37
(dp38
I0
g0
(ccompas_fea.structure.element
ShellElement
p39
g2
Ntp40
Rp41
(dp42
S'mass'
p43
NsS'__name__'
p44
S'ShellElement'
p45
sS'nodes'
p46
(lp47
I0
aI1
aI3
aI2
asS'number'
p48
I0
sS'thermal'
p49
I00
sS'axes'
p50
(dp51
S'ey'
p52
NsS'ez'
p53
NsS'ex'
p54
NssS'element_property'
p55
S'elset_plate_1_element_prop'
p56
sbsI1
g0
(g39
g2
Ntp57
Rp58
(dp59
g43
Nsg44
g45
sg46
(lp60
I2
aI3
aI5
aI4
asg48
I1
sg49
I00
sg50
g51
sg55
g56
sbsI2
g0
(g39
g2
Ntp61
Rp62
(dp63
g43
Nsg44
g45
sg46
(lp64
I4
aI5
aI7
aI6
asg48
I2
sg49
I00
sg50
g51
sg55
g56
sbsI3
g0
(g39
g2
Ntp65
Rp66
(dp67
g43
Nsg44
g45
sg46
(lp68
I8
aI9
aI11
aI10
asg48
I3
sg49
I00
sg50
(dp69
g52
Nsg53
Nsg54
Nssg55
S'elset_plate_2_element_prop'
p70
sbsI4
g0
(g39
g2
Ntp71
Rp72
(dp73
g43
Nsg44
g45
sg46
(lp74
I10
aI11
aI13
aI12
asg48
I4
sg49
I00
sg50
g69
sg55
g70
sbsI5
g0
(g39
g2
Ntp75
Rp76
(dp77
g43
Nsg44
g45
sg46
(lp78
I12
aI13
aI15
aI14
asg48
I5
sg49
I00
sg50
g69
sg55
g70
sbsI6
g0
(g39
g2
Ntp79
Rp80
(dp81
g43
Nsg44
g45
sg46
(lp82
I1
aI16
aI17
aI3
asg48
I6
sg49
I00
sg50
(dp83
g52
Nsg53
Nsg54
Nssg55
S'elset_plate_3_element_prop'
p84
sbsI7
g0
(g39
g2
Ntp85
Rp86
(dp87
g43
Nsg44
g45
sg46
(lp88
I3
aI17
aI18
aI5
asg48
I7
sg49
I00
sg50
g83
sg55
g84
sbsI8
g0
(g39
g2
Ntp89
Rp90
(dp91
g43
Nsg44
g45
sg46
(lp92
I5
aI18
aI19
aI7
asg48
I8
sg49
I00
sg50
g83
sg55
g84
sbsI9
g0
(g39
g2
Ntp93
Rp94
(dp95
g43
Nsg44
g45
sg46
(lp96
I9
aI20
aI21
aI11
asg48
I9
sg49
I00
sg50
(dp97
g52
Nsg53
Nsg54
Nssg55
S'elset_plate_4_element_prop'
p98
sbsI10
g0
(g39
g2
Ntp99
Rp100
(dp101
g43
Nsg44
g45
sg46
(lp102
I11
aI21
aI22
aI13
asg48
I10
sg49
I00
sg50
g97
sg55
g98
sbsI11
g0
(g39
g2
Ntp103
Rp104
(dp105
g43
Nsg44
g45
sg46
(lp106
I13
aI22
aI23
aI15
asg48
I11
sg49
I00
sg50
g97
sg55
g98
sbsI12
g0
(g39
g2
Ntp107
Rp108
(dp109
g43
Nsg44
g45
sg46
(lp110
I16
aI24
aI25
aI17
asg48
I12
sg49
I00
sg50
(dp111
g52
Nsg53
Nsg54
Nssg55
S'elset_plate_5_element_prop'
p112
sbsI13
g0
(g39
g2
Ntp113
Rp114
(dp115
g43
Nsg44
g45
sg46
(lp116
I17
aI25
aI26
aI18
asg48
I13
sg49
I00
sg50
g111
sg55
g112
sbsI14
g0
(g39
g2
Ntp117
Rp118
(dp119
g43
Nsg44
g45
sg46
(lp120
I18
aI26
aI27
aI19
asg48
I14
sg49
I00
sg50
g111
sg55
g112
sbsI15
g0
(g39
g2
Ntp121
Rp122
(dp123
g43
Nsg44
g45
sg46
(lp124
I20
aI28
aI29
aI21
asg48
I15
sg49
I00
sg50
(dp125
g52
Nsg53
Nsg54
Nssg55
S'elset_plate_6_element_prop'
p126
sbsI16
g0
(g39
g2
Ntp127
Rp128
(dp129
g43
Nsg44
g45
sg46
(lp130
I21
aI29
aI30
aI22
asg48
I16
sg49
I00
sg50
g125
sg55
g126
sbsI17
g0
(g39
g2
Ntp131
Rp132
(dp133
g43
Nsg44
g45
sg46
(lp134
I22
aI30
aI31
aI23
asg48
I17
sg49
I00
sg50
g125
sg55
g126
sbsI18
g0
(g39
g2
Ntp135
Rp136
(dp137
g43
Nsg44
g45
sg46
(lp138
I6
aI7
aI33
aI32
asg48
I18
sg49
I00
sg50
(dp139
g52
Nsg53
Nsg54
Nssg55
S'elset_plate_7_element_prop'
p140
sbsI19
g0
(g39
g2
Ntp141
Rp142
(dp143
g43
Nsg44
g45
sg46
(lp144
I32
aI33
aI35
aI34
asg48
I19
sg49
I00
sg50
g139
sg55
g140
sbsI20
g0
(g39
g2
Ntp145
Rp146
(dp147
g43
Nsg44
g45
sg46
(lp148
I34
aI35
aI9
aI8
asg48
I20
sg49
I00
sg50
g139
sg55
g140
sbsI21
g0
(g39
g2
Ntp149
Rp150
(dp151
g43
Nsg44
g45
sg46
(lp152
I7
aI19
aI36
aI33
asg48
I21
sg49
I00
sg50
(dp153
g52
Nsg53
Nsg54
Nssg55
S'elset_plate_8_element_prop'
p154
sbsI22
g0
(g39
g2
Ntp155
Rp156
(dp157
g43
Nsg44
g45
sg46
(lp158
I33
aI36
aI37
aI35
asg48
I22
sg49
I00
sg50
g153
sg55
g154
sbsI23
g0
(g39
g2
Ntp159
Rp160
(dp161
g43
Nsg44
g45
sg46
(lp162
I35
aI37
aI20
aI9
asg48
I23
sg49
I00
sg50
g153
sg55
g154
sbsI24
g0
(g39
g2
Ntp163
Rp164
(dp165
g43
Nsg44
g45
sg46
(lp166
I19
aI27
aI38
aI36
asg48
I24
sg49
I00
sg50
(dp167
g52
Nsg53
Nsg54
Nssg55
S'elset_plate_9_element_prop'
p168
sbsI25
g0
(g39
g2
Ntp169
Rp170
(dp171
g43
Nsg44
g45
sg46
(lp172
I36
aI38
aI39
aI37
asg48
I25
sg49
I00
sg50
g167
sg55
g168
sbsI26
g0
(g39
g2
Ntp173
Rp174
(dp175
g43
Nsg44
g45
sg46
(lp176
I37
aI39
aI28
aI20
asg48
I26
sg49
I00
sg50
g167
sg55
g168
sbsI27
g0
(g39
g2
Ntp177
Rp178
(dp179
g43
Nsg44
g45
sg46
(lp180
I40
aI41
aI43
aI42
asg48
I27
sg49
I00
sg50
(dp181
g52
Nsg53
Nsg54
Nssg55
S'elset_wall_1_1_element_prop'
p182
sbsI28
g0
(g39
g2
Ntp183
Rp184
(dp185
g43
Nsg44
g45
sg46
(lp186
I41
aI44
aI45
aI43
asg48
I28
sg49
I00
sg50
(dp187
g52
Nsg53
Nsg54
Nssg55
S'elset_wall_1_2_element_prop'
p188
sbsI29
g0
(g39
g2
Ntp189
Rp190
(dp191
g43
Nsg44
g45
sg46
(lp192
I44
aI46
aI47
aI45
asg48
I29
sg49
I00
sg50
(dp193
g52
Nsg53
Nsg54
Nssg55
S'elset_wall_1_3_element_prop'
p194
sbsI30
g0
(g39
g2
Ntp195
Rp196
(dp197
g43
Nsg44
g45
sg46
(lp198
I48
aI49
aI41
aI40
asg48
I30
sg49
I00
sg50
(dp199
g52
Nsg53
Nsg54
Nssg55
S'elset_wall_1_4_element_prop'
p200
sbsI31
g0
(g39
g2
Ntp201
Rp202
(dp203
g43
Nsg44
g45
sg46
(lp204
I49
aI50
aI44
aI41
asg48
I31
sg49
I00
sg50
(dp205
g52
Nsg53
Nsg54
Nssg55
S'elset_wall_1_5_element_prop'
p206
sbsI32
g0
(g39
g2
Ntp207
Rp208
(dp209
g43
Nsg44
g45
sg46
(lp210
I50
aI51
aI46
aI44
asg48
I32
sg49
I00
sg50
(dp211
g52
Nsg53
Nsg54
Nssg55
S'elset_wall_1_6_element_prop'
p212
sbsI33
g0
(g39
g2
Ntp213
Rp214
(dp215
g43
Nsg44
g45
sg46
(lp216
I52
aI53
aI49
aI48
asg48
I33
sg49
I00
sg50
(dp217
g52
Nsg53
Nsg54
Nssg55
S'elset_wall_1_7_element_prop'
p218
sbsI34
g0
(g39
g2
Ntp219
Rp220
(dp221
g43
Nsg44
S'ShellElement'
p222
sg46
(lp223
I53
aI54
aI50
aI49
asg48
I34
sg49
I00
sg50
(dp224
g52
Nsg53
Nsg54
Nssg55
S'elset_wall_1_8_element_prop'
p225
sbsI35
g0
(g39
g2
Ntp226
Rp227
(dp228
g43
Nsg44
g222
sg46
(lp229
I54
aI55
aI51
aI50
asg48
I35
sg49
I00
sg50
(dp230
g52
Nsg53
Nsg54
Nssg55
S'elset_wall_1_9_element_prop'
p231
sbsI36
g0
(g39
g2
Ntp232
Rp233
(dp234
g43
Nsg44
g222
sg46
(lp235
I56
aI58
aI59
aI57
asg48
I36
sg49
I00
sg50
(dp236
g52
Nsg53
Nsg54
Nssg55
S'elset_wall_2_1_element_prop'
p237
sbsI37
g0
(g39
g2
Ntp238
Rp239
(dp240
g43
Nsg44
g222
sg46
(lp241
I57
aI59
aI61
aI60
asg48
I37
sg49
I00
sg50
(dp242
g52
Nsg53
Nsg54
Nssg55
S'elset_wall_2_2_element_prop'
p243
sbsI38
g0
(g39
g2
Ntp244
Rp245
(dp246
g43
Nsg44
g222
sg46
(lp247
I60
aI61
aI63
aI62
asg48
I38
sg49
I00
sg50
(dp248
g52
Nsg53
Nsg54
Nssg55
S'elset_wall_2_3_element_prop'
p249
sbsI39
g0
(g39
g2
Ntp250
Rp251
(dp252
g43
Nsg44
g222
sg46
(lp253
I64
aI56
aI57
aI65
asg48
I39
sg49
I00
sg50
(dp254
g52
Nsg53
Nsg54
Nssg55
S'elset_wall_2_4_element_prop'
p255
sbsI40
g0
(g39
g2
Ntp256
Rp257
(dp258
g43
Nsg44
g222
sg46
(lp259
I65
aI57
aI60
aI66
asg48
I40
sg49
I00
sg50
(dp260
g52
Nsg53
Nsg54
Nssg55
S'elset_wall_2_5_element_prop'
p261
sbsI41
g0
(g39
g2
Ntp262
Rp263
(dp264
g43
Nsg44
g222
sg46
(lp265
I66
aI60
aI62
aI67
asg48
I41
sg49
I00
sg50
(dp266
g52
Nsg53
Nsg54
Nssg55
S'elset_wall_2_6_element_prop'
p267
sbsI42
g0
(g39
g2
Ntp268
Rp269
(dp270
g43
Nsg44
g222
sg46
(lp271
I68
aI64
aI65
aI69
asg48
I42
sg49
I00
sg50
(dp272
g52
Nsg53
Nsg54
Nssg55
S'elset_wall_2_7_element_prop'
p273
sbsI43
g0
(g39
g2
Ntp274
Rp275
(dp276
g43
Nsg44
g222
sg46
(lp277
I69
aI65
aI66
aI70
asg48
I43
sg49
I00
sg50
(dp278
g52
Nsg53
Nsg54
Nssg55
S'elset_wall_2_8_element_prop'
p279
sbsI44
g0
(g39
g2
Ntp280
Rp281
(dp282
g43
Nsg44
g222
sg46
(lp283
I70
aI66
aI67
aI71
asg48
I44
sg49
I00
sg50
(dp284
g52
Nsg53
Nsg54
Nssg55
S'elset_wall_2_9_element_prop'
p285
sbsI45
g0
(ccompas_fea.structure.element
MPCElement
p286
g2
Ntp287
Rp288
(dp289
g43
Nsg44
S'MPCElement'
p290
sg46
(lp291
I63
aI31
asg48
I45
sg49
I00
sg50
(dp292
S'ey'
p293
NsS'ez'
p294
(lp295
F4.0927261579781771e-12
aF0.0
aF599.97450487176059
asS'ex'
p296
Nssg55
S'elset_mpc_element_prop'
p297
sbsI46
g0
(g286
g2
Ntp298
Rp299
(dp300
g43
Nsg44
g290
sg46
(lp301
I61
aI23
asg48
I46
sg49
I00
sg50
(dp302
S'ey'
p303
NsS'ez'
p304
(lp305
F3.637978807091713e-12
aF0.0
aF599.97450487176059
asS'ex'
p306
Nssg55
g297
sbsI47
g0
(g286
g2
Ntp307
Rp308
(dp309
g43
Nsg44
g290
sg46
(lp310
I59
aI15
asg48
I47
sg49
I00
sg50
(dp311
g303
Nsg304
(lp312
F1.8189894035458565e-12
aF0.0
aF599.97450487176059
asg306
Nssg55
g297
sbsI48
g0
(g286
g2
Ntp313
Rp314
(dp315
g43
Nsg44
g290
sg46
(lp316
I58
aI14
asg48
I48
sg49
I00
sg50
(dp317
g303
Nsg304
(lp318
F0.0
aF0.0
aF599.97450487176059
asg306
Nssg55
g297
sbsI49
g0
(g286
g2
Ntp319
Rp320
(dp321
g43
Nsg44
g290
sg46
(lp322
I47
aI24
asg48
I49
sg49
I00
sg50
(dp323
g303
Nsg304
(lp324
F4.0927261579781771e-12
aF0.0
aF599.97450487176059
asg306
Nssg55
g297
sbsI50
g0
(g286
g2
Ntp325
Rp326
(dp327
g43
Nsg44
g290
sg46
(lp328
I45
aI16
asg48
I50
sg49
I00
sg50
(dp329
g303
Nsg304
(lp330
F3.637978807091713e-12
aF0.0
aF599.97450487176059
asg306
Nssg55
g297
sbsI51
g0
(g286
g2
Ntp331
Rp332
(dp333
g43
Nsg44
g290
sg46
(lp334
I43
aI1
asg48
I51
sg49
I00
sg50
(dp335
g303
Nsg304
(lp336
F1.8189894035458565e-12
aF0.0
aF599.97450487176059
asg306
Nssg55
g297
sbsI52
g0
(g286
g2
Ntp337
Rp338
(dp339
g43
Nsg44
g290
sg46
(lp340
I42
aI0
asg48
I52
sg49
I00
sg50
(dp341
g303
Nsg304
(lp342
F0.0
aF0.0
aF599.97450487176059
asg306
Nssg55
g297
sbssS'element_index'
p343
(dp344
S'2026.504,0.000,-1722.558'
p345
I31
sS'3397.976,13627.827,-2474.690'
p346
I44
sS'4093.947,0.000,-299.987'
p347
I49
sS'675.501,0.000,-970.427'
p348
I27
sS'675.501,3747.652,0.000'
p349
I2
sS'2026.504,9880.175,0.000'
p350
I9
sS'675.501,2248.591,0.000'
p351
I1
sS'4093.947,13627.827,-299.987'
p352
I45
sS'2026.504,12878.297,0.000'
p353
I11
sS'3397.976,6813.914,0.000'
p354
I25
sS'3397.976,2248.591,0.000'
p355
I13
sS'2026.504,0.000,-2474.690'
p356
I34
sS'675.501,5269.427,0.000'
p357
I18
sS'3397.976,13627.827,-970.427'
p358
I38
sS'675.501,6813.914,0.000'
p359
I19
sS'675.501,13627.827,-2474.690'
p360
I42
sS'675.501,0.000,-1722.558'
p361
I30
sS'1351.003,13627.827,-299.987'
p362
I47
sS'0.000,0.000,-299.987'
p363
I52
sS'0.000,13627.827,-299.987'
p364
I48
sS'2702.005,13627.827,-299.987'
p365
I46
sS'2702.005,0.000,-299.987'
p366
I50
sS'3397.976,11379.236,0.000'
p367
I16
sS'2026.504,8358.401,0.000'
p368
I23
sS'2026.504,13627.827,-970.427'
p369
I37
sS'2026.504,0.000,-970.427'
p370
I28
sS'675.501,9880.175,0.000'
p371
I3
sS'675.501,8358.401,0.000'
p372
I20
sS'2026.504,13627.827,-1722.558'
p373
I40
sS'3397.976,0.000,-1722.558'
p374
I32
sS'3397.976,0.000,-970.427'
p375
I29
sS'675.501,0.000,-2474.690'
p376
I33
sS'3397.976,749.530,0.000'
p377
I12
sS'2026.504,3747.652,0.000'
p378
I8
sS'675.501,12878.297,0.000'
p379
I5
sS'3397.976,13627.827,-1722.558'
p380
I41
sS'2026.504,11379.236,0.000'
p381
I10
sS'3397.976,9880.175,0.000'
p382
I15
sS'2026.504,6813.914,0.000'
p383
I22
sS'2026.504,5269.427,0.000'
p384
I21
sS'3397.976,0.000,-2474.690'
p385
I35
sS'675.501,13627.827,-970.427'
p386
I36
sS'3397.976,8358.401,0.000'
p387
I26
sS'675.501,13627.827,-1722.558'
p388
I39
sS'3397.976,12878.297,0.000'
p389
I17
sS'675.501,11379.236,0.000'
p390
I4
sS'675.501,749.530,0.000'
p391
I0
sS'1351.003,0.000,-299.987'
p392
I51
sS'3397.976,3747.652,0.000'
p393
I14
sS'2026.504,13627.827,-2474.690'
p394
I43
sS'2026.504,749.530,0.000'
p395
I6
sS'2026.504,2248.591,0.000'
p396
I7
sS'3397.976,5269.427,0.000'
p397
I24
ssS'element_properties'
p398
(dp399
g255
g0
(ccompas_fea.structure.element_properties
ElementProperties
p400
g2
Ntp401
Rp402
(dp403
g15
I21
sS'__name__'
p404
S'ElementProperties'
p405
sS'name'
p406
g255
sS'material'
p407
S'wall_element_mat'
p408
sS'section'
p409
S'wall2_element_sec'
p410
sS'elset'
p411
S'elset_wall_2_4'
p412
sS'elements'
p413
NsS'rebar'
p414
(dp415
sbsg188
g0
(g400
g2
Ntp416
Rp417
(dp418
g15
I10
sg404
g405
sg406
g188
sg407
g408
sg409
S'wall1_element_sec'
p419
sg411
S'elset_wall_1_2'
p420
sg413
Nsg414
g415
sbsg225
g0
(g400
g2
Ntp421
Rp422
(dp423
g15
I16
sg404
g405
sg406
g225
sg407
g408
sg409
g419
sg411
S'elset_wall_1_8'
p424
sg413
Nsg414
g415
sbsg243
g0
(g400
g2
Ntp425
Rp426
(dp427
g15
I19
sg404
g405
sg406
g243
sg407
g408
sg409
g410
sg411
S'elset_wall_2_2'
p428
sg413
Nsg414
g415
sbsg56
g0
(g400
g2
Ntp429
Rp430
(dp431
g15
I0
sg404
g405
sg406
g56
sg407
S'plate_element_mat'
p432
sg409
S'plate_element_sec'
p433
sg411
S'elset_plate_1'
p434
sg413
Nsg414
g415
sbsg261
g0
(g400
g2
Ntp435
Rp436
(dp437
g15
I22
sg404
g405
sg406
g261
sg407
g408
sg409
g410
sg411
S'elset_wall_2_5'
p438
sg413
Nsg414
g415
sbsg168
g0
(g400
g2
Ntp439
Rp440
(dp441
g15
I8
sg404
g405
sg406
g168
sg407
g432
sg409
g433
sg411
S'elset_plate_9'
p442
sg413
Nsg414
g415
sbsg212
g0
(g400
g2
Ntp443
Rp444
(dp445
g15
I14
sg404
g405
sg406
g212
sg407
g408
sg409
g419
sg411
S'elset_wall_1_6'
p446
sg413
Nsg414
g415
sbsg112
g0
(g400
g2
Ntp447
Rp448
(dp449
g15
I4
sg404
g405
sg406
g112
sg407
g432
sg409
g433
sg411
S'elset_plate_5'
p450
sg413
Nsg414
g415
sbsg194
g0
(g400
g2
Ntp451
Rp452
(dp453
g15
I11
sg404
g405
sg406
g194
sg407
g408
sg409
g419
sg411
S'elset_wall_1_3'
p454
sg413
Nsg414
g415
sbsg84
g0
(g400
g2
Ntp455
Rp456
(dp457
g15
I2
sg404
g405
sg406
g84
sg407
g432
sg409
g433
sg411
S'elset_plate_3'
p458
sg413
Nsg414
g415
sbsg249
g0
(g400
g2
Ntp459
Rp460
(dp461
g15
I20
sg404
g405
sg406
g249
sg407
g408
sg409
g410
sg411
S'elset_wall_2_3'
p462
sg413
Nsg414
g415
sbsg267
g0
(g400
g2
Ntp463
Rp464
(dp465
g15
I23
sg404
g405
sg406
g267
sg407
g408
sg409
g410
sg411
S'elset_wall_2_6'
p466
sg413
Nsg414
g415
sbsg200
g0
(g400
g2
Ntp467
Rp468
(dp469
g15
I12
sg404
g405
sg406
g200
sg407
g408
sg409
g419
sg411
S'elset_wall_1_4'
p470
sg413
Nsg414
g415
sbsg231
g0
(g400
g2
Ntp471
Rp472
(dp473
g15
I17
sg404
g405
sg406
g231
sg407
g408
sg409
g419
sg411
S'elset_wall_1_9'
p474
sg413
Nsg414
g415
sbsg154
g0
(g400
g2
Ntp475
Rp476
(dp477
g15
I7
sg404
g405
sg406
g154
sg407
g432
sg409
g433
sg411
S'elset_plate_8'
p478
sg413
Nsg414
g415
sbsg182
g0
(g400
g2
Ntp479
Rp480
(dp481
g15
I9
sg404
g405
sg406
g182
sg407
g408
sg409
g419
sg411
S'elset_wall_1_1'
p482
sg413
Nsg414
g415
sbsg140
g0
(g400
g2
Ntp483
Rp484
(dp485
g15
I6
sg404
g405
sg406
g140
sg407
g432
sg409
g433
sg411
S'elset_plate_7'
p486
sg413
Nsg414
g415
sbsg279
g0
(g400
g2
Ntp487
Rp488
(dp489
g15
I25
sg404
g405
sg406
g279
sg407
g408
sg409
g410
sg411
S'elset_wall_2_8'
p490
sg413
Nsg414
g415
sbsg98
g0
(g400
g2
Ntp491
Rp492
(dp493
g15
I3
sg404
g405
sg406
g98
sg407
g432
sg409
g433
sg411
S'elset_plate_4'
p494
sg413
Nsg414
g415
sbsg70
g0
(g400
g2
Ntp495
Rp496
(dp497
g15
I1
sg404
g405
sg406
g70
sg407
g432
sg409
g433
sg411
S'elset_plate_2'
p498
sg413
Nsg414
g415
sbsg297
g0
(g400
g2
Ntp499
Rp500
(dp501
g15
I27
sg404
g405
sg406
g297
sg407
S'elset_mpc_element_mat'
p502
sg409
S'sec_mpc'
p503
sg411
S'elset_mpcs'
p504
sg413
Nsg414
g415
sbsg218
g0
(g400
g2
Ntp505
Rp506
(dp507
g15
I15
sg404
g405
sg406
g218
sg407
g408
sg409
g419
sg411
S'elset_wall_1_7'
p508
sg413
Nsg414
g415
sbsg273
g0
(g400
g2
Ntp509
Rp510
(dp511
g15
I24
sg404
g405
sg406
g273
sg407
g408
sg409
g410
sg411
S'elset_wall_2_7'
p512
sg413
Nsg414
g415
sbsg285
g0
(g400
g2
Ntp513
Rp514
(dp515
g15
I26
sg404
g405
sg406
g285
sg407
g408
sg409
g410
sg411
S'elset_wall_2_9'
p516
sg413
Nsg414
g415
sbsg237
g0
(g400
g2
Ntp517
Rp518
(dp519
g15
I18
sg404
g405
sg406
g237
sg407
g408
sg409
g410
sg411
S'elset_wall_2_1'
p520
sg413
Nsg414
g415
sbsg126
g0
(g400
g2
Ntp521
Rp522
(dp523
g15
I5
sg404
g405
sg406
g126
sg407
g432
sg409
g433
sg411
S'elset_plate_6'
p524
sg413
Nsg414
g415
sbsg206
g0
(g400
g2
Ntp525
Rp526
(dp527
g15
I13
sg404
g405
sg406
g206
sg407
g408
sg409
g419
sg411
S'elset_wall_1_5'
p528
sg413
Nsg414
g415
sbssS'interactions'
p529
(dp530
sS'loads'
p531
(dp532
S'earthPressure_liveLoad'
p533
g0
(ccompas_fea.structure.load
AreaLoad
p534
g2
Ntp535
Rp536
(dp537
g15
I9
sS'__name__'
p538
S'AreaLoad'
p539
sS'name'
p540
g533
sS'axes'
p541
S'local'
p542
sS'components'
p543
(dp544
S'z'
p545
F0.037699999999999997
sS'y'
p546
I0
sS'x'
p547
I0
ssS'nodes'
p548
(lp549
sS'elements'
p550
(lp551
I29
aI30
aI32
aI33
aI35
aI36
asS'attr_list'
p552
(lp553
S'name'
p554
aS'axes'
p555
aS'components'
p556
aS'nodes'
p557
aS'elements'
p558
asbsS'Gleis1_BAHNLASTEN_Lasteinzugsflache_Lastblock_-2'
p559
g0
(g534
g2
Ntp560
Rp561
(dp562
g15
I8
sg538
g539
sg540
g559
sg541
S'global'
p563
sg543
(dp564
g545
F0.085939367827606403
sg546
I0
sg547
I0
ssg548
g549
sg550
(lp565
I7
aI13
asg552
(lp566
g554
ag555
ag556
ag557
ag558
asbsS'Gleis1_EIGENGEWICHTE_SCHIENE_Lasteinzugsflache'
p567
g0
(g534
g2
Ntp568
Rp569
(dp570
g15
I3
sg538
g539
sg540
g567
sg541
S'global'
p571
sg543
(dp572
g545
F0.0024375172624486645
sg546
I0
sg547
I0
ssg548
g549
sg550
(lp573
I7
aI8
aI9
aI10
aI11
aI12
aI13
aI14
aI15
aI16
aI17
aI18
aI22
aI23
aI24
aI25
aI26
aI27
asg552
(lp574
g554
ag555
ag556
ag557
ag558
asbsS'earthPressure_backfill'
p575
g0
(g534
g2
Ntp576
Rp577
(dp578
g15
I2
sg538
g539
sg540
g575
sg541
S'local'
p579
sg543
(dp580
g545
F0.041444366080120573
sg546
I0
sg547
I0
ssg548
g549
sg550
(lp581
g482
ag420
ag454
ag470
ag528
ag446
ag508
ag424
ag474
ag520
ag428
ag462
ag412
ag438
ag466
ag512
ag490
ag516
asg552
(lp582
g554
ag555
ag556
ag557
ag558
asbsS'Gleis1_BAHNLASTEN_Lasteinzugsflache_Lastblock_2'
p583
g0
(g534
g2
Ntp584
Rp585
(dp586
g15
I5
sg538
g539
sg540
g583
sg541
g563
sg543
(dp587
g545
F0.085939367827606403
sg546
I0
sg547
I0
ssg548
g549
sg550
(lp588
I10
aI16
asg552
(lp589
g554
ag555
ag556
ag557
ag558
asbsS'earthPressure_gravel'
p590
g0
(g534
g2
Ntp591
Rp592
(dp593
g15
I1
sg538
g539
sg540
g590
sg541
S'global'
p594
sg543
(dp595
g545
F0.013500000000000002
sg546
I0
sg547
I0
ssg548
g549
sg550
(lp596
g434
ag498
ag458
ag494
ag450
ag524
ag486
ag478
ag442
asg552
(lp597
g554
ag555
ag556
ag557
ag558
asbsS'Gleis1_BAHNLASTEN_Lasteinzugsflache_Lastblock_3'
p598
g0
(g534
g2
Ntp599
Rp600
(dp601
g15
I6
sg538
g539
sg540
g598
sg541
g563
sg543
(dp602
g545
F0.085939367827606403
sg546
I0
sg547
I0
ssg548
g549
sg550
(lp603
I11
aI17
asg552
(lp604
g554
ag555
ag556
ag557
ag558
asbsS'Gleis1_BAHNLASTEN_Lasteinzugsflache_Lastblock_1'
p605
g0
(g534
g2
Ntp606
Rp607
(dp608
g15
I4
sg538
g539
sg540
g605
sg541
g563
sg543
(dp609
g545
F0.085939367827606403
sg546
I0
sg547
I0
ssg548
g549
sg550
(lp610
I23
aI26
asg552
(lp611
g554
ag555
ag556
ag557
ag558
asbsS'load_gravity'
p612
g0
(ccompas_fea.structure.load
GravityLoad
p613
g2
Ntp614
Rp615
(dp616
g15
I0
sg538
S'GravityLoad'
p617
sg540
g612
sg541
S'global'
p618
sg543
(dp619
S'z'
p620
F1.3500000000000001
sS'y'
p621
F0.0
sS'x'
p622
F0.0
ssg548
g549
sg550
(lp623
g434
ag498
ag458
ag494
ag450
ag524
ag486
ag478
ag442
ag482
ag420
ag454
ag470
ag528
ag446
ag508
ag424
ag474
ag520
ag428
ag462
ag412
ag438
ag466
ag512
ag490
ag516
asg552
(lp624
g554
ag555
ag556
ag557
ag558
aS'g'
p625
asS'g'
p626
F-9.8100000000000005
sbsS'Gleis1_BAHNLASTEN_Lasteinzugsflache_Lastblock_-1'
p627
g0
(g534
g2
Ntp628
Rp629
(dp630
g15
I7
sg538
g539
sg540
g627
sg541
g563
sg543
(dp631
g545
F0.085939367827606403
sg546
I0
sg547
I0
ssg548
g549
sg550
(lp632
I22
aI25
asg552
(lp633
g554
ag555
ag556
ag557
ag558
asbssS'materials'
p634
(dp635
S'elset_mpc_element_mat'
p636
g0
(ccompas_fea.structure.material
MPCStiff
p637
g2
Ntp638
Rp639
(dp640
g15
I2
sS'__name__'
p641
S'MPCStiff'
p642
sS'name'
p643
g636
sS'attr_list'
p644
(lp645
S'name'
p646
aS'E'
p647
aS'v'
p648
aS'G'
p649
aS'p'
p650
aS'tension'
p651
aS'compression'
p652
asS'E'
p653
(dp654
S'E'
p655
L10000000000000L
ssS'v'
p656
(dp657
S'v'
p658
F0.29999999999999999
ssS'G'
p659
(dp660
S'G'
p661
F3846153846153.8462
ssS'p'
p662
F0.10000000000000001
sS'tension'
p663
I01
sS'compression'
p664
I01
sbsg408
g0
(ccompas_fea.structure.material
CMMUsermat
p665
g2
Ntp666
Rp667
(dp668
g15
I1
sg641
S'CMMUsermat'
p669
sg643
g408
sg644
(lp670
g646
aS'E'
p671
aS'v'
p672
aS'G'
p673
aS'p'
p674
aS'R_Rohr'
p675
aS'rho'
p676
aS'oo'
p677
aS'uu'
p678
aS'beton'
p679
aS'fcc'
p680
aS'vc'
p681
aS'ecu'
p682
aS'k_E'
p683
aS'theta_b0'
p684
aS'theta_b1'
p685
aS'k_riss'
p686
aS'Entfestigung'
p687
aS'lambdaTS'
p688
aS'srmx'
p689
aS'srmy'
p690
aS'Begrenzung'
p691
aS'KritQ'
p692
aS'winkelD'
p693
aS'k_vr'
p694
aS'fswy'
p695
aS'stahl1'
p696
aS'zm1'
p697
aS'fsy1'
p698
aS'fsu1'
p699
aS'esu1'
p700
aS'esv1'
p701
aS'Es1'
p702
aS'ka1'
p703
aS'kb1'
p704
aS'kc1'
p705
aS'as1'
p706
aS'dm1'
p707
aS'psi1'
p708
aS'stahl2'
p709
aS'zm2'
p710
aS'fsy2'
p711
aS'fsu2'
p712
aS'esu2'
p713
aS'esv2'
p714
aS'Es2'
p715
aS'ka2'
p716
aS'kb2'
p717
aS'kc2'
p718
aS'as2'
p719
aS'dm2'
p720
aS'psi2'
p721
aS'stahl3'
p722
aS'zm3'
p723
aS'fsy3'
p724
aS'fsu3'
p725
aS'esu3'
p726
aS'esv3'
p727
aS'Es3'
p728
aS'ka3'
p729
aS'kb3'
p730
aS'kc3'
p731
aS'as3'
p732
aS'dm3'
p733
aS'psi3'
p734
aS'stahl4'
p735
aS'zm4'
p736
aS'fsy4'
p737
aS'fsu4'
p738
aS'esu4'
p739
aS'esv4'
p740
aS'Es4'
p741
aS'ka4'
p742
aS'kb4'
p743
aS'kc4'
p744
aS'as4'
p745
aS'dm4'
p746
aS'psi4'
p747
asS'E'
p748
(dp749
S'E'
p750
I200000
ssS'v'
p751
(dp752
S'v'
p753
F0.10000000000000001
ssS'G'
p754
(dp755
S'G'
p756
F90909.090909090897
ssS'p'
p757
F2.5000000000000002e-06
sS'R_Rohr'
p758
(dp759
S'R_Rohr'
p760
I-1
ssS'rho'
p761
(dp762
S'rho'
p763
F2.5000000000000002e-06
ssS'oo'
p764
(dp765
S'oo'
p766
I30
ssS'uu'
p767
(dp768
S'uu'
p769
I30
ssS'beton'
p770
(dp771
S'beton'
p772
I2
ssS'fcc'
p773
(dp774
S'fcc'
p775
I33
ssS'vc'
p776
(dp777
S'vc'
p778
I0
ssS'ecu'
p779
(dp780
S'ecu'
p781
F-0.002
ssS'k_E'
p782
(dp783
S'k_E'
p784
I10000
ssS'theta_b0'
p785
(dp786
S'theta_b0'
p787
I2
ssS'theta_b1'
p788
(dp789
S'theta_b1'
p790
I1
ssS'k_riss'
p791
(dp792
S'k_riss'
p793
I0
ssS'Entfestigung'
p794
(dp795
S'Entfestigung'
p796
I0
ssS'lambdaTS'
p797
(dp798
S'lambdaTS'
p799
F0.67000000000000004
ssS'srmx'
p800
(dp801
S'srmx'
p802
I1
ssS'srmy'
p803
(dp804
S'srmy'
p805
I1
ssS'Begrenzung'
p806
(dp807
S'Begrenzung'
p808
I2
ssS'KritQ'
p809
(dp810
S'KritQ'
p811
I0
ssS'winkelD'
p812
(dp813
S'winkelD'
p814
I45
ssS'k_vr'
p815
(dp816
S'k_vr'
p817
I1
ssS'fswy'
p818
(dp819
S'fswy'
p820
I500
ssS'stahl1'
p821
(dp822
S'stahl1'
p823
I1
ssS'zm1'
p824
(dp825
S'zm1'
p826
I2
ssS'fsy1'
p827
(dp828
S'fsy1'
p829
I318
ssS'fsu1'
p830
(dp831
S'fsu1'
p832
I343
ssS'esu1'
p833
(dp834
S'esu1'
p835
F0.044999999999999998
ssS'esv1'
p836
(dp837
S'esv1'
p838
F0.02
ssS'Es1'
p839
(dp840
S'Es1'
p841
I200000
ssS'ka1'
p842
(dp843
S'ka1'
p844
I-1
ssS'kb1'
p845
(dp846
S'kb1'
p847
I-1
ssS'kc1'
p848
(dp849
S'kc1'
p850
I-1
ssS'as1'
p851
(dp852
S'as1'
p853
F1.1954995989055128
ssS'dm1'
p854
(dp855
S'dm1'
p856
F27.373219072053679
ssS'psi1'
p857
(dp858
S'psi1'
p859
I90
ssS'stahl2'
p860
(dp861
S'stahl2'
p862
I1
ssS'zm2'
p863
(dp864
S'zm2'
p865
I2
ssS'fsy2'
p866
(dp867
S'fsy2'
p868
I318
ssS'fsu2'
p869
(dp870
S'fsu2'
p871
I343
ssS'esu2'
p872
(dp873
S'esu2'
p874
F0.044999999999999998
ssS'esv2'
p875
(dp876
S'esv2'
p877
F0.02
ssS'Es2'
p878
(dp879
S'Es2'
p880
I200000
ssS'ka2'
p881
(dp882
S'ka2'
p883
I-1
ssS'kb2'
p884
(dp885
S'kb2'
p886
I-1
ssS'kc2'
p887
(dp888
S'kc2'
p889
I-1
ssS'as2'
p890
(dp891
S'as2'
p892
F0.22975246549528136
ssS'dm2'
p893
(dp894
S'dm2'
p895
F12.0
ssS'psi2'
p896
(dp897
S'psi2'
p898
I0
ssS'stahl3'
p899
(dp900
S'stahl3'
p901
I1
ssS'zm3'
p902
(dp903
S'zm3'
p904
I2
ssS'fsy3'
p905
(dp906
S'fsy3'
p907
I318
ssS'fsu3'
p908
(dp909
S'fsu3'
p910
I343
ssS'esu3'
p911
(dp912
S'esu3'
p913
F0.044999999999999998
ssS'esv3'
p914
(dp915
S'esv3'
p916
F0.02
ssS'Es3'
p917
(dp918
S'Es3'
p919
I200000
ssS'ka3'
p920
(dp921
S'ka3'
p922
I-1
ssS'kb3'
p923
(dp924
S'kb3'
p925
I-1
ssS'kc3'
p926
(dp927
S'kc3'
p928
I-1
ssS'as3'
p929
(dp930
S'as3'
p931
F0.22975246549528136
ssS'dm3'
p932
(dp933
S'dm3'
p934
F12.0
ssS'psi3'
p935
(dp936
S'psi3'
p937
I0
ssS'stahl4'
p938
(dp939
S'stahl4'
p940
I1
ssS'zm4'
p941
(dp942
S'zm4'
p943
I2
ssS'fsy4'
p944
(dp945
S'fsy4'
p946
I318
ssS'fsu4'
p947
(dp948
S'fsu4'
p949
I343
ssS'esu4'
p950
(dp951
S'esu4'
p952
F0.044999999999999998
ssS'esv4'
p953
(dp954
S'esv4'
p955
F0.02
ssS'Es4'
p956
(dp957
S'Es4'
p958
I200000
ssS'ka4'
p959
(dp960
S'ka4'
p961
I-1
ssS'kb4'
p962
(dp963
S'kb4'
p964
I-1
ssS'kc4'
p965
(dp966
S'kc4'
p967
I-1
ssS'as4'
p968
(dp969
S'as4'
p970
F0.90304420489941184
ssS'dm4'
p971
(dp972
S'dm4'
p973
F23.790614553058642
ssS'psi4'
p974
(dp975
S'psi4'
p976
I90
ssbsg432
g0
(g665
g2
Ntp977
Rp978
(dp979
g15
I0
sg641
g669
sg643
g432
sg644
(lp980
g646
ag671
ag672
ag673
ag674
ag675
ag676
ag677
ag678
ag679
ag680
ag681
ag682
ag683
ag684
ag685
ag686
ag687
ag688
ag689
ag690
ag691
ag692
ag693
ag694
ag695
ag696
ag697
ag698
ag699
ag700
ag701
ag702
ag703
ag704
ag705
ag706
ag707
ag708
ag709
ag710
ag711
ag712
ag713
ag714
ag715
ag716
ag717
ag718
ag719
ag720
ag721
ag722
ag723
ag724
ag725
ag726
ag727
ag728
ag729
ag730
ag731
ag732
ag733
ag734
ag735
ag736
ag737
ag738
ag739
ag740
ag741
ag742
ag743
ag744
ag745
ag746
ag747
asg748
(dp981
g750
I200000
ssg751
(dp982
g753
F0.10000000000000001
ssg754
(dp983
g756
F90909.090909090897
ssg757
F2.5000000000000002e-06
sg758
(dp984
g760
I-1
ssg761
(dp985
g763
F2.5000000000000002e-06
ssg764
(dp986
g766
I30
ssg767
(dp987
g769
I30
ssg770
(dp988
g772
I2
ssg773
(dp989
g775
I33
ssg776
(dp990
g778
I0
ssg779
(dp991
g781
F-0.002
ssg782
(dp992
g784
I10000
ssg785
(dp993
g787
I2
ssg788
(dp994
g790
I1
ssg791
(dp995
g793
I0
ssg794
(dp996
g796
I0
ssg797
(dp997
g799
F0.67000000000000004
ssg800
(dp998
g802
I1
ssg803
(dp999
g805
I1
ssg806
(dp1000
g808
I2
ssg809
(dp1001
g811
I0
ssg812
(dp1002
g814
I45
ssg815
(dp1003
g817
I1
ssg818
(dp1004
g820
I500
ssg821
(dp1005
g823
I1
ssg824
(dp1006
g826
I2
ssg827
(dp1007
g829
I318
ssg830
(dp1008
g832
I343
ssg833
(dp1009
g835
F0.044999999999999998
ssg836
(dp1010
g838
F0.02
ssg839
(dp1011
g841
I200000
ssg842
(dp1012
g844
I-1
ssg845
(dp1013
g847
I-1
ssg848
(dp1014
g850
I-1
ssg851
(dp1015
g853
F1.276188395953501
ssg854
(dp1016
g856
F25.990901623777908
ssg857
(dp1017
g859
I90
ssg860
(dp1018
g862
I1
ssg863
(dp1019
g865
I2
ssg866
(dp1020
g868
I318
ssg869
(dp1021
g871
I343
ssg872
(dp1022
g874
F0.044999999999999998
ssg875
(dp1023
g877
F0.02
ssg878
(dp1024
g880
I200000
ssg881
(dp1025
g883
I-1
ssg884
(dp1026
g886
I-1
ssg887
(dp1027
g889
I-1
ssg890
(dp1028
g892
F0.19136621796376629
ssg893
(dp1029
g895
F10.064601561294099
ssg896
(dp1030
g898
I0
ssg899
(dp1031
g901
I1
ssg902
(dp1032
g904
I2
ssg905
(dp1033
g907
I318
ssg908
(dp1034
g910
I343
ssg911
(dp1035
g913
F0.044999999999999998
ssg914
(dp1036
g916
F0.02
ssg917
(dp1037
g919
I200000
ssg920
(dp1038
g922
I-1
ssg923
(dp1039
g925
I-1
ssg926
(dp1040
g928
I-1
ssg929
(dp1041
g931
F0.27204114407811364
ssg932
(dp1042
g934
F12.0
ssg935
(dp1043
g937
I0
ssg938
(dp1044
g940
I1
ssg941
(dp1045
g943
I2
ssg944
(dp1046
g946
I318
ssg947
(dp1047
g949
I343
ssg950
(dp1048
g952
F0.044999999999999998
ssg953
(dp1049
g955
F0.02
ssg956
(dp1050
g958
I200000
ssg959
(dp1051
g961
I-1
ssg962
(dp1052
g964
I-1
ssg965
(dp1053
g967
I-1
ssg968
(dp1054
g970
F0.28818439704314192
ssg971
(dp1055
g973
F12.35091638140478
ssg974
(dp1056
g976
I90
ssbssS'misc'
p1057
(dp1058
sS'name'
p1059
S'NLFE_CFB1'
p1060
sS'nodes'
p1061
(dp1062
I0
g0
(ccompas_fea.structure.node
Node
p1063
g2
Ntp1064
Rp1065
(dp1066
S'__name__'
p1067
S'Node'
p1068
sS'key'
p1069
I0
sS'x'
p1070
F0.0
sS'y'
p1071
F0.0
sS'z'
p1072
F0.0
sS'ex'
p1073
(lp1074
I1
aI0
aI0
asS'ey'
p1075
(lp1076
I0
aI1
aI0
asS'ez'
p1077
(lp1078
I0
aI0
aI1
asS'mass'
p1079
NsbsI1
g0
(g1063
g2
Ntp1080
Rp1081
(dp1082
g1067
g1068
sg1069
I1
sg1070
F1351.0026577409519
sg1071
F0.0
sg1072
F0.0
sg1073
g1074
sg1075
g1076
sg1077
g1078
sg1079
NsbsI2
g0
(g1063
g2
Ntp1083
Rp1084
(dp1085
g1067
g1068
sg1069
I2
sg1070
F0.0
sg1071
F1499.0609999372111
sg1072
F0.0
sg1073
g1074
sg1075
g1076
sg1077
g1078
sg1079
NsbsI3
g0
(g1063
g2
Ntp1086
Rp1087
(dp1088
g1067
g1068
sg1069
I3
sg1070
F1351.0026577409521
sg1071
F1499.0609999372111
sg1072
F0.0
sg1073
g1074
sg1075
g1076
sg1077
g1078
sg1079
NsbsI4
g0
(g1063
g2
Ntp1089
Rp1090
(dp1091
g1067
g1068
sg1069
I4
sg1070
F0.0
sg1071
F2998.1219998744223
sg1072
F0.0
sg1073
g1074
sg1075
g1076
sg1077
g1078
sg1079
NsbsI5
g0
(g1063
g2
Ntp1092
Rp1093
(dp1094
g1067
g1068
sg1069
I5
sg1070
F1351.0026577409519
sg1071
F2998.1219998744223
sg1072
F0.0
sg1073
g1074
sg1075
g1076
sg1077
g1078
sg1079
NsbsI6
g0
(g1063
g2
Ntp1095
Rp1096
(dp1097
g1067
g1068
sg1069
I6
sg1070
F0.0
sg1071
F4497.1829998116336
sg1072
F0.0
sg1073
g1074
sg1075
g1076
sg1077
g1078
sg1079
NsbsI7
g0
(g1063
g2
Ntp1098
Rp1099
(dp1100
g1067
g1068
sg1069
I7
sg1070
F1351.0026577409519
sg1071
F4497.1829998116336
sg1072
F0.0
sg1073
g1074
sg1075
g1076
sg1077
g1078
sg1079
NsbsI8
g0
(g1063
g2
Ntp1101
Rp1102
(dp1103
g1067
g1068
sg1069
I8
sg1070
F0.0
sg1071
F9130.6442723448326
sg1072
F0.0
sg1073
g1074
sg1075
g1076
sg1077
g1078
sg1079
NsbsI9
g0
(g1063
g2
Ntp1104
Rp1105
(dp1106
g1067
g1068
sg1069
I9
sg1070
F1351.0026577409519
sg1071
F9130.6442723448326
sg1072
F0.0
sg1073
g1074
sg1075
g1076
sg1077
g1078
sg1079
NsbsI10
g0
(g1063
g2
Ntp1107
Rp1108
(dp1109
g1067
g1068
sg1069
I10
sg1070
F0.0
sg1071
F10629.705272282044
sg1072
F0.0
sg1073
g1074
sg1075
g1076
sg1077
g1078
sg1079
NsbsI11
g0
(g1063
g2
Ntp1110
Rp1111
(dp1112
g1067
g1068
sg1069
I11
sg1070
F1351.0026577409521
sg1071
F10629.705272282044
sg1072
F0.0
sg1073
g1074
sg1075
g1076
sg1077
g1078
sg1079
NsbsI12
g0
(g1063
g2
Ntp1113
Rp1114
(dp1115
g1067
g1068
sg1069
I12
sg1070
F0.0
sg1071
F12128.766272219254
sg1072
F0.0
sg1073
g1074
sg1075
g1076
sg1077
g1078
sg1079
NsbsI13
g0
(g1063
g2
Ntp1116
Rp1117
(dp1118
g1067
g1068
sg1069
I13
sg1070
F1351.0026577409519
sg1071
F12128.766272219254
sg1072
F0.0
sg1073
g1074
sg1075
g1076
sg1077
g1078
sg1079
NsbsI14
g0
(g1063
g2
Ntp1119
Rp1120
(dp1121
g1067
g1068
sg1069
I14
sg1070
F0.0
sg1071
F13627.827272156466
sg1072
F0.0
sg1073
g1074
sg1075
g1076
sg1077
g1078
sg1079
NsbsI15
g0
(g1063
g2
Ntp1122
Rp1123
(dp1124
g1067
g1068
sg1069
I15
sg1070
F1351.0026577409519
sg1071
F13627.827272156466
sg1072
F0.0
sg1073
g1074
sg1075
g1076
sg1077
g1078
sg1079
NsbsI16
g0
(g1063
g2
Ntp1125
Rp1126
(dp1127
g1067
g1068
sg1069
I16
sg1070
F2702.0053154819038
sg1071
F0.0
sg1072
F0.0
sg1073
g1074
sg1075
g1076
sg1077
g1078
sg1079
NsbsI17
g0
(g1063
g2
Ntp1128
Rp1129
(dp1130
g1067
g1068
sg1069
I17
sg1070
F2702.0053154819043
sg1071
F1499.0609999372111
sg1072
F0.0
sg1073
g1074
sg1075
g1076
sg1077
g1078
sg1079
NsbsI18
g0
(g1063
g2
Ntp1131
Rp1132
(dp1133
g1067
g1068
sg1069
I18
sg1070
F2702.0053154819038
sg1071
F2998.1219998744223
sg1072
F0.0
sg1073
g1074
sg1075
g1076
sg1077
g1078
sg1079
NsbsI19
g0
(g1063
g2
Ntp1134
Rp1135
(dp1136
g1067
g1068
sg1069
I19
sg1070
F2702.0053154819038
sg1071
F4497.1829998116336
sg1072
F0.0
sg1073
g1074
sg1075
g1076
sg1077
g1078
sg1079
NsbsI20
g0
(g1063
g2
Ntp1137
Rp1138
(dp1139
g1067
g1068
sg1069
I20
sg1070
F2702.0053154819038
sg1071
F9130.6442723448326
sg1072
F0.0
sg1073
g1074
sg1075
g1076
sg1077
g1078
sg1079
NsbsI21
g0
(g1063
g2
Ntp1140
Rp1141
(dp1142
g1067
g1068
sg1069
I21
sg1070
F2702.0053154819043
sg1071
F10629.705272282044
sg1072
F0.0
sg1073
g1074
sg1075
g1076
sg1077
g1078
sg1079
NsbsI22
g0
(g1063
g2
Ntp1143
Rp1144
(dp1145
g1067
g1068
sg1069
I22
sg1070
F2702.0053154819038
sg1071
F12128.766272219254
sg1072
F0.0
sg1073
g1074
sg1075
g1076
sg1077
g1078
sg1079
NsbsI23
g0
(g1063
g2
Ntp1146
Rp1147
(dp1148
g1067
g1068
sg1069
I23
sg1070
F2702.0053154819038
sg1071
F13627.827272156466
sg1072
F0.0
sg1073
g1074
sg1075
g1076
sg1077
g1078
sg1079
NsbsI24
g0
(g1063
g2
Ntp1149
Rp1150
(dp1151
g1067
g1068
sg1069
I24
sg1070
F4093.9474476998539
sg1071
F0.0
sg1072
F0.0
sg1073
g1074
sg1075
g1076
sg1077
g1078
sg1079
NsbsI25
g0
(g1063
g2
Ntp1152
Rp1153
(dp1154
g1067
g1068
sg1069
I25
sg1070
F4093.9474476998539
sg1071
F1499.0609999372111
sg1072
F0.0
sg1073
g1074
sg1075
g1076
sg1077
g1078
sg1079
NsbsI26
g0
(g1063
g2
Ntp1155
Rp1156
(dp1157
g1067
g1068
sg1069
I26
sg1070
F4093.9474476998539
sg1071
F2998.1219998744223
sg1072
F0.0
sg1073
g1074
sg1075
g1076
sg1077
g1078
sg1079
NsbsI27
g0
(g1063
g2
Ntp1158
Rp1159
(dp1160
g1067
g1068
sg1069
I27
sg1070
F4093.9474476998539
sg1071
F4497.1829998116336
sg1072
F0.0
sg1073
g1074
sg1075
g1076
sg1077
g1078
sg1079
NsbsI28
g0
(g1063
g2
Ntp1161
Rp1162
(dp1163
g1067
g1068
sg1069
I28
sg1070
F4093.9474476998539
sg1071
F9130.6442723448326
sg1072
F0.0
sg1073
g1074
sg1075
g1076
sg1077
g1078
sg1079
NsbsI29
g0
(g1063
g2
Ntp1164
Rp1165
(dp1166
g1067
g1068
sg1069
I29
sg1070
F4093.9474476998539
sg1071
F10629.705272282044
sg1072
F0.0
sg1073
g1074
sg1075
g1076
sg1077
g1078
sg1079
NsbsI30
g0
(g1063
g2
Ntp1167
Rp1168
(dp1169
g1067
g1068
sg1069
I30
sg1070
F4093.9474476998539
sg1071
F12128.766272219254
sg1072
F0.0
sg1073
g1074
sg1075
g1076
sg1077
g1078
sg1079
NsbsI31
g0
(g1063
g2
Ntp1170
Rp1171
(dp1172
g1067
g1068
sg1069
I31
sg1070
F4093.9474476998539
sg1071
F13627.827272156466
sg1072
F0.0
sg1073
g1074
sg1075
g1076
sg1077
g1078
sg1079
NsbsI32
g0
(g1063
g2
Ntp1173
Rp1174
(dp1175
g1067
g1068
sg1069
I32
sg1070
F0.0
sg1071
F6041.6700906560327
sg1072
F0.0
sg1073
g1074
sg1075
g1076
sg1077
g1078
sg1079
NsbsI33
g0
(g1063
g2
Ntp1176
Rp1177
(dp1178
g1067
g1068
sg1069
I33
sg1070
F1351.0026577409517
sg1071
F6041.6700906560327
sg1072
F0.0
sg1073
g1074
sg1075
g1076
sg1077
g1078
sg1079
NsbsI34
g0
(g1063
g2
Ntp1179
Rp1180
(dp1181
g1067
g1068
sg1069
I34
sg1070
F0.0
sg1071
F7586.1571815004336
sg1072
F0.0
sg1073
g1074
sg1075
g1076
sg1077
g1078
sg1079
NsbsI35
g0
(g1063
g2
Ntp1182
Rp1183
(dp1184
g1067
g1068
sg1069
I35
sg1070
F1351.0026577409519
sg1071
F7586.1571815004336
sg1072
F0.0
sg1073
g1074
sg1075
g1076
sg1077
g1078
sg1079
NsbsI36
g0
(g1063
g2
Ntp1185
Rp1186
(dp1187
g1067
g1068
sg1069
I36
sg1070
F2702.0053154819034
sg1071
F6041.6700906560327
sg1072
F0.0
sg1073
g1074
sg1075
g1076
sg1077
g1078
sg1079
NsbsI37
g0
(g1063
g2
Ntp1188
Rp1189
(dp1190
g1067
g1068
sg1069
I37
sg1070
F2702.0053154819038
sg1071
F7586.1571815004336
sg1072
F0.0
sg1073
g1074
sg1075
g1076
sg1077
g1078
sg1079
NsbsI38
g0
(g1063
g2
Ntp1191
Rp1192
(dp1193
g1067
S'Node'
p1194
sg1069
I38
sg1070
F4093.9474476998539
sg1071
F6041.6700906560327
sg1072
F0.0
sg1073
g1074
sg1075
g1076
sg1077
g1078
sg1079
NsbsI39
g0
(g1063
g2
Ntp1195
Rp1196
(dp1197
g1067
g1194
sg1069
I39
sg1070
F4093.9474476998539
sg1071
F7586.1571815004336
sg1072
F0.0
sg1073
g1074
sg1075
g1076
sg1077
g1078
sg1079
NsbsI40
g0
(g1063
g2
Ntp1198
Rp1199
(dp1200
g1067
g1194
sg1069
I40
sg1070
F0.0
sg1071
F0.0
sg1072
F-1340.8798989799257
sg1073
g1074
sg1075
g1076
sg1077
g1078
sg1079
NsbsI41
g0
(g1063
g2
Ntp1201
Rp1202
(dp1203
g1067
g1194
sg1069
I41
sg1070
F1351.0026577409501
sg1071
F0.0
sg1072
F-1340.8798989799257
sg1073
g1074
sg1075
g1076
sg1077
g1078
sg1079
NsbsI42
g0
(g1063
g2
Ntp1204
Rp1205
(dp1206
g1067
g1194
sg1069
I42
sg1070
F0.0
sg1071
F0.0
sg1072
F-599.97450487176059
sg1073
g1074
sg1075
g1076
sg1077
g1078
sg1079
NsbsI43
g0
(g1063
g2
Ntp1207
Rp1208
(dp1209
g1067
g1194
sg1069
I43
sg1070
F1351.0026577409501
sg1071
F0.0
sg1072
F-599.97450487176059
sg1073
g1074
sg1075
g1076
sg1077
g1078
sg1079
NsbsI44
g0
(g1063
g2
Ntp1210
Rp1211
(dp1212
g1067
g1194
sg1069
I44
sg1070
F2702.0053154819002
sg1071
F0.0
sg1072
F-1340.8798989799257
sg1073
g1074
sg1075
g1076
sg1077
g1078
sg1079
NsbsI45
g0
(g1063
g2
Ntp1213
Rp1214
(dp1215
g1067
g1194
sg1069
I45
sg1070
F2702.0053154819002
sg1071
F0.0
sg1072
F-599.97450487176059
sg1073
g1074
sg1075
g1076
sg1077
g1078
sg1079
NsbsI46
g0
(g1063
g2
Ntp1216
Rp1217
(dp1218
g1067
g1194
sg1069
I46
sg1070
F4093.9474476998498
sg1071
F0.0
sg1072
F-1340.8798989799257
sg1073
g1074
sg1075
g1076
sg1077
g1078
sg1079
NsbsI47
g0
(g1063
g2
Ntp1219
Rp1220
(dp1221
g1067
g1194
sg1069
I47
sg1070
F4093.9474476998498
sg1071
F0.0
sg1072
F-599.97450487176059
sg1073
g1074
sg1075
g1076
sg1077
g1078
sg1079
NsbsI48
g0
(g1063
g2
Ntp1222
Rp1223
(dp1224
g1067
g1194
sg1069
I48
sg1070
F0.0
sg1071
F0.0
sg1072
F-2104.236971697429
sg1073
g1074
sg1075
g1076
sg1077
g1078
sg1079
NsbsI49
g0
(g1063
g2
Ntp1225
Rp1226
(dp1227
g1067
g1194
sg1069
I49
sg1070
F1351.0026577409501
sg1071
F0.0
sg1072
F-2104.236971697429
sg1073
g1074
sg1075
g1076
sg1077
g1078
sg1079
NsbsI50
g0
(g1063
g2
Ntp1228
Rp1229
(dp1230
g1067
g1194
sg1069
I50
sg1070
F2702.0053154819002
sg1071
F0.0
sg1072
F-2104.236971697429
sg1073
g1074
sg1075
g1076
sg1077
g1078
sg1079
NsbsI51
g0
(g1063
g2
Ntp1231
Rp1232
(dp1233
g1067
g1194
sg1069
I51
sg1070
F4093.9474476998498
sg1071
F0.0
sg1072
F-2104.236971697429
sg1073
g1074
sg1075
g1076
sg1077
g1078
sg1079
NsbsI52
g0
(g1063
g2
Ntp1234
Rp1235
(dp1236
g1067
g1194
sg1069
I52
sg1070
F0.0
sg1071
F0.0
sg1072
F-2845.1423658055942
sg1073
g1074
sg1075
g1076
sg1077
g1078
sg1079
NsbsI53
g0
(g1063
g2
Ntp1237
Rp1238
(dp1239
g1067
g1194
sg1069
I53
sg1070
F1351.0026577409501
sg1071
F0.0
sg1072
F-2845.1423658055942
sg1073
g1074
sg1075
g1076
sg1077
g1078
sg1079
NsbsI54
g0
(g1063
g2
Ntp1240
Rp1241
(dp1242
g1067
g1194
sg1069
I54
sg1070
F2702.0053154819002
sg1071
F0.0
sg1072
F-2845.1423658055942
sg1073
g1074
sg1075
g1076
sg1077
g1078
sg1079
NsbsI55
g0
(g1063
g2
Ntp1243
Rp1244
(dp1245
g1067
g1194
sg1069
I55
sg1070
F4093.9474476998498
sg1071
F0.0
sg1072
F-2845.1423658055942
sg1073
g1074
sg1075
g1076
sg1077
g1078
sg1079
NsbsI56
g0
(g1063
g2
Ntp1246
Rp1247
(dp1248
g1067
g1194
sg1069
I56
sg1070
F0.0
sg1071
F13627.827272156466
sg1072
F-1340.8798989799257
sg1073
g1074
sg1075
g1076
sg1077
g1078
sg1079
NsbsI57
g0
(g1063
g2
Ntp1249
Rp1250
(dp1251
g1067
g1194
sg1069
I57
sg1070
F1351.0026577409501
sg1071
F13627.827272156466
sg1072
F-1340.8798989799257
sg1073
g1074
sg1075
g1076
sg1077
g1078
sg1079
NsbsI58
g0
(g1063
g2
Ntp1252
Rp1253
(dp1254
g1067
g1194
sg1069
I58
sg1070
F0.0
sg1071
F13627.827272156466
sg1072
F-599.97450487176059
sg1073
g1074
sg1075
g1076
sg1077
g1078
sg1079
NsbsI59
g0
(g1063
g2
Ntp1255
Rp1256
(dp1257
g1067
g1194
sg1069
I59
sg1070
F1351.0026577409501
sg1071
F13627.827272156466
sg1072
F-599.97450487176059
sg1073
g1074
sg1075
g1076
sg1077
g1078
sg1079
NsbsI60
g0
(g1063
g2
Ntp1258
Rp1259
(dp1260
g1067
g1194
sg1069
I60
sg1070
F2702.0053154819002
sg1071
F13627.827272156466
sg1072
F-1340.8798989799257
sg1073
g1074
sg1075
g1076
sg1077
g1078
sg1079
NsbsI61
g0
(g1063
g2
Ntp1261
Rp1262
(dp1263
g1067
g1194
sg1069
I61
sg1070
F2702.0053154819002
sg1071
F13627.827272156466
sg1072
F-599.97450487176059
sg1073
g1074
sg1075
g1076
sg1077
g1078
sg1079
NsbsI62
g0
(g1063
g2
Ntp1264
Rp1265
(dp1266
g1067
g1194
sg1069
I62
sg1070
F4093.9474476998498
sg1071
F13627.827272156466
sg1072
F-1340.8798989799257
sg1073
g1074
sg1075
g1076
sg1077
g1078
sg1079
NsbsI63
g0
(g1063
g2
Ntp1267
Rp1268
(dp1269
g1067
g1194
sg1069
I63
sg1070
F4093.9474476998498
sg1071
F13627.827272156466
sg1072
F-599.97450487176059
sg1073
g1074
sg1075
g1076
sg1077
g1078
sg1079
NsbsI64
g0
(g1063
g2
Ntp1270
Rp1271
(dp1272
g1067
g1194
sg1069
I64
sg1070
F0.0
sg1071
F13627.827272156466
sg1072
F-2104.236971697429
sg1073
g1074
sg1075
g1076
sg1077
g1078
sg1079
NsbsI65
g0
(g1063
g2
Ntp1273
Rp1274
(dp1275
g1067
g1194
sg1069
I65
sg1070
F1351.0026577409501
sg1071
F13627.827272156466
sg1072
F-2104.236971697429
sg1073
g1074
sg1075
g1076
sg1077
g1078
sg1079
NsbsI66
g0
(g1063
g2
Ntp1276
Rp1277
(dp1278
g1067
g1194
sg1069
I66
sg1070
F2702.0053154819002
sg1071
F13627.827272156466
sg1072
F-2104.236971697429
sg1073
g1074
sg1075
g1076
sg1077
g1078
sg1079
NsbsI67
g0
(g1063
g2
Ntp1279
Rp1280
(dp1281
g1067
g1194
sg1069
I67
sg1070
F4093.9474476998498
sg1071
F13627.827272156466
sg1072
F-2104.236971697429
sg1073
g1074
sg1075
g1076
sg1077
g1078
sg1079
NsbsI68
g0
(g1063
g2
Ntp1282
Rp1283
(dp1284
g1067
g1194
sg1069
I68
sg1070
F0.0
sg1071
F13627.827272156466
sg1072
F-2845.1423658055942
sg1073
g1074
sg1075
g1076
sg1077
g1078
sg1079
NsbsI69
g0
(g1063
g2
Ntp1285
Rp1286
(dp1287
g1067
g1194
sg1069
I69
sg1070
F1351.0026577409501
sg1071
F13627.827272156466
sg1072
F-2845.1423658055942
sg1073
g1074
sg1075
g1076
sg1077
g1078
sg1079
NsbsI70
g0
(g1063
g2
Ntp1288
Rp1289
(dp1290
g1067
g1194
sg1069
I70
sg1070
F2702.0053154819002
sg1071
F13627.827272156466
sg1072
F-2845.1423658055942
sg1073
g1074
sg1075
g1076
sg1077
g1078
sg1079
NsbsI71
g0
(g1063
g2
Ntp1291
Rp1292
(dp1293
g1067
g1194
sg1069
I71
sg1070
F4093.9474476998498
sg1071
F13627.827272156466
sg1072
F-2845.1423658055942
sg1073
g1074
sg1075
g1076
sg1077
g1078
sg1079
NsbssS'node_index'
p1294
(dp1295
S'0.000,1499.061,0.000'
p1296
I2
sS'1351.003,0.000,-2104.237'
p1297
I49
sS'4093.947,1499.061,0.000'
p1298
I25
sS'4093.947,13627.827,-2104.237'
p1299
I67
sS'1351.003,9130.644,0.000'
p1300
I9
sS'2702.005,10629.705,0.000'
p1301
I21
sS'4093.947,0.000,0.000'
p1302
I24
sS'4093.947,7586.157,0.000'
p1303
I39
sS'0.000,13627.827,0.000'
p1304
I14
sS'1351.003,0.000,-599.975'
p1305
I43
sS'0.000,0.000,-2104.237'
p1306
I48
sS'0.000,13627.827,-2845.142'
p1307
I68
sS'1351.003,0.000,0.000'
p1308
I1
sS'2702.005,0.000,-2104.237'
p1309
I50
sS'1351.003,1499.061,0.000'
p1310
I3
sS'0.000,7586.157,0.000'
p1311
I34
sS'0.000,0.000,-599.975'
p1312
I42
sS'4093.947,0.000,-2104.237'
p1313
I51
sS'4093.947,12128.766,0.000'
p1314
I30
sS'2702.005,13627.827,-2845.142'
p1315
I70
sS'2702.005,12128.766,0.000'
p1316
I22
sS'2702.005,9130.644,0.000'
p1317
I20
sS'2702.005,1499.061,0.000'
p1318
I17
sS'0.000,2998.122,0.000'
p1319
I4
sS'2702.005,4497.183,0.000'
p1320
I19
sS'2702.005,0.000,-2845.142'
p1321
I54
sS'1351.003,0.000,-1340.880'
p1322
I41
sS'2702.005,7586.157,0.000'
p1323
I37
sS'0.000,13627.827,-599.975'
p1324
I58
sS'0.000,13627.827,-1340.880'
p1325
I56
sS'0.000,4497.183,0.000'
p1326
I6
sS'2702.005,13627.827,-1340.880'
p1327
I60
sS'1351.003,12128.766,0.000'
p1328
I13
sS'1351.003,13627.827,0.000'
p1329
I15
sS'0.000,0.000,0.000'
p1330
I0
sS'1351.003,13627.827,-2104.237'
p1331
I65
sS'0.000,6041.670,0.000'
p1332
I32
sS'1351.003,10629.705,0.000'
p1333
I11
sS'2702.005,2998.122,0.000'
p1334
I18
sS'1351.003,7586.157,0.000'
p1335
I35
sS'1351.003,13627.827,-2845.142'
p1336
I69
sS'4093.947,2998.122,0.000'
p1337
I26
sS'1351.003,0.000,-2845.142'
p1338
I53
sS'4093.947,13627.827,0.000'
p1339
I31
sS'1351.003,6041.670,0.000'
p1340
I33
sS'2702.005,0.000,0.000'
p1341
I16
sS'1351.003,13627.827,-599.975'
p1342
I59
sS'0.000,10629.705,0.000'
p1343
I10
sS'0.000,12128.766,0.000'
p1344
I12
sS'4093.947,4497.183,0.000'
p1345
I27
sS'1351.003,13627.827,-1340.880'
p1346
I57
sS'4093.947,9130.644,0.000'
p1347
I28
sS'4093.947,0.000,-2845.142'
p1348
I55
sS'4093.947,10629.705,0.000'
p1349
I29
sS'2702.005,13627.827,-599.975'
p1350
I61
sS'2702.005,13627.827,0.000'
p1351
I23
sS'0.000,13627.827,-2104.237'
p1352
I64
sS'4093.947,0.000,-1340.880'
p1353
I46
sS'2702.005,0.000,-1340.880'
p1354
I44
sS'4093.947,0.000,-599.975'
p1355
I47
sS'2702.005,6041.670,0.000'
p1356
I36
sS'0.000,0.000,-2845.142'
p1357
I52
sS'4093.947,13627.827,-1340.880'
p1358
I62
sS'2702.005,13627.827,-2104.237'
p1359
I66
sS'1351.003,2998.122,0.000'
p1360
I5
sS'0.000,0.000,-1340.880'
p1361
I40
sS'2702.005,0.000,-599.975'
p1362
I45
sS'0.000,9130.644,0.000'
p1363
I8
sS'1351.003,4497.183,0.000'
p1364
I7
sS'4093.947,6041.670,0.000'
p1365
I38
sS'4093.947,13627.827,-2845.142'
p1366
I71
sS'4093.947,13627.827,-599.975'
p1367
I63
ssS'path'
p1368
S'C:\\Temp\\'
p1369
sS'results'
p1370
(dp1371
S'step_2'
p1372
S'ERROR'
p1373
sS'step_3'
p1374
g1373
sS'step_4'
p1375
g1373
sS'step_1'
p1376
g1373
ssS'sections'
p1377
(dp1378
g419
g0
(ccompas_fea.structure.section
ShellSection
p1379
g2
Ntp1380
Rp1381
(dp1382
g15
I1
sS'__name__'
p1383
S'ShellSection'
p1384
sS'name'
p1385
g419
sS'geometry'
p1386
(dp1387
S't'
p1388
F951.12884929959444
ssS'loc_coords_OR'
p1389
(dp1390
S'ORxyz'
p1391
(lp1392
I0
aI0
aF-2245.1678609300002
assS'loc_coords_XA'
p1393
(dp1394
S'XAxyz'
p1395
(lp1396
I1
aI0
aF-2245.1678609300002
assS'loc_coords_YA'
p1397
(dp1398
S'YAxyz'
p1399
(lp1400
F2245.1678609300002
aF-2245.1678609300002
aF-2244.1678609300002
assS'loc_coords_EV_XA'
p1401
(dp1402
S'EV_XA'
p1403
(lp1404
F1.0
aF0.0
aF0.0
assS'loc_coords_EV_YA'
p1405
(dp1406
S'EV_YA'
p1407
(lp1408
F0.70710674611722746
aF-0.70710674611722746
aF0.0003149460485437056
assS'loc_coords_EV_ZA'
p1409
(dp1410
S'EV_ZA'
p1411
(lp1412
F0.0
aF-1.0
aF0.0
assS'nr_layers'
p1413
(dp1414
S'nn'
p1415
F50.0
ssS'offset'
p1416
(dp1417
S'mode'
p1418
S'mid'
p1419
ssbsg433
g0
(g1379
g2
Ntp1420
Rp1421
(dp1422
g15
I0
sg1383
g1384
sg1385
g433
sg1386
(dp1423
g1388
F599.97450487176059
ssg1389
(dp1424
g1391
(lp1425
I0
aI0
aI0
assg1393
(dp1426
g1395
(lp1427
I1
aI0
aI0
assg1397
(dp1428
g1399
(lp1429
F0.0
aF1.0
aF0.0
assg1401
(dp1430
g1403
(lp1431
F1.0
aF0.0
aF0.0
assg1405
(dp1432
g1407
(lp1433
F0.0
aF1.0
aF0.0
assg1409
(dp1434
g1411
(lp1435
F0.0
aF0.0
aF1.0
assg1413
(dp1436
g1415
F60.0
ssg1416
(dp1437
g1418
S'top'
p1438
ssbsg410
g0
(g1379
g2
Ntp1439
Rp1440
(dp1441
g15
I2
sg1383
g1384
sg1385
g410
sg1386
(dp1442
g1388
F951.12884929959444
ssg1389
(dp1443
g1391
(lp1444
I0
aF13627.8272722
aF-2245.1678609300002
assg1393
(dp1445
g1395
(lp1446
I1
aF13627.8272722
aF-2245.1678609300002
assg1397
(dp1447
g1399
(lp1448
F-2245.1678609326482
aF11382.65941127
aF-15873.99513313
assg1401
(dp1449
g1403
(lp1450
F1.0
aF0.0
aF0.0
assg1405
(dp1451
g1407
(lp1452
F-0.16044016377646703
aF-0.16044016377627776
aF-0.97391884040448751
assg1409
(dp1453
g1411
(lp1454
F0.0
aF1.0
aF0.0
assg1413
(dp1455
g1415
F50.0
ssg1416
(dp1456
g1418
S'mid'
p1457
ssbsS'sec_mpc'
p1458
g0
(ccompas_fea.structure.section
MPCSection
p1459
g2
Ntp1460
Rp1461
(dp1462
g15
I3
sg1383
S'MPCSection'
p1463
sg1385
g1458
sg1386
NsS'nr_layers'
p1464
NsbssS'sets'
p1465
(dp1466
g528
g0
(ccompas_fea.structure.set
Set
p1467
g2
Ntp1468
Rp1469
(dp1470
S'__name__'
p1471
S'Set'
p1472
sS'name'
p1473
g528
sS'type'
p1474
S'element'
p1475
sS'selection'
p1476
(lp1477
I31
asS'index'
p1478
I13
sbsS'elset_mpcs'
p1479
g0
(g1467
g2
Ntp1480
Rp1481
(dp1482
g1471
g1472
sg1473
g1479
sg1474
g1475
sg1476
(lp1483
I48
aI49
aI50
aI51
aI52
aI45
aI46
aI47
asg1478
I27
sbsg412
g0
(g1467
g2
Ntp1484
Rp1485
(dp1486
g1471
g1472
sg1473
g412
sg1474
g1475
sg1476
(lp1487
I39
asg1478
I21
sbsg458
g0
(g1467
g2
Ntp1488
Rp1489
(dp1490
g1471
g1472
sg1473
g458
sg1474
g1475
sg1476
(lp1491
I8
aI6
aI7
asg1478
I2
sbsg424
g0
(g1467
g2
Ntp1492
Rp1493
(dp1494
g1471
g1472
sg1473
g424
sg1474
g1475
sg1476
(lp1495
I34
asg1478
I16
sbsg520
g0
(g1467
g2
Ntp1496
Rp1497
(dp1498
g1471
g1472
sg1473
g520
sg1474
g1475
sg1476
(lp1499
I36
asg1478
I18
sbsg498
g0
(g1467
g2
Ntp1500
Rp1501
(dp1502
g1471
g1472
sg1473
g498
sg1474
g1475
sg1476
(lp1503
I3
aI4
aI5
asg1478
I1
sbsg434
g0
(g1467
g2
Ntp1504
Rp1505
(dp1506
g1471
g1472
sg1473
g434
sg1474
g1475
sg1476
(lp1507
I0
aI1
aI2
asg1478
I0
sbsg486
g0
(g1467
g2
Ntp1508
Rp1509
(dp1510
g1471
g1472
sg1473
g486
sg1474
g1475
sg1476
(lp1511
I18
aI19
aI20
asg1478
I6
sbsg524
g0
(g1467
g2
Ntp1512
Rp1513
(dp1514
g1471
g1472
sg1473
g524
sg1474
g1475
sg1476
(lp1515
I16
aI17
aI15
asg1478
I5
sbsg450
g0
(g1467
g2
Ntp1516
Rp1517
(dp1518
g1471
g1472
sg1473
g450
sg1474
g1475
sg1476
(lp1519
I12
aI13
aI14
asg1478
I4
sbsg494
g0
(g1467
g2
Ntp1520
Rp1521
(dp1522
g1471
g1472
sg1473
g494
sg1474
g1475
sg1476
(lp1523
I9
aI10
aI11
asg1478
I3
sbsg442
g0
(g1467
g2
Ntp1524
Rp1525
(dp1526
g1471
g1472
sg1473
g442
sg1474
g1475
sg1476
(lp1527
I24
aI25
aI26
asg1478
I8
sbsg478
g0
(g1467
g2
Ntp1528
Rp1529
(dp1530
g1471
g1472
sg1473
g478
sg1474
g1475
sg1476
(lp1531
I21
aI22
aI23
asg1478
I7
sbsg454
g0
(g1467
g2
Ntp1532
Rp1533
(dp1534
g1471
g1472
sg1473
g454
sg1474
g1475
sg1476
(lp1535
I29
asg1478
I11
sbsg516
g0
(g1467
g2
Ntp1536
Rp1537
(dp1538
g1471
g1472
sg1473
g516
sg1474
g1475
sg1476
(lp1539
I44
asg1478
I26
sbsg466
g0
(g1467
g2
Ntp1540
Rp1541
(dp1542
g1471
g1472
sg1473
g466
sg1474
g1475
sg1476
(lp1543
I41
asg1478
I23
sbsg446
g0
(g1467
g2
Ntp1544
Rp1545
(dp1546
g1471
g1472
sg1473
g446
sg1474
g1475
sg1476
(lp1547
I32
asg1478
I14
sbsg462
g0
(g1467
g2
Ntp1548
Rp1549
(dp1550
g1471
g1472
sg1473
g462
sg1474
g1475
sg1476
(lp1551
I38
asg1478
I20
sbsg482
g0
(g1467
g2
Ntp1552
Rp1553
(dp1554
g1471
g1472
sg1473
g482
sg1474
g1475
sg1476
(lp1555
I27
asg1478
I9
sbsg474
g0
(g1467
g2
Ntp1556
Rp1557
(dp1558
g1471
g1472
sg1473
g474
sg1474
g1475
sg1476
(lp1559
I35
asg1478
I17
sbsS'nset_support_wall2'
p1560
g0
(g1467
g2
Ntp1561
Rp1562
(dp1563
g1471
g1472
sg1473
g1560
sg1474
S'node'
p1564
sg1476
(lp1565
I71
aI70
aI69
aI68
asg1478
I29
sbsg470
g0
(g1467
g2
Ntp1566
Rp1567
(dp1568
g1471
g1472
sg1473
g470
sg1474
g1475
sg1476
(lp1569
I30
asg1478
I12
sbsg490
g0
(g1467
g2
Ntp1570
Rp1571
(dp1572
g1471
g1472
sg1473
g490
sg1474
g1475
sg1476
(lp1573
I43
asg1478
I25
sbsg438
g0
(g1467
g2
Ntp1574
Rp1575
(dp1576
g1471
g1472
sg1473
g438
sg1474
g1475
sg1476
(lp1577
I40
asg1478
I22
sbsS'nset_support_wall1'
p1578
g0
(g1467
g2
Ntp1579
Rp1580
(dp1581
g1471
g1472
sg1473
g1578
sg1474
g1564
sg1476
(lp1582
I55
aI54
aI53
aI52
asg1478
I28
sbsg508
g0
(g1467
g2
Ntp1583
Rp1584
(dp1585
g1471
g1472
sg1473
g508
sg1474
g1475
sg1476
(lp1586
I33
asg1478
I15
sbsg428
g0
(g1467
g2
Ntp1587
Rp1588
(dp1589
g1471
g1472
sg1473
g428
sg1474
g1475
sg1476
(lp1590
I37
asg1478
I19
sbsg420
g0
(g1467
g2
Ntp1591
Rp1592
(dp1593
g1471
g1472
sg1473
g420
sg1474
g1475
sg1476
(lp1594
I28
asg1478
I10
sbsg512
g0
(g1467
g2
Ntp1595
Rp1596
(dp1597
g1471
g1472
sg1473
g512
sg1474
g1475
sg1476
(lp1598
I42
asg1478
I24
sbssS'steps'
p1599
(dp1600
g1372
g0
(ccompas_fea.structure.step
GeneralStep
p1601
g2
Ntp1602
Rp1603
(dp1604
g15
I1
sS'__name__'
p1605
S'GeneralStep'
p1606
sS'name'
p1607
g1372
sS'attr_list'
p1608
(lp1609
S'name'
p1610
aS'increments'
p1611
aS'iterations'
p1612
aS'factor'
p1613
aS'nlgeom'
p1614
aS'nlmat'
p1615
aS'displacements'
p1616
aS'loads'
p1617
aS'type'
p1618
aS'tolerance'
p1619
aS'modify'
p1620
asS'increments'
p1621
I1
sS'iterations'
p1622
I100
sS'tolerance'
p1623
F0.01
sS'factor'
p1624
F1.0
sS'nlgeom'
p1625
I00
sS'nlmat'
p1626
I01
sS'displacements'
p1627
(lp1628
sS'loads'
p1629
(lp1630
S'load_gravity'
p1631
asS'modify'
p1632
I01
sS'type'
p1633
S'static'
p1634
sbsg1374
g0
(g1601
g2
Ntp1635
Rp1636
(dp1637
g15
I2
sg1605
g1606
sg1607
g1374
sg1608
(lp1638
g1610
ag1611
ag1612
ag1613
ag1614
ag1615
ag1616
ag1617
ag1618
ag1619
ag1620
asg1621
I1
sg1622
I100
sg1623
F0.01
sg1624
F1.0
sg1625
I00
sg1626
I01
sg1627
(lp1639
sg1629
(lp1640
S'earthPressure_gravel'
p1641
aS'earthPressure_backfill'
p1642
ag567
asg1632
I01
sg1633
g1634
sbsg1375
g0
(g1601
g2
Ntp1643
Rp1644
(dp1645
g15
I3
sg1605
g1606
sg1607
g1375
sg1608
(lp1646
g1610
ag1611
ag1612
ag1613
ag1614
ag1615
ag1616
ag1617
ag1618
ag1619
ag1620
asg1621
I1
sg1622
I100
sg1623
F0.01
sg1624
F1.0
sg1625
I00
sg1626
I01
sg1627
(lp1647
sg1629
(lp1648
g605
ag583
ag598
ag627
ag559
ag533
asg1632
I01
sg1633
g1634
sbsg1376
g0
(g1601
g2
Ntp1649
Rp1650
(dp1651
g15
I0
sg1605
g1606
sg1607
g1376
sg1608
(lp1652
g1610
ag1611
ag1612
ag1613
ag1614
ag1615
ag1616
ag1617
ag1618
ag1619
ag1620
asg1621
I1
sg1622
I100
sg1623
F0.01
sg1624
F1.0
sg1625
I00
sg1626
I01
sg1627
(lp1653
S'nset_pinned_set_disp_1'
p1654
aS'nset_pinned_set_disp_2'
p1655
asg1629
(lp1656
sg1632
I01
sg1633
g1634
sbssS'loc_coor'
p1657
(dp1658
sS'steps_order'
p1659
(lp1660
S'step_1'
p1661
aS'step_2'
p1662
aS'step_3'
p1663
aS'step_4'
p1664
asS'tol'
p1665
S'3'
p1666
sS'virtual_nodes'
p1667
(dp1668
sS'virtual_node_index'
p1669
(dp1670
sS'virtual_elements'
p1671
(dp1672
sS'virtual_element_index'
p1673
(dp1674
sb.