ccopy_reg
_reconstructor
p0
(ccompas_fea.structure.structure
Structure
p1
c__builtin__
object
p2
Ntp3
Rp4
(dp5
S'constraints'
p6
(dp7
sS'displacements'
p8
(dp9
S'nset_pinned_set_disp_1'
p10
g0
(ccompas_fea.structure.displacement
GeneralDisplacement
p11
g2
Ntp12
Rp13
(dp14
S'index'
p15
I0
sS'__name__'
p16
S'GeneralDisplacement'
p17
sS'name'
p18
g10
sS'nodes'
p19
S'nset_support_wall1'
p20
sS'components'
p21
(dp22
S'z'
p23
I0
sS'xx'
p24
I0
sS'zz'
p25
I0
sS'yy'
p26
I0
sS'y'
p27
I0
sS'x'
p28
I0
ssS'axes'
p29
S'global'
p30
sbsS'nset_pinned_set_disp_2'
p31
g0
(g11
g2
Ntp32
Rp33
(dp34
g15
I1
sg16
g17
sg18
g31
sg19
S'nset_support_wall2'
p35
sg21
(dp36
g23
I0
sg24
I0
sg25
I0
sg26
I0
sg27
I0
sg28
I0
ssg29
g30
sbssS'elements'
p37
(dp38
I0
g0
(ccompas_fea.structure.element
ShellElement
p39
g2
Ntp40
Rp41
(dp42
S'mass'
p43
NsS'__name__'
p44
S'ShellElement'
p45
sS'nodes'
p46
(lp47
I0
aI1
aI3
aI2
asS'number'
p48
I0
sS'thermal'
p49
I00
sS'axes'
p50
(dp51
S'ey'
p52
NsS'ez'
p53
NsS'ex'
p54
NssS'element_property'
p55
S'elset_plate_1_element_prop'
p56
sbsI1
g0
(g39
g2
Ntp57
Rp58
(dp59
g43
Nsg44
g45
sg46
(lp60
I2
aI3
aI5
aI4
asg48
I1
sg49
I00
sg50
g51
sg55
g56
sbsI2
g0
(g39
g2
Ntp61
Rp62
(dp63
g43
Nsg44
g45
sg46
(lp64
I4
aI5
aI7
aI6
asg48
I2
sg49
I00
sg50
g51
sg55
g56
sbsI3
g0
(g39
g2
Ntp65
Rp66
(dp67
g43
Nsg44
g45
sg46
(lp68
I8
aI9
aI11
aI10
asg48
I3
sg49
I00
sg50
(dp69
g52
Nsg53
Nsg54
Nssg55
S'elset_plate_2_element_prop'
p70
sbsI4
g0
(g39
g2
Ntp71
Rp72
(dp73
g43
Nsg44
g45
sg46
(lp74
I10
aI11
aI13
aI12
asg48
I4
sg49
I00
sg50
g69
sg55
g70
sbsI5
g0
(g39
g2
Ntp75
Rp76
(dp77
g43
Nsg44
g45
sg46
(lp78
I12
aI13
aI15
aI14
asg48
I5
sg49
I00
sg50
g69
sg55
g70
sbsI6
g0
(g39
g2
Ntp79
Rp80
(dp81
g43
Nsg44
g45
sg46
(lp82
I1
aI16
aI17
aI3
asg48
I6
sg49
I00
sg50
(dp83
g52
Nsg53
Nsg54
Nssg55
S'elset_plate_3_element_prop'
p84
sbsI7
g0
(g39
g2
Ntp85
Rp86
(dp87
g43
Nsg44
g45
sg46
(lp88
I3
aI17
aI18
aI5
asg48
I7
sg49
I00
sg50
g83
sg55
g84
sbsI8
g0
(g39
g2
Ntp89
Rp90
(dp91
g43
Nsg44
g45
sg46
(lp92
I5
aI18
aI19
aI7
asg48
I8
sg49
I00
sg50
g83
sg55
g84
sbsI9
g0
(g39
g2
Ntp93
Rp94
(dp95
g43
Nsg44
g45
sg46
(lp96
I9
aI20
aI21
aI11
asg48
I9
sg49
I00
sg50
(dp97
g52
Nsg53
Nsg54
Nssg55
S'elset_plate_4_element_prop'
p98
sbsI10
g0
(g39
g2
Ntp99
Rp100
(dp101
g43
Nsg44
g45
sg46
(lp102
I11
aI21
aI22
aI13
asg48
I10
sg49
I00
sg50
g97
sg55
g98
sbsI11
g0
(g39
g2
Ntp103
Rp104
(dp105
g43
Nsg44
g45
sg46
(lp106
I13
aI22
aI23
aI15
asg48
I11
sg49
I00
sg50
g97
sg55
g98
sbsI12
g0
(g39
g2
Ntp107
Rp108
(dp109
g43
Nsg44
g45
sg46
(lp110
I16
aI24
aI25
aI17
asg48
I12
sg49
I00
sg50
(dp111
g52
Nsg53
Nsg54
Nssg55
S'elset_plate_5_element_prop'
p112
sbsI13
g0
(g39
g2
Ntp113
Rp114
(dp115
g43
Nsg44
g45
sg46
(lp116
I17
aI25
aI26
aI18
asg48
I13
sg49
I00
sg50
g111
sg55
g112
sbsI14
g0
(g39
g2
Ntp117
Rp118
(dp119
g43
Nsg44
g45
sg46
(lp120
I18
aI26
aI27
aI19
asg48
I14
sg49
I00
sg50
g111
sg55
g112
sbsI15
g0
(g39
g2
Ntp121
Rp122
(dp123
g43
Nsg44
g45
sg46
(lp124
I20
aI28
aI29
aI21
asg48
I15
sg49
I00
sg50
(dp125
g52
Nsg53
Nsg54
Nssg55
S'elset_plate_6_element_prop'
p126
sbsI16
g0
(g39
g2
Ntp127
Rp128
(dp129
g43
Nsg44
g45
sg46
(lp130
I21
aI29
aI30
aI22
asg48
I16
sg49
I00
sg50
g125
sg55
g126
sbsI17
g0
(g39
g2
Ntp131
Rp132
(dp133
g43
Nsg44
g45
sg46
(lp134
I22
aI30
aI31
aI23
asg48
I17
sg49
I00
sg50
g125
sg55
g126
sbsI18
g0
(g39
g2
Ntp135
Rp136
(dp137
g43
Nsg44
g45
sg46
(lp138
I6
aI7
aI33
aI32
asg48
I18
sg49
I00
sg50
(dp139
g52
Nsg53
Nsg54
Nssg55
S'elset_plate_7_element_prop'
p140
sbsI19
g0
(g39
g2
Ntp141
Rp142
(dp143
g43
Nsg44
g45
sg46
(lp144
I32
aI33
aI35
aI34
asg48
I19
sg49
I00
sg50
g139
sg55
g140
sbsI20
g0
(g39
g2
Ntp145
Rp146
(dp147
g43
Nsg44
g45
sg46
(lp148
I34
aI35
aI37
aI36
asg48
I20
sg49
I00
sg50
g139
sg55
g140
sbsI21
g0
(g39
g2
Ntp149
Rp150
(dp151
g43
Nsg44
g45
sg46
(lp152
I36
aI37
aI9
aI8
asg48
I21
sg49
I00
sg50
g139
sg55
g140
sbsI22
g0
(g39
g2
Ntp153
Rp154
(dp155
g43
Nsg44
g45
sg46
(lp156
I7
aI19
aI38
aI33
asg48
I22
sg49
I00
sg50
(dp157
g52
Nsg53
Nsg54
Nssg55
S'elset_plate_8_element_prop'
p158
sbsI23
g0
(g39
g2
Ntp159
Rp160
(dp161
g43
Nsg44
g45
sg46
(lp162
I33
aI38
aI39
aI35
asg48
I23
sg49
I00
sg50
g157
sg55
g158
sbsI24
g0
(g39
g2
Ntp163
Rp164
(dp165
g43
Nsg44
g45
sg46
(lp166
I35
aI39
aI40
aI37
asg48
I24
sg49
I00
sg50
g157
sg55
g158
sbsI25
g0
(g39
g2
Ntp167
Rp168
(dp169
g43
Nsg44
g45
sg46
(lp170
I37
aI40
aI20
aI9
asg48
I25
sg49
I00
sg50
g157
sg55
g158
sbsI26
g0
(g39
g2
Ntp171
Rp172
(dp173
g43
Nsg44
g45
sg46
(lp174
I19
aI27
aI41
aI38
asg48
I26
sg49
I00
sg50
(dp175
g52
Nsg53
Nsg54
Nssg55
S'elset_plate_9_element_prop'
p176
sbsI27
g0
(g39
g2
Ntp177
Rp178
(dp179
g43
Nsg44
g45
sg46
(lp180
I38
aI41
aI42
aI39
asg48
I27
sg49
I00
sg50
g175
sg55
g176
sbsI28
g0
(g39
g2
Ntp181
Rp182
(dp183
g43
Nsg44
g45
sg46
(lp184
I39
aI42
aI43
aI40
asg48
I28
sg49
I00
sg50
g175
sg55
g176
sbsI29
g0
(g39
g2
Ntp185
Rp186
(dp187
g43
Nsg44
g45
sg46
(lp188
I40
aI43
aI28
aI20
asg48
I29
sg49
I00
sg50
g175
sg55
g176
sbsI30
g0
(g39
g2
Ntp189
Rp190
(dp191
g43
Nsg44
g45
sg46
(lp192
I44
aI45
aI47
aI46
asg48
I30
sg49
I00
sg50
(dp193
g52
Nsg53
Nsg54
Nssg55
S'elset_wall_1_1_element_prop'
p194
sbsI31
g0
(g39
g2
Ntp195
Rp196
(dp197
g43
Nsg44
g45
sg46
(lp198
I45
aI48
aI49
aI47
asg48
I31
sg49
I00
sg50
(dp199
g52
Nsg53
Nsg54
Nssg55
S'elset_wall_1_2_element_prop'
p200
sbsI32
g0
(g39
g2
Ntp201
Rp202
(dp203
g43
Nsg44
g45
sg46
(lp204
I48
aI50
aI51
aI49
asg48
I32
sg49
I00
sg50
(dp205
g52
Nsg53
Nsg54
Nssg55
S'elset_wall_1_3_element_prop'
p206
sbsI33
g0
(g39
g2
Ntp207
Rp208
(dp209
g43
Nsg44
g45
sg46
(lp210
I52
aI53
aI45
aI44
asg48
I33
sg49
I00
sg50
(dp211
g52
Nsg53
Nsg54
Nssg55
S'elset_wall_1_4_element_prop'
p212
sbsI34
g0
(g39
g2
Ntp213
Rp214
(dp215
g43
Nsg44
g45
sg46
(lp216
I53
aI54
aI48
aI45
asg48
I34
sg49
I00
sg50
(dp217
g52
Nsg53
Nsg54
Nssg55
S'elset_wall_1_5_element_prop'
p218
sbsI35
g0
(g39
g2
Ntp219
Rp220
(dp221
g43
Nsg44
g45
sg46
(lp222
I54
aI55
aI50
aI48
asg48
I35
sg49
I00
sg50
(dp223
g52
Nsg53
Nsg54
Nssg55
S'elset_wall_1_6_element_prop'
p224
sbsI36
g0
(g39
g2
Ntp225
Rp226
(dp227
g43
Nsg44
g45
sg46
(lp228
I56
aI57
aI53
aI52
asg48
I36
sg49
I00
sg50
(dp229
g52
Nsg53
Nsg54
Nssg55
S'elset_wall_1_7_element_prop'
p230
sbsI37
g0
(g39
g2
Ntp231
Rp232
(dp233
g43
Nsg44
g45
sg46
(lp234
I57
aI58
aI54
aI53
asg48
I37
sg49
I00
sg50
(dp235
g52
Nsg53
Nsg54
Nssg55
S'elset_wall_1_8_element_prop'
p236
sbsI38
g0
(g39
g2
Ntp237
Rp238
(dp239
g43
Nsg44
g45
sg46
(lp240
I58
aI59
aI55
aI54
asg48
I38
sg49
I00
sg50
(dp241
g52
Nsg53
Nsg54
Nssg55
S'elset_wall_1_9_element_prop'
p242
sbsI39
g0
(g39
g2
Ntp243
Rp244
(dp245
g43
Nsg44
g45
sg46
(lp246
I60
aI62
aI63
aI61
asg48
I39
sg49
I00
sg50
(dp247
g52
Nsg53
Nsg54
Nssg55
S'elset_wall_2_1_element_prop'
p248
sbsI40
g0
(g39
g2
Ntp249
Rp250
(dp251
g43
Nsg44
g45
sg46
(lp252
I61
aI63
aI65
aI64
asg48
I40
sg49
I00
sg50
(dp253
g52
Nsg53
Nsg54
Nssg55
S'elset_wall_2_2_element_prop'
p254
sbsI41
g0
(g39
g2
Ntp255
Rp256
(dp257
g43
Nsg44
g45
sg46
(lp258
I64
aI65
aI67
aI66
asg48
I41
sg49
I00
sg50
(dp259
g52
Nsg53
Nsg54
Nssg55
S'elset_wall_2_3_element_prop'
p260
sbsI42
g0
(g39
g2
Ntp261
Rp262
(dp263
g43
Nsg44
g45
sg46
(lp264
I68
aI60
aI61
aI69
asg48
I42
sg49
I00
sg50
(dp265
g52
Nsg53
Nsg54
Nssg55
S'elset_wall_2_4_element_prop'
p266
sbsI43
g0
(g39
g2
Ntp267
Rp268
(dp269
g43
Nsg44
g45
sg46
(lp270
I69
aI61
aI64
aI70
asg48
I43
sg49
I00
sg50
(dp271
g52
Nsg53
Nsg54
Nssg55
S'elset_wall_2_5_element_prop'
p272
sbsI44
g0
(g39
g2
Ntp273
Rp274
(dp275
g43
Nsg44
g45
sg46
(lp276
I70
aI64
aI66
aI71
asg48
I44
sg49
I00
sg50
(dp277
g52
Nsg53
Nsg54
Nssg55
S'elset_wall_2_6_element_prop'
p278
sbsI45
g0
(g39
g2
Ntp279
Rp280
(dp281
g43
Nsg44
g45
sg46
(lp282
I72
aI68
aI69
aI73
asg48
I45
sg49
I00
sg50
(dp283
g52
Nsg53
Nsg54
Nssg55
S'elset_wall_2_7_element_prop'
p284
sbsI46
g0
(g39
g2
Ntp285
Rp286
(dp287
g43
Nsg44
g45
sg46
(lp288
I73
aI69
aI70
aI74
asg48
I46
sg49
I00
sg50
(dp289
g52
Nsg53
Nsg54
Nssg55
S'elset_wall_2_8_element_prop'
p290
sbsI47
g0
(g39
g2
Ntp291
Rp292
(dp293
g43
Nsg44
g45
sg46
(lp294
I74
aI70
aI71
aI75
asg48
I47
sg49
I00
sg50
(dp295
g52
Nsg53
Nsg54
Nssg55
S'elset_wall_2_9_element_prop'
p296
sbsI48
g0
(ccompas_fea.structure.element
MPCElement
p297
g2
Ntp298
Rp299
(dp300
g43
Nsg44
S'MPCElement'
p301
sg46
(lp302
I67
aI31
asg48
I48
sg49
I00
sg50
(dp303
g52
Nsg53
(lp304
F1.8189894035458565e-12
aF0.0
aF974.81692249279536
asg54
Nssg55
S'elset_mpc_element_prop'
p305
sbsI49
g0
(g297
g2
Ntp306
Rp307
(dp308
g43
Nsg44
g301
sg46
(lp309
I65
aI23
asg48
I49
sg49
I00
sg50
(dp310
g52
Nsg53
(lp311
F2.7284841053187847e-12
aF0.0
aF974.81692249279536
asg54
Nssg55
g305
sbsI50
g0
(g297
g2
Ntp312
Rp313
(dp314
g43
Nsg44
g301
sg46
(lp315
I63
aI15
asg48
I50
sg49
I00
sg50
(dp316
g52
Nsg53
(lp317
F1.3642420526593924e-12
aF0.0
aF974.81692249279536
asg54
Nssg55
g305
sbsI51
g0
(g297
g2
Ntp318
Rp319
(dp320
g43
Nsg44
g301
sg46
(lp321
I62
aI14
asg48
I51
sg49
I00
sg50
(dp322
g52
Nsg53
(lp323
F0.0
aF0.0
aF974.81692249279536
asg54
Nssg55
g305
sbsI52
g0
(g297
g2
Ntp324
Rp325
(dp326
g43
Nsg44
g301
sg46
(lp327
I51
aI24
asg48
I52
sg49
I00
sg50
(dp328
g52
Nsg53
(lp329
F1.8189894035458565e-12
aF0.0
aF974.81692249279536
asg54
Nssg55
g305
sbsI53
g0
(g297
g2
Ntp330
Rp331
(dp332
g43
Nsg44
g301
sg46
(lp333
I49
aI16
asg48
I53
sg49
I00
sg50
(dp334
g52
Nsg53
(lp335
F2.7284841053187847e-12
aF0.0
aF974.81692249279536
asg54
Nssg55
g305
sbsI54
g0
(g297
g2
Ntp336
Rp337
(dp338
g43
Nsg44
g301
sg46
(lp339
I47
aI1
asg48
I54
sg49
I00
sg50
(dp340
g52
Nsg53
(lp341
F1.3642420526593924e-12
aF0.0
aF974.81692249279536
asg54
Nssg55
g305
sbsI55
g0
(g297
g2
Ntp342
Rp343
(dp344
g43
Nsg44
g301
sg46
(lp345
I46
aI0
asg48
I55
sg49
I00
sg50
(dp346
g52
Nsg53
(lp347
F0.0
aF0.0
aF974.81692249279536
asg54
Nssg55
g305
sbssS'element_index'
p348
(dp349
S'720.891,16282.030,-3478.409'
p350
I45
sS'720.891,2686.535,0.000'
p351
I1
sS'3626.298,0.000,-3478.409'
p352
I38
sS'3626.298,6065.056,0.000'
p353
I26
sS'2162.672,10216.974,0.000'
p354
I25
sS'3626.298,13595.495,0.000'
p355
I16
sS'1441.781,0.000,-487.408'
p356
I54
sS'720.891,6065.056,0.000'
p357
I18
sS'3626.298,11804.472,0.000'
p358
I15
sS'0.000,16282.030,-487.408'
p359
I51
sS'720.891,13595.495,0.000'
p360
I4
sS'3626.298,8833.001,0.000'
p361
I28
sS'1441.781,16282.030,-487.408'
p362
I50
sS'720.891,15386.518,0.000'
p363
I5
sS'3626.298,15386.518,0.000'
p364
I17
sS'2162.672,4477.558,0.000'
p365
I8
sS'720.891,16282.030,-1469.539'
p366
I39
sS'2162.672,0.000,-1469.539'
p367
I31
sS'3626.298,16282.030,-3478.409'
p368
I47
sS'2162.672,2686.535,0.000'
p369
I7
sS'720.891,7449.029,0.000'
p370
I19
sS'4369.034,0.000,-487.408'
p371
I52
sS'2162.672,13595.495,0.000'
p372
I10
sS'3626.298,895.512,0.000'
p373
I12
sS'2162.672,6065.056,0.000'
p374
I22
sS'2162.672,7449.029,0.000'
p375
I23
sS'720.891,16282.030,-2473.974'
p376
I42
sS'720.891,0.000,-3478.409'
p377
I36
sS'2162.672,895.512,0.000'
p378
I6
sS'2162.672,16282.030,-2473.974'
p379
I43
sS'720.891,0.000,-2473.974'
p380
I33
sS'2162.672,15386.518,0.000'
p381
I11
sS'2162.672,16282.030,-1469.539'
p382
I40
sS'720.891,0.000,-1469.539'
p383
I30
sS'2883.562,16282.030,-487.408'
p384
I49
sS'2162.672,11804.472,0.000'
p385
I9
sS'3626.298,16282.030,-2473.974'
p386
I44
sS'4369.034,16282.030,-487.408'
p387
I48
sS'720.891,4477.558,0.000'
p388
I2
sS'3626.298,2686.535,0.000'
p389
I13
sS'720.891,895.512,0.000'
p390
I0
sS'720.891,10216.974,0.000'
p391
I21
sS'2162.672,8833.001,0.000'
p392
I24
sS'3626.298,7449.029,0.000'
p393
I27
sS'3626.298,16282.030,-1469.539'
p394
I41
sS'720.891,8833.001,0.000'
p395
I20
sS'3626.298,0.000,-1469.539'
p396
I32
sS'720.891,11804.472,0.000'
p397
I3
sS'3626.298,0.000,-2473.974'
p398
I35
sS'2162.672,0.000,-2473.974'
p399
I34
sS'3626.298,10216.974,0.000'
p400
I29
sS'0.000,0.000,-487.408'
p401
I55
sS'2162.672,0.000,-3478.409'
p402
I37
sS'3626.298,4477.558,0.000'
p403
I14
sS'2162.672,16282.030,-3478.409'
p404
I46
sS'2883.562,0.000,-487.408'
p405
I53
ssS'element_properties'
p406
(dp407
g266
g0
(ccompas_fea.structure.element_properties
ElementProperties
p408
g2
Ntp409
Rp410
(dp411
g15
I21
sS'__name__'
p412
S'ElementProperties'
p413
sS'name'
p414
g266
sS'material'
p415
S'wall_element_mat'
p416
sS'section'
p417
S'wall2_element_sec'
p418
sS'elset'
p419
S'elset_wall_2_4'
p420
sS'elements'
p421
NsS'rebar'
p422
(dp423
sbsg200
g0
(g408
g2
Ntp424
Rp425
(dp426
g15
I10
sg412
g413
sg414
g200
sg415
g416
sg417
S'wall1_element_sec'
p427
sg419
S'elset_wall_1_2'
p428
sg421
Nsg422
g423
sbsg236
g0
(g408
g2
Ntp429
Rp430
(dp431
g15
I16
sg412
g413
sg414
g236
sg415
g416
sg417
g427
sg419
S'elset_wall_1_8'
p432
sg421
Nsg422
g423
sbsg254
g0
(g408
g2
Ntp433
Rp434
(dp435
g15
I19
sg412
g413
sg414
g254
sg415
g416
sg417
g418
sg419
S'elset_wall_2_2'
p436
sg421
Nsg422
g423
sbsg56
g0
(g408
g2
Ntp437
Rp438
(dp439
g15
I0
sg412
g413
sg414
g56
sg415
S'plate_element_mat'
p440
sg417
S'plate_element_sec'
p441
sg419
S'elset_plate_1'
p442
sg421
Nsg422
g423
sbsg272
g0
(g408
g2
Ntp443
Rp444
(dp445
g15
I22
sg412
g413
sg414
g272
sg415
g416
sg417
g418
sg419
S'elset_wall_2_5'
p446
sg421
Nsg422
g423
sbsg176
g0
(g408
g2
Ntp447
Rp448
(dp449
g15
I8
sg412
g413
sg414
g176
sg415
g440
sg417
g441
sg419
S'elset_plate_9'
p450
sg421
Nsg422
g423
sbsg224
g0
(g408
g2
Ntp451
Rp452
(dp453
g15
I14
sg412
g413
sg414
g224
sg415
g416
sg417
g427
sg419
S'elset_wall_1_6'
p454
sg421
Nsg422
g423
sbsg112
g0
(g408
g2
Ntp455
Rp456
(dp457
g15
I4
sg412
g413
sg414
g112
sg415
g440
sg417
g441
sg419
S'elset_plate_5'
p458
sg421
Nsg422
g423
sbsg206
g0
(g408
g2
Ntp459
Rp460
(dp461
g15
I11
sg412
g413
sg414
g206
sg415
g416
sg417
g427
sg419
S'elset_wall_1_3'
p462
sg421
Nsg422
g423
sbsg84
g0
(g408
g2
Ntp463
Rp464
(dp465
g15
I2
sg412
g413
sg414
g84
sg415
g440
sg417
g441
sg419
S'elset_plate_3'
p466
sg421
Nsg422
g423
sbsg260
g0
(g408
g2
Ntp467
Rp468
(dp469
g15
I20
sg412
g413
sg414
g260
sg415
g416
sg417
g418
sg419
S'elset_wall_2_3'
p470
sg421
Nsg422
g423
sbsg278
g0
(g408
g2
Ntp471
Rp472
(dp473
g15
I23
sg412
g413
sg414
g278
sg415
g416
sg417
g418
sg419
S'elset_wall_2_6'
p474
sg421
Nsg422
g423
sbsg212
g0
(g408
g2
Ntp475
Rp476
(dp477
g15
I12
sg412
g413
sg414
g212
sg415
g416
sg417
g427
sg419
S'elset_wall_1_4'
p478
sg421
Nsg422
g423
sbsg242
g0
(g408
g2
Ntp479
Rp480
(dp481
g15
I17
sg412
g413
sg414
g242
sg415
g416
sg417
g427
sg419
S'elset_wall_1_9'
p482
sg421
Nsg422
g423
sbsg158
g0
(g408
g2
Ntp483
Rp484
(dp485
g15
I7
sg412
g413
sg414
g158
sg415
g440
sg417
g441
sg419
S'elset_plate_8'
p486
sg421
Nsg422
g423
sbsg194
g0
(g408
g2
Ntp487
Rp488
(dp489
g15
I9
sg412
g413
sg414
g194
sg415
g416
sg417
g427
sg419
S'elset_wall_1_1'
p490
sg421
Nsg422
g423
sbsg140
g0
(g408
g2
Ntp491
Rp492
(dp493
g15
I6
sg412
g413
sg414
g140
sg415
g440
sg417
g441
sg419
S'elset_plate_7'
p494
sg421
Nsg422
g423
sbsg290
g0
(g408
g2
Ntp495
Rp496
(dp497
g15
I25
sg412
g413
sg414
g290
sg415
g416
sg417
g418
sg419
S'elset_wall_2_8'
p498
sg421
Nsg422
g423
sbsg98
g0
(g408
g2
Ntp499
Rp500
(dp501
g15
I3
sg412
g413
sg414
g98
sg415
g440
sg417
g441
sg419
S'elset_plate_4'
p502
sg421
Nsg422
g423
sbsg70
g0
(g408
g2
Ntp503
Rp504
(dp505
g15
I1
sg412
g413
sg414
g70
sg415
g440
sg417
g441
sg419
S'elset_plate_2'
p506
sg421
Nsg422
g423
sbsg305
g0
(g408
g2
Ntp507
Rp508
(dp509
g15
I27
sg412
g413
sg414
g305
sg415
S'elset_mpc_element_mat'
p510
sg417
S'sec_mpc'
p511
sg419
S'elset_mpcs'
p512
sg421
Nsg422
g423
sbsg230
g0
(g408
g2
Ntp513
Rp514
(dp515
g15
I15
sg412
g413
sg414
g230
sg415
g416
sg417
g427
sg419
S'elset_wall_1_7'
p516
sg421
Nsg422
g423
sbsg284
g0
(g408
g2
Ntp517
Rp518
(dp519
g15
I24
sg412
g413
sg414
g284
sg415
g416
sg417
g418
sg419
S'elset_wall_2_7'
p520
sg421
Nsg422
g423
sbsg296
g0
(g408
g2
Ntp521
Rp522
(dp523
g15
I26
sg412
g413
sg414
g296
sg415
g416
sg417
g418
sg419
S'elset_wall_2_9'
p524
sg421
Nsg422
g423
sbsg248
g0
(g408
g2
Ntp525
Rp526
(dp527
g15
I18
sg412
g413
sg414
g248
sg415
g416
sg417
g418
sg419
S'elset_wall_2_1'
p528
sg421
Nsg422
g423
sbsg126
g0
(g408
g2
Ntp529
Rp530
(dp531
g15
I5
sg412
g413
sg414
g126
sg415
g440
sg417
g441
sg419
S'elset_plate_6'
p532
sg421
Nsg422
g423
sbsg218
g0
(g408
g2
Ntp533
Rp534
(dp535
g15
I13
sg412
g413
sg414
g218
sg415
g416
sg417
g427
sg419
S'elset_wall_1_5'
p536
sg421
Nsg422
g423
sbssS'interactions'
p537
(dp538
sS'loads'
p539
(dp540
S'Gleis1_BAHNLASTEN_Lasteinzugsflache_Lastblock_-3'
p541
g0
(ccompas_fea.structure.load
AreaLoad
p542
g2
Ntp543
Rp544
(dp545
g15
I5
sS'__name__'
p546
S'AreaLoad'
p547
sS'name'
p548
g541
sS'axes'
p549
S'global'
p550
sS'components'
p551
(dp552
g23
F0.061904368937919819
sg27
I0
sg28
I0
ssS'nodes'
p553
(lp554
sS'elements'
p555
(lp556
I1
aI2
aI8
asS'attr_list'
p557
(lp558
S'name'
p559
aS'axes'
p560
aS'components'
p561
aS'nodes'
p562
aS'elements'
p563
asbsS'earthPressure_liveLoad'
p564
g0
(g542
g2
Ntp565
Rp566
(dp567
g15
I7
sg546
g547
sg548
g564
sg549
S'local'
p568
sg551
(dp569
g23
F0.037699999999999997
sg27
I0
sg28
I0
ssg553
g554
sg555
(lp570
I32
aI33
aI35
aI36
aI38
aI39
asg557
(lp571
g559
ag560
ag561
ag562
ag563
asbsS'Gleis1_BAHNLASTEN_Lasteinzugsflache_Lastblock_-2'
p572
g0
(g542
g2
Ntp573
Rp574
(dp575
g15
I4
sg546
g547
sg548
g572
sg549
g550
sg551
(dp576
g23
F0.061904368937919819
sg27
I0
sg28
I0
ssg553
g554
sg555
(lp577
I2
aI3
asg557
(lp578
g559
ag560
ag561
ag562
ag563
asbsS'Gleis1_EIGENGEWICHTE_SCHIENE_Lasteinzugsflache'
p579
g0
(g542
g2
Ntp580
Rp581
(dp582
g15
I3
sg546
g547
sg548
g579
sg549
g550
sg551
(dp583
g23
F0.0022076488480120447
sg27
I0
sg28
I0
ssg553
g554
sg555
(lp584
I1
aI2
aI3
aI7
aI8
aI13
asg557
(lp585
g559
ag560
ag561
ag562
ag563
asbsS'Gleis1_BAHNLASTEN_Lasteinzugsflache_Lastblock_-4'
p586
g0
(g542
g2
Ntp587
Rp588
(dp589
g15
I6
sg546
g547
sg548
g586
sg549
g550
sg551
(dp590
g23
F0.061904368937919819
sg27
I0
sg28
I0
ssg553
g554
sg555
(lp591
I13
asg557
(lp592
g559
ag560
ag561
ag562
ag563
asbsS'earthPressure_backfill'
p593
g0
(g542
g2
Ntp594
Rp595
(dp596
g15
I2
sg546
g547
sg548
g593
sg549
g568
sg551
(dp597
g23
F0.053427092850412992
sg27
I0
sg28
I0
ssg553
g554
sg555
(lp598
g490
ag428
ag462
ag478
ag536
ag454
ag516
ag432
ag482
ag528
ag436
ag470
ag420
ag446
ag474
ag520
ag498
ag524
asg557
(lp599
g559
ag560
ag561
ag562
ag563
asbsS'earthPressure_gravel'
p600
g0
(g542
g2
Ntp601
Rp602
(dp603
g15
I1
sg546
g547
sg548
g600
sg549
g550
sg551
(dp604
g23
F0.013500000000000002
sg27
I0
sg28
I0
ssg553
g554
sg555
(lp605
g442
ag506
ag466
ag502
ag458
ag532
ag494
ag486
ag450
asg557
(lp606
g559
ag560
ag561
ag562
ag563
asbsS'load_gravity'
p607
g0
(ccompas_fea.structure.load
GravityLoad
p608
g2
Ntp609
Rp610
(dp611
g15
I0
sg546
S'GravityLoad'
p612
sg548
g607
sg549
g550
sg551
(dp613
g23
F1.3500000000000001
sg27
F0.0
sg28
F0.0
ssg553
g554
sg555
(lp614
g442
ag506
ag466
ag502
ag458
ag532
ag494
ag486
ag450
ag490
ag428
ag462
ag478
ag536
ag454
ag516
ag432
ag482
ag528
ag436
ag470
ag420
ag446
ag474
ag520
ag498
ag524
asg557
(lp615
g559
ag560
ag561
ag562
ag563
aS'g'
p616
asS'g'
p617
F-9.8100000000000005
sbssS'materials'
p618
(dp619
g510
g0
(ccompas_fea.structure.material
MPCStiff
p620
g2
Ntp621
Rp622
(dp623
g15
I2
sS'__name__'
p624
S'MPCStiff'
p625
sS'name'
p626
g510
sS'attr_list'
p627
(lp628
g559
aS'E'
p629
aS'v'
p630
aS'G'
p631
aS'p'
p632
aS'tension'
p633
aS'compression'
p634
asS'E'
p635
(dp636
g629
L10000000000000L
ssS'v'
p637
(dp638
g630
F0.29999999999999999
ssS'G'
p639
(dp640
g631
F3846153846153.8462
ssS'p'
p641
F0.10000000000000001
sS'tension'
p642
I01
sS'compression'
p643
I01
sbsg416
g0
(ccompas_fea.structure.material
CMMUsermat
p644
g2
Ntp645
Rp646
(dp647
g15
I1
sg624
S'CMMUsermat'
p648
sg626
g416
sg627
(lp649
g559
ag629
ag630
ag631
ag632
aS'R_Rohr'
p650
aS'rho'
p651
aS'oo'
p652
aS'uu'
p653
aS'beton'
p654
aS'fcc'
p655
aS'vc'
p656
aS'ecu'
p657
aS'k_E'
p658
aS'theta_b0'
p659
aS'theta_b1'
p660
aS'k_riss'
p661
aS'Entfestigung'
p662
aS'lambdaTS'
p663
aS'srmx'
p664
aS'srmy'
p665
aS'Begrenzung'
p666
aS'KritQ'
p667
aS'winkelD'
p668
aS'k_vr'
p669
aS'fswy'
p670
aS'stahl1'
p671
aS'zm1'
p672
aS'fsy1'
p673
aS'fsu1'
p674
aS'esu1'
p675
aS'esv1'
p676
aS'Es1'
p677
aS'ka1'
p678
aS'kb1'
p679
aS'kc1'
p680
aS'as1'
p681
aS'dm1'
p682
aS'psi1'
p683
aS'stahl2'
p684
aS'zm2'
p685
aS'fsy2'
p686
aS'fsu2'
p687
aS'esu2'
p688
aS'esv2'
p689
aS'Es2'
p690
aS'ka2'
p691
aS'kb2'
p692
aS'kc2'
p693
aS'as2'
p694
aS'dm2'
p695
aS'psi2'
p696
aS'stahl3'
p697
aS'zm3'
p698
aS'fsy3'
p699
aS'fsu3'
p700
aS'esu3'
p701
aS'esv3'
p702
aS'Es3'
p703
aS'ka3'
p704
aS'kb3'
p705
aS'kc3'
p706
aS'as3'
p707
aS'dm3'
p708
aS'psi3'
p709
aS'stahl4'
p710
aS'zm4'
p711
aS'fsy4'
p712
aS'fsu4'
p713
aS'esu4'
p714
aS'esv4'
p715
aS'Es4'
p716
aS'ka4'
p717
aS'kb4'
p718
aS'kc4'
p719
aS'as4'
p720
aS'dm4'
p721
aS'psi4'
p722
asS'E'
p723
(dp724
S'E'
p725
I200000
ssS'v'
p726
(dp727
S'v'
p728
F0.10000000000000001
ssS'G'
p729
(dp730
g631
F90909.090909090897
ssS'p'
p731
F2.5000000000000002e-06
sS'R_Rohr'
p732
(dp733
g650
I-1
ssS'rho'
p734
(dp735
g651
F2.5000000000000002e-06
ssS'oo'
p736
(dp737
g652
I30
ssS'uu'
p738
(dp739
g653
I30
ssS'beton'
p740
(dp741
g654
I2
ssS'fcc'
p742
(dp743
g655
I40
ssS'vc'
p744
(dp745
g656
I0
ssS'ecu'
p746
(dp747
g657
F-0.002
ssS'k_E'
p748
(dp749
g658
I10000
ssS'theta_b0'
p750
(dp751
g659
I2
ssS'theta_b1'
p752
(dp753
g660
I1
ssS'k_riss'
p754
(dp755
g661
I0
ssS'Entfestigung'
p756
(dp757
g662
I0
ssS'lambdaTS'
p758
(dp759
g663
F0.67000000000000004
ssS'srmx'
p760
(dp761
g664
I1
ssS'srmy'
p762
(dp763
g665
I1
ssS'Begrenzung'
p764
(dp765
g666
I2
ssS'KritQ'
p766
(dp767
g667
I0
ssS'winkelD'
p768
(dp769
g668
I45
ssS'k_vr'
p770
(dp771
g669
I1
ssS'fswy'
p772
(dp773
g670
I500
ssS'stahl1'
p774
(dp775
g671
I1
ssS'zm1'
p776
(dp777
g672
I2
ssS'fsy1'
p778
(dp779
g673
I349
ssS'fsu1'
p780
(dp781
g674
I377
ssS'esu1'
p782
(dp783
g675
F0.044999999999999998
ssS'esv1'
p784
(dp785
g676
F0.02
ssS'Es1'
p786
(dp787
g677
I200000
ssS'ka1'
p788
(dp789
g678
I-1
ssS'kb1'
p790
(dp791
g679
I-1
ssS'kc1'
p792
(dp793
g680
I-1
ssS'as1'
p794
(dp795
g681
F0.68261278200399411
ssS'dm1'
p796
(dp797
g682
F20.435424917804752
ssS'psi1'
p798
(dp799
g683
I90
ssS'stahl2'
p800
(dp801
g684
I1
ssS'zm2'
p802
(dp803
g685
I2
ssS'fsy2'
p804
(dp805
g686
I349
ssS'fsu2'
p806
(dp807
g687
I377
ssS'esu2'
p808
(dp809
g688
F0.044999999999999998
ssS'esv2'
p810
(dp811
g689
F0.02
ssS'Es2'
p812
(dp813
g690
I200000
ssS'ka2'
p814
(dp815
g691
I-1
ssS'kb2'
p816
(dp817
g692
I-1
ssS'kc2'
p818
(dp819
g693
I-1
ssS'as2'
p820
(dp821
g694
F0.23538000259703223
ssS'dm2'
p822
(dp823
g695
F12.0
ssS'psi2'
p824
(dp825
g696
I0
ssS'stahl3'
p826
(dp827
g697
I1
ssS'zm3'
p828
(dp829
g698
I2
ssS'fsy3'
p830
(dp831
g699
I349
ssS'fsu3'
p832
(dp833
g700
I377
ssS'esu3'
p834
(dp835
g701
F0.044999999999999998
ssS'esv3'
p836
(dp837
g702
F0.02
ssS'Es3'
p838
(dp839
g703
I200000
ssS'ka3'
p840
(dp841
g704
I-1
ssS'kb3'
p842
(dp843
g705
I-1
ssS'kc3'
p844
(dp845
g706
I-1
ssS'as3'
p846
(dp847
g707
F0.23538000259703223
ssS'dm3'
p848
(dp849
g708
F12.0
ssS'psi3'
p850
(dp851
g709
I0
ssS'stahl4'
p852
(dp853
g710
I1
ssS'zm4'
p854
(dp855
g711
I2
ssS'fsy4'
p856
(dp857
g712
I349
ssS'fsu4'
p858
(dp859
g713
I377
ssS'esu4'
p860
(dp861
g714
F0.044999999999999998
ssS'esv4'
p862
(dp863
g715
F0.02
ssS'Es4'
p864
(dp865
g716
I200000
ssS'ka4'
p866
(dp867
g717
I-1
ssS'kb4'
p868
(dp869
g718
I-1
ssS'kc4'
p870
(dp871
g719
I-1
ssS'as4'
p872
(dp873
g720
F0.69560879497981676
ssS'dm4'
p874
(dp875
g721
F20.629038984755546
ssS'psi4'
p876
(dp877
g722
I90
ssbsg440
g0
(g644
g2
Ntp878
Rp879
(dp880
g15
I0
sg624
g648
sg626
g440
sg627
(lp881
g559
ag629
ag630
ag631
ag632
ag650
ag651
ag652
ag653
ag654
ag655
ag656
ag657
ag658
ag659
ag660
ag661
ag662
ag663
ag664
ag665
ag666
ag667
ag668
ag669
ag670
ag671
ag672
ag673
ag674
ag675
ag676
ag677
ag678
ag679
ag680
ag681
ag682
ag683
ag684
ag685
ag686
ag687
ag688
ag689
ag690
ag691
ag692
ag693
ag694
ag695
ag696
ag697
ag698
ag699
ag700
ag701
ag702
ag703
ag704
ag705
ag706
ag707
ag708
ag709
ag710
ag711
ag712
ag713
ag714
ag715
ag716
ag717
ag718
ag719
ag720
ag721
ag722
asg723
(dp882
g725
I200000
ssg726
(dp883
g728
F0.10000000000000001
ssg729
(dp884
g631
F90909.090909090897
ssg731
F2.5000000000000002e-06
sg732
(dp885
g650
I-1
ssg734
(dp886
g651
F2.5000000000000002e-06
ssg736
(dp887
g652
I30
ssg738
(dp888
g653
I30
ssg740
(dp889
g654
I2
ssg742
(dp890
g655
I40
ssg744
(dp891
g656
I0
ssg746
(dp892
g657
F-0.002
ssg748
(dp893
g658
I10000
ssg750
(dp894
g659
I2
ssg752
(dp895
g660
I1
ssg754
(dp896
g661
I0
ssg756
(dp897
g662
I0
ssg758
(dp898
g663
F0.67000000000000004
ssg760
(dp899
g664
I1
ssg762
(dp900
g665
I1
ssg764
(dp901
g666
I2
ssg766
(dp902
g667
I0
ssg768
(dp903
g668
I45
ssg770
(dp904
g669
I1
ssg772
(dp905
g670
I500
ssg774
(dp906
g671
I1
ssg776
(dp907
g672
I2
ssg778
(dp908
g673
I349
ssg780
(dp909
g674
I377
ssg782
(dp910
g675
F0.044999999999999998
ssg784
(dp911
g676
F0.02
ssg786
(dp912
g677
I200000
ssg788
(dp913
g678
I-1
ssg790
(dp914
g679
I-1
ssg792
(dp915
g680
I-1
ssg794
(dp916
g681
F1.4321546147775586
ssg796
(dp917
g682
F22.339362928339746
ssg798
(dp918
g683
I90
ssg800
(dp919
g684
I1
ssg802
(dp920
g685
I2
ssg804
(dp921
g686
I349
ssg806
(dp922
g687
I377
ssg808
(dp923
g688
F0.044999999999999998
ssg810
(dp924
g689
F0.02
ssg812
(dp925
g690
I200000
ssg814
(dp926
g691
I-1
ssg816
(dp927
g692
I-1
ssg818
(dp928
g693
I-1
ssg820
(dp929
g694
F0.34882563006472223
ssg822
(dp930
g695
F11.025036199294252
ssg824
(dp931
g696
I0
ssg826
(dp932
g697
I1
ssg828
(dp933
g698
I2
ssg830
(dp934
g699
I349
ssg832
(dp935
g700
I377
ssg834
(dp936
g701
F0.044999999999999998
ssg836
(dp937
g702
F0.02
ssg838
(dp938
g703
I200000
ssg840
(dp939
g704
I-1
ssg842
(dp940
g705
I-1
ssg844
(dp941
g706
I-1
ssg846
(dp942
g707
F0.41324806743255688
ssg848
(dp943
g708
F12.0
ssg850
(dp944
g709
I0
ssg852
(dp945
g710
I1
ssg854
(dp946
g711
I2
ssg856
(dp947
g712
I349
ssg858
(dp948
g713
I377
ssg860
(dp949
g714
F0.044999999999999998
ssg862
(dp950
g715
F0.02
ssg864
(dp951
g716
I200000
ssg866
(dp952
g717
I-1
ssg868
(dp953
g718
I-1
ssg870
(dp954
g719
I-1
ssg872
(dp955
g720
F1.3407277264232949
ssg874
(dp956
g721
F21.614546393525217
ssg876
(dp957
g722
I90
ssbssS'misc'
p958
(dp959
sS'name'
p960
S'NLFE_CFB7'
p961
sS'nodes'
p962
(dp963
I0
g0
(ccompas_fea.structure.node
Node
p964
g2
Ntp965
Rp966
(dp967
S'__name__'
p968
S'Node'
p969
sS'key'
p970
I0
sS'x'
p971
F0.0
sS'y'
p972
F0.0
sS'z'
p973
F0.0
sS'ex'
p974
(lp975
I1
aI0
aI0
asS'ey'
p976
(lp977
I0
aI1
aI0
asS'ez'
p978
(lp979
I0
aI0
aI1
asS'mass'
p980
NsbsI1
g0
(g964
g2
Ntp981
Rp982
(dp983
g968
g969
sg970
I1
sg971
F1441.7811606260113
sg972
F0.0
sg973
F0.0
sg974
g975
sg976
g977
sg978
g979
sg980
NsbsI2
g0
(g964
g2
Ntp984
Rp985
(dp986
g968
g969
sg970
I2
sg971
F0.0
sg972
F1791.0233163430833
sg973
F0.0
sg974
g975
sg976
g977
sg978
g979
sg980
NsbsI3
g0
(g964
g2
Ntp987
Rp988
(dp989
g968
g969
sg970
I3
sg971
F1441.7811606260116
sg972
F1791.0233163430833
sg973
F0.0
sg974
g975
sg976
g977
sg978
g979
sg980
NsbsI4
g0
(g964
g2
Ntp990
Rp991
(dp992
g968
g969
sg970
I4
sg971
F0.0
sg972
F3582.0466326861665
sg973
F0.0
sg974
g975
sg976
g977
sg978
g979
sg980
NsbsI5
g0
(g964
g2
Ntp993
Rp994
(dp995
g968
g969
sg970
I5
sg971
F1441.7811606260116
sg972
F3582.0466326861665
sg973
F0.0
sg974
g975
sg976
g977
sg978
g979
sg980
NsbsI6
g0
(g964
g2
Ntp996
Rp997
(dp998
g968
g969
sg970
I6
sg971
F0.0
sg972
F5373.0699490292491
sg973
F0.0
sg974
g975
sg976
g977
sg978
g979
sg980
NsbsI7
g0
(g964
g2
Ntp999
Rp1000
(dp1001
g968
g969
sg970
I7
sg971
F1441.7811606260113
sg972
F5373.0699490292491
sg973
F0.0
sg974
g975
sg976
g977
sg978
g979
sg980
NsbsI8
g0
(g964
g2
Ntp1002
Rp1003
(dp1004
g968
g969
sg970
I8
sg971
F0.0
sg972
F10908.960199544232
sg973
F0.0
sg974
g975
sg976
g977
sg978
g979
sg980
NsbsI9
g0
(g964
g2
Ntp1005
Rp1006
(dp1007
g968
g969
sg970
I9
sg971
F1441.7811606260113
sg972
F10908.960199544232
sg973
F0.0
sg974
g975
sg976
g977
sg978
g979
sg980
NsbsI10
g0
(g964
g2
Ntp1008
Rp1009
(dp1010
g968
g969
sg970
I10
sg971
F0.0
sg972
F12699.983515887314
sg973
F0.0
sg974
g975
sg976
g977
sg978
g979
sg980
NsbsI11
g0
(g964
g2
Ntp1011
Rp1012
(dp1013
g968
g969
sg970
I11
sg971
F1441.7811606260113
sg972
F12699.983515887314
sg973
F0.0
sg974
g975
sg976
g977
sg978
g979
sg980
NsbsI12
g0
(g964
g2
Ntp1014
Rp1015
(dp1016
g968
g969
sg970
I12
sg971
F0.0
sg972
F14491.006832230398
sg973
F0.0
sg974
g975
sg976
g977
sg978
g979
sg980
NsbsI13
g0
(g964
g2
Ntp1017
Rp1018
(dp1019
g968
g969
sg970
I13
sg971
F1441.7811606260113
sg972
F14491.006832230398
sg973
F0.0
sg974
g975
sg976
g977
sg978
g979
sg980
NsbsI14
g0
(g964
g2
Ntp1020
Rp1021
(dp1022
g968
g969
sg970
I14
sg971
F0.0
sg972
F16282.030148573482
sg973
F0.0
sg974
g975
sg976
g977
sg978
g979
sg980
NsbsI15
g0
(g964
g2
Ntp1023
Rp1024
(dp1025
g968
g969
sg970
I15
sg971
F1441.7811606260113
sg972
F16282.030148573482
sg973
F0.0
sg974
g975
sg976
g977
sg978
g979
sg980
NsbsI16
g0
(g964
g2
Ntp1026
Rp1027
(dp1028
g968
g969
sg970
I16
sg971
F2883.5623212520227
sg972
F0.0
sg973
F0.0
sg974
g975
sg976
g977
sg978
g979
sg980
NsbsI17
g0
(g964
g2
Ntp1029
Rp1030
(dp1031
g968
g969
sg970
I17
sg971
F2883.5623212520231
sg972
F1791.0233163430833
sg973
F0.0
sg974
g975
sg976
g977
sg978
g979
sg980
NsbsI18
g0
(g964
g2
Ntp1032
Rp1033
(dp1034
g968
g969
sg970
I18
sg971
F2883.5623212520231
sg972
F3582.0466326861665
sg973
F0.0
sg974
g975
sg976
g977
sg978
g979
sg980
NsbsI19
g0
(g964
g2
Ntp1035
Rp1036
(dp1037
g968
g969
sg970
I19
sg971
F2883.5623212520227
sg972
F5373.0699490292491
sg973
F0.0
sg974
g975
sg976
g977
sg978
g979
sg980
NsbsI20
g0
(g964
g2
Ntp1038
Rp1039
(dp1040
g968
g969
sg970
I20
sg971
F2883.5623212520227
sg972
F10908.960199544232
sg973
F0.0
sg974
g975
sg976
g977
sg978
g979
sg980
NsbsI21
g0
(g964
g2
Ntp1041
Rp1042
(dp1043
g968
g969
sg970
I21
sg971
F2883.5623212520227
sg972
F12699.983515887314
sg973
F0.0
sg974
g975
sg976
g977
sg978
g979
sg980
NsbsI22
g0
(g964
g2
Ntp1044
Rp1045
(dp1046
g968
g969
sg970
I22
sg971
F2883.5623212520227
sg972
F14491.006832230398
sg973
F0.0
sg974
g975
sg976
g977
sg978
g979
sg980
NsbsI23
g0
(g964
g2
Ntp1047
Rp1048
(dp1049
g968
g969
sg970
I23
sg971
F2883.5623212520227
sg972
F16282.030148573482
sg973
F0.0
sg974
g975
sg976
g977
sg978
g979
sg980
NsbsI24
g0
(g964
g2
Ntp1050
Rp1051
(dp1052
g968
g969
sg970
I24
sg971
F4369.0338200788219
sg972
F0.0
sg973
F0.0
sg974
g975
sg976
g977
sg978
g979
sg980
NsbsI25
g0
(g964
g2
Ntp1053
Rp1054
(dp1055
g968
g969
sg970
I25
sg971
F4369.0338200788219
sg972
F1791.0233163430833
sg973
F0.0
sg974
g975
sg976
g977
sg978
g979
sg980
NsbsI26
g0
(g964
g2
Ntp1056
Rp1057
(dp1058
g968
g969
sg970
I26
sg971
F4369.0338200788219
sg972
F3582.0466326861665
sg973
F0.0
sg974
g975
sg976
g977
sg978
g979
sg980
NsbsI27
g0
(g964
g2
Ntp1059
Rp1060
(dp1061
g968
g969
sg970
I27
sg971
F4369.0338200788219
sg972
F5373.0699490292491
sg973
F0.0
sg974
g975
sg976
g977
sg978
g979
sg980
NsbsI28
g0
(g964
g2
Ntp1062
Rp1063
(dp1064
g968
g969
sg970
I28
sg971
F4369.0338200788219
sg972
F10908.960199544232
sg973
F0.0
sg974
g975
sg976
g977
sg978
g979
sg980
NsbsI29
g0
(g964
g2
Ntp1065
Rp1066
(dp1067
g968
g969
sg970
I29
sg971
F4369.033820078821
sg972
F12699.983515887314
sg973
F0.0
sg974
g975
sg976
g977
sg978
g979
sg980
NsbsI30
g0
(g964
g2
Ntp1068
Rp1069
(dp1070
g968
g969
sg970
I30
sg971
F4369.033820078821
sg972
F14491.006832230398
sg973
F0.0
sg974
g975
sg976
g977
sg978
g979
sg980
NsbsI31
g0
(g964
g2
Ntp1071
Rp1072
(dp1073
g968
g969
sg970
I31
sg971
F4369.0338200788219
sg972
F16282.030148573482
sg973
F0.0
sg974
g975
sg976
g977
sg978
g979
sg980
NsbsI32
g0
(g964
g2
Ntp1074
Rp1075
(dp1076
g968
g969
sg970
I32
sg971
F0.0
sg972
F6757.0425116579954
sg973
F0.0
sg974
g975
sg976
g977
sg978
g979
sg980
NsbsI33
g0
(g964
g2
Ntp1077
Rp1078
(dp1079
g968
g969
sg970
I33
sg971
F1441.7811606260113
sg972
F6757.0425116579954
sg973
F0.0
sg974
g975
sg976
g977
sg978
g979
sg980
NsbsI34
g0
(g964
g2
Ntp1080
Rp1081
(dp1082
g968
g969
sg970
I34
sg971
F0.0
sg972
F8141.0150742867409
sg973
F0.0
sg974
g975
sg976
g977
sg978
g979
sg980
NsbsI35
g0
(g964
g2
Ntp1083
Rp1084
(dp1085
g968
g969
sg970
I35
sg971
F1441.7811606260113
sg972
F8141.0150742867409
sg973
F0.0
sg974
g975
sg976
g977
sg978
g979
sg980
NsbsI36
g0
(g964
g2
Ntp1086
Rp1087
(dp1088
g968
g969
sg970
I36
sg971
F0.0
sg972
F9524.9876369154863
sg973
F0.0
sg974
g975
sg976
g977
sg978
g979
sg980
NsbsI37
g0
(g964
g2
Ntp1089
Rp1090
(dp1091
g968
g969
sg970
I37
sg971
F1441.7811606260113
sg972
F9524.9876369154863
sg973
F0.0
sg974
g975
sg976
g977
sg978
g979
sg980
NsbsI38
g0
(g964
g2
Ntp1092
Rp1093
(dp1094
g968
g969
sg970
I38
sg971
F2883.5623212520227
sg972
F6757.0425116579954
sg973
F0.0
sg974
g975
sg976
g977
sg978
g979
sg980
NsbsI39
g0
(g964
g2
Ntp1095
Rp1096
(dp1097
g968
g969
sg970
I39
sg971
F2883.5623212520227
sg972
F8141.0150742867409
sg973
F0.0
sg974
g975
sg976
g977
sg978
g979
sg980
NsbsI40
g0
(g964
g2
Ntp1098
Rp1099
(dp1100
g968
g969
sg970
I40
sg971
F2883.5623212520227
sg972
F9524.9876369154863
sg973
F0.0
sg974
g975
sg976
g977
sg978
g979
sg980
NsbsI41
g0
(g964
g2
Ntp1101
Rp1102
(dp1103
g968
g969
sg970
I41
sg971
F4369.0338200788228
sg972
F6757.0425116579954
sg973
F0.0
sg974
g975
sg976
g977
sg978
g979
sg980
NsbsI42
g0
(g964
g2
Ntp1104
Rp1105
(dp1106
g968
g969
sg970
I42
sg971
F4369.0338200788219
sg972
F8141.0150742867409
sg973
F0.0
sg974
g975
sg976
g977
sg978
g979
sg980
NsbsI43
g0
(g964
g2
Ntp1107
Rp1108
(dp1109
g968
g969
sg970
I43
sg971
F4369.0338200788228
sg972
F9524.9876369154863
sg973
F0.0
sg974
g975
sg976
g977
sg978
g979
sg980
NsbsI44
g0
(g964
g2
Ntp1110
Rp1111
(dp1112
g968
g969
sg970
I44
sg971
F0.0
sg972
F0.0
sg973
F-1964.260303239219
sg974
g975
sg976
g977
sg978
g979
sg980
NsbsI45
g0
(g964
g2
Ntp1113
Rp1114
(dp1115
g968
g969
sg970
I45
sg971
F1441.78116062601
sg972
F0.0
sg973
F-1964.260303239219
sg974
g975
sg976
g977
sg978
g979
sg980
NsbsI46
g0
(g964
g2
Ntp1116
Rp1117
(dp1118
g968
g969
sg970
I46
sg971
F0.0
sg972
F0.0
sg973
F-974.81692249279536
sg974
g975
sg976
g977
sg978
g979
sg980
NsbsI47
g0
(g964
g2
Ntp1119
Rp1120
(dp1121
g968
g969
sg970
I47
sg971
F1441.78116062601
sg972
F0.0
sg973
F-974.81692249279536
sg974
g975
sg976
g977
sg978
g979
sg980
NsbsI48
g0
(g964
g2
Ntp1122
Rp1123
(dp1124
g968
g969
sg970
I48
sg971
F2883.56232125202
sg972
F0.0
sg973
F-1964.260303239219
sg974
g975
sg976
g977
sg978
g979
sg980
NsbsI49
g0
(g964
g2
Ntp1125
Rp1126
(dp1127
g968
g969
sg970
I49
sg971
F2883.56232125202
sg972
F0.0
sg973
F-974.81692249279536
sg974
g975
sg976
g977
sg978
g979
sg980
NsbsI50
g0
(g964
g2
Ntp1128
Rp1129
(dp1130
g968
g969
sg970
I50
sg971
F4369.0338200788201
sg972
F0.0
sg973
F-1964.260303239219
sg974
g975
sg976
g977
sg978
g979
sg980
NsbsI51
g0
(g964
g2
Ntp1131
Rp1132
(dp1133
g968
g969
sg970
I51
sg971
F4369.0338200788201
sg972
F0.0
sg973
F-974.81692249279536
sg974
g975
sg976
g977
sg978
g979
sg980
NsbsI52
g0
(g964
g2
Ntp1134
Rp1135
(dp1136
g968
g969
sg970
I52
sg971
F0.0
sg972
F0.0
sg973
F-2983.6868167355342
sg974
g975
sg976
g977
sg978
g979
sg980
NsbsI53
g0
(g964
g2
Ntp1137
Rp1138
(dp1139
g968
g969
sg970
I53
sg971
F1441.78116062601
sg972
F0.0
sg973
F-2983.6868167355342
sg974
g975
sg976
g977
sg978
g979
sg980
NsbsI54
g0
(g964
g2
Ntp1140
Rp1141
(dp1142
g968
g969
sg970
I54
sg971
F2883.56232125202
sg972
F0.0
sg973
F-2983.6868167355342
sg974
g975
sg976
g977
sg978
g979
sg980
NsbsI55
g0
(g964
g2
Ntp1143
Rp1144
(dp1145
g968
g969
sg970
I55
sg971
F4369.0338200788201
sg972
F0.0
sg973
F-2983.6868167355342
sg974
g975
sg976
g977
sg978
g979
sg980
NsbsI56
g0
(g964
g2
Ntp1146
Rp1147
(dp1148
g968
g969
sg970
I56
sg971
F0.0
sg972
F0.0
sg973
F-3973.130197481958
sg974
g975
sg976
g977
sg978
g979
sg980
NsbsI57
g0
(g964
g2
Ntp1149
Rp1150
(dp1151
g968
g969
sg970
I57
sg971
F1441.78116062601
sg972
F0.0
sg973
F-3973.130197481958
sg974
g975
sg976
g977
sg978
g979
sg980
NsbsI58
g0
(g964
g2
Ntp1152
Rp1153
(dp1154
g968
g969
sg970
I58
sg971
F2883.56232125202
sg972
F0.0
sg973
F-3973.130197481958
sg974
g975
sg976
g977
sg978
g979
sg980
NsbsI59
g0
(g964
g2
Ntp1155
Rp1156
(dp1157
g968
g969
sg970
I59
sg971
F4369.0338200788201
sg972
F0.0
sg973
F-3973.130197481958
sg974
g975
sg976
g977
sg978
g979
sg980
NsbsI60
g0
(g964
g2
Ntp1158
Rp1159
(dp1160
g968
g969
sg970
I60
sg971
F0.0
sg972
F16282.030148573482
sg973
F-1964.260303239219
sg974
g975
sg976
g977
sg978
g979
sg980
NsbsI61
g0
(g964
g2
Ntp1161
Rp1162
(dp1163
g968
g969
sg970
I61
sg971
F1441.78116062601
sg972
F16282.030148573482
sg973
F-1964.260303239219
sg974
g975
sg976
g977
sg978
g979
sg980
NsbsI62
g0
(g964
g2
Ntp1164
Rp1165
(dp1166
g968
g969
sg970
I62
sg971
F0.0
sg972
F16282.030148573482
sg973
F-974.81692249279536
sg974
g975
sg976
g977
sg978
g979
sg980
NsbsI63
g0
(g964
g2
Ntp1167
Rp1168
(dp1169
g968
g969
sg970
I63
sg971
F1441.78116062601
sg972
F16282.030148573482
sg973
F-974.81692249279536
sg974
g975
sg976
g977
sg978
g979
sg980
NsbsI64
g0
(g964
g2
Ntp1170
Rp1171
(dp1172
g968
g969
sg970
I64
sg971
F2883.56232125202
sg972
F16282.030148573482
sg973
F-1964.260303239219
sg974
g975
sg976
g977
sg978
g979
sg980
NsbsI65
g0
(g964
g2
Ntp1173
Rp1174
(dp1175
g968
g969
sg970
I65
sg971
F2883.56232125202
sg972
F16282.030148573482
sg973
F-974.81692249279536
sg974
g975
sg976
g977
sg978
g979
sg980
NsbsI66
g0
(g964
g2
Ntp1176
Rp1177
(dp1178
g968
g969
sg970
I66
sg971
F4369.0338200788201
sg972
F16282.030148573482
sg973
F-1964.260303239219
sg974
g975
sg976
g977
sg978
g979
sg980
NsbsI67
g0
(g964
g2
Ntp1179
Rp1180
(dp1181
g968
g969
sg970
I67
sg971
F4369.0338200788201
sg972
F16282.030148573482
sg973
F-974.81692249279536
sg974
g975
sg976
g977
sg978
g979
sg980
NsbsI68
g0
(g964
g2
Ntp1182
Rp1183
(dp1184
g968
g969
sg970
I68
sg971
F0.0
sg972
F16282.030148573482
sg973
F-2983.6868167355342
sg974
g975
sg976
g977
sg978
g979
sg980
NsbsI69
g0
(g964
g2
Ntp1185
Rp1186
(dp1187
g968
g969
sg970
I69
sg971
F1441.78116062601
sg972
F16282.030148573482
sg973
F-2983.6868167355342
sg974
g975
sg976
g977
sg978
g979
sg980
NsbsI70
g0
(g964
g2
Ntp1188
Rp1189
(dp1190
g968
g969
sg970
I70
sg971
F2883.56232125202
sg972
F16282.030148573482
sg973
F-2983.6868167355342
sg974
g975
sg976
g977
sg978
g979
sg980
NsbsI71
g0
(g964
g2
Ntp1191
Rp1192
(dp1193
g968
g969
sg970
I71
sg971
F4369.0338200788201
sg972
F16282.030148573482
sg973
F-2983.6868167355342
sg974
g975
sg976
g977
sg978
g979
sg980
NsbsI72
g0
(g964
g2
Ntp1194
Rp1195
(dp1196
g968
g969
sg970
I72
sg971
F0.0
sg972
F16282.030148573482
sg973
F-3973.130197481958
sg974
g975
sg976
g977
sg978
g979
sg980
NsbsI73
g0
(g964
g2
Ntp1197
Rp1198
(dp1199
g968
g969
sg970
I73
sg971
F1441.78116062601
sg972
F16282.030148573482
sg973
F-3973.130197481958
sg974
g975
sg976
g977
sg978
g979
sg980
NsbsI74
g0
(g964
g2
Ntp1200
Rp1201
(dp1202
g968
g969
sg970
I74
sg971
F2883.56232125202
sg972
F16282.030148573482
sg973
F-3973.130197481958
sg974
g975
sg976
g977
sg978
g979
sg980
NsbsI75
g0
(g964
g2
Ntp1203
Rp1204
(dp1205
g968
g969
sg970
I75
sg971
F4369.0338200788201
sg972
F16282.030148573482
sg973
F-3973.130197481958
sg974
g975
sg976
g977
sg978
g979
sg980
NsbssS'node_index'
p1206
(dp1207
S'0.000,0.000,-3973.130'
p1208
I56
sS'1441.781,0.000,-1964.260'
p1209
I45
sS'2883.562,12699.984,0.000'
p1210
I21
sS'1441.781,0.000,-3973.130'
p1211
I57
sS'0.000,10908.960,0.000'
p1212
I8
sS'4369.034,0.000,0.000'
p1213
I24
sS'4369.034,9524.988,0.000'
p1214
I43
sS'1441.781,16282.030,0.000'
p1215
I15
sS'2883.562,0.000,0.000'
p1216
I16
sS'2883.562,16282.030,-2983.687'
p1217
I70
sS'2883.562,16282.030,-3973.130'
p1218
I74
sS'2883.562,8141.015,0.000'
p1219
I39
sS'4369.034,12699.984,0.000'
p1220
I29
sS'0.000,16282.030,-2983.687'
p1221
I68
sS'4369.034,3582.047,0.000'
p1222
I26
sS'1441.781,12699.984,0.000'
p1223
I11
sS'1441.781,1791.023,0.000'
p1224
I3
sS'2883.562,5373.070,0.000'
p1225
I19
sS'2883.562,3582.047,0.000'
p1226
I18
sS'0.000,8141.015,0.000'
p1227
I34
sS'2883.562,10908.960,0.000'
p1228
I20
sS'4369.034,0.000,-974.817'
p1229
I51
sS'0.000,1791.023,0.000'
p1230
I2
sS'1441.781,3582.047,0.000'
p1231
I5
sS'2883.562,16282.030,-974.817'
p1232
I65
sS'4369.034,0.000,-2983.687'
p1233
I55
sS'2883.562,1791.023,0.000'
p1234
I17
sS'0.000,0.000,0.000'
p1235
I0
sS'2883.562,6757.043,0.000'
p1236
I38
sS'0.000,16282.030,0.000'
p1237
I14
sS'2883.562,16282.030,-1964.260'
p1238
I64
sS'4369.034,10908.960,0.000'
p1239
I28
sS'4369.034,16282.030,-3973.130'
p1240
I75
sS'4369.034,5373.070,0.000'
p1241
I27
sS'0.000,16282.030,-3973.130'
p1242
I72
sS'1441.781,16282.030,-974.817'
p1243
I63
sS'1441.781,0.000,0.000'
p1244
I1
sS'0.000,16282.030,-1964.260'
p1245
I60
sS'4369.034,16282.030,-1964.260'
p1246
I66
sS'0.000,12699.984,0.000'
p1247
I10
sS'0.000,0.000,-2983.687'
p1248
I52
sS'1441.781,0.000,-2983.687'
p1249
I53
sS'4369.034,8141.015,0.000'
p1250
I42
sS'2883.562,0.000,-2983.687'
p1251
I54
sS'4369.034,0.000,-3973.130'
p1252
I59
sS'1441.781,14491.007,0.000'
p1253
I13
sS'1441.781,10908.960,0.000'
p1254
I9
sS'4369.034,1791.023,0.000'
p1255
I25
sS'1441.781,16282.030,-2983.687'
p1256
I69
sS'1441.781,6757.043,0.000'
p1257
I33
sS'4369.034,6757.043,0.000'
p1258
I41
sS'1441.781,9524.988,0.000'
p1259
I37
sS'0.000,16282.030,-974.817'
p1260
I62
sS'2883.562,9524.988,0.000'
p1261
I40
sS'0.000,5373.070,0.000'
p1262
I6
sS'0.000,6757.043,0.000'
p1263
I32
sS'1441.781,5373.070,0.000'
p1264
I7
sS'1441.781,8141.015,0.000'
p1265
I35
sS'0.000,0.000,-1964.260'
p1266
I44
sS'2883.562,16282.030,0.000'
p1267
I23
sS'1441.781,16282.030,-3973.130'
p1268
I73
sS'4369.034,0.000,-1964.260'
p1269
I50
sS'4369.034,14491.007,0.000'
p1270
I30
sS'0.000,14491.007,0.000'
p1271
I12
sS'4369.034,16282.030,0.000'
p1272
I31
sS'4369.034,16282.030,-974.817'
p1273
I67
sS'2883.562,0.000,-974.817'
p1274
I49
sS'2883.562,14491.007,0.000'
p1275
I22
sS'1441.781,0.000,-974.817'
p1276
I47
sS'2883.562,0.000,-3973.130'
p1277
I58
sS'0.000,9524.988,0.000'
p1278
I36
sS'4369.034,16282.030,-2983.687'
p1279
I71
sS'0.000,0.000,-974.817'
p1280
I46
sS'2883.562,0.000,-1964.260'
p1281
I48
sS'0.000,3582.047,0.000'
p1282
I4
sS'1441.781,16282.030,-1964.260'
p1283
I61
ssS'path'
p1284
S'C:\\Temp\\'
p1285
sS'results'
p1286
(dp1287
S'step_2'
p1288
S'ERROR'
p1289
sS'step_3'
p1290
g1289
sS'step_4'
p1291
g1289
sS'step_1'
p1292
g1289
ssS'sections'
p1293
(dp1294
g427
g0
(ccompas_fea.structure.section
ShellSection
p1295
g2
Ntp1296
Rp1297
(dp1298
g15
I1
sS'__name__'
p1299
S'ShellSection'
p1300
sS'name'
p1301
g427
sS'geometry'
p1302
(dp1303
S't'
p1304
F606.46046778586549
ssS'loc_coords_OR'
p1305
(dp1306
S'ORxyz'
p1307
(lp1308
I0
aI0
aF-2998.3132749900001
assS'loc_coords_XA'
p1309
(dp1310
S'XAxyz'
p1311
(lp1312
I1
aI0
aF-2998.3132749900001
assS'loc_coords_YA'
p1313
(dp1314
S'YAxyz'
p1315
(lp1316
F2998.3132749900001
aF-2998.3132749900001
aF-2997.3132749900001
assS'loc_coords_EV_XA'
p1317
(dp1318
S'EV_XA'
p1319
(lp1320
F1.0
aF0.0
aF0.0
assS'loc_coords_EV_YA'
p1321
(dp1322
S'EV_YA'
p1323
(lp1324
F0.70710676152258767
aF-0.70710676152258767
aF0.00023583485002078245
assS'loc_coords_EV_ZA'
p1325
(dp1326
S'EV_ZA'
p1327
(lp1328
F0.0
aF-1.0
aF0.0
assS'nr_layers'
p1329
(dp1330
S'nn'
p1331
F51.0
ssS'offset'
p1332
(dp1333
S'mode'
p1334
S'mid'
p1335
ssbsg441
g0
(g1295
g2
Ntp1336
Rp1337
(dp1338
g15
I0
sg1299
g1300
sg1301
g441
sg1302
(dp1339
g1304
F974.81692249279536
ssg1305
(dp1340
g1307
(lp1341
I0
aI0
aI0
assg1309
(dp1342
g1311
(lp1343
I1
aI0
aI0
assg1313
(dp1344
g1315
(lp1345
F0.0
aF1.0
aF0.0
assg1317
(dp1346
g1319
(lp1347
F1.0
aF0.0
aF0.0
assg1321
(dp1348
g1323
(lp1349
F0.0
aF1.0
aF0.0
assg1325
(dp1350
g1327
(lp1351
F0.0
aF0.0
aF1.0
assg1329
(dp1352
g1331
F56.0
ssg1332
(dp1353
g1334
S'top'
p1354
ssbsg418
g0
(g1295
g2
Ntp1355
Rp1356
(dp1357
g15
I2
sg1299
g1300
sg1301
g418
sg1302
(dp1358
g1304
F606.46046778586549
ssg1305
(dp1359
g1307
(lp1360
I0
aF16282.030148600001
aF-2998.3132749900001
assg1309
(dp1361
g1311
(lp1362
I1
aF16282.030148600001
aF-2998.3132749900001
assg1313
(dp1363
g1315
(lp1364
F-2998.313274987042
aF13283.716873610001
aF-19281.343423590002
assg1317
(dp1365
g1319
(lp1366
F1.0
aF0.0
aF0.0
assg1321
(dp1367
g1323
(lp1368
F-0.17819444432916146
aF-0.17819444432933723
aF-0.96772593228681236
assg1325
(dp1369
g1327
(lp1370
F0.0
aF1.0
aF0.0
assg1329
(dp1371
g1331
F51.0
ssg1332
(dp1372
g1334
g1335
ssbsg511
g0
(ccompas_fea.structure.section
MPCSection
p1373
g2
Ntp1374
Rp1375
(dp1376
g15
I3
sg1299
S'MPCSection'
p1377
sg1301
g511
sg1302
NsS'nr_layers'
p1378
NsbssS'sets'
p1379
(dp1380
g536
g0
(ccompas_fea.structure.set
Set
p1381
g2
Ntp1382
Rp1383
(dp1384
S'__name__'
p1385
S'Set'
p1386
sS'name'
p1387
g536
sS'type'
p1388
S'element'
p1389
sS'selection'
p1390
(lp1391
I34
asS'index'
p1392
I13
sbsg512
g0
(g1381
g2
Ntp1393
Rp1394
(dp1395
g1385
g1386
sg1387
g512
sg1388
g1389
sg1390
(lp1396
I48
aI49
aI50
aI51
aI52
aI53
aI54
aI55
asg1392
I27
sbsg420
g0
(g1381
g2
Ntp1397
Rp1398
(dp1399
g1385
g1386
sg1387
g420
sg1388
g1389
sg1390
(lp1400
I42
asg1392
I21
sbsg466
g0
(g1381
g2
Ntp1401
Rp1402
(dp1403
g1385
g1386
sg1387
g466
sg1388
g1389
sg1390
(lp1404
I8
aI6
aI7
asg1392
I2
sbsg432
g0
(g1381
g2
Ntp1405
Rp1406
(dp1407
g1385
g1386
sg1387
g432
sg1388
g1389
sg1390
(lp1408
I37
asg1392
I16
sbsg528
g0
(g1381
g2
Ntp1409
Rp1410
(dp1411
g1385
g1386
sg1387
g528
sg1388
g1389
sg1390
(lp1412
I39
asg1392
I18
sbsg506
g0
(g1381
g2
Ntp1413
Rp1414
(dp1415
g1385
g1386
sg1387
g506
sg1388
g1389
sg1390
(lp1416
I3
aI4
aI5
asg1392
I1
sbsg442
g0
(g1381
g2
Ntp1417
Rp1418
(dp1419
g1385
g1386
sg1387
g442
sg1388
g1389
sg1390
(lp1420
I0
aI1
aI2
asg1392
I0
sbsg494
g0
(g1381
g2
Ntp1421
Rp1422
(dp1423
g1385
g1386
sg1387
g494
sg1388
g1389
sg1390
(lp1424
I18
aI19
aI20
aI21
asg1392
I6
sbsg532
g0
(g1381
g2
Ntp1425
Rp1426
(dp1427
g1385
g1386
sg1387
g532
sg1388
g1389
sg1390
(lp1428
I16
aI17
aI15
asg1392
I5
sbsg458
g0
(g1381
g2
Ntp1429
Rp1430
(dp1431
g1385
g1386
sg1387
g458
sg1388
g1389
sg1390
(lp1432
I12
aI13
aI14
asg1392
I4
sbsg502
g0
(g1381
g2
Ntp1433
Rp1434
(dp1435
g1385
g1386
sg1387
g502
sg1388
g1389
sg1390
(lp1436
I9
aI10
aI11
asg1392
I3
sbsg450
g0
(g1381
g2
Ntp1437
Rp1438
(dp1439
g1385
g1386
sg1387
g450
sg1388
g1389
sg1390
(lp1440
I26
aI27
aI28
aI29
asg1392
I8
sbsg486
g0
(g1381
g2
Ntp1441
Rp1442
(dp1443
g1385
g1386
sg1387
g486
sg1388
g1389
sg1390
(lp1444
I24
aI25
aI22
aI23
asg1392
I7
sbsg462
g0
(g1381
g2
Ntp1445
Rp1446
(dp1447
g1385
g1386
sg1387
g462
sg1388
g1389
sg1390
(lp1448
I32
asg1392
I11
sbsg524
g0
(g1381
g2
Ntp1449
Rp1450
(dp1451
g1385
g1386
sg1387
g524
sg1388
g1389
sg1390
(lp1452
I47
asg1392
I26
sbsg474
g0
(g1381
g2
Ntp1453
Rp1454
(dp1455
g1385
g1386
sg1387
g474
sg1388
g1389
sg1390
(lp1456
I44
asg1392
I23
sbsg454
g0
(g1381
g2
Ntp1457
Rp1458
(dp1459
g1385
g1386
sg1387
g454
sg1388
g1389
sg1390
(lp1460
I35
asg1392
I14
sbsg470
g0
(g1381
g2
Ntp1461
Rp1462
(dp1463
g1385
g1386
sg1387
g470
sg1388
g1389
sg1390
(lp1464
I41
asg1392
I20
sbsg490
g0
(g1381
g2
Ntp1465
Rp1466
(dp1467
g1385
g1386
sg1387
g490
sg1388
g1389
sg1390
(lp1468
I30
asg1392
I9
sbsg482
g0
(g1381
g2
Ntp1469
Rp1470
(dp1471
g1385
g1386
sg1387
g482
sg1388
g1389
sg1390
(lp1472
I38
asg1392
I17
sbsg35
g0
(g1381
g2
Ntp1473
Rp1474
(dp1475
g1385
g1386
sg1387
g35
sg1388
S'node'
p1476
sg1390
(lp1477
I75
aI74
aI73
aI72
asg1392
I29
sbsg478
g0
(g1381
g2
Ntp1478
Rp1479
(dp1480
g1385
g1386
sg1387
g478
sg1388
g1389
sg1390
(lp1481
I33
asg1392
I12
sbsg498
g0
(g1381
g2
Ntp1482
Rp1483
(dp1484
g1385
g1386
sg1387
g498
sg1388
g1389
sg1390
(lp1485
I46
asg1392
I25
sbsg446
g0
(g1381
g2
Ntp1486
Rp1487
(dp1488
g1385
g1386
sg1387
g446
sg1388
g1389
sg1390
(lp1489
I43
asg1392
I22
sbsg20
g0
(g1381
g2
Ntp1490
Rp1491
(dp1492
g1385
g1386
sg1387
g20
sg1388
g1476
sg1390
(lp1493
I59
aI58
aI57
aI56
asg1392
I28
sbsg516
g0
(g1381
g2
Ntp1494
Rp1495
(dp1496
g1385
g1386
sg1387
g516
sg1388
g1389
sg1390
(lp1497
I36
asg1392
I15
sbsg436
g0
(g1381
g2
Ntp1498
Rp1499
(dp1500
g1385
g1386
sg1387
g436
sg1388
g1389
sg1390
(lp1501
I40
asg1392
I19
sbsg428
g0
(g1381
g2
Ntp1502
Rp1503
(dp1504
g1385
g1386
sg1387
g428
sg1388
g1389
sg1390
(lp1505
I31
asg1392
I10
sbsg520
g0
(g1381
g2
Ntp1506
Rp1507
(dp1508
g1385
g1386
sg1387
g520
sg1388
g1389
sg1390
(lp1509
I45
asg1392
I24
sbssS'steps'
p1510
(dp1511
g1288
g0
(ccompas_fea.structure.step
GeneralStep
p1512
g2
Ntp1513
Rp1514
(dp1515
g15
I1
sS'__name__'
p1516
S'GeneralStep'
p1517
sS'name'
p1518
g1288
sS'attr_list'
p1519
(lp1520
g559
aS'increments'
p1521
aS'iterations'
p1522
aS'factor'
p1523
aS'nlgeom'
p1524
aS'nlmat'
p1525
aS'displacements'
p1526
aS'loads'
p1527
aS'type'
p1528
aS'tolerance'
p1529
aS'modify'
p1530
asS'increments'
p1531
I1
sS'iterations'
p1532
I100
sS'tolerance'
p1533
F0.01
sS'factor'
p1534
F1.0
sS'nlgeom'
p1535
I00
sS'nlmat'
p1536
I01
sS'displacements'
p1537
(lp1538
sS'loads'
p1539
(lp1540
g607
asS'modify'
p1541
I01
sS'type'
p1542
S'static'
p1543
sbsg1290
g0
(g1512
g2
Ntp1544
Rp1545
(dp1546
g15
I2
sg1516
g1517
sg1518
g1290
sg1519
(lp1547
g559
ag1521
ag1522
ag1523
ag1524
ag1525
ag1526
ag1527
ag1528
ag1529
ag1530
asg1531
I1
sg1532
I100
sg1533
F0.01
sg1534
F1.0
sg1535
I00
sg1536
I01
sg1537
(lp1548
sg1539
(lp1549
g600
ag593
ag579
asg1541
I01
sg1542
g1543
sbsg1291
g0
(g1512
g2
Ntp1550
Rp1551
(dp1552
g15
I3
sg1516
g1517
sg1518
g1291
sg1519
(lp1553
g559
ag1521
ag1522
ag1523
ag1524
ag1525
ag1526
ag1527
ag1528
ag1529
ag1530
asg1531
I1
sg1532
I100
sg1533
F0.01
sg1534
F1.0
sg1535
I00
sg1536
I01
sg1537
(lp1554
sg1539
(lp1555
g572
ag541
ag586
ag564
asg1541
I01
sg1542
g1543
sbsg1292
g0
(g1512
g2
Ntp1556
Rp1557
(dp1558
g15
I0
sg1516
g1517
sg1518
g1292
sg1519
(lp1559
g559
ag1521
ag1522
ag1523
ag1524
ag1525
ag1526
ag1527
ag1528
ag1529
ag1530
asg1531
I1
sg1532
I100
sg1533
F0.01
sg1534
F1.0
sg1535
I00
sg1536
I01
sg1537
(lp1560
g10
ag31
asg1539
(lp1561
sg1541
I01
sg1542
g1543
sbssS'loc_coor'
p1562
(dp1563
sS'steps_order'
p1564
(lp1565
g1292
ag1288
ag1290
ag1291
asS'tol'
p1566
S'3'
p1567
sS'virtual_nodes'
p1568
(dp1569
sS'virtual_node_index'
p1570
(dp1571
sS'virtual_elements'
p1572
(dp1573
sS'virtual_element_index'
p1574
(dp1575
sb.