ccopy_reg
_reconstructor
p0
(ccompas_fea.structure.structure
Structure
p1
c__builtin__
object
p2
Ntp3
Rp4
(dp5
S'constraints'
p6
(dp7
sS'displacements'
p8
(dp9
S'nset_pinned_set_disp_1'
p10
g0
(ccompas_fea.structure.displacement
GeneralDisplacement
p11
g2
Ntp12
Rp13
(dp14
S'index'
p15
I0
sS'__name__'
p16
S'GeneralDisplacement'
p17
sS'name'
p18
g10
sS'nodes'
p19
S'nset_support_wall1'
p20
sS'components'
p21
(dp22
S'z'
p23
I0
sS'xx'
p24
I0
sS'zz'
p25
I0
sS'yy'
p26
I0
sS'y'
p27
I0
sS'x'
p28
I0
ssS'axes'
p29
S'global'
p30
sbsS'nset_pinned_set_disp_2'
p31
g0
(g11
g2
Ntp32
Rp33
(dp34
g15
I1
sg16
g17
sg18
g31
sg19
S'nset_support_wall2'
p35
sg21
(dp36
g23
I0
sg24
I0
sg25
I0
sg26
I0
sg27
I0
sg28
I0
ssg29
g30
sbssS'elements'
p37
(dp38
I0
g0
(ccompas_fea.structure.element
ShellElement
p39
g2
Ntp40
Rp41
(dp42
S'mass'
p43
NsS'__name__'
p44
S'ShellElement'
p45
sS'nodes'
p46
(lp47
I0
aI1
aI5
aI4
asS'number'
p48
I0
sS'thermal'
p49
I00
sS'axes'
p50
(dp51
S'ey'
p52
NsS'ez'
p53
NsS'ex'
p54
NssS'element_property'
p55
S'elset_plate_1_element_prop'
p56
sbsI1
g0
(g39
g2
Ntp57
Rp58
(dp59
g43
Nsg44
g45
sg46
(lp60
I1
aI2
aI6
aI5
asg48
I1
sg49
I00
sg50
g51
sg55
g56
sbsI2
g0
(g39
g2
Ntp61
Rp62
(dp63
g43
Nsg44
g45
sg46
(lp64
I2
aI3
aI7
aI6
asg48
I2
sg49
I00
sg50
g51
sg55
g56
sbsI3
g0
(g39
g2
Ntp65
Rp66
(dp67
g43
Nsg44
g45
sg46
(lp68
I4
aI5
aI9
aI8
asg48
I3
sg49
I00
sg50
g51
sg55
g56
sbsI4
g0
(g39
g2
Ntp69
Rp70
(dp71
g43
Nsg44
g45
sg46
(lp72
I5
aI6
aI10
aI9
asg48
I4
sg49
I00
sg50
g51
sg55
g56
sbsI5
g0
(g39
g2
Ntp73
Rp74
(dp75
g43
Nsg44
g45
sg46
(lp76
I6
aI7
aI11
aI10
asg48
I5
sg49
I00
sg50
g51
sg55
g56
sbsI6
g0
(g39
g2
Ntp77
Rp78
(dp79
g43
Nsg44
g45
sg46
(lp80
I12
aI13
aI17
aI16
asg48
I6
sg49
I00
sg50
(dp81
g52
Nsg53
Nsg54
Nssg55
S'elset_plate_2_element_prop'
p82
sbsI7
g0
(g39
g2
Ntp83
Rp84
(dp85
g43
Nsg44
g45
sg46
(lp86
I13
aI14
aI18
aI17
asg48
I7
sg49
I00
sg50
g81
sg55
g82
sbsI8
g0
(g39
g2
Ntp87
Rp88
(dp89
g43
Nsg44
g45
sg46
(lp90
I14
aI15
aI19
aI18
asg48
I8
sg49
I00
sg50
g81
sg55
g82
sbsI9
g0
(g39
g2
Ntp91
Rp92
(dp93
g43
Nsg44
g45
sg46
(lp94
I16
aI17
aI21
aI20
asg48
I9
sg49
I00
sg50
g81
sg55
g82
sbsI10
g0
(g39
g2
Ntp95
Rp96
(dp97
g43
Nsg44
g45
sg46
(lp98
I17
aI18
aI22
aI21
asg48
I10
sg49
I00
sg50
g81
sg55
g82
sbsI11
g0
(g39
g2
Ntp99
Rp100
(dp101
g43
Nsg44
g45
sg46
(lp102
I18
aI19
aI23
aI22
asg48
I11
sg49
I00
sg50
g81
sg55
g82
sbsI12
g0
(g39
g2
Ntp103
Rp104
(dp105
g43
Nsg44
g45
sg46
(lp106
I3
aI24
aI27
aI7
asg48
I12
sg49
I00
sg50
(dp107
g52
Nsg53
Nsg54
Nssg55
S'elset_plate_3_element_prop'
p108
sbsI13
g0
(g39
g2
Ntp109
Rp110
(dp111
g43
Nsg44
g45
sg46
(lp112
I24
aI25
aI28
aI27
asg48
I13
sg49
I00
sg50
g107
sg55
g108
sbsI14
g0
(g39
g2
Ntp113
Rp114
(dp115
g43
Nsg44
g45
sg46
(lp116
I25
aI26
aI29
aI28
asg48
I14
sg49
I00
sg50
g107
sg55
g108
sbsI15
g0
(g39
g2
Ntp117
Rp118
(dp119
g43
Nsg44
g45
sg46
(lp120
I7
aI27
aI30
aI11
asg48
I15
sg49
I00
sg50
g107
sg55
g108
sbsI16
g0
(g39
g2
Ntp121
Rp122
(dp123
g43
Nsg44
g45
sg46
(lp124
I27
aI28
aI31
aI30
asg48
I16
sg49
I00
sg50
g107
sg55
g108
sbsI17
g0
(g39
g2
Ntp125
Rp126
(dp127
g43
Nsg44
g45
sg46
(lp128
I28
aI29
aI32
aI31
asg48
I17
sg49
I00
sg50
g107
sg55
g108
sbsI18
g0
(g39
g2
Ntp129
Rp130
(dp131
g43
Nsg44
g45
sg46
(lp132
I15
aI33
aI36
aI19
asg48
I18
sg49
I00
sg50
(dp133
g52
Nsg53
Nsg54
Nssg55
S'elset_plate_4_element_prop'
p134
sbsI19
g0
(g39
g2
Ntp135
Rp136
(dp137
g43
Nsg44
g45
sg46
(lp138
I33
aI34
aI37
aI36
asg48
I19
sg49
I00
sg50
g133
sg55
g134
sbsI20
g0
(g39
g2
Ntp139
Rp140
(dp141
g43
Nsg44
g45
sg46
(lp142
I34
aI35
aI38
aI37
asg48
I20
sg49
I00
sg50
g133
sg55
g134
sbsI21
g0
(g39
g2
Ntp143
Rp144
(dp145
g43
Nsg44
g45
sg46
(lp146
I19
aI36
aI39
aI23
asg48
I21
sg49
I00
sg50
g133
sg55
g134
sbsI22
g0
(g39
g2
Ntp147
Rp148
(dp149
g43
Nsg44
g45
sg46
(lp150
I36
aI37
aI40
aI39
asg48
I22
sg49
I00
sg50
g133
sg55
g134
sbsI23
g0
(g39
g2
Ntp151
Rp152
(dp153
g43
Nsg44
g45
sg46
(lp154
I37
aI38
aI41
aI40
asg48
I23
sg49
I00
sg50
g133
sg55
g134
sbsI24
g0
(g39
g2
Ntp155
Rp156
(dp157
g43
Nsg44
g45
sg46
(lp158
I26
aI42
aI45
aI29
asg48
I24
sg49
I00
sg50
(dp159
g52
Nsg53
Nsg54
Nssg55
S'elset_plate_5_element_prop'
p160
sbsI25
g0
(g39
g2
Ntp161
Rp162
(dp163
g43
Nsg44
g45
sg46
(lp164
I42
aI43
aI46
aI45
asg48
I25
sg49
I00
sg50
g159
sg55
g160
sbsI26
g0
(g39
g2
Ntp165
Rp166
(dp167
g43
Nsg44
g45
sg46
(lp168
I43
aI44
aI47
aI46
asg48
I26
sg49
I00
sg50
g159
sg55
g160
sbsI27
g0
(g39
g2
Ntp169
Rp170
(dp171
g43
Nsg44
g45
sg46
(lp172
I29
aI45
aI48
aI32
asg48
I27
sg49
I00
sg50
g159
sg55
g160
sbsI28
g0
(g39
g2
Ntp173
Rp174
(dp175
g43
Nsg44
g45
sg46
(lp176
I45
aI46
aI49
aI48
asg48
I28
sg49
I00
sg50
g159
sg55
g160
sbsI29
g0
(g39
g2
Ntp177
Rp178
(dp179
g43
Nsg44
g45
sg46
(lp180
I46
aI47
aI50
aI49
asg48
I29
sg49
I00
sg50
g159
sg55
g160
sbsI30
g0
(g39
g2
Ntp181
Rp182
(dp183
g43
Nsg44
g45
sg46
(lp184
I35
aI51
aI54
aI38
asg48
I30
sg49
I00
sg50
(dp185
g52
Nsg53
Nsg54
Nssg55
S'elset_plate_6_element_prop'
p186
sbsI31
g0
(g39
g2
Ntp187
Rp188
(dp189
g43
Nsg44
g45
sg46
(lp190
I51
aI52
aI55
aI54
asg48
I31
sg49
I00
sg50
g185
sg55
g186
sbsI32
g0
(g39
g2
Ntp191
Rp192
(dp193
g43
Nsg44
g45
sg46
(lp194
I52
aI53
aI56
aI55
asg48
I32
sg49
I00
sg50
g185
sg55
g186
sbsI33
g0
(g39
g2
Ntp195
Rp196
(dp197
g43
Nsg44
g45
sg46
(lp198
I38
aI54
aI57
aI41
asg48
I33
sg49
I00
sg50
g185
sg55
g186
sbsI34
g0
(g39
g2
Ntp199
Rp200
(dp201
g43
Nsg44
g45
sg46
(lp202
I54
aI55
aI58
aI57
asg48
I34
sg49
I00
sg50
g185
sg55
g186
sbsI35
g0
(g39
g2
Ntp203
Rp204
(dp205
g43
Nsg44
S'ShellElement'
p206
sg46
(lp207
I55
aI56
aI59
aI58
asg48
I35
sg49
I00
sg50
g185
sg55
g186
sbsI36
g0
(g39
g2
Ntp208
Rp209
(dp210
g43
Nsg44
g206
sg46
(lp211
I8
aI9
aI61
aI60
asg48
I36
sg49
I00
sg50
(dp212
g52
Nsg53
Nsg54
Nssg55
S'elset_plate_7_element_prop'
p213
sbsI37
g0
(g39
g2
Ntp214
Rp215
(dp216
g43
Nsg44
g206
sg46
(lp217
I9
aI10
aI62
aI61
asg48
I37
sg49
I00
sg50
g212
sg55
g213
sbsI38
g0
(g39
g2
Ntp218
Rp219
(dp220
g43
Nsg44
g206
sg46
(lp221
I10
aI11
aI63
aI62
asg48
I38
sg49
I00
sg50
g212
sg55
g213
sbsI39
g0
(g39
g2
Ntp222
Rp223
(dp224
g43
Nsg44
g206
sg46
(lp225
I60
aI61
aI13
aI12
asg48
I39
sg49
I00
sg50
g212
sg55
g213
sbsI40
g0
(g39
g2
Ntp226
Rp227
(dp228
g43
Nsg44
g206
sg46
(lp229
I61
aI62
aI14
aI13
asg48
I40
sg49
I00
sg50
g212
sg55
g213
sbsI41
g0
(g39
g2
Ntp230
Rp231
(dp232
g43
Nsg44
g206
sg46
(lp233
I62
aI63
aI15
aI14
asg48
I41
sg49
I00
sg50
g212
sg55
g213
sbsI42
g0
(g39
g2
Ntp234
Rp235
(dp236
g43
Nsg44
g206
sg46
(lp237
I11
aI30
aI64
aI63
asg48
I42
sg49
I00
sg50
(dp238
g52
Nsg53
Nsg54
Nssg55
S'elset_plate_8_element_prop'
p239
sbsI43
g0
(g39
g2
Ntp240
Rp241
(dp242
g43
Nsg44
g206
sg46
(lp243
I30
aI31
aI65
aI64
asg48
I43
sg49
I00
sg50
g238
sg55
g239
sbsI44
g0
(g39
g2
Ntp244
Rp245
(dp246
g43
Nsg44
g206
sg46
(lp247
I31
aI32
aI66
aI65
asg48
I44
sg49
I00
sg50
g238
sg55
g239
sbsI45
g0
(g39
g2
Ntp248
Rp249
(dp250
g43
Nsg44
g206
sg46
(lp251
I63
aI64
aI33
aI15
asg48
I45
sg49
I00
sg50
g238
sg55
g239
sbsI46
g0
(g39
g2
Ntp252
Rp253
(dp254
g43
Nsg44
g206
sg46
(lp255
I64
aI65
aI34
aI33
asg48
I46
sg49
I00
sg50
g238
sg55
g239
sbsI47
g0
(g39
g2
Ntp256
Rp257
(dp258
g43
Nsg44
g206
sg46
(lp259
I65
aI66
aI35
aI34
asg48
I47
sg49
I00
sg50
g238
sg55
g239
sbsI48
g0
(g39
g2
Ntp260
Rp261
(dp262
g43
Nsg44
g206
sg46
(lp263
I32
aI48
aI67
aI66
asg48
I48
sg49
I00
sg50
(dp264
g52
Nsg53
Nsg54
Nssg55
S'elset_plate_9_element_prop'
p265
sbsI49
g0
(g39
g2
Ntp266
Rp267
(dp268
g43
Nsg44
g206
sg46
(lp269
I48
aI49
aI68
aI67
asg48
I49
sg49
I00
sg50
g264
sg55
g265
sbsI50
g0
(g39
g2
Ntp270
Rp271
(dp272
g43
Nsg44
g206
sg46
(lp273
I49
aI50
aI69
aI68
asg48
I50
sg49
I00
sg50
g264
sg55
g265
sbsI51
g0
(g39
g2
Ntp274
Rp275
(dp276
g43
Nsg44
g206
sg46
(lp277
I66
aI67
aI51
aI35
asg48
I51
sg49
I00
sg50
g264
sg55
g265
sbsI52
g0
(g39
g2
Ntp278
Rp279
(dp280
g43
Nsg44
g206
sg46
(lp281
I67
aI68
aI52
aI51
asg48
I52
sg49
I00
sg50
g264
sg55
g265
sbsI53
g0
(g39
g2
Ntp282
Rp283
(dp284
g43
Nsg44
g206
sg46
(lp285
I68
aI69
aI53
aI52
asg48
I53
sg49
I00
sg50
g264
sg55
g265
sbsI54
g0
(g39
g2
Ntp286
Rp287
(dp288
g43
Nsg44
g206
sg46
(lp289
I70
aI71
aI75
aI74
asg48
I54
sg49
I00
sg50
(dp290
g52
Nsg53
Nsg54
Nssg55
S'elset_wall_1_1_element_prop'
p291
sbsI55
g0
(g39
g2
Ntp292
Rp293
(dp294
g43
Nsg44
g206
sg46
(lp295
I71
aI72
aI76
aI75
asg48
I55
sg49
I00
sg50
g290
sg55
g291
sbsI56
g0
(g39
g2
Ntp296
Rp297
(dp298
g43
Nsg44
g206
sg46
(lp299
I72
aI73
aI77
aI76
asg48
I56
sg49
I00
sg50
g290
sg55
g291
sbsI57
g0
(g39
g2
Ntp300
Rp301
(dp302
g43
Nsg44
g206
sg46
(lp303
I73
aI78
aI81
aI77
asg48
I57
sg49
I00
sg50
(dp304
g52
Nsg53
Nsg54
Nssg55
S'elset_wall_1_2_element_prop'
p305
sbsI58
g0
(g39
g2
Ntp306
Rp307
(dp308
g43
Nsg44
g206
sg46
(lp309
I78
aI79
aI82
aI81
asg48
I58
sg49
I00
sg50
g304
sg55
g305
sbsI59
g0
(g39
g2
Ntp310
Rp311
(dp312
g43
Nsg44
g206
sg46
(lp313
I79
aI80
aI83
aI82
asg48
I59
sg49
I00
sg50
g304
sg55
g305
sbsI60
g0
(g39
g2
Ntp314
Rp315
(dp316
g43
Nsg44
g206
sg46
(lp317
I80
aI84
aI87
aI83
asg48
I60
sg49
I00
sg50
(dp318
g52
Nsg53
Nsg54
Nssg55
S'elset_wall_1_3_element_prop'
p319
sbsI61
g0
(g39
g2
Ntp320
Rp321
(dp322
g43
Nsg44
g206
sg46
(lp323
I84
aI85
aI88
aI87
asg48
I61
sg49
I00
sg50
g318
sg55
g319
sbsI62
g0
(g39
g2
Ntp324
Rp325
(dp326
g43
Nsg44
g206
sg46
(lp327
I85
aI86
aI89
aI88
asg48
I62
sg49
I00
sg50
g318
sg55
g319
sbsI63
g0
(g39
g2
Ntp328
Rp329
(dp330
g43
Nsg44
g206
sg46
(lp331
I90
aI91
aI71
aI70
asg48
I63
sg49
I00
sg50
(dp332
g52
Nsg53
Nsg54
Nssg55
S'elset_wall_1_4_element_prop'
p333
sbsI64
g0
(g39
g2
Ntp334
Rp335
(dp336
g43
Nsg44
g206
sg46
(lp337
I91
aI92
aI72
aI71
asg48
I64
sg49
I00
sg50
g332
sg55
g333
sbsI65
g0
(g39
g2
Ntp338
Rp339
(dp340
g43
Nsg44
g206
sg46
(lp341
I92
aI93
aI73
aI72
asg48
I65
sg49
I00
sg50
g332
sg55
g333
sbsI66
g0
(g39
g2
Ntp342
Rp343
(dp344
g43
Nsg44
g206
sg46
(lp345
I93
aI94
aI78
aI73
asg48
I66
sg49
I00
sg50
(dp346
g52
Nsg53
Nsg54
Nssg55
S'elset_wall_1_5_element_prop'
p347
sbsI67
g0
(g39
g2
Ntp348
Rp349
(dp350
g43
Nsg44
g206
sg46
(lp351
I94
aI95
aI79
aI78
asg48
I67
sg49
I00
sg50
g346
sg55
g347
sbsI68
g0
(g39
g2
Ntp352
Rp353
(dp354
g43
Nsg44
g206
sg46
(lp355
I95
aI96
aI80
aI79
asg48
I68
sg49
I00
sg50
g346
sg55
g347
sbsI69
g0
(g39
g2
Ntp356
Rp357
(dp358
g43
Nsg44
g206
sg46
(lp359
I96
aI97
aI84
aI80
asg48
I69
sg49
I00
sg50
(dp360
g52
Nsg53
Nsg54
Nssg55
S'elset_wall_1_6_element_prop'
p361
sbsI70
g0
(g39
g2
Ntp362
Rp363
(dp364
g43
Nsg44
g206
sg46
(lp365
I97
aI98
aI85
aI84
asg48
I70
sg49
I00
sg50
g360
sg55
g361
sbsI71
g0
(g39
g2
Ntp366
Rp367
(dp368
g43
Nsg44
g206
sg46
(lp369
I98
aI99
aI86
aI85
asg48
I71
sg49
I00
sg50
g360
sg55
g361
sbsI72
g0
(g39
g2
Ntp370
Rp371
(dp372
g43
Nsg44
g206
sg46
(lp373
I100
aI101
aI91
aI90
asg48
I72
sg49
I00
sg50
(dp374
g52
Nsg53
Nsg54
Nssg55
S'elset_wall_1_7_element_prop'
p375
sbsI73
g0
(g39
g2
Ntp376
Rp377
(dp378
g43
Nsg44
g206
sg46
(lp379
I101
aI102
aI92
aI91
asg48
I73
sg49
I00
sg50
g374
sg55
g375
sbsI74
g0
(g39
g2
Ntp380
Rp381
(dp382
g43
Nsg44
g206
sg46
(lp383
I102
aI103
aI93
aI92
asg48
I74
sg49
I00
sg50
g374
sg55
g375
sbsI75
g0
(g39
g2
Ntp384
Rp385
(dp386
g43
Nsg44
g206
sg46
(lp387
I103
aI104
aI94
aI93
asg48
I75
sg49
I00
sg50
(dp388
g52
Nsg53
Nsg54
Nssg55
S'elset_wall_1_8_element_prop'
p389
sbsI76
g0
(g39
g2
Ntp390
Rp391
(dp392
g43
Nsg44
g206
sg46
(lp393
I104
aI105
aI95
aI94
asg48
I76
sg49
I00
sg50
g388
sg55
g389
sbsI77
g0
(g39
g2
Ntp394
Rp395
(dp396
g43
Nsg44
g206
sg46
(lp397
I105
aI106
aI96
aI95
asg48
I77
sg49
I00
sg50
g388
sg55
g389
sbsI78
g0
(g39
g2
Ntp398
Rp399
(dp400
g43
Nsg44
g206
sg46
(lp401
I106
aI107
aI97
aI96
asg48
I78
sg49
I00
sg50
(dp402
g52
Nsg53
Nsg54
Nssg55
S'elset_wall_1_9_element_prop'
p403
sbsI79
g0
(g39
g2
Ntp404
Rp405
(dp406
g43
Nsg44
g206
sg46
(lp407
I107
aI108
aI98
aI97
asg48
I79
sg49
I00
sg50
g402
sg55
g403
sbsI80
g0
(g39
g2
Ntp408
Rp409
(dp410
g43
Nsg44
g206
sg46
(lp411
I108
aI109
aI99
aI98
asg48
I80
sg49
I00
sg50
g402
sg55
g403
sbsI81
g0
(g39
g2
Ntp412
Rp413
(dp414
g43
Nsg44
g206
sg46
(lp415
I110
aI114
aI115
aI111
asg48
I81
sg49
I00
sg50
(dp416
g52
Nsg53
Nsg54
Nssg55
S'elset_wall_2_1_element_prop'
p417
sbsI82
g0
(g39
g2
Ntp418
Rp419
(dp420
g43
Nsg44
g206
sg46
(lp421
I111
aI115
aI116
aI112
asg48
I82
sg49
I00
sg50
g416
sg55
g417
sbsI83
g0
(g39
g2
Ntp422
Rp423
(dp424
g43
Nsg44
g206
sg46
(lp425
I112
aI116
aI117
aI113
asg48
I83
sg49
I00
sg50
g416
sg55
g417
sbsI84
g0
(g39
g2
Ntp426
Rp427
(dp428
g43
Nsg44
g206
sg46
(lp429
I113
aI117
aI121
aI118
asg48
I84
sg49
I00
sg50
(dp430
g52
Nsg53
Nsg54
Nssg55
S'elset_wall_2_2_element_prop'
p431
sbsI85
g0
(g39
g2
Ntp432
Rp433
(dp434
g43
Nsg44
g206
sg46
(lp435
I118
aI121
aI122
aI119
asg48
I85
sg49
I00
sg50
g430
sg55
g431
sbsI86
g0
(g39
g2
Ntp436
Rp437
(dp438
g43
Nsg44
g206
sg46
(lp439
I119
aI122
aI123
aI120
asg48
I86
sg49
I00
sg50
g430
sg55
g431
sbsI87
g0
(g39
g2
Ntp440
Rp441
(dp442
g43
Nsg44
g206
sg46
(lp443
I120
aI123
aI127
aI124
asg48
I87
sg49
I00
sg50
(dp444
g52
Nsg53
Nsg54
Nssg55
S'elset_wall_2_3_element_prop'
p445
sbsI88
g0
(g39
g2
Ntp446
Rp447
(dp448
g43
Nsg44
g206
sg46
(lp449
I124
aI127
aI128
aI125
asg48
I88
sg49
I00
sg50
g444
sg55
g445
sbsI89
g0
(g39
g2
Ntp450
Rp451
(dp452
g43
Nsg44
g206
sg46
(lp453
I125
aI128
aI129
aI126
asg48
I89
sg49
I00
sg50
g444
sg55
g445
sbsI90
g0
(g39
g2
Ntp454
Rp455
(dp456
g43
Nsg44
g206
sg46
(lp457
I130
aI110
aI111
aI131
asg48
I90
sg49
I00
sg50
(dp458
g52
Nsg53
Nsg54
Nssg55
S'elset_wall_2_4_element_prop'
p459
sbsI91
g0
(g39
g2
Ntp460
Rp461
(dp462
g43
Nsg44
g206
sg46
(lp463
I131
aI111
aI112
aI132
asg48
I91
sg49
I00
sg50
g458
sg55
g459
sbsI92
g0
(g39
g2
Ntp464
Rp465
(dp466
g43
Nsg44
g206
sg46
(lp467
I132
aI112
aI113
aI133
asg48
I92
sg49
I00
sg50
g458
sg55
g459
sbsI93
g0
(g39
g2
Ntp468
Rp469
(dp470
g43
Nsg44
g206
sg46
(lp471
I133
aI113
aI118
aI134
asg48
I93
sg49
I00
sg50
(dp472
g52
Nsg53
Nsg54
Nssg55
S'elset_wall_2_5_element_prop'
p473
sbsI94
g0
(g39
g2
Ntp474
Rp475
(dp476
g43
Nsg44
g206
sg46
(lp477
I134
aI118
aI119
aI135
asg48
I94
sg49
I00
sg50
g472
sg55
g473
sbsI95
g0
(g39
g2
Ntp478
Rp479
(dp480
g43
Nsg44
g206
sg46
(lp481
I135
aI119
aI120
aI136
asg48
I95
sg49
I00
sg50
g472
sg55
g473
sbsI96
g0
(g39
g2
Ntp482
Rp483
(dp484
g43
Nsg44
g206
sg46
(lp485
I136
aI120
aI124
aI137
asg48
I96
sg49
I00
sg50
(dp486
g52
Nsg53
Nsg54
Nssg55
S'elset_wall_2_6_element_prop'
p487
sbsI97
g0
(g39
g2
Ntp488
Rp489
(dp490
g43
Nsg44
g206
sg46
(lp491
I137
aI124
aI125
aI138
asg48
I97
sg49
I00
sg50
g486
sg55
g487
sbsI98
g0
(g39
g2
Ntp492
Rp493
(dp494
g43
Nsg44
g206
sg46
(lp495
I138
aI125
aI126
aI139
asg48
I98
sg49
I00
sg50
g486
sg55
g487
sbsI99
g0
(g39
g2
Ntp496
Rp497
(dp498
g43
Nsg44
g206
sg46
(lp499
I140
aI130
aI131
aI141
asg48
I99
sg49
I00
sg50
(dp500
g52
Nsg53
Nsg54
Nssg55
S'elset_wall_2_7_element_prop'
p501
sbsI100
g0
(g39
g2
Ntp502
Rp503
(dp504
S'mass'
p505
Nsg44
g206
sg46
(lp506
I141
aI131
aI132
aI142
asg48
I100
sg49
I00
sg50
g500
sg55
g501
sbsI101
g0
(g39
g2
Ntp507
Rp508
(dp509
g505
Nsg44
g206
sg46
(lp510
I142
aI132
aI133
aI143
asg48
I101
sg49
I00
sg50
g500
sg55
g501
sbsI102
g0
(g39
g2
Ntp511
Rp512
(dp513
g505
Nsg44
g206
sg46
(lp514
I143
aI133
aI134
aI144
asg48
I102
sg49
I00
sg50
(dp515
g52
Nsg53
Nsg54
Nssg55
S'elset_wall_2_8_element_prop'
p516
sbsI103
g0
(g39
g2
Ntp517
Rp518
(dp519
g505
Nsg44
g206
sg46
(lp520
I144
aI134
aI135
aI145
asg48
I103
sg49
I00
sg50
g515
sg55
g516
sbsI104
g0
(g39
g2
Ntp521
Rp522
(dp523
g505
Nsg44
g206
sg46
(lp524
I145
aI135
aI136
aI146
asg48
I104
sg49
I00
sg50
g515
sg55
g516
sbsI105
g0
(g39
g2
Ntp525
Rp526
(dp527
g505
Nsg44
g206
sg46
(lp528
I146
aI136
aI137
aI147
asg48
I105
sg49
I00
sg50
(dp529
g52
Nsg53
Nsg54
Nssg55
S'elset_wall_2_9_element_prop'
p530
sbsI106
g0
(g39
g2
Ntp531
Rp532
(dp533
g505
Nsg44
g206
sg46
(lp534
I147
aI137
aI138
aI148
asg48
I106
sg49
I00
sg50
g529
sg55
g530
sbsI107
g0
(g39
g2
Ntp535
Rp536
(dp537
g505
Nsg44
g206
sg46
(lp538
I148
aI138
aI139
aI149
asg48
I107
sg49
I00
sg50
g529
sg55
g530
sbsI108
g0
(ccompas_fea.structure.element
MPCElement
p539
g2
Ntp540
Rp541
(dp542
g43
Nsg44
S'MPCElement'
p543
sg46
(lp544
I129
aI59
asg48
I108
sg49
I00
sg50
(dp545
S'ey'
p546
NsS'ez'
p547
(lp548
F0.0
aF0.0
aF400.0
asS'ex'
p549
Nssg55
S'elset_mpc_element_prop'
p550
sbsI109
g0
(g539
g2
Ntp551
Rp552
(dp553
g43
Nsg44
g543
sg46
(lp554
I128
aI58
asg48
I109
sg49
I00
sg50
(dp555
S'ey'
p556
NsS'ez'
p557
(lp558
F3.637978807091713e-12
aF0.0
aF400.0
asS'ex'
p559
Nssg55
g550
sbsI110
g0
(g539
g2
Ntp560
Rp561
(dp562
g43
Nsg44
g543
sg46
(lp563
I127
aI57
asg48
I110
sg49
I00
sg50
(dp564
g556
Nsg557
(lp565
F2.7284841053187847e-12
aF0.0
aF400.0
asg559
Nssg55
g550
sbsI111
g0
(g539
g2
Ntp566
Rp567
(dp568
g43
Nsg44
g543
sg46
(lp569
I123
aI41
asg48
I111
sg49
I00
sg50
(dp570
g556
Nsg557
(lp571
F9.0949470177292824e-13
aF0.0
aF400.0
asg559
Nssg55
g550
sbsI112
g0
(g539
g2
Ntp572
Rp573
(dp574
g43
Nsg44
g543
sg46
(lp575
I122
aI40
asg48
I112
sg49
I00
sg50
(dp576
g556
Nsg557
(lp577
F0.0
aF0.0
aF400.0
asg559
Nssg55
g550
sbsI113
g0
(g539
g2
Ntp578
Rp579
(dp580
g43
Nsg44
g543
sg46
(lp581
I121
aI39
asg48
I113
sg49
I00
sg50
(dp582
g556
Nsg557
(lp583
F1.8189894035458565e-12
aF0.0
aF400.0
asg559
Nssg55
g550
sbsI114
g0
(g539
g2
Ntp584
Rp585
(dp586
g43
Nsg44
g543
sg46
(lp587
I117
aI23
asg48
I114
sg49
I00
sg50
(dp588
g556
Nsg557
(lp589
F4.5474735088646412e-13
aF0.0
aF400.0
asg559
Nssg55
g550
sbsI115
g0
(g539
g2
Ntp590
Rp591
(dp592
g43
Nsg44
g543
sg46
(lp593
I116
aI22
asg48
I115
sg49
I00
sg50
(dp594
g556
Nsg557
(lp595
F4.5474735088646412e-13
aF0.0
aF400.0
asg559
Nssg55
g550
sbsI116
g0
(g539
g2
Ntp596
Rp597
(dp598
g43
Nsg44
g543
sg46
(lp599
I115
aI21
asg48
I116
sg49
I00
sg50
(dp600
g556
Nsg557
(lp601
F2.2737367544323206e-13
aF0.0
aF400.0
asg559
Nssg55
g550
sbsI117
g0
(g539
g2
Ntp602
Rp603
(dp604
g43
Nsg44
g543
sg46
(lp605
I114
aI20
asg48
I117
sg49
I00
sg50
(dp606
g556
Nsg557
(lp607
F0.0
aF0.0
aF400.0
asg559
Nssg55
g550
sbsI118
g0
(g539
g2
Ntp608
Rp609
(dp610
g43
Nsg44
g543
sg46
(lp611
I89
aI44
asg48
I118
sg49
I00
sg50
(dp612
g556
Nsg557
(lp613
F0.0
aF0.0
aF400.0
asg559
Nssg55
g550
sbsI119
g0
(g539
g2
Ntp614
Rp615
(dp616
g43
Nsg44
g543
sg46
(lp617
I88
aI43
asg48
I119
sg49
I00
sg50
(dp618
g556
Nsg557
(lp619
F3.637978807091713e-12
aF0.0
aF400.0
asg559
Nssg55
g550
sbsI120
g0
(g539
g2
Ntp620
Rp621
(dp622
g43
Nsg44
g543
sg46
(lp623
I87
aI42
asg48
I120
sg49
I00
sg50
(dp624
g556
Nsg557
(lp625
F2.7284841053187847e-12
aF0.0
aF400.0
asg559
Nssg55
g550
sbsI121
g0
(g539
g2
Ntp626
Rp627
(dp628
g43
Nsg44
g543
sg46
(lp629
I83
aI26
asg48
I121
sg49
I00
sg50
(dp630
g556
Nsg557
(lp631
F9.0949470177292824e-13
aF0.0
aF400.0
asg559
Nssg55
g550
sbsI122
g0
(g539
g2
Ntp632
Rp633
(dp634
g43
Nsg44
g543
sg46
(lp635
I82
aI25
asg48
I122
sg49
I00
sg50
(dp636
g556
Nsg557
(lp637
F0.0
aF0.0
aF400.0
asg559
Nssg55
g550
sbsI123
g0
(g539
g2
Ntp638
Rp639
(dp640
g43
Nsg44
g543
sg46
(lp641
I81
aI24
asg48
I123
sg49
I00
sg50
(dp642
g556
Nsg557
(lp643
F1.8189894035458565e-12
aF0.0
aF400.0
asg559
Nssg55
g550
sbsI124
g0
(g539
g2
Ntp644
Rp645
(dp646
g43
Nsg44
g543
sg46
(lp647
I77
aI3
asg48
I124
sg49
I00
sg50
(dp648
g556
Nsg557
(lp649
F4.5474735088646412e-13
aF0.0
aF400.0
asg559
Nssg55
g550
sbsI125
g0
(g539
g2
Ntp650
Rp651
(dp652
g43
Nsg44
g543
sg46
(lp653
I76
aI2
asg48
I125
sg49
I00
sg50
(dp654
g556
Nsg557
(lp655
F4.5474735088646412e-13
aF0.0
aF400.0
asg559
Nssg55
g550
sbsI126
g0
(g539
g2
Ntp656
Rp657
(dp658
g43
Nsg44
g543
sg46
(lp659
I75
aI1
asg48
I126
sg49
I00
sg50
(dp660
g556
Nsg557
(lp661
F2.2737367544323206e-13
aF0.0
aF400.0
asg559
Nssg55
g550
sbsI127
g0
(g539
g2
Ntp662
Rp663
(dp664
g43
Nsg44
g543
sg46
(lp665
I74
aI0
asg48
I127
sg49
I00
sg50
(dp666
g556
Nsg557
(lp667
F0.0
aF0.0
aF400.0
asg559
Nssg55
g550
sbssS'element_index'
p668
(dp669
S'534.600,2241.000,0.000'
p670
I36
sS'2673.000,0.000,-1690.000'
p671
I65
sS'3207.600,5400.000,-200.000'
p672
I114
sS'8618.400,5400.000,-200.000'
p673
I109
sS'0.000,0.000,-200.000'
p674
I127
sS'6966.000,5400.000,-2554.300'
p675
I105
sS'2138.400,5400.000,-200.000'
p676
I115
sS'8067.600,2241.000,0.000'
p677
I49
sS'3742.200,445.500,0.000'
p678
I12
sS'8067.600,0.000,-1690.000'
p679
I70
sS'8067.600,4954.500,0.000'
p680
I34
sS'3742.200,4954.500,0.000'
p681
I21
sS'3207.600,0.000,-200.000'
p682
I124
sS'9169.200,5400.000,-1690.000'
p683
I98
sS'2673.000,1336.500,0.000'
p684
I5
sS'3742.200,1336.500,0.000'
p685
I15
sS'2673.000,0.000,-2554.300'
p686
I74
sS'534.600,445.500,0.000'
p687
I0
sS'2673.000,2241.000,0.000'
p688
I38
sS'5880.600,5400.000,-2554.300'
p689
I104
sS'9169.200,445.500,0.000'
p690
I26
sS'1603.800,3159.000,0.000'
p691
I40
sS'4276.800,0.000,-200.000'
p692
I123
sS'4811.400,1336.500,0.000'
p693
I16
sS'4276.800,5400.000,-200.000'
p694
I113
sS'534.600,0.000,-825.700'
p695
I54
sS'1603.800,5400.000,-2554.300'
p696
I100
sS'2673.000,445.500,0.000'
p697
I2
sS'1069.200,0.000,-200.000'
p698
I126
sS'6966.000,5400.000,-825.700'
p699
I87
sS'0.000,5400.000,-200.000'
p700
I117
sS'1603.800,5400.000,-1690.000'
p701
I91
sS'2673.000,5400.000,-2554.300'
p702
I101
sS'4811.400,4063.500,0.000'
p703
I19
sS'3742.200,5400.000,-2554.300'
p704
I102
sS'4811.400,5400.000,-825.700'
p705
I85
sS'6966.000,445.500,0.000'
p706
I24
sS'1603.800,2241.000,0.000'
p707
I37
sS'3742.200,0.000,-1690.000'
p708
I66
sS'534.600,0.000,-1690.000'
p709
I63
sS'1603.800,445.500,0.000'
p710
I1
sS'8067.600,445.500,0.000'
p711
I25
sS'5880.600,445.500,0.000'
p712
I14
sS'1603.800,1336.500,0.000'
p713
I4
sS'8618.400,0.000,-200.000'
p714
I119
sS'6966.000,0.000,-2554.300'
p715
I78
sS'5880.600,5400.000,-825.700'
p716
I86
sS'9169.200,4063.500,0.000'
p717
I32
sS'2138.400,0.000,-200.000'
p718
I125
sS'8067.600,0.000,-825.700'
p719
I61
sS'6966.000,2241.000,0.000'
p720
I48
sS'9169.200,0.000,-825.700'
p721
I62
sS'8067.600,5400.000,-1690.000'
p722
I97
sS'9169.200,2241.000,0.000'
p723
I50
sS'2673.000,0.000,-825.700'
p724
I56
sS'9169.200,3159.000,0.000'
p725
I53
sS'4811.400,0.000,-1690.000'
p726
I67
sS'6966.000,4063.500,0.000'
p727
I30
sS'8067.600,1336.500,0.000'
p728
I28
sS'5880.600,4063.500,0.000'
p729
I20
sS'5880.600,3159.000,0.000'
p730
I47
sS'5880.600,1336.500,0.000'
p731
I17
sS'8067.600,4063.500,0.000'
p732
I31
sS'9720.000,5400.000,-200.000'
p733
I108
sS'5880.600,2241.000,0.000'
p734
I44
sS'2673.000,4954.500,0.000'
p735
I11
sS'534.600,5400.000,-1690.000'
p736
I90
sS'534.600,5400.000,-2554.300'
p737
I99
sS'6966.000,0.000,-1690.000'
p738
I69
sS'3742.200,0.000,-2554.300'
p739
I75
sS'1069.200,5400.000,-200.000'
p740
I116
sS'4811.400,4954.500,0.000'
p741
I22
sS'534.600,4954.500,0.000'
p742
I9
sS'4811.400,5400.000,-2554.300'
p743
I103
sS'4811.400,0.000,-2554.300'
p744
I76
sS'4811.400,0.000,-825.700'
p745
I58
sS'2673.000,5400.000,-825.700'
p746
I83
sS'6966.000,4954.500,0.000'
p747
I33
sS'1603.800,0.000,-1690.000'
p748
I64
sS'4811.400,5400.000,-1690.000'
p749
I94
sS'9169.200,1336.500,0.000'
p750
I29
sS'534.600,3159.000,0.000'
p751
I39
sS'3742.200,2241.000,0.000'
p752
I42
sS'2673.000,4063.500,0.000'
p753
I8
sS'8067.600,3159.000,0.000'
p754
I52
sS'9720.000,0.000,-200.000'
p755
I118
sS'5880.600,5400.000,-1690.000'
p756
I95
sS'3742.200,5400.000,-1690.000'
p757
I93
sS'7516.800,0.000,-200.000'
p758
I120
sS'3742.200,5400.000,-825.700'
p759
I84
sS'5880.600,0.000,-825.700'
p760
I59
sS'4811.400,445.500,0.000'
p761
I13
sS'1603.800,4954.500,0.000'
p762
I10
sS'3742.200,4063.500,0.000'
p763
I18
sS'6966.000,1336.500,0.000'
p764
I27
sS'6415.200,0.000,-200.000'
p765
I121
sS'6966.000,0.000,-825.700'
p766
I60
sS'4811.400,2241.000,0.000'
p767
I43
sS'534.600,4063.500,0.000'
p768
I6
sS'534.600,1336.500,0.000'
p769
I3
sS'6966.000,5400.000,-1690.000'
p770
I96
sS'8067.600,0.000,-2554.300'
p771
I79
sS'2673.000,5400.000,-1690.000'
p772
I92
sS'9169.200,0.000,-2554.300'
p773
I80
sS'9169.200,0.000,-1690.000'
p774
I71
sS'9169.200,4954.500,0.000'
p775
I35
sS'3742.200,3159.000,0.000'
p776
I45
sS'8067.600,5400.000,-825.700'
p777
I88
sS'8067.600,5400.000,-2554.300'
p778
I106
sS'5880.600,4954.500,0.000'
p779
I23
sS'534.600,5400.000,-825.700'
p780
I81
sS'1603.800,4063.500,0.000'
p781
I7
sS'6415.200,5400.000,-200.000'
p782
I111
sS'2673.000,3159.000,0.000'
p783
I41
sS'9169.200,5400.000,-2554.300'
p784
I107
sS'5346.000,0.000,-200.000'
p785
I122
sS'534.600,0.000,-2554.300'
p786
I72
sS'1603.800,0.000,-825.700'
p787
I55
sS'4811.400,3159.000,0.000'
p788
I46
sS'5346.000,5400.000,-200.000'
p789
I112
sS'6966.000,3159.000,0.000'
p790
I51
sS'9169.200,5400.000,-825.700'
p791
I89
sS'1603.800,0.000,-2554.300'
p792
I73
sS'1603.800,5400.000,-825.700'
p793
I82
sS'7516.800,5400.000,-200.000'
p794
I110
sS'5880.600,0.000,-2554.300'
p795
I77
sS'5880.600,0.000,-1690.000'
p796
I68
sS'3742.200,0.000,-825.700'
p797
I57
ssS'element_properties'
p798
(dp799
g459
g0
(ccompas_fea.structure.element_properties
ElementProperties
p800
g2
Ntp801
Rp802
(dp803
g15
I21
sS'__name__'
p804
S'ElementProperties'
p805
sS'name'
p806
g459
sS'material'
p807
S'wall_element_mat'
p808
sS'section'
p809
S'wall2_element_sec'
p810
sS'elset'
p811
S'elset_wall_2_4'
p812
sS'elements'
p813
NsS'rebar'
p814
(dp815
sbsg305
g0
(g800
g2
Ntp816
Rp817
(dp818
g15
I10
sg804
g805
sg806
g305
sg807
g808
sg809
S'wall1_element_sec'
p819
sg811
S'elset_wall_1_2'
p820
sg813
Nsg814
g815
sbsg389
g0
(g800
g2
Ntp821
Rp822
(dp823
g15
I16
sg804
g805
sg806
g389
sg807
g808
sg809
g819
sg811
S'elset_wall_1_8'
p824
sg813
Nsg814
g815
sbsg431
g0
(g800
g2
Ntp825
Rp826
(dp827
g15
I19
sg804
g805
sg806
g431
sg807
g808
sg809
g810
sg811
S'elset_wall_2_2'
p828
sg813
Nsg814
g815
sbsg56
g0
(g800
g2
Ntp829
Rp830
(dp831
g15
I0
sg804
g805
sg806
g56
sg807
S'plate_element_mat'
p832
sg809
S'plate_element_sec'
p833
sg811
S'elset_plate_1'
p834
sg813
Nsg814
g815
sbsg473
g0
(g800
g2
Ntp835
Rp836
(dp837
g15
I22
sg804
g805
sg806
g473
sg807
g808
sg809
g810
sg811
S'elset_wall_2_5'
p838
sg813
Nsg814
g815
sbsg265
g0
(g800
g2
Ntp839
Rp840
(dp841
g15
I8
sg804
g805
sg806
g265
sg807
g832
sg809
g833
sg811
S'elset_plate_9'
p842
sg813
Nsg814
g815
sbsg361
g0
(g800
g2
Ntp843
Rp844
(dp845
g15
I14
sg804
g805
sg806
g361
sg807
g808
sg809
g819
sg811
S'elset_wall_1_6'
p846
sg813
Nsg814
g815
sbsg160
g0
(g800
g2
Ntp847
Rp848
(dp849
g15
I4
sg804
g805
sg806
g160
sg807
g832
sg809
g833
sg811
S'elset_plate_5'
p850
sg813
Nsg814
g815
sbsg319
g0
(g800
g2
Ntp851
Rp852
(dp853
g15
I11
sg804
g805
sg806
g319
sg807
g808
sg809
g819
sg811
S'elset_wall_1_3'
p854
sg813
Nsg814
g815
sbsg108
g0
(g800
g2
Ntp855
Rp856
(dp857
g15
I2
sg804
g805
sg806
g108
sg807
g832
sg809
g833
sg811
S'elset_plate_3'
p858
sg813
Nsg814
g815
sbsg445
g0
(g800
g2
Ntp859
Rp860
(dp861
g15
I20
sg804
g805
sg806
g445
sg807
g808
sg809
g810
sg811
S'elset_wall_2_3'
p862
sg813
Nsg814
g815
sbsg487
g0
(g800
g2
Ntp863
Rp864
(dp865
g15
I23
sg804
g805
sg806
g487
sg807
g808
sg809
g810
sg811
S'elset_wall_2_6'
p866
sg813
Nsg814
g815
sbsg333
g0
(g800
g2
Ntp867
Rp868
(dp869
g15
I12
sg804
g805
sg806
g333
sg807
g808
sg809
g819
sg811
S'elset_wall_1_4'
p870
sg813
Nsg814
g815
sbsg403
g0
(g800
g2
Ntp871
Rp872
(dp873
g15
I17
sg804
g805
sg806
g403
sg807
g808
sg809
g819
sg811
S'elset_wall_1_9'
p874
sg813
Nsg814
g815
sbsg239
g0
(g800
g2
Ntp875
Rp876
(dp877
g15
I7
sg804
g805
sg806
g239
sg807
g832
sg809
g833
sg811
S'elset_plate_8'
p878
sg813
Nsg814
g815
sbsg291
g0
(g800
g2
Ntp879
Rp880
(dp881
g15
I9
sg804
g805
sg806
g291
sg807
g808
sg809
g819
sg811
S'elset_wall_1_1'
p882
sg813
Nsg814
g815
sbsg213
g0
(g800
g2
Ntp883
Rp884
(dp885
g15
I6
sg804
g805
sg806
g213
sg807
g832
sg809
g833
sg811
S'elset_plate_7'
p886
sg813
Nsg814
g815
sbsg516
g0
(g800
g2
Ntp887
Rp888
(dp889
g15
I25
sg804
g805
sg806
g516
sg807
g808
sg809
g810
sg811
S'elset_wall_2_8'
p890
sg813
Nsg814
g815
sbsg134
g0
(g800
g2
Ntp891
Rp892
(dp893
g15
I3
sg804
g805
sg806
g134
sg807
g832
sg809
g833
sg811
S'elset_plate_4'
p894
sg813
Nsg814
g815
sbsg82
g0
(g800
g2
Ntp895
Rp896
(dp897
g15
I1
sg804
g805
sg806
g82
sg807
g832
sg809
g833
sg811
S'elset_plate_2'
p898
sg813
Nsg814
g815
sbsg550
g0
(g800
g2
Ntp899
Rp900
(dp901
g15
I27
sg804
g805
sg806
g550
sg807
S'elset_mpc_element_mat'
p902
sg809
S'sec_mpc'
p903
sg811
S'elset_mpcs'
p904
sg813
Nsg814
g815
sbsg375
g0
(g800
g2
Ntp905
Rp906
(dp907
g15
I15
sg804
g805
sg806
g375
sg807
g808
sg809
g819
sg811
S'elset_wall_1_7'
p908
sg813
Nsg814
g815
sbsg501
g0
(g800
g2
Ntp909
Rp910
(dp911
g15
I24
sg804
g805
sg806
g501
sg807
g808
sg809
g810
sg811
S'elset_wall_2_7'
p912
sg813
Nsg814
g815
sbsg530
g0
(g800
g2
Ntp913
Rp914
(dp915
g15
I26
sg804
g805
sg806
g530
sg807
g808
sg809
g810
sg811
S'elset_wall_2_9'
p916
sg813
Nsg814
g815
sbsg417
g0
(g800
g2
Ntp917
Rp918
(dp919
g15
I18
sg804
g805
sg806
g417
sg807
g808
sg809
g810
sg811
S'elset_wall_2_1'
p920
sg813
Nsg814
g815
sbsg186
g0
(g800
g2
Ntp921
Rp922
(dp923
g15
I5
sg804
g805
sg806
g186
sg807
g832
sg809
g833
sg811
S'elset_plate_6'
p924
sg813
Nsg814
g815
sbsg347
g0
(g800
g2
Ntp925
Rp926
(dp927
g15
I13
sg804
g805
sg806
g347
sg807
g808
sg809
g819
sg811
S'elset_wall_1_5'
p928
sg813
Nsg814
g815
sbssS'interactions'
p929
(dp930
sS'loads'
p931
(dp932
S'earthPressure_liveLoad'
p933
g0
(ccompas_fea.structure.load
AreaLoad
p934
g2
Ntp935
Rp936
(dp937
g15
I7
sS'__name__'
p938
S'AreaLoad'
p939
sS'name'
p940
g933
sS'axes'
p941
S'local'
p942
sS'components'
p943
(dp944
S'z'
p945
I0
sS'y'
p946
F-0.037699999999999997
sS'x'
p947
I0
ssS'nodes'
p948
(lp949
sS'elements'
p950
(lp951
I55
aI56
aI57
aI64
aI65
aI66
aI73
aI74
aI75
asS'attr_list'
p952
(lp953
S'name'
p954
aS'axes'
p955
aS'components'
p956
aS'nodes'
p957
aS'elements'
p958
asbsS'Gleis1_EIGENGEWICHTE_SCHIENE_Lasteinzugsflache'
p959
g0
(g934
g2
Ntp960
Rp961
(dp962
g15
I3
sg938
g939
sg940
g959
sg941
S'global'
p963
sg943
(dp964
g945
F-0.0025808823529411768
sg946
I0
sg947
I0
ssg948
g949
sg950
(lp965
I1
aI2
aI3
aI4
aI5
aI6
aI7
aI8
aI9
aI10
aI11
aI12
aI19
aI22
aI37
aI38
aI39
aI40
aI41
aI42
aI46
asg952
(lp966
g954
ag955
ag956
ag957
ag958
asbsS'earthPressure_backfill'
p967
g0
(g934
g2
Ntp968
Rp969
(dp970
g15
I2
sg938
g939
sg940
g967
sg941
S'local'
p971
sg943
(dp972
g945
I0
sg946
F-0.038826627906976753
sg947
I0
ssg948
g949
sg950
(lp973
g882
ag820
ag854
ag870
ag928
ag846
ag908
ag824
ag874
ag920
ag828
ag862
ag812
ag838
ag866
ag912
ag890
ag916
asg952
(lp974
g954
ag955
ag956
ag957
ag958
asbsS'Gleis1_BAHNLASTEN_Lasteinzugsflache_Lastblock_2'
p975
g0
(g934
g2
Ntp976
Rp977
(dp978
g15
I5
sg938
g939
sg940
g975
sg941
S'local'
p979
sg943
(dp980
g945
F-0.10760766806722691
sg946
I0
sg947
I0
ssg948
g949
sg950
(lp981
I12
aI22
asg952
(lp982
g954
ag955
ag956
ag957
ag958
asbsS'earthPressure_gravel'
p983
g0
(g934
g2
Ntp984
Rp985
(dp986
g15
I1
sg938
g939
sg940
g983
sg941
S'local'
p987
sg943
(dp988
g945
F-0.013500000000000002
sg946
I0
sg947
I0
ssg948
g949
sg950
(lp989
g834
ag898
ag858
ag894
ag850
ag924
ag886
ag878
ag842
asg952
(lp990
g954
ag955
ag956
ag957
ag958
asbsS'Gleis1_BAHNLASTEN_Lasteinzugsflache_Lastblock_-1'
p991
g0
(g934
g2
Ntp992
Rp993
(dp994
g15
I6
sg938
g939
sg940
g991
sg941
g979
sg943
(dp995
g945
F-0.10760766806722691
sg946
I0
sg947
I0
ssg948
g949
sg950
(lp996
I1
aI2
aI3
aI4
aI5
aI6
asg952
(lp997
g954
ag955
ag956
ag957
ag958
asbsS'Gleis1_BAHNLASTEN_Lasteinzugsflache_Lastblock_1'
p998
g0
(g934
g2
Ntp999
Rp1000
(dp1001
g15
I4
sg938
g939
sg940
g998
sg941
g979
sg943
(dp1002
g945
F-0.10760766806722691
sg946
I0
sg947
I0
ssg948
g949
sg950
(lp1003
I37
aI38
aI39
aI40
aI41
aI42
aI46
asg952
(lp1004
g954
ag955
ag956
ag957
ag958
asbsS'load_gravity'
p1005
g0
(ccompas_fea.structure.load
GravityLoad
p1006
g2
Ntp1007
Rp1008
(dp1009
g15
I0
sg938
S'GravityLoad'
p1010
sg940
g1005
sg941
S'global'
p1011
sg943
(dp1012
S'z'
p1013
F1.0
sS'y'
p1014
F0.0
sS'x'
p1015
F0.0
ssg948
g949
sg950
(lp1016
g834
ag898
ag858
ag894
ag850
ag924
ag886
ag878
ag842
ag882
ag820
ag854
ag870
ag928
ag846
ag908
ag824
ag874
ag920
ag828
ag862
ag812
ag838
ag866
ag912
ag890
ag916
asg952
(lp1017
g954
ag955
ag956
ag957
ag958
aS'g'
p1018
asS'g'
p1019
F-9.8100000000000005
sbssS'materials'
p1020
(dp1021
S'elset_mpc_element_mat'
p1022
g0
(ccompas_fea.structure.material
MPCStiff
p1023
g2
Ntp1024
Rp1025
(dp1026
g15
I2
sS'__name__'
p1027
S'MPCStiff'
p1028
sS'name'
p1029
g1022
sS'attr_list'
p1030
(lp1031
S'name'
p1032
aS'E'
p1033
aS'v'
p1034
aS'G'
p1035
aS'p'
p1036
aS'tension'
p1037
aS'compression'
p1038
asS'E'
p1039
(dp1040
S'E'
p1041
L10000000000000L
ssS'v'
p1042
(dp1043
S'v'
p1044
F0.29999999999999999
ssS'G'
p1045
(dp1046
S'G'
p1047
F3846153846153.8462
ssS'p'
p1048
F0.10000000000000001
sS'tension'
p1049
I01
sS'compression'
p1050
I01
sbsg808
g0
(ccompas_fea.structure.material
CMMUsermat
p1051
g2
Ntp1052
Rp1053
(dp1054
g15
I1
sg1027
S'CMMUsermat'
p1055
sg1029
g808
sg1030
(lp1056
g1032
aS'E'
p1057
aS'v'
p1058
aS'G'
p1059
aS'p'
p1060
aS'R_Rohr'
p1061
aS'rho'
p1062
aS'oo'
p1063
aS'uu'
p1064
aS'beton'
p1065
aS'fcc'
p1066
aS'vc'
p1067
aS'ecu'
p1068
aS'k_E'
p1069
aS'theta_b0'
p1070
aS'theta_b1'
p1071
aS'k_riss'
p1072
aS'Entfestigung'
p1073
aS'lambdaTS'
p1074
aS'srmx'
p1075
aS'srmy'
p1076
aS'Begrenzung'
p1077
aS'KritQ'
p1078
aS'winkelD'
p1079
aS'k_vr'
p1080
aS'fswy'
p1081
aS'stahl1'
p1082
aS'zm1'
p1083
aS'fsy1'
p1084
aS'fsu1'
p1085
aS'esu1'
p1086
aS'esv1'
p1087
aS'Es1'
p1088
aS'ka1'
p1089
aS'kb1'
p1090
aS'kc1'
p1091
aS'as1'
p1092
aS'dm1'
p1093
aS'psi1'
p1094
aS'stahl2'
p1095
aS'zm2'
p1096
aS'fsy2'
p1097
aS'fsu2'
p1098
aS'esu2'
p1099
aS'esv2'
p1100
aS'Es2'
p1101
aS'ka2'
p1102
aS'kb2'
p1103
aS'kc2'
p1104
aS'as2'
p1105
aS'dm2'
p1106
aS'psi2'
p1107
aS'stahl3'
p1108
aS'zm3'
p1109
aS'fsy3'
p1110
aS'fsu3'
p1111
aS'esu3'
p1112
aS'esv3'
p1113
aS'Es3'
p1114
aS'ka3'
p1115
aS'kb3'
p1116
aS'kc3'
p1117
aS'as3'
p1118
aS'dm3'
p1119
aS'psi3'
p1120
aS'stahl4'
p1121
aS'zm4'
p1122
aS'fsy4'
p1123
aS'fsu4'
p1124
aS'esu4'
p1125
aS'esv4'
p1126
aS'Es4'
p1127
aS'ka4'
p1128
aS'kb4'
p1129
aS'kc4'
p1130
aS'as4'
p1131
aS'dm4'
p1132
aS'psi4'
p1133
asS'E'
p1134
(dp1135
S'E'
p1136
I200000
ssS'v'
p1137
(dp1138
S'v'
p1139
F0.10000000000000001
ssS'G'
p1140
(dp1141
S'G'
p1142
F90909.090909090897
ssS'p'
p1143
F2.5000000000000002e-06
sS'R_Rohr'
p1144
(dp1145
S'R_Rohr'
p1146
I-1
ssS'rho'
p1147
(dp1148
S'rho'
p1149
F2.5000000000000002e-06
ssS'oo'
p1150
(dp1151
S'oo'
p1152
I30
ssS'uu'
p1153
(dp1154
S'uu'
p1155
I30
ssS'beton'
p1156
(dp1157
S'beton'
p1158
I2
ssS'fcc'
p1159
(dp1160
S'fcc'
p1161
I12
ssS'vc'
p1162
(dp1163
S'vc'
p1164
I0
ssS'ecu'
p1165
(dp1166
S'ecu'
p1167
F-0.002
ssS'k_E'
p1168
(dp1169
S'k_E'
p1170
I10000
ssS'theta_b0'
p1171
(dp1172
S'theta_b0'
p1173
I2
ssS'theta_b1'
p1174
(dp1175
S'theta_b1'
p1176
I1
ssS'k_riss'
p1177
(dp1178
S'k_riss'
p1179
I0
ssS'Entfestigung'
p1180
(dp1181
S'Entfestigung'
p1182
I0
ssS'lambdaTS'
p1183
(dp1184
S'lambdaTS'
p1185
F0.67000000000000004
ssS'srmx'
p1186
(dp1187
S'srmx'
p1188
I1
ssS'srmy'
p1189
(dp1190
S'srmy'
p1191
I1
ssS'Begrenzung'
p1192
(dp1193
S'Begrenzung'
p1194
I2
ssS'KritQ'
p1195
(dp1196
S'KritQ'
p1197
I0
ssS'winkelD'
p1198
(dp1199
S'winkelD'
p1200
I45
ssS'k_vr'
p1201
(dp1202
S'k_vr'
p1203
I1
ssS'fswy'
p1204
(dp1205
S'fswy'
p1206
I500
ssS'stahl1'
p1207
(dp1208
S'stahl1'
p1209
I1
ssS'zm1'
p1210
(dp1211
S'zm1'
p1212
I2
ssS'fsy1'
p1213
(dp1214
S'fsy1'
p1215
I390
ssS'fsu1'
p1216
(dp1217
S'fsu1'
p1218
I721
ssS'esu1'
p1219
(dp1220
S'esu1'
p1221
F0.050000000000000003
ssS'esv1'
p1222
(dp1223
S'esv1'
p1224
F0.02
ssS'Es1'
p1225
(dp1226
S'Es1'
p1227
I200000
ssS'ka1'
p1228
(dp1229
S'ka1'
p1230
I-1
ssS'kb1'
p1231
(dp1232
S'kb1'
p1233
I-1
ssS'kc1'
p1234
(dp1235
S'kc1'
p1236
I-1
ssS'as1'
p1237
(dp1238
S'as1'
p1239
F0.76969020012949929
ssS'dm1'
p1240
(dp1241
S'dm1'
p1242
F14.0
ssS'psi1'
p1243
(dp1244
S'psi1'
p1245
I90
ssS'stahl2'
p1246
(dp1247
S'stahl2'
p1248
I1
ssS'zm2'
p1249
(dp1250
S'zm2'
p1251
I2
ssS'fsy2'
p1252
(dp1253
S'fsy2'
p1254
I390
ssS'fsu2'
p1255
(dp1256
S'fsu2'
p1257
I721
ssS'esu2'
p1258
(dp1259
S'esu2'
p1260
F0.050000000000000003
ssS'esv2'
p1261
(dp1262
S'esv2'
p1263
F0.02
ssS'Es2'
p1264
(dp1265
S'Es2'
p1266
I200000
ssS'ka2'
p1267
(dp1268
S'ka2'
p1269
I-1
ssS'kb2'
p1270
(dp1271
S'kb2'
p1272
I-1
ssS'kc2'
p1273
(dp1274
S'kc2'
p1275
I-1
ssS'as2'
p1276
(dp1277
S'as2'
p1278
F0.56548667764616278
ssS'dm2'
p1279
(dp1280
S'dm2'
p1281
F12.0
ssS'psi2'
p1282
(dp1283
S'psi2'
p1284
I0
ssS'stahl3'
p1285
(dp1286
S'stahl3'
p1287
I1
ssS'zm3'
p1288
(dp1289
S'zm3'
p1290
I2
ssS'fsy3'
p1291
(dp1292
S'fsy3'
p1293
I390
ssS'fsu3'
p1294
(dp1295
S'fsu3'
p1296
I721
ssS'esu3'
p1297
(dp1298
S'esu3'
p1299
F0.050000000000000003
ssS'esv3'
p1300
(dp1301
S'esv3'
p1302
F0.02
ssS'Es3'
p1303
(dp1304
S'Es3'
p1305
I200000
ssS'ka3'
p1306
(dp1307
S'ka3'
p1308
I-1
ssS'kb3'
p1309
(dp1310
S'kb3'
p1311
I-1
ssS'kc3'
p1312
(dp1313
S'kc3'
p1314
I-1
ssS'as3'
p1315
(dp1316
S'as3'
p1317
F0.56548667764616278
ssS'dm3'
p1318
(dp1319
S'dm3'
p1320
F12.0
ssS'psi3'
p1321
(dp1322
S'psi3'
p1323
I0
ssS'stahl4'
p1324
(dp1325
S'stahl4'
p1326
I1
ssS'zm4'
p1327
(dp1328
S'zm4'
p1329
I2
ssS'fsy4'
p1330
(dp1331
S'fsy4'
p1332
I390
ssS'fsu4'
p1333
(dp1334
S'fsu4'
p1335
I721
ssS'esu4'
p1336
(dp1337
S'esu4'
p1338
F0.050000000000000003
ssS'esv4'
p1339
(dp1340
S'esv4'
p1341
F0.02
ssS'Es4'
p1342
(dp1343
S'Es4'
p1344
I200000
ssS'ka4'
p1345
(dp1346
S'ka4'
p1347
I-1
ssS'kb4'
p1348
(dp1349
S'kb4'
p1350
I-1
ssS'kc4'
p1351
(dp1352
S'kc4'
p1353
I-1
ssS'as4'
p1354
(dp1355
S'as4'
p1356
F2.2619467105846511
ssS'dm4'
p1357
(dp1358
S'dm4'
p1359
F24.0
ssS'psi4'
p1360
(dp1361
S'psi4'
p1362
I90
ssbsg832
g0
(g1051
g2
Ntp1363
Rp1364
(dp1365
g15
I0
sg1027
g1055
sg1029
g832
sg1030
(lp1366
g1032
ag1057
ag1058
ag1059
ag1060
ag1061
ag1062
ag1063
ag1064
ag1065
ag1066
ag1067
ag1068
ag1069
ag1070
ag1071
ag1072
ag1073
ag1074
ag1075
ag1076
ag1077
ag1078
ag1079
ag1080
ag1081
ag1082
ag1083
ag1084
ag1085
ag1086
ag1087
ag1088
ag1089
ag1090
ag1091
ag1092
ag1093
ag1094
ag1095
ag1096
ag1097
ag1098
ag1099
ag1100
ag1101
ag1102
ag1103
ag1104
ag1105
ag1106
ag1107
ag1108
ag1109
ag1110
ag1111
ag1112
ag1113
ag1114
ag1115
ag1116
ag1117
ag1118
ag1119
ag1120
ag1121
ag1122
ag1123
ag1124
ag1125
ag1126
ag1127
ag1128
ag1129
ag1130
ag1131
ag1132
ag1133
asg1134
(dp1367
g1136
I200000
ssg1137
(dp1368
g1139
F0.10000000000000001
ssg1140
(dp1369
g1142
F90909.090909090897
ssg1143
F2.5000000000000002e-06
sg1144
(dp1370
g1146
I-1
ssg1147
(dp1371
g1149
F2.5000000000000002e-06
ssg1150
(dp1372
g1152
I30
ssg1153
(dp1373
g1155
I30
ssg1156
(dp1374
g1158
I2
ssg1159
(dp1375
g1161
I12
ssg1162
(dp1376
g1164
I0
ssg1165
(dp1377
g1167
F-0.002
ssg1168
(dp1378
g1170
I10000
ssg1171
(dp1379
g1173
I2
ssg1174
(dp1380
g1176
I1
ssg1177
(dp1381
g1179
I0
ssg1180
(dp1382
g1182
I0
ssg1183
(dp1383
g1185
F0.67000000000000004
ssg1186
(dp1384
g1188
I1
ssg1189
(dp1385
g1191
I1
ssg1192
(dp1386
g1194
I2
ssg1195
(dp1387
g1197
I0
ssg1198
(dp1388
g1200
I45
ssg1201
(dp1389
g1203
I1
ssg1204
(dp1390
g1206
I500
ssg1207
(dp1391
g1209
I1
ssg1210
(dp1392
g1212
I2
ssg1213
(dp1393
g1215
I390
ssg1216
(dp1394
g1218
I721
ssg1219
(dp1395
g1221
F0.050000000000000003
ssg1222
(dp1396
g1224
F0.02
ssg1225
(dp1397
g1227
I200000
ssg1228
(dp1398
g1230
I-1
ssg1231
(dp1399
g1233
I-1
ssg1234
(dp1400
g1236
I-1
ssg1237
(dp1401
g1239
F2.2619467105846511
ssg1240
(dp1402
g1242
F24.0
ssg1243
(dp1403
g1245
I90
ssg1246
(dp1404
g1248
I1
ssg1249
(dp1405
g1251
I2
ssg1252
(dp1406
g1254
I390
ssg1255
(dp1407
g1257
I721
ssg1258
(dp1408
g1260
F0.050000000000000003
ssg1261
(dp1409
g1263
F0.02
ssg1264
(dp1410
g1266
I200000
ssg1267
(dp1411
g1269
I-1
ssg1270
(dp1412
g1272
I-1
ssg1273
(dp1413
g1275
I-1
ssg1276
(dp1414
g1278
F0.56548667764616278
ssg1279
(dp1415
g1281
F12.0
ssg1282
(dp1416
g1284
I0
ssg1285
(dp1417
g1287
I1
ssg1288
(dp1418
g1290
I2
ssg1291
(dp1419
g1293
I390
ssg1294
(dp1420
g1296
I721
ssg1297
(dp1421
g1299
F0.050000000000000003
ssg1300
(dp1422
g1302
F0.02
ssg1303
(dp1423
g1305
I200000
ssg1306
(dp1424
g1308
I-1
ssg1309
(dp1425
g1311
I-1
ssg1312
(dp1426
g1314
I-1
ssg1315
(dp1427
g1317
F0.56548667764616278
ssg1318
(dp1428
g1320
F12.0
ssg1321
(dp1429
g1323
I0
ssg1324
(dp1430
g1326
I1
ssg1327
(dp1431
g1329
I2
ssg1330
(dp1432
g1332
I390
ssg1333
(dp1433
g1335
I721
ssg1336
(dp1434
g1338
F0.050000000000000003
ssg1339
(dp1435
g1341
F0.02
ssg1342
(dp1436
g1344
I200000
ssg1345
(dp1437
g1347
I-1
ssg1348
(dp1438
g1350
I-1
ssg1351
(dp1439
g1353
I-1
ssg1354
(dp1440
g1356
F2.2619467105846511
ssg1357
(dp1441
g1359
F24.0
ssg1360
(dp1442
g1362
I90
ssbssS'misc'
p1443
(dp1444
sS'name'
p1445
S'NLFE_CFB_1_0'
p1446
sS'nodes'
p1447
(dp1448
I0
g0
(ccompas_fea.structure.node
Node
p1449
g2
Ntp1450
Rp1451
(dp1452
S'__name__'
p1453
S'Node'
p1454
sS'key'
p1455
I0
sS'x'
p1456
F0.0
sS'y'
p1457
F0.0
sS'z'
p1458
F0.0
sS'ex'
p1459
(lp1460
I1
aI0
aI0
asS'ey'
p1461
(lp1462
I0
aI1
aI0
asS'ez'
p1463
(lp1464
I0
aI0
aI1
asS'mass'
p1465
NsbsI1
g0
(g1449
g2
Ntp1466
Rp1467
(dp1468
g1453
g1454
sg1455
I1
sg1456
F1069.2
sg1457
F0.0
sg1458
F0.0
sg1459
g1460
sg1461
g1462
sg1463
g1464
sg1465
NsbsI2
g0
(g1449
g2
Ntp1469
Rp1470
(dp1471
g1453
g1454
sg1455
I2
sg1456
F2138.4000000000001
sg1457
F0.0
sg1458
F0.0
sg1459
g1460
sg1461
g1462
sg1463
g1464
sg1465
NsbsI3
g0
(g1449
g2
Ntp1472
Rp1473
(dp1474
g1453
g1454
sg1455
I3
sg1456
F3207.6000000000004
sg1457
F0.0
sg1458
F0.0
sg1459
g1460
sg1461
g1462
sg1463
g1464
sg1465
NsbsI4
g0
(g1449
g2
Ntp1475
Rp1476
(dp1477
g1453
g1454
sg1455
I4
sg1456
F0.0
sg1457
F891.0
sg1458
F0.0
sg1459
g1460
sg1461
g1462
sg1463
g1464
sg1465
NsbsI5
g0
(g1449
g2
Ntp1478
Rp1479
(dp1480
g1453
g1454
sg1455
I5
sg1456
F1069.2
sg1457
F891.00000000000011
sg1458
F0.0
sg1459
g1460
sg1461
g1462
sg1463
g1464
sg1465
NsbsI6
g0
(g1449
g2
Ntp1481
Rp1482
(dp1483
g1453
g1454
sg1455
I6
sg1456
F2138.4000000000001
sg1457
F891.0
sg1458
F0.0
sg1459
g1460
sg1461
g1462
sg1463
g1464
sg1465
NsbsI7
g0
(g1449
g2
Ntp1484
Rp1485
(dp1486
g1453
g1454
sg1455
I7
sg1456
F3207.6000000000004
sg1457
F891.0
sg1458
F0.0
sg1459
g1460
sg1461
g1462
sg1463
g1464
sg1465
NsbsI8
g0
(g1449
g2
Ntp1487
Rp1488
(dp1489
g1453
g1454
sg1455
I8
sg1456
F0.0
sg1457
F1782.0
sg1458
F0.0
sg1459
g1460
sg1461
g1462
sg1463
g1464
sg1465
NsbsI9
g0
(g1449
g2
Ntp1490
Rp1491
(dp1492
g1453
g1454
sg1455
I9
sg1456
F1069.2
sg1457
F1782.0000000000002
sg1458
F0.0
sg1459
g1460
sg1461
g1462
sg1463
g1464
sg1465
NsbsI10
g0
(g1449
g2
Ntp1493
Rp1494
(dp1495
g1453
g1454
sg1455
I10
sg1456
F2138.4000000000001
sg1457
F1782.0
sg1458
F0.0
sg1459
g1460
sg1461
g1462
sg1463
g1464
sg1465
NsbsI11
g0
(g1449
g2
Ntp1496
Rp1497
(dp1498
g1453
g1454
sg1455
I11
sg1456
F3207.6000000000004
sg1457
F1782.0
sg1458
F0.0
sg1459
g1460
sg1461
g1462
sg1463
g1464
sg1465
NsbsI12
g0
(g1449
g2
Ntp1499
Rp1500
(dp1501
g1453
g1454
sg1455
I12
sg1456
F0.0
sg1457
F3618.0
sg1458
F0.0
sg1459
g1460
sg1461
g1462
sg1463
g1464
sg1465
NsbsI13
g0
(g1449
g2
Ntp1502
Rp1503
(dp1504
g1453
g1454
sg1455
I13
sg1456
F1069.2
sg1457
F3618.0000000000005
sg1458
F0.0
sg1459
g1460
sg1461
g1462
sg1463
g1464
sg1465
NsbsI14
g0
(g1449
g2
Ntp1505
Rp1506
(dp1507
g1453
g1454
sg1455
I14
sg1456
F2138.4000000000001
sg1457
F3618.0
sg1458
F0.0
sg1459
g1460
sg1461
g1462
sg1463
g1464
sg1465
NsbsI15
g0
(g1449
g2
Ntp1508
Rp1509
(dp1510
g1453
g1454
sg1455
I15
sg1456
F3207.6000000000004
sg1457
F3618.0
sg1458
F0.0
sg1459
g1460
sg1461
g1462
sg1463
g1464
sg1465
NsbsI16
g0
(g1449
g2
Ntp1511
Rp1512
(dp1513
g1453
g1454
sg1455
I16
sg1456
F0.0
sg1457
F4509.0
sg1458
F0.0
sg1459
g1460
sg1461
g1462
sg1463
g1464
sg1465
NsbsI17
g0
(g1449
g2
Ntp1514
Rp1515
(dp1516
g1453
g1454
sg1455
I17
sg1456
F1069.2
sg1457
F4509.0
sg1458
F0.0
sg1459
g1460
sg1461
g1462
sg1463
g1464
sg1465
NsbsI18
g0
(g1449
g2
Ntp1517
Rp1518
(dp1519
g1453
g1454
sg1455
I18
sg1456
F2138.4000000000001
sg1457
F4509.0
sg1458
F0.0
sg1459
g1460
sg1461
g1462
sg1463
g1464
sg1465
NsbsI19
g0
(g1449
g2
Ntp1520
Rp1521
(dp1522
g1453
g1454
sg1455
I19
sg1456
F3207.6000000000004
sg1457
F4509.0
sg1458
F0.0
sg1459
g1460
sg1461
g1462
sg1463
g1464
sg1465
NsbsI20
g0
(g1449
g2
Ntp1523
Rp1524
(dp1525
g1453
g1454
sg1455
I20
sg1456
F0.0
sg1457
F5400.0
sg1458
F0.0
sg1459
g1460
sg1461
g1462
sg1463
g1464
sg1465
NsbsI21
g0
(g1449
g2
Ntp1526
Rp1527
(dp1528
g1453
g1454
sg1455
I21
sg1456
F1069.2
sg1457
F5400.0
sg1458
F0.0
sg1459
g1460
sg1461
g1462
sg1463
g1464
sg1465
NsbsI22
g0
(g1449
g2
Ntp1529
Rp1530
(dp1531
g1453
g1454
sg1455
I22
sg1456
F2138.4000000000001
sg1457
F5400.0
sg1458
F0.0
sg1459
g1460
sg1461
g1462
sg1463
g1464
sg1465
NsbsI23
g0
(g1449
g2
Ntp1532
Rp1533
(dp1534
g1453
g1454
sg1455
I23
sg1456
F3207.6000000000004
sg1457
F5400.0
sg1458
F0.0
sg1459
g1460
sg1461
g1462
sg1463
g1464
sg1465
NsbsI24
g0
(g1449
g2
Ntp1535
Rp1536
(dp1537
g1453
g1454
sg1455
I24
sg1456
F4276.8000000000011
sg1457
F0.0
sg1458
F0.0
sg1459
g1460
sg1461
g1462
sg1463
g1464
sg1465
NsbsI25
g0
(g1449
g2
Ntp1538
Rp1539
(dp1540
g1453
g1454
sg1455
I25
sg1456
F5346.0
sg1457
F0.0
sg1458
F0.0
sg1459
g1460
sg1461
g1462
sg1463
g1464
sg1465
NsbsI26
g0
(g1449
g2
Ntp1541
Rp1542
(dp1543
g1453
g1454
sg1455
I26
sg1456
F6415.2000000000007
sg1457
F0.0
sg1458
F0.0
sg1459
g1460
sg1461
g1462
sg1463
g1464
sg1465
NsbsI27
g0
(g1449
g2
Ntp1544
Rp1545
(dp1546
g1453
g1454
sg1455
I27
sg1456
F4276.8000000000011
sg1457
F891.00000000000011
sg1458
F0.0
sg1459
g1460
sg1461
g1462
sg1463
g1464
sg1465
NsbsI28
g0
(g1449
g2
Ntp1547
Rp1548
(dp1549
g1453
g1454
sg1455
I28
sg1456
F5346.0
sg1457
F891.0
sg1458
F0.0
sg1459
g1460
sg1461
g1462
sg1463
g1464
sg1465
NsbsI29
g0
(g1449
g2
Ntp1550
Rp1551
(dp1552
g1453
g1454
sg1455
I29
sg1456
F6415.2000000000007
sg1457
F891.0
sg1458
F0.0
sg1459
g1460
sg1461
g1462
sg1463
g1464
sg1465
NsbsI30
g0
(g1449
g2
Ntp1553
Rp1554
(dp1555
g1453
g1454
sg1455
I30
sg1456
F4276.8000000000011
sg1457
F1782.0000000000002
sg1458
F0.0
sg1459
g1460
sg1461
g1462
sg1463
g1464
sg1465
NsbsI31
g0
(g1449
g2
Ntp1556
Rp1557
(dp1558
g1453
g1454
sg1455
I31
sg1456
F5346.0
sg1457
F1782.0
sg1458
F0.0
sg1459
g1460
sg1461
g1462
sg1463
g1464
sg1465
NsbsI32
g0
(g1449
g2
Ntp1559
Rp1560
(dp1561
g1453
g1454
sg1455
I32
sg1456
F6415.2000000000007
sg1457
F1782.0
sg1458
F0.0
sg1459
g1460
sg1461
g1462
sg1463
g1464
sg1465
NsbsI33
g0
(g1449
g2
Ntp1562
Rp1563
(dp1564
g1453
S'Node'
p1565
sg1455
I33
sg1456
F4276.8000000000011
sg1457
F3618.0000000000005
sg1458
F0.0
sg1459
g1460
sg1461
g1462
sg1463
g1464
sg1465
NsbsI34
g0
(g1449
g2
Ntp1566
Rp1567
(dp1568
g1453
g1565
sg1455
I34
sg1456
F5346.0
sg1457
F3618.0
sg1458
F0.0
sg1459
g1460
sg1461
g1462
sg1463
g1464
sg1465
NsbsI35
g0
(g1449
g2
Ntp1569
Rp1570
(dp1571
g1453
g1565
sg1455
I35
sg1456
F6415.2000000000007
sg1457
F3618.0
sg1458
F0.0
sg1459
g1460
sg1461
g1462
sg1463
g1464
sg1465
NsbsI36
g0
(g1449
g2
Ntp1572
Rp1573
(dp1574
g1453
g1565
sg1455
I36
sg1456
F4276.8000000000011
sg1457
F4509.0
sg1458
F0.0
sg1459
g1460
sg1461
g1462
sg1463
g1464
sg1465
NsbsI37
g0
(g1449
g2
Ntp1575
Rp1576
(dp1577
g1453
g1565
sg1455
I37
sg1456
F5346.0
sg1457
F4509.0
sg1458
F0.0
sg1459
g1460
sg1461
g1462
sg1463
g1464
sg1465
NsbsI38
g0
(g1449
g2
Ntp1578
Rp1579
(dp1580
g1453
g1565
sg1455
I38
sg1456
F6415.2000000000007
sg1457
F4509.0
sg1458
F0.0
sg1459
g1460
sg1461
g1462
sg1463
g1464
sg1465
NsbsI39
g0
(g1449
g2
Ntp1581
Rp1582
(dp1583
g1453
g1565
sg1455
I39
sg1456
F4276.8000000000011
sg1457
F5400.0
sg1458
F0.0
sg1459
g1460
sg1461
g1462
sg1463
g1464
sg1465
NsbsI40
g0
(g1449
g2
Ntp1584
Rp1585
(dp1586
g1453
g1565
sg1455
I40
sg1456
F5346.0
sg1457
F5400.0
sg1458
F0.0
sg1459
g1460
sg1461
g1462
sg1463
g1464
sg1465
NsbsI41
g0
(g1449
g2
Ntp1587
Rp1588
(dp1589
g1453
g1565
sg1455
I41
sg1456
F6415.2000000000007
sg1457
F5400.0
sg1458
F0.0
sg1459
g1460
sg1461
g1462
sg1463
g1464
sg1465
NsbsI42
g0
(g1449
g2
Ntp1590
Rp1591
(dp1592
g1453
g1565
sg1455
I42
sg1456
F7516.800000000002
sg1457
F0.0
sg1458
F0.0
sg1459
g1460
sg1461
g1462
sg1463
g1464
sg1465
NsbsI43
g0
(g1449
g2
Ntp1593
Rp1594
(dp1595
g1453
g1565
sg1455
I43
sg1456
F8618.4000000000015
sg1457
F0.0
sg1458
F0.0
sg1459
g1460
sg1461
g1462
sg1463
g1464
sg1465
NsbsI44
g0
(g1449
g2
Ntp1596
Rp1597
(dp1598
g1453
g1565
sg1455
I44
sg1456
F9720.0
sg1457
F0.0
sg1458
F0.0
sg1459
g1460
sg1461
g1462
sg1463
g1464
sg1465
NsbsI45
g0
(g1449
g2
Ntp1599
Rp1600
(dp1601
g1453
g1565
sg1455
I45
sg1456
F7516.800000000002
sg1457
F891.00000000000011
sg1458
F0.0
sg1459
g1460
sg1461
g1462
sg1463
g1464
sg1465
NsbsI46
g0
(g1449
g2
Ntp1602
Rp1603
(dp1604
g1453
g1565
sg1455
I46
sg1456
F8618.4000000000015
sg1457
F891.0
sg1458
F0.0
sg1459
g1460
sg1461
g1462
sg1463
g1464
sg1465
NsbsI47
g0
(g1449
g2
Ntp1605
Rp1606
(dp1607
g1453
g1565
sg1455
I47
sg1456
F9720.0
sg1457
F891.0
sg1458
F0.0
sg1459
g1460
sg1461
g1462
sg1463
g1464
sg1465
NsbsI48
g0
(g1449
g2
Ntp1608
Rp1609
(dp1610
g1453
g1565
sg1455
I48
sg1456
F7516.800000000002
sg1457
F1782.0000000000002
sg1458
F0.0
sg1459
g1460
sg1461
g1462
sg1463
g1464
sg1465
NsbsI49
g0
(g1449
g2
Ntp1611
Rp1612
(dp1613
g1453
g1565
sg1455
I49
sg1456
F8618.4000000000015
sg1457
F1782.0
sg1458
F0.0
sg1459
g1460
sg1461
g1462
sg1463
g1464
sg1465
NsbsI50
g0
(g1449
g2
Ntp1614
Rp1615
(dp1616
g1453
g1565
sg1455
I50
sg1456
F9720.0
sg1457
F1782.0
sg1458
F0.0
sg1459
g1460
sg1461
g1462
sg1463
g1464
sg1465
NsbsI51
g0
(g1449
g2
Ntp1617
Rp1618
(dp1619
g1453
g1565
sg1455
I51
sg1456
F7516.800000000002
sg1457
F3618.0000000000005
sg1458
F0.0
sg1459
g1460
sg1461
g1462
sg1463
g1464
sg1465
NsbsI52
g0
(g1449
g2
Ntp1620
Rp1621
(dp1622
g1453
g1565
sg1455
I52
sg1456
F8618.4000000000015
sg1457
F3618.0
sg1458
F0.0
sg1459
g1460
sg1461
g1462
sg1463
g1464
sg1465
NsbsI53
g0
(g1449
g2
Ntp1623
Rp1624
(dp1625
g1453
g1565
sg1455
I53
sg1456
F9720.0
sg1457
F3618.0
sg1458
F0.0
sg1459
g1460
sg1461
g1462
sg1463
g1464
sg1465
NsbsI54
g0
(g1449
g2
Ntp1626
Rp1627
(dp1628
g1453
g1565
sg1455
I54
sg1456
F7516.800000000002
sg1457
F4509.0000000000009
sg1458
F0.0
sg1459
g1460
sg1461
g1462
sg1463
g1464
sg1465
NsbsI55
g0
(g1449
g2
Ntp1629
Rp1630
(dp1631
g1453
g1565
sg1455
I55
sg1456
F8618.4000000000015
sg1457
F4509.0
sg1458
F0.0
sg1459
g1460
sg1461
g1462
sg1463
g1464
sg1465
NsbsI56
g0
(g1449
g2
Ntp1632
Rp1633
(dp1634
g1453
g1565
sg1455
I56
sg1456
F9720.0
sg1457
F4509.0
sg1458
F0.0
sg1459
g1460
sg1461
g1462
sg1463
g1464
sg1465
NsbsI57
g0
(g1449
g2
Ntp1635
Rp1636
(dp1637
g1453
g1565
sg1455
I57
sg1456
F7516.800000000002
sg1457
F5400.0000000000009
sg1458
F0.0
sg1459
g1460
sg1461
g1462
sg1463
g1464
sg1465
NsbsI58
g0
(g1449
g2
Ntp1638
Rp1639
(dp1640
g1453
g1565
sg1455
I58
sg1456
F8618.4000000000015
sg1457
F5400.0
sg1458
F0.0
sg1459
g1460
sg1461
g1462
sg1463
g1464
sg1465
NsbsI59
g0
(g1449
g2
Ntp1641
Rp1642
(dp1643
g1453
g1565
sg1455
I59
sg1456
F9720.0
sg1457
F5400.0
sg1458
F0.0
sg1459
g1460
sg1461
g1462
sg1463
g1464
sg1465
NsbsI60
g0
(g1449
g2
Ntp1644
Rp1645
(dp1646
g1453
g1565
sg1455
I60
sg1456
F0.0
sg1457
F2700.0
sg1458
F0.0
sg1459
g1460
sg1461
g1462
sg1463
g1464
sg1465
NsbsI61
g0
(g1449
g2
Ntp1647
Rp1648
(dp1649
g1453
g1565
sg1455
I61
sg1456
F1069.2
sg1457
F2700.0000000000005
sg1458
F0.0
sg1459
g1460
sg1461
g1462
sg1463
g1464
sg1465
NsbsI62
g0
(g1449
g2
Ntp1650
Rp1651
(dp1652
g1453
g1565
sg1455
I62
sg1456
F2138.4000000000001
sg1457
F2700.0
sg1458
F0.0
sg1459
g1460
sg1461
g1462
sg1463
g1464
sg1465
NsbsI63
g0
(g1449
g2
Ntp1653
Rp1654
(dp1655
g1453
g1565
sg1455
I63
sg1456
F3207.6000000000004
sg1457
F2700.0
sg1458
F0.0
sg1459
g1460
sg1461
g1462
sg1463
g1464
sg1465
NsbsI64
g0
(g1449
g2
Ntp1656
Rp1657
(dp1658
g1453
g1565
sg1455
I64
sg1456
F4276.8000000000011
sg1457
F2700.0000000000005
sg1458
F0.0
sg1459
g1460
sg1461
g1462
sg1463
g1464
sg1465
NsbsI65
g0
(g1449
g2
Ntp1659
Rp1660
(dp1661
g1453
g1565
sg1455
I65
sg1456
F5346.0
sg1457
F2700.0
sg1458
F0.0
sg1459
g1460
sg1461
g1462
sg1463
g1464
sg1465
NsbsI66
g0
(g1449
g2
Ntp1662
Rp1663
(dp1664
g1453
g1565
sg1455
I66
sg1456
F6415.2000000000007
sg1457
F2700.0
sg1458
F0.0
sg1459
g1460
sg1461
g1462
sg1463
g1464
sg1465
NsbsI67
g0
(g1449
g2
Ntp1665
Rp1666
(dp1667
g1453
g1565
sg1455
I67
sg1456
F7516.800000000002
sg1457
F2700.0000000000005
sg1458
F0.0
sg1459
g1460
sg1461
g1462
sg1463
g1464
sg1465
NsbsI68
g0
(g1449
g2
Ntp1668
Rp1669
(dp1670
g1453
g1565
sg1455
I68
sg1456
F8618.4000000000015
sg1457
F2700.0
sg1458
F0.0
sg1459
g1460
sg1461
g1462
sg1463
g1464
sg1465
NsbsI69
g0
(g1449
g2
Ntp1671
Rp1672
(dp1673
g1453
g1565
sg1455
I69
sg1456
F9720.0
sg1457
F2700.0
sg1458
F0.0
sg1459
g1460
sg1461
g1462
sg1463
g1464
sg1465
NsbsI70
g0
(g1449
g2
Ntp1674
Rp1675
(dp1676
g1453
g1565
sg1455
I70
sg1456
F0.0
sg1457
F0.0
sg1458
F-1251.4000000000001
sg1459
g1460
sg1461
g1462
sg1463
g1464
sg1465
NsbsI71
g0
(g1449
g2
Ntp1677
Rp1678
(dp1679
g1453
g1565
sg1455
I71
sg1456
F1069.1999999999998
sg1457
F0.0
sg1458
F-1251.4000000000001
sg1459
g1460
sg1461
g1462
sg1463
g1464
sg1465
NsbsI72
g0
(g1449
g2
Ntp1680
Rp1681
(dp1682
g1453
g1565
sg1455
I72
sg1456
F2138.3999999999996
sg1457
F0.0
sg1458
F-1251.4000000000001
sg1459
g1460
sg1461
g1462
sg1463
g1464
sg1465
NsbsI73
g0
(g1449
g2
Ntp1683
Rp1684
(dp1685
g1453
g1565
sg1455
I73
sg1456
F3207.5999999999999
sg1457
F0.0
sg1458
F-1251.4000000000001
sg1459
g1460
sg1461
g1462
sg1463
g1464
sg1465
NsbsI74
g0
(g1449
g2
Ntp1686
Rp1687
(dp1688
g1453
g1565
sg1455
I74
sg1456
F0.0
sg1457
F0.0
sg1458
F-400.0
sg1459
g1460
sg1461
g1462
sg1463
g1464
sg1465
NsbsI75
g0
(g1449
g2
Ntp1689
Rp1690
(dp1691
g1453
g1565
sg1455
I75
sg1456
F1069.1999999999998
sg1457
F0.0
sg1458
F-400.0
sg1459
g1460
sg1461
g1462
sg1463
g1464
sg1465
NsbsI76
g0
(g1449
g2
Ntp1692
Rp1693
(dp1694
g1453
g1565
sg1455
I76
sg1456
F2138.3999999999996
sg1457
F0.0
sg1458
F-400.0
sg1459
g1460
sg1461
g1462
sg1463
g1464
sg1465
NsbsI77
g0
(g1449
g2
Ntp1695
Rp1696
(dp1697
g1453
g1565
sg1455
I77
sg1456
F3207.5999999999999
sg1457
F0.0
sg1458
F-400.0
sg1459
g1460
sg1461
g1462
sg1463
g1464
sg1465
NsbsI78
g0
(g1449
g2
Ntp1698
Rp1699
(dp1700
g1453
g1565
sg1455
I78
sg1456
F4276.7999999999993
sg1457
F0.0
sg1458
F-1251.4000000000001
sg1459
g1460
sg1461
g1462
sg1463
g1464
sg1465
NsbsI79
g0
(g1449
g2
Ntp1701
Rp1702
(dp1703
g1453
g1565
sg1455
I79
sg1456
F5346.0
sg1457
F0.0
sg1458
F-1251.4000000000001
sg1459
g1460
sg1461
g1462
sg1463
g1464
sg1465
NsbsI80
g0
(g1449
g2
Ntp1704
Rp1705
(dp1706
g1453
g1565
sg1455
I80
sg1456
F6415.1999999999998
sg1457
F0.0
sg1458
F-1251.4000000000001
sg1459
g1460
sg1461
g1462
sg1463
g1464
sg1465
NsbsI81
g0
(g1449
g2
Ntp1707
Rp1708
(dp1709
g1453
g1565
sg1455
I81
sg1456
F4276.7999999999993
sg1457
F0.0
sg1458
F-400.0
sg1459
g1460
sg1461
g1462
sg1463
g1464
sg1465
NsbsI82
g0
(g1449
g2
Ntp1710
Rp1711
(dp1712
g1453
g1565
sg1455
I82
sg1456
F5346.0
sg1457
F0.0
sg1458
F-400.0
sg1459
g1460
sg1461
g1462
sg1463
g1464
sg1465
NsbsI83
g0
(g1449
g2
Ntp1713
Rp1714
(dp1715
g1453
g1565
sg1455
I83
sg1456
F6415.1999999999998
sg1457
F0.0
sg1458
F-400.0
sg1459
g1460
sg1461
g1462
sg1463
g1464
sg1465
NsbsI84
g0
(g1449
g2
Ntp1716
Rp1717
(dp1718
g1453
g1565
sg1455
I84
sg1456
F7516.7999999999993
sg1457
F0.0
sg1458
F-1251.4000000000001
sg1459
g1460
sg1461
g1462
sg1463
g1464
sg1465
NsbsI85
g0
(g1449
g2
Ntp1719
Rp1720
(dp1721
g1453
g1565
sg1455
I85
sg1456
F8618.3999999999978
sg1457
F0.0
sg1458
F-1251.4000000000001
sg1459
g1460
sg1461
g1462
sg1463
g1464
sg1465
NsbsI86
g0
(g1449
g2
Ntp1722
Rp1723
(dp1724
g1453
g1565
sg1455
I86
sg1456
F9720.0
sg1457
F0.0
sg1458
F-1251.4000000000001
sg1459
g1460
sg1461
g1462
sg1463
g1464
sg1465
NsbsI87
g0
(g1449
g2
Ntp1725
Rp1726
(dp1727
g1453
g1565
sg1455
I87
sg1456
F7516.7999999999993
sg1457
F0.0
sg1458
F-400.0
sg1459
g1460
sg1461
g1462
sg1463
g1464
sg1465
NsbsI88
g0
(g1449
g2
Ntp1728
Rp1729
(dp1730
g1453
g1565
sg1455
I88
sg1456
F8618.3999999999978
sg1457
F0.0
sg1458
F-400.0
sg1459
g1460
sg1461
g1462
sg1463
g1464
sg1465
NsbsI89
g0
(g1449
g2
Ntp1731
Rp1732
(dp1733
g1453
g1565
sg1455
I89
sg1456
F9720.0
sg1457
F0.0
sg1458
F-400.0
sg1459
g1460
sg1461
g1462
sg1463
g1464
sg1465
NsbsI90
g0
(g1449
g2
Ntp1734
Rp1735
(dp1736
g1453
g1565
sg1455
I90
sg1456
F0.0
sg1457
F0.0
sg1458
F-2128.5999999999999
sg1459
g1460
sg1461
g1462
sg1463
g1464
sg1465
NsbsI91
g0
(g1449
g2
Ntp1737
Rp1738
(dp1739
g1453
g1565
sg1455
I91
sg1456
F1069.1999999999998
sg1457
F0.0
sg1458
F-2128.6000000000004
sg1459
g1460
sg1461
g1462
sg1463
g1464
sg1465
NsbsI92
g0
(g1449
g2
Ntp1740
Rp1741
(dp1742
g1453
g1565
sg1455
I92
sg1456
F2138.3999999999996
sg1457
F0.0
sg1458
F-2128.6000000000004
sg1459
g1460
sg1461
g1462
sg1463
g1464
sg1465
NsbsI93
g0
(g1449
g2
Ntp1743
Rp1744
(dp1745
g1453
g1565
sg1455
I93
sg1456
F3207.5999999999999
sg1457
F0.0
sg1458
F-2128.5999999999999
sg1459
g1460
sg1461
g1462
sg1463
g1464
sg1465
NsbsI94
g0
(g1449
g2
Ntp1746
Rp1747
(dp1748
g1453
g1565
sg1455
I94
sg1456
F4276.7999999999993
sg1457
F0.0
sg1458
F-2128.6000000000004
sg1459
g1460
sg1461
g1462
sg1463
g1464
sg1465
NsbsI95
g0
(g1449
g2
Ntp1749
Rp1750
(dp1751
g1453
g1565
sg1455
I95
sg1456
F5346.0
sg1457
F0.0
sg1458
F-2128.6000000000004
sg1459
g1460
sg1461
g1462
sg1463
g1464
sg1465
NsbsI96
g0
(g1449
g2
Ntp1752
Rp1753
(dp1754
g1453
g1565
sg1455
I96
sg1456
F6415.1999999999998
sg1457
F0.0
sg1458
F-2128.5999999999999
sg1459
g1460
sg1461
g1462
sg1463
g1464
sg1465
NsbsI97
g0
(g1449
g2
Ntp1755
Rp1756
(dp1757
g1453
g1565
sg1455
I97
sg1456
F7516.7999999999993
sg1457
F0.0
sg1458
F-2128.5999999999999
sg1459
g1460
sg1461
g1462
sg1463
g1464
sg1465
NsbsI98
g0
(g1449
g2
Ntp1758
Rp1759
(dp1760
g1453
g1565
sg1455
I98
sg1456
F8618.3999999999978
sg1457
F0.0
sg1458
F-2128.5999999999999
sg1459
g1460
sg1461
g1462
sg1463
g1464
sg1465
NsbsI99
g0
(g1449
g2
Ntp1761
Rp1762
(dp1763
g1453
g1565
sg1455
I99
sg1456
F9720.0
sg1457
F0.0
sg1458
F-2128.5999999999999
sg1459
g1460
sg1461
g1462
sg1463
g1464
sg1465
NsbsI100
g0
(g1449
g2
Ntp1764
Rp1765
(dp1766
g1453
g1565
sg1455
I100
sg1456
F0.0
sg1457
F0.0
sg1458
F-2980.0
sg1459
g1460
sg1461
g1462
sg1463
g1464
sg1465
NsbsI101
g0
(g1449
g2
Ntp1767
Rp1768
(dp1769
g1453
g1565
sg1455
I101
sg1456
F1069.1999999999998
sg1457
F0.0
sg1458
F-2980.0
sg1459
g1460
sg1461
g1462
sg1463
g1464
sg1465
NsbsI102
g0
(g1449
g2
Ntp1770
Rp1771
(dp1772
g1453
g1565
sg1455
I102
sg1456
F2138.3999999999996
sg1457
F0.0
sg1458
F-2980.0
sg1459
g1460
sg1461
g1462
sg1463
g1464
sg1465
NsbsI103
g0
(g1449
g2
Ntp1773
Rp1774
(dp1775
g1453
g1565
sg1455
I103
sg1456
F3207.5999999999999
sg1457
F0.0
sg1458
F-2980.0
sg1459
g1460
sg1461
g1462
sg1463
g1464
sg1465
NsbsI104
g0
(g1449
g2
Ntp1776
Rp1777
(dp1778
g1453
g1565
sg1455
I104
sg1456
F4276.7999999999993
sg1457
F0.0
sg1458
F-2980.0
sg1459
g1460
sg1461
g1462
sg1463
g1464
sg1465
NsbsI105
g0
(g1449
g2
Ntp1779
Rp1780
(dp1781
g1453
g1565
sg1455
I105
sg1456
F5346.0
sg1457
F0.0
sg1458
F-2980.0
sg1459
g1460
sg1461
g1462
sg1463
g1464
sg1465
NsbsI106
g0
(g1449
g2
Ntp1782
Rp1783
(dp1784
g1453
g1565
sg1455
I106
sg1456
F6415.1999999999998
sg1457
F0.0
sg1458
F-2980.0
sg1459
g1460
sg1461
g1462
sg1463
g1464
sg1465
NsbsI107
g0
(g1449
g2
Ntp1785
Rp1786
(dp1787
g1453
g1565
sg1455
I107
sg1456
F7516.7999999999993
sg1457
F0.0
sg1458
F-2980.0
sg1459
g1460
sg1461
g1462
sg1463
g1464
sg1465
NsbsI108
g0
(g1449
g2
Ntp1788
Rp1789
(dp1790
g1453
g1565
sg1455
I108
sg1456
F8618.3999999999978
sg1457
F0.0
sg1458
F-2980.0
sg1459
g1460
sg1461
g1462
sg1463
g1464
sg1465
NsbsI109
g0
(g1449
g2
Ntp1791
Rp1792
(dp1793
g1453
g1565
sg1455
I109
sg1456
F9720.0
sg1457
F0.0
sg1458
F-2980.0
sg1459
g1460
sg1461
g1462
sg1463
g1464
sg1465
NsbsI110
g0
(g1449
g2
Ntp1794
Rp1795
(dp1796
g1453
g1565
sg1455
I110
sg1456
F0.0
sg1457
F5400.0
sg1458
F-1251.4000000000001
sg1459
g1460
sg1461
g1462
sg1463
g1464
sg1465
NsbsI111
g0
(g1449
g2
Ntp1797
Rp1798
(dp1799
g1453
g1565
sg1455
I111
sg1456
F1069.1999999999998
sg1457
F5400.0
sg1458
F-1251.4000000000001
sg1459
g1460
sg1461
g1462
sg1463
g1464
sg1465
NsbsI112
g0
(g1449
g2
Ntp1800
Rp1801
(dp1802
g1453
g1565
sg1455
I112
sg1456
F2138.3999999999996
sg1457
F5400.0
sg1458
F-1251.4000000000001
sg1459
g1460
sg1461
g1462
sg1463
g1464
sg1465
NsbsI113
g0
(g1449
g2
Ntp1803
Rp1804
(dp1805
g1453
g1565
sg1455
I113
sg1456
F3207.5999999999999
sg1457
F5400.0
sg1458
F-1251.4000000000001
sg1459
g1460
sg1461
g1462
sg1463
g1464
sg1465
NsbsI114
g0
(g1449
g2
Ntp1806
Rp1807
(dp1808
g1453
g1565
sg1455
I114
sg1456
F0.0
sg1457
F5400.0
sg1458
F-400.0
sg1459
g1460
sg1461
g1462
sg1463
g1464
sg1465
NsbsI115
g0
(g1449
g2
Ntp1809
Rp1810
(dp1811
g1453
g1565
sg1455
I115
sg1456
F1069.1999999999998
sg1457
F5400.0
sg1458
F-400.0
sg1459
g1460
sg1461
g1462
sg1463
g1464
sg1465
NsbsI116
g0
(g1449
g2
Ntp1812
Rp1813
(dp1814
g1453
g1565
sg1455
I116
sg1456
F2138.3999999999996
sg1457
F5400.0
sg1458
F-400.0
sg1459
g1460
sg1461
g1462
sg1463
g1464
sg1465
NsbsI117
g0
(g1449
g2
Ntp1815
Rp1816
(dp1817
g1453
g1565
sg1455
I117
sg1456
F3207.5999999999999
sg1457
F5400.0
sg1458
F-400.0
sg1459
g1460
sg1461
g1462
sg1463
g1464
sg1465
NsbsI118
g0
(g1449
g2
Ntp1818
Rp1819
(dp1820
g1453
g1565
sg1455
I118
sg1456
F4276.7999999999993
sg1457
F5400.0
sg1458
F-1251.4000000000001
sg1459
g1460
sg1461
g1462
sg1463
g1464
sg1465
NsbsI119
g0
(g1449
g2
Ntp1821
Rp1822
(dp1823
g1453
g1565
sg1455
I119
sg1456
F5346.0
sg1457
F5400.0
sg1458
F-1251.4000000000001
sg1459
g1460
sg1461
g1462
sg1463
g1464
sg1465
NsbsI120
g0
(g1449
g2
Ntp1824
Rp1825
(dp1826
g1453
g1565
sg1455
I120
sg1456
F6415.1999999999998
sg1457
F5400.0
sg1458
F-1251.4000000000001
sg1459
g1460
sg1461
g1462
sg1463
g1464
sg1465
NsbsI121
g0
(g1449
g2
Ntp1827
Rp1828
(dp1829
g1453
g1565
sg1455
I121
sg1456
F4276.7999999999993
sg1457
F5400.0
sg1458
F-400.0
sg1459
g1460
sg1461
g1462
sg1463
g1464
sg1465
NsbsI122
g0
(g1449
g2
Ntp1830
Rp1831
(dp1832
g1453
g1565
sg1455
I122
sg1456
F5346.0
sg1457
F5400.0
sg1458
F-400.0
sg1459
g1460
sg1461
g1462
sg1463
g1464
sg1465
NsbsI123
g0
(g1449
g2
Ntp1833
Rp1834
(dp1835
g1453
g1565
sg1455
I123
sg1456
F6415.1999999999998
sg1457
F5400.0
sg1458
F-400.0
sg1459
g1460
sg1461
g1462
sg1463
g1464
sg1465
NsbsI124
g0
(g1449
g2
Ntp1836
Rp1837
(dp1838
g1453
g1565
sg1455
I124
sg1456
F7516.7999999999993
sg1457
F5400.0
sg1458
F-1251.4000000000001
sg1459
g1460
sg1461
g1462
sg1463
g1464
sg1465
NsbsI125
g0
(g1449
g2
Ntp1839
Rp1840
(dp1841
g1453
g1565
sg1455
I125
sg1456
F8618.3999999999978
sg1457
F5400.0
sg1458
F-1251.4000000000001
sg1459
g1460
sg1461
g1462
sg1463
g1464
sg1465
NsbsI126
g0
(g1449
g2
Ntp1842
Rp1843
(dp1844
g1453
g1565
sg1455
I126
sg1456
F9720.0
sg1457
F5400.0
sg1458
F-1251.4000000000001
sg1459
g1460
sg1461
g1462
sg1463
g1464
sg1465
NsbsI127
g0
(g1449
g2
Ntp1845
Rp1846
(dp1847
g1453
g1565
sg1455
I127
sg1456
F7516.7999999999993
sg1457
F5400.0
sg1458
F-400.0
sg1459
g1460
sg1461
g1462
sg1463
g1464
sg1465
NsbsI128
g0
(g1449
g2
Ntp1848
Rp1849
(dp1850
g1453
g1565
sg1455
I128
sg1456
F8618.3999999999978
sg1457
F5400.0
sg1458
F-400.0
sg1459
g1460
sg1461
g1462
sg1463
g1464
sg1465
NsbsI129
g0
(g1449
g2
Ntp1851
Rp1852
(dp1853
g1453
g1565
sg1455
I129
sg1456
F9720.0
sg1457
F5400.0
sg1458
F-400.0
sg1459
g1460
sg1461
g1462
sg1463
g1464
sg1465
NsbsI130
g0
(g1449
g2
Ntp1854
Rp1855
(dp1856
g1453
g1565
sg1455
I130
sg1456
F0.0
sg1457
F5400.0
sg1458
F-2128.5999999999999
sg1459
g1460
sg1461
g1462
sg1463
g1464
sg1465
NsbsI131
g0
(g1449
g2
Ntp1857
Rp1858
(dp1859
g1453
g1565
sg1455
I131
sg1456
F1069.1999999999998
sg1457
F5400.0
sg1458
F-2128.6000000000004
sg1459
g1460
sg1461
g1462
sg1463
g1464
sg1465
NsbsI132
g0
(g1449
g2
Ntp1860
Rp1861
(dp1862
g1453
g1565
sg1455
I132
sg1456
F2138.3999999999996
sg1457
F5400.0
sg1458
F-2128.6000000000004
sg1459
g1460
sg1461
g1462
sg1463
g1464
sg1465
NsbsI133
g0
(g1449
g2
Ntp1863
Rp1864
(dp1865
g1453
g1565
sg1455
I133
sg1456
F3207.5999999999999
sg1457
F5400.0
sg1458
F-2128.5999999999999
sg1459
g1460
sg1461
g1462
sg1463
g1464
sg1465
NsbsI134
g0
(g1449
g2
Ntp1866
Rp1867
(dp1868
g1453
g1565
sg1455
I134
sg1456
F4276.7999999999993
sg1457
F5400.0
sg1458
F-2128.6000000000004
sg1459
g1460
sg1461
g1462
sg1463
g1464
sg1465
NsbsI135
g0
(g1449
g2
Ntp1869
Rp1870
(dp1871
g1453
g1565
sg1455
I135
sg1456
F5346.0
sg1457
F5400.0
sg1458
F-2128.6000000000004
sg1459
g1460
sg1461
g1462
sg1463
g1464
sg1465
NsbsI136
g0
(g1449
g2
Ntp1872
Rp1873
(dp1874
g1453
g1565
sg1455
I136
sg1456
F6415.1999999999998
sg1457
F5400.0
sg1458
F-2128.5999999999999
sg1459
g1460
sg1461
g1462
sg1463
g1464
sg1465
NsbsI137
g0
(g1449
g2
Ntp1875
Rp1876
(dp1877
g1453
g1565
sg1455
I137
sg1456
F7516.7999999999993
sg1457
F5400.0
sg1458
F-2128.5999999999999
sg1459
g1460
sg1461
g1462
sg1463
g1464
sg1465
NsbsI138
g0
(g1449
g2
Ntp1878
Rp1879
(dp1880
g1453
g1565
sg1455
I138
sg1456
F8618.3999999999978
sg1457
F5400.0
sg1458
F-2128.5999999999999
sg1459
g1460
sg1461
g1462
sg1463
g1464
sg1465
NsbsI139
g0
(g1449
g2
Ntp1881
Rp1882
(dp1883
g1453
g1565
sg1455
I139
sg1456
F9720.0
sg1457
F5400.0
sg1458
F-2128.5999999999999
sg1459
g1460
sg1461
g1462
sg1463
g1464
sg1465
NsbsI140
g0
(g1449
g2
Ntp1884
Rp1885
(dp1886
g1453
g1565
sg1455
I140
sg1456
F0.0
sg1457
F5400.0
sg1458
F-2980.0
sg1459
g1460
sg1461
g1462
sg1463
g1464
sg1465
NsbsI141
g0
(g1449
g2
Ntp1887
Rp1888
(dp1889
g1453
g1565
sg1455
I141
sg1456
F1069.1999999999998
sg1457
F5400.0
sg1458
F-2980.0
sg1459
g1460
sg1461
g1462
sg1463
g1464
sg1465
NsbsI142
g0
(g1449
g2
Ntp1890
Rp1891
(dp1892
g1453
g1565
sg1455
I142
sg1456
F2138.3999999999996
sg1457
F5400.0
sg1458
F-2980.0
sg1459
g1460
sg1461
g1462
sg1463
g1464
sg1465
NsbsI143
g0
(g1449
g2
Ntp1893
Rp1894
(dp1895
g1453
g1565
sg1455
I143
sg1456
F3207.5999999999999
sg1457
F5400.0
sg1458
F-2980.0
sg1459
g1460
sg1461
g1462
sg1463
g1464
sg1465
NsbsI144
g0
(g1449
g2
Ntp1896
Rp1897
(dp1898
g1453
g1565
sg1455
I144
sg1456
F4276.7999999999993
sg1457
F5400.0
sg1458
F-2980.0
sg1459
g1460
sg1461
g1462
sg1463
g1464
sg1465
NsbsI145
g0
(g1449
g2
Ntp1899
Rp1900
(dp1901
g1453
g1565
sg1455
I145
sg1456
F5346.0
sg1457
F5400.0
sg1458
F-2980.0
sg1459
g1460
sg1461
g1462
sg1463
g1464
sg1465
NsbsI146
g0
(g1449
g2
Ntp1902
Rp1903
(dp1904
g1453
g1565
sg1455
I146
sg1456
F6415.1999999999998
sg1457
F5400.0
sg1458
F-2980.0
sg1459
g1460
sg1461
g1462
sg1463
g1464
sg1465
NsbsI147
g0
(g1449
g2
Ntp1905
Rp1906
(dp1907
g1453
g1565
sg1455
I147
sg1456
F7516.7999999999993
sg1457
F5400.0
sg1458
F-2980.0
sg1459
g1460
sg1461
g1462
sg1463
g1464
sg1465
NsbsI148
g0
(g1449
g2
Ntp1908
Rp1909
(dp1910
g1453
g1565
sg1455
I148
sg1456
F8618.3999999999978
sg1457
F5400.0
sg1458
F-2980.0
sg1459
g1460
sg1461
g1462
sg1463
g1464
sg1465
NsbsI149
g0
(g1449
g2
Ntp1911
Rp1912
(dp1913
g1453
g1565
sg1455
I149
sg1456
F9720.0
sg1457
F5400.0
sg1458
F-2980.0
sg1459
g1460
sg1461
g1462
sg1463
g1464
sg1465
NsbssS'node_index'
p1914
(dp1915
S'5346.000,5400.000,0.000'
p1916
I40
sS'4276.800,1782.000,0.000'
p1917
I30
sS'9720.000,0.000,-1251.400'
p1918
I86
sS'7516.800,0.000,-400.000'
p1919
I87
sS'9720.000,0.000,0.000'
p1920
I44
sS'0.000,1782.000,0.000'
p1921
I8
sS'6415.200,0.000,-1251.400'
p1922
I80
sS'3207.600,891.000,0.000'
p1923
I7
sS'9720.000,3618.000,0.000'
p1924
I53
sS'6415.200,0.000,-400.000'
p1925
I83
sS'4276.800,0.000,-400.000'
p1926
I81
sS'4276.800,5400.000,-400.000'
p1927
I121
sS'0.000,0.000,-2128.600'
p1928
I90
sS'8618.400,0.000,-400.000'
p1929
I88
sS'2138.400,0.000,-400.000'
p1930
I76
sS'5346.000,0.000,-1251.400'
p1931
I79
sS'5346.000,5400.000,-1251.400'
p1932
I119
sS'0.000,0.000,-2980.000'
p1933
I100
sS'9720.000,5400.000,-400.000'
p1934
I129
sS'5346.000,1782.000,0.000'
p1935
I31
sS'7516.800,5400.000,-400.000'
p1936
I127
sS'1069.200,0.000,-2980.000'
p1937
I101
sS'9720.000,5400.000,-1251.400'
p1938
I126
sS'0.000,0.000,-1251.400'
p1939
I70
sS'1069.200,5400.000,0.000'
p1940
I21
sS'3207.600,1782.000,0.000'
p1941
I11
sS'6415.200,5400.000,0.000'
p1942
I41
sS'1069.200,3618.000,0.000'
p1943
I13
sS'6415.200,3618.000,0.000'
p1944
I35
sS'3207.600,5400.000,-400.000'
p1945
I117
sS'3207.600,5400.000,-2128.600'
p1946
I133
sS'2138.400,5400.000,-1251.400'
p1947
I112
sS'8618.400,5400.000,-400.000'
p1948
I128
sS'0.000,0.000,0.000'
p1949
I0
sS'8618.400,5400.000,-2980.000'
p1950
I148
sS'7516.800,2700.000,0.000'
p1951
I67
sS'8618.400,2700.000,0.000'
p1952
I68
sS'3207.600,4509.000,0.000'
p1953
I19
sS'2138.400,0.000,-1251.400'
p1954
I72
sS'6415.200,0.000,-2980.000'
p1955
I106
sS'1069.200,0.000,0.000'
p1956
I1
sS'2138.400,1782.000,0.000'
p1957
I10
sS'4276.800,0.000,0.000'
p1958
I24
sS'7516.800,4509.000,0.000'
p1959
I54
sS'1069.200,1782.000,0.000'
p1960
I9
sS'8618.400,5400.000,0.000'
p1961
I58
sS'8618.400,0.000,0.000'
p1962
I43
sS'0.000,4509.000,0.000'
p1963
I16
sS'4276.800,5400.000,-2128.600'
p1964
I134
sS'7516.800,891.000,0.000'
p1965
I45
sS'8618.400,891.000,0.000'
p1966
I46
sS'6415.200,891.000,0.000'
p1967
I29
sS'5346.000,3618.000,0.000'
p1968
I34
sS'7516.800,5400.000,-2980.000'
p1969
I147
sS'0.000,5400.000,-1251.400'
p1970
I110
sS'5346.000,5400.000,-2980.000'
p1971
I145
sS'7516.800,5400.000,-2128.600'
p1972
I137
sS'7516.800,0.000,-2128.600'
p1973
I97
sS'4276.800,0.000,-1251.400'
p1974
I78
sS'6415.200,4509.000,0.000'
p1975
I38
sS'2138.400,5400.000,0.000'
p1976
I22
sS'6415.200,5400.000,-400.000'
p1977
I123
sS'6415.200,5400.000,-2128.600'
p1978
I136
sS'9720.000,5400.000,-2128.600'
p1979
I139
sS'2138.400,5400.000,-2128.600'
p1980
I132
sS'4276.800,5400.000,-2980.000'
p1981
I144
sS'3207.600,2700.000,0.000'
p1982
I63
sS'6415.200,5400.000,-2980.000'
p1983
I146
sS'1069.200,4509.000,0.000'
p1984
I17
sS'8618.400,0.000,-2980.000'
p1985
I108
sS'0.000,2700.000,0.000'
p1986
I60
sS'3207.600,0.000,-1251.400'
p1987
I73
sS'3207.600,0.000,-2128.600'
p1988
I93
sS'0.000,891.000,0.000'
p1989
I4
sS'0.000,5400.000,-2980.000'
p1990
I140
sS'8618.400,0.000,-2128.600'
p1991
I98
sS'9720.000,4509.000,0.000'
p1992
I56
sS'8618.400,0.000,-1251.400'
p1993
I85
sS'7516.800,5400.000,-1251.400'
p1994
I124
sS'4276.800,0.000,-2128.600'
p1995
I94
sS'7516.800,1782.000,0.000'
p1996
I48
sS'0.000,3618.000,0.000'
p1997
I12
sS'1069.200,0.000,-400.000'
p1998
I75
sS'2138.400,0.000,0.000'
p1999
I2
sS'4276.800,3618.000,0.000'
p2000
I33
sS'0.000,5400.000,-400.000'
p2001
I114
sS'8618.400,5400.000,-1251.400'
p2002
I125
sS'5346.000,0.000,-400.000'
p2003
I82
sS'0.000,0.000,-400.000'
p2004
I74
sS'9720.000,0.000,-400.000'
p2005
I89
sS'7516.800,0.000,-2980.000'
p2006
I107
sS'2138.400,2700.000,0.000'
p2007
I62
sS'4276.800,4509.000,0.000'
p2008
I36
sS'9720.000,0.000,-2128.600'
p2009
I99
sS'3207.600,5400.000,-2980.000'
p2010
I143
sS'6415.200,2700.000,0.000'
p2011
I66
sS'7516.800,5400.000,0.000'
p2012
I57
sS'1069.200,5400.000,-400.000'
p2013
I115
sS'4276.800,891.000,0.000'
p2014
I27
sS'4276.800,5400.000,0.000'
p2015
I39
sS'6415.200,5400.000,-1251.400'
p2016
I120
sS'2138.400,3618.000,0.000'
p2017
I14
sS'6415.200,1782.000,0.000'
p2018
I32
sS'5346.000,0.000,-2128.600'
p2019
I95
sS'0.000,5400.000,0.000'
p2020
I20
sS'4276.800,2700.000,0.000'
p2021
I64
sS'1069.200,2700.000,0.000'
p2022
I61
sS'5346.000,0.000,-2980.000'
p2023
I105
sS'2138.400,4509.000,0.000'
p2024
I18
sS'5346.000,5400.000,-400.000'
p2025
I122
sS'1069.200,5400.000,-1251.400'
p2026
I111
sS'9720.000,1782.000,0.000'
p2027
I50
sS'1069.200,891.000,0.000'
p2028
I5
sS'9720.000,5400.000,0.000'
p2029
I59
sS'8618.400,1782.000,0.000'
p2030
I49
sS'3207.600,0.000,-2980.000'
p2031
I103
sS'8618.400,3618.000,0.000'
p2032
I52
sS'3207.600,5400.000,0.000'
p2033
I23
sS'5346.000,891.000,0.000'
p2034
I28
sS'5346.000,0.000,0.000'
p2035
I25
sS'7516.800,3618.000,0.000'
p2036
I51
sS'1069.200,0.000,-2128.600'
p2037
I91
sS'5346.000,5400.000,-2128.600'
p2038
I135
sS'3207.600,3618.000,0.000'
p2039
I15
sS'9720.000,2700.000,0.000'
p2040
I69
sS'1069.200,0.000,-1251.400'
p2041
I71
sS'7516.800,0.000,-1251.400'
p2042
I84
sS'2138.400,891.000,0.000'
p2043
I6
sS'2138.400,0.000,-2128.600'
p2044
I92
sS'2138.400,0.000,-2980.000'
p2045
I102
sS'0.000,5400.000,-2128.600'
p2046
I130
sS'2138.400,5400.000,-400.000'
p2047
I116
sS'6415.200,0.000,0.000'
p2048
I26
sS'5346.000,2700.000,0.000'
p2049
I65
sS'4276.800,5400.000,-1251.400'
p2050
I118
sS'5346.000,4509.000,0.000'
p2051
I37
sS'8618.400,5400.000,-2128.600'
p2052
I138
sS'6415.200,0.000,-2128.600'
p2053
I96
sS'2138.400,5400.000,-2980.000'
p2054
I142
sS'9720.000,5400.000,-2980.000'
p2055
I149
sS'7516.800,0.000,0.000'
p2056
I42
sS'3207.600,5400.000,-1251.400'
p2057
I113
sS'4276.800,0.000,-2980.000'
p2058
I104
sS'9720.000,0.000,-2980.000'
p2059
I109
sS'1069.200,5400.000,-2980.000'
p2060
I141
sS'9720.000,891.000,0.000'
p2061
I47
sS'8618.400,4509.000,0.000'
p2062
I55
sS'1069.200,5400.000,-2128.600'
p2063
I131
sS'3207.600,0.000,0.000'
p2064
I3
sS'3207.600,0.000,-400.000'
p2065
I77
ssS'path'
p2066
S'C:\\Temp\\'
p2067
sS'results'
p2068
(dp2069
sS'sections'
p2070
(dp2071
g819
g0
(ccompas_fea.structure.section
ShellSection
p2072
g2
Ntp2073
Rp2074
(dp2075
g15
I1
sS'__name__'
p2076
S'ShellSection'
p2077
sS'name'
p2078
g819
sS'geometry'
p2079
(dp2080
S't'
p2081
F400.0
ssS'loc_coords_OR'
p2082
(dp2083
S'ORxyz'
p2084
(lp2085
I0
aI0
aF-2580.0
assS'loc_coords_XA'
p2086
(dp2087
S'XAxyz'
p2088
(lp2089
I1
aI0
aF-2580.0
assS'loc_coords_YA'
p2090
(dp2091
S'YAxyz'
p2092
(lp2093
F2580.0
aF-2580.0
aF-2579.0
assS'loc_coords_EV_XA'
p2094
(dp2095
S'EV_XA'
p2096
(lp2097
F1.0
aF0.0
aF0.0
assS'loc_coords_EV_YA'
p2098
(dp2099
S'EV_YA'
p2100
(lp2101
F0.70710675462914629
aF-0.70710675462914629
aF0.00027407238551517299
assS'loc_coords_EV_ZA'
p2102
(dp2103
S'EV_ZA'
p2104
(lp2105
F0.0
aF-1.0
aF0.0
assS'nr_layers'
p2106
(dp2107
S'nn'
p2108
F34.0
ssS'offset'
p2109
(dp2110
S'mode'
p2111
S'mid'
p2112
ssbsg833
g0
(g2072
g2
Ntp2113
Rp2114
(dp2115
g15
I0
sg2076
g2077
sg2078
g833
sg2079
(dp2116
g2081
F400.0
ssg2082
(dp2117
g2084
(lp2118
I0
aI0
aI0
assg2086
(dp2119
g2088
(lp2120
I1
aI0
aI0
assg2090
(dp2121
g2092
(lp2122
F0.0
aF1.0
aF0.0
assg2094
(dp2123
g2096
(lp2124
F1.0
aF0.0
aF0.0
assg2098
(dp2125
g2100
(lp2126
F0.0
aF1.0
aF0.0
assg2102
(dp2127
g2104
(lp2128
F0.0
aF0.0
aF1.0
assg2106
(dp2129
g2108
F34.0
ssg2109
(dp2130
g2111
S'top'
p2131
ssbsg810
g0
(g2072
g2
Ntp2132
Rp2133
(dp2134
g15
I2
sg2076
g2077
sg2078
g810
sg2079
(dp2135
g2081
F400.0
ssg2082
(dp2136
g2084
(lp2137
I0
aF5400.0
aF-2580.0
assg2086
(dp2138
g2088
(lp2139
I1
aF5400.0
aF-2580.0
assg2090
(dp2140
g2092
(lp2141
F-2580.0
aF2820.0
aF-7981.0
assg2094
(dp2142
g2096
(lp2143
F1.0
aF0.0
aF0.0
assg2098
(dp2144
g2100
(lp2145
F-0.39583030892207371
aF-0.39583030892207371
aF-0.82863546453027903
assg2102
(dp2146
g2104
(lp2147
F0.0
aF1.0
aF0.0
assg2106
(dp2148
g2108
F34.0
ssg2109
(dp2149
g2111
S'mid'
p2150
ssbsS'sec_mpc'
p2151
g0
(ccompas_fea.structure.section
MPCSection
p2152
g2
Ntp2153
Rp2154
(dp2155
g15
I3
sg2076
S'MPCSection'
p2156
sg2078
g2151
sg2079
NsS'nr_layers'
p2157
NsbssS'sets'
p2158
(dp2159
g928
g0
(ccompas_fea.structure.set
Set
p2160
g2
Ntp2161
Rp2162
(dp2163
S'__name__'
p2164
S'Set'
p2165
sS'name'
p2166
g928
sS'type'
p2167
S'element'
p2168
sS'selection'
p2169
(lp2170
I66
aI67
aI68
asS'index'
p2171
I13
sbsS'elset_mpcs'
p2172
g0
(g2160
g2
Ntp2173
Rp2174
(dp2175
g2164
g2165
sg2166
g2172
sg2167
g2168
sg2169
(lp2176
I108
aI109
aI110
aI111
aI112
aI113
aI114
aI115
aI116
aI117
aI118
aI119
aI120
aI121
aI122
aI123
aI124
aI125
aI126
aI127
asg2171
I27
sbsg812
g0
(g2160
g2
Ntp2177
Rp2178
(dp2179
g2164
g2165
sg2166
g812
sg2167
g2168
sg2169
(lp2180
I90
aI91
aI92
asg2171
I21
sbsg858
g0
(g2160
g2
Ntp2181
Rp2182
(dp2183
g2164
g2165
sg2166
g858
sg2167
g2168
sg2169
(lp2184
I16
aI17
aI12
aI13
aI14
aI15
asg2171
I2
sbsg824
g0
(g2160
g2
Ntp2185
Rp2186
(dp2187
g2164
g2165
sg2166
g824
sg2167
g2168
sg2169
(lp2188
I75
aI76
aI77
asg2171
I16
sbsg920
g0
(g2160
g2
Ntp2189
Rp2190
(dp2191
g2164
g2165
sg2166
g920
sg2167
g2168
sg2169
(lp2192
I81
aI82
aI83
asg2171
I18
sbsg898
g0
(g2160
g2
Ntp2193
Rp2194
(dp2195
g2164
g2165
sg2166
g898
sg2167
g2168
sg2169
(lp2196
I6
aI7
aI8
aI9
aI10
aI11
asg2171
I1
sbsg834
g0
(g2160
g2
Ntp2197
Rp2198
(dp2199
g2164
g2165
sg2166
g834
sg2167
g2168
sg2169
(lp2200
I0
aI1
aI2
aI3
aI4
aI5
asg2171
I0
sbsg886
g0
(g2160
g2
Ntp2201
Rp2202
(dp2203
g2164
g2165
sg2166
g886
sg2167
g2168
sg2169
(lp2204
I36
aI37
aI38
aI39
aI40
aI41
asg2171
I6
sbsg924
g0
(g2160
g2
Ntp2205
Rp2206
(dp2207
g2164
g2165
sg2166
g924
sg2167
g2168
sg2169
(lp2208
I32
aI33
aI34
aI35
aI30
aI31
asg2171
I5
sbsg850
g0
(g2160
g2
Ntp2209
Rp2210
(dp2211
g2164
g2165
sg2166
g850
sg2167
g2168
sg2169
(lp2212
I24
aI25
aI26
aI27
aI28
aI29
asg2171
I4
sbsg894
g0
(g2160
g2
Ntp2213
Rp2214
(dp2215
g2164
g2165
sg2166
g894
sg2167
g2168
sg2169
(lp2216
I18
aI19
aI20
aI21
aI22
aI23
asg2171
I3
sbsg842
g0
(g2160
g2
Ntp2217
Rp2218
(dp2219
g2164
g2165
sg2166
g842
sg2167
g2168
sg2169
(lp2220
I48
aI49
aI50
aI51
aI52
aI53
asg2171
I8
sbsg878
g0
(g2160
g2
Ntp2221
Rp2222
(dp2223
g2164
g2165
sg2166
g878
sg2167
g2168
sg2169
(lp2224
I42
aI43
aI44
aI45
aI46
aI47
asg2171
I7
sbsg854
g0
(g2160
g2
Ntp2225
Rp2226
(dp2227
g2164
g2165
sg2166
g854
sg2167
g2168
sg2169
(lp2228
I60
aI61
aI62
asg2171
I11
sbsg916
g0
(g2160
g2
Ntp2229
Rp2230
(dp2231
g2164
g2165
sg2166
g916
sg2167
g2168
sg2169
(lp2232
I105
aI106
aI107
asg2171
I26
sbsg866
g0
(g2160
g2
Ntp2233
Rp2234
(dp2235
g2164
g2165
sg2166
g866
sg2167
g2168
sg2169
(lp2236
I96
aI97
aI98
asg2171
I23
sbsg846
g0
(g2160
g2
Ntp2237
Rp2238
(dp2239
g2164
g2165
sg2166
g846
sg2167
g2168
sg2169
(lp2240
I69
aI70
aI71
asg2171
I14
sbsg862
g0
(g2160
g2
Ntp2241
Rp2242
(dp2243
g2164
g2165
sg2166
g862
sg2167
g2168
sg2169
(lp2244
I88
aI89
aI87
asg2171
I20
sbsg882
g0
(g2160
g2
Ntp2245
Rp2246
(dp2247
g2164
g2165
sg2166
g882
sg2167
g2168
sg2169
(lp2248
I56
aI54
aI55
asg2171
I9
sbsg874
g0
(g2160
g2
Ntp2249
Rp2250
(dp2251
g2164
g2165
sg2166
g874
sg2167
g2168
sg2169
(lp2252
I80
aI78
aI79
asg2171
I17
sbsS'nset_support_wall2'
p2253
g0
(g2160
g2
Ntp2254
Rp2255
(dp2256
g2164
g2165
sg2166
g2253
sg2167
S'node'
p2257
sg2169
(lp2258
I149
aI148
aI147
aI146
aI145
aI144
aI143
aI142
aI141
aI140
asg2171
I29
sbsg870
g0
(g2160
g2
Ntp2259
Rp2260
(dp2261
g2164
g2165
sg2166
g870
sg2167
g2168
sg2169
(lp2262
I64
aI65
aI63
asg2171
I12
sbsg890
g0
(g2160
g2
Ntp2263
Rp2264
(dp2265
g2164
g2165
sg2166
g890
sg2167
g2168
sg2169
(lp2266
I104
aI102
aI103
asg2171
I25
sbsg838
g0
(g2160
g2
Ntp2267
Rp2268
(dp2269
g2164
g2165
sg2166
g838
sg2167
g2168
sg2169
(lp2270
I93
aI94
aI95
asg2171
I22
sbsS'nset_support_wall1'
p2271
g0
(g2160
g2
Ntp2272
Rp2273
(dp2274
g2164
g2165
sg2166
g2271
sg2167
g2257
sg2169
(lp2275
I109
aI108
aI107
aI106
aI105
aI104
aI103
aI102
aI101
aI100
asg2171
I28
sbsg908
g0
(g2160
g2
Ntp2276
Rp2277
(dp2278
g2164
g2165
sg2166
g908
sg2167
g2168
sg2169
(lp2279
I72
aI73
aI74
asg2171
I15
sbsg828
g0
(g2160
g2
Ntp2280
Rp2281
(dp2282
g2164
g2165
sg2166
g828
sg2167
g2168
sg2169
(lp2283
I84
aI85
aI86
asg2171
I19
sbsg820
g0
(g2160
g2
Ntp2284
Rp2285
(dp2286
g2164
g2165
sg2166
g820
sg2167
g2168
sg2169
(lp2287
I57
aI58
aI59
asg2171
I10
sbsg912
g0
(g2160
g2
Ntp2288
Rp2289
(dp2290
g2164
g2165
sg2166
g912
sg2167
g2168
sg2169
(lp2291
I99
aI100
aI101
asg2171
I24
sbssS'steps'
p2292
(dp2293
S'step_2'
p2294
g0
(ccompas_fea.structure.step
GeneralStep
p2295
g2
Ntp2296
Rp2297
(dp2298
g15
I1
sS'__name__'
p2299
S'GeneralStep'
p2300
sS'name'
p2301
g2294
sS'attr_list'
p2302
(lp2303
S'name'
p2304
aS'increments'
p2305
aS'iterations'
p2306
aS'factor'
p2307
aS'nlgeom'
p2308
aS'nlmat'
p2309
aS'displacements'
p2310
aS'loads'
p2311
aS'type'
p2312
aS'tolerance'
p2313
aS'modify'
p2314
asS'increments'
p2315
I1
sS'iterations'
p2316
I100
sS'tolerance'
p2317
F0.01
sS'factor'
p2318
F1.0
sS'nlgeom'
p2319
I00
sS'nlmat'
p2320
I01
sS'displacements'
p2321
(lp2322
sS'loads'
p2323
(lp2324
S'load_gravity'
p2325
aS'earthPressure_backfill'
p2326
ag959
asS'modify'
p2327
I01
sS'type'
p2328
S'static'
p2329
sbsS'step_3'
p2330
g0
(g2295
g2
Ntp2331
Rp2332
(dp2333
g15
I2
sg2299
g2300
sg2301
g2330
sg2302
(lp2334
g2304
ag2305
ag2306
ag2307
ag2308
ag2309
ag2310
ag2311
ag2312
ag2313
ag2314
asg2315
I1
sg2316
I100
sg2317
F0.01
sg2318
F1.0
sg2319
I00
sg2320
I01
sg2321
(lp2335
sg2323
(lp2336
g998
ag975
ag991
ag933
asg2327
I01
sg2328
g2329
sbsS'step_1'
p2337
g0
(g2295
g2
Ntp2338
Rp2339
(dp2340
g15
I0
sg2299
g2300
sg2301
g2337
sg2302
(lp2341
g2304
ag2305
ag2306
ag2307
ag2308
ag2309
ag2310
ag2311
ag2312
ag2313
ag2314
asg2315
I1
sg2316
I100
sg2317
F0.01
sg2318
F1.0
sg2319
I00
sg2320
I01
sg2321
(lp2342
S'nset_pinned_set_disp_1'
p2343
aS'nset_pinned_set_disp_2'
p2344
asg2323
(lp2345
sg2327
I01
sg2328
g2329
sbssS'loc_coor'
p2346
(dp2347
sS'steps_order'
p2348
(lp2349
S'step_1'
p2350
aS'step_2'
p2351
aS'step_3'
p2352
asS'tol'
p2353
S'3'
p2354
sS'virtual_nodes'
p2355
(dp2356
sS'virtual_node_index'
p2357
(dp2358
sS'virtual_elements'
p2359
(dp2360
sS'virtual_element_index'
p2361
(dp2362
sb.