ccopy_reg
_reconstructor
p0
(ccompas_fea.structure.structure
Structure
p1
c__builtin__
object
p2
Ntp3
Rp4
(dp5
S'constraints'
p6
(dp7
sS'displacements'
p8
(dp9
S'nset_pinned_set_disp_1'
p10
g0
(ccompas_fea.structure.displacement
GeneralDisplacement
p11
g2
Ntp12
Rp13
(dp14
S'index'
p15
I0
sS'__name__'
p16
S'GeneralDisplacement'
p17
sS'name'
p18
g10
sS'nodes'
p19
S'nset_support_wall1'
p20
sS'components'
p21
(dp22
S'z'
p23
I0
sS'xx'
p24
I0
sS'zz'
p25
I0
sS'yy'
p26
I0
sS'y'
p27
I0
sS'x'
p28
I0
ssS'axes'
p29
S'global'
p30
sbsS'nset_pinned_set_disp_2'
p31
g0
(g11
g2
Ntp32
Rp33
(dp34
g15
I1
sg16
g17
sg18
g31
sg19
S'nset_support_wall2'
p35
sg21
(dp36
g23
I0
sg24
I0
sg25
I0
sg26
I0
sg27
I0
sg28
I0
ssg29
g30
sbssS'elements'
p37
(dp38
I0
g0
(ccompas_fea.structure.element
ShellElement
p39
g2
Ntp40
Rp41
(dp42
S'mass'
p43
NsS'__name__'
p44
S'ShellElement'
p45
sS'nodes'
p46
(lp47
I0
aI1
aI4
aI3
asS'number'
p48
I0
sS'thermal'
p49
I00
sS'axes'
p50
(dp51
S'ey'
p52
NsS'ez'
p53
NsS'ex'
p54
NssS'element_property'
p55
S'elset_plate_1_element_prop'
p56
sbsI1
g0
(g39
g2
Ntp57
Rp58
(dp59
g43
Nsg44
g45
sg46
(lp60
I1
aI2
aI5
aI4
asg48
I1
sg49
I00
sg50
g51
sg55
g56
sbsI2
g0
(g39
g2
Ntp61
Rp62
(dp63
g43
Nsg44
g45
sg46
(lp64
I3
aI4
aI7
aI6
asg48
I2
sg49
I00
sg50
g51
sg55
g56
sbsI3
g0
(g39
g2
Ntp65
Rp66
(dp67
g43
Nsg44
g45
sg46
(lp68
I4
aI5
aI8
aI7
asg48
I3
sg49
I00
sg50
g51
sg55
g56
sbsI4
g0
(g39
g2
Ntp69
Rp70
(dp71
g43
Nsg44
g45
sg46
(lp72
I9
aI10
aI13
aI12
asg48
I4
sg49
I00
sg50
(dp73
g52
Nsg53
Nsg54
Nssg55
S'elset_plate_2_element_prop'
p74
sbsI5
g0
(g39
g2
Ntp75
Rp76
(dp77
g43
Nsg44
g45
sg46
(lp78
I10
aI11
aI14
aI13
asg48
I5
sg49
I00
sg50
g73
sg55
g74
sbsI6
g0
(g39
g2
Ntp79
Rp80
(dp81
g43
Nsg44
g45
sg46
(lp82
I12
aI13
aI16
aI15
asg48
I6
sg49
I00
sg50
g73
sg55
g74
sbsI7
g0
(g39
g2
Ntp83
Rp84
(dp85
g43
Nsg44
g45
sg46
(lp86
I13
aI14
aI17
aI16
asg48
I7
sg49
I00
sg50
g73
sg55
g74
sbsI8
g0
(g39
g2
Ntp87
Rp88
(dp89
g43
Nsg44
g45
sg46
(lp90
I2
aI18
aI20
aI5
asg48
I8
sg49
I00
sg50
(dp91
g52
Nsg53
Nsg54
Nssg55
S'elset_plate_3_element_prop'
p92
sbsI9
g0
(g39
g2
Ntp93
Rp94
(dp95
g43
Nsg44
g45
sg46
(lp96
I18
aI19
aI21
aI20
asg48
I9
sg49
I00
sg50
g91
sg55
g92
sbsI10
g0
(g39
g2
Ntp97
Rp98
(dp99
g43
Nsg44
g45
sg46
(lp100
I5
aI20
aI22
aI8
asg48
I10
sg49
I00
sg50
g91
sg55
g92
sbsI11
g0
(g39
g2
Ntp101
Rp102
(dp103
g43
Nsg44
g45
sg46
(lp104
I20
aI21
aI23
aI22
asg48
I11
sg49
I00
sg50
g91
sg55
g92
sbsI12
g0
(g39
g2
Ntp105
Rp106
(dp107
g43
Nsg44
g45
sg46
(lp108
I11
aI24
aI26
aI14
asg48
I12
sg49
I00
sg50
(dp109
g52
Nsg53
Nsg54
Nssg55
S'elset_plate_4_element_prop'
p110
sbsI13
g0
(g39
g2
Ntp111
Rp112
(dp113
g43
Nsg44
g45
sg46
(lp114
I24
aI25
aI27
aI26
asg48
I13
sg49
I00
sg50
g109
sg55
g110
sbsI14
g0
(g39
g2
Ntp115
Rp116
(dp117
g43
Nsg44
g45
sg46
(lp118
I14
aI26
aI28
aI17
asg48
I14
sg49
I00
sg50
g109
sg55
g110
sbsI15
g0
(g39
g2
Ntp119
Rp120
(dp121
g43
Nsg44
g45
sg46
(lp122
I26
aI27
aI29
aI28
asg48
I15
sg49
I00
sg50
g109
sg55
g110
sbsI16
g0
(g39
g2
Ntp123
Rp124
(dp125
g43
Nsg44
g45
sg46
(lp126
I19
aI30
aI32
aI21
asg48
I16
sg49
I00
sg50
(dp127
g52
Nsg53
Nsg54
Nssg55
S'elset_plate_5_element_prop'
p128
sbsI17
g0
(g39
g2
Ntp129
Rp130
(dp131
g43
Nsg44
g45
sg46
(lp132
I30
aI31
aI33
aI32
asg48
I17
sg49
I00
sg50
g127
sg55
g128
sbsI18
g0
(g39
g2
Ntp133
Rp134
(dp135
g43
Nsg44
g45
sg46
(lp136
I21
aI32
aI34
aI23
asg48
I18
sg49
I00
sg50
g127
sg55
g128
sbsI19
g0
(g39
g2
Ntp137
Rp138
(dp139
g43
Nsg44
g45
sg46
(lp140
I32
aI33
aI35
aI34
asg48
I19
sg49
I00
sg50
g127
sg55
g128
sbsI20
g0
(g39
g2
Ntp141
Rp142
(dp143
g43
Nsg44
g45
sg46
(lp144
I25
aI36
aI38
aI27
asg48
I20
sg49
I00
sg50
(dp145
g52
Nsg53
Nsg54
Nssg55
S'elset_plate_6_element_prop'
p146
sbsI21
g0
(g39
g2
Ntp147
Rp148
(dp149
g43
Nsg44
g45
sg46
(lp150
I36
aI37
aI39
aI38
asg48
I21
sg49
I00
sg50
g145
sg55
g146
sbsI22
g0
(g39
g2
Ntp151
Rp152
(dp153
g43
Nsg44
g45
sg46
(lp154
I27
aI38
aI40
aI29
asg48
I22
sg49
I00
sg50
g145
sg55
g146
sbsI23
g0
(g39
g2
Ntp155
Rp156
(dp157
g43
Nsg44
g45
sg46
(lp158
I38
aI39
aI41
aI40
asg48
I23
sg49
I00
sg50
g145
sg55
g146
sbsI24
g0
(g39
g2
Ntp159
Rp160
(dp161
g43
Nsg44
g45
sg46
(lp162
I6
aI7
aI43
aI42
asg48
I24
sg49
I00
sg50
(dp163
g52
Nsg53
Nsg54
Nssg55
S'elset_plate_7_element_prop'
p164
sbsI25
g0
(g39
g2
Ntp165
Rp166
(dp167
g43
Nsg44
g45
sg46
(lp168
I7
aI8
aI44
aI43
asg48
I25
sg49
I00
sg50
g163
sg55
g164
sbsI26
g0
(g39
g2
Ntp169
Rp170
(dp171
g43
Nsg44
g45
sg46
(lp172
I42
aI43
aI10
aI9
asg48
I26
sg49
I00
sg50
g163
sg55
g164
sbsI27
g0
(g39
g2
Ntp173
Rp174
(dp175
g43
Nsg44
g45
sg46
(lp176
I43
aI44
aI11
aI10
asg48
I27
sg49
I00
sg50
g163
sg55
g164
sbsI28
g0
(g39
g2
Ntp177
Rp178
(dp179
g43
Nsg44
g45
sg46
(lp180
I8
aI22
aI45
aI44
asg48
I28
sg49
I00
sg50
(dp181
g52
Nsg53
Nsg54
Nssg55
S'elset_plate_8_element_prop'
p182
sbsI29
g0
(g39
g2
Ntp183
Rp184
(dp185
g43
Nsg44
g45
sg46
(lp186
I22
aI23
aI46
aI45
asg48
I29
sg49
I00
sg50
g181
sg55
g182
sbsI30
g0
(g39
g2
Ntp187
Rp188
(dp189
g43
Nsg44
g45
sg46
(lp190
I44
aI45
aI24
aI11
asg48
I30
sg49
I00
sg50
g181
sg55
g182
sbsI31
g0
(g39
g2
Ntp191
Rp192
(dp193
g43
Nsg44
g45
sg46
(lp194
I45
aI46
aI25
aI24
asg48
I31
sg49
I00
sg50
g181
sg55
g182
sbsI32
g0
(g39
g2
Ntp195
Rp196
(dp197
g43
Nsg44
g45
sg46
(lp198
I23
aI34
aI47
aI46
asg48
I32
sg49
I00
sg50
(dp199
g52
Nsg53
Nsg54
Nssg55
S'elset_plate_9_element_prop'
p200
sbsI33
g0
(g39
g2
Ntp201
Rp202
(dp203
g43
Nsg44
g45
sg46
(lp204
I34
aI35
aI48
aI47
asg48
I33
sg49
I00
sg50
g199
sg55
g200
sbsI34
g0
(g39
g2
Ntp205
Rp206
(dp207
g43
Nsg44
g45
sg46
(lp208
I46
aI47
aI36
aI25
asg48
I34
sg49
I00
sg50
g199
sg55
g200
sbsI35
g0
(g39
g2
Ntp209
Rp210
(dp211
g43
Nsg44
g45
sg46
(lp212
I47
aI48
aI37
aI36
asg48
I35
sg49
I00
sg50
g199
sg55
g200
sbsI36
g0
(g39
g2
Ntp213
Rp214
(dp215
g43
Nsg44
g45
sg46
(lp216
I49
aI50
aI53
aI52
asg48
I36
sg49
I00
sg50
(dp217
g52
Nsg53
Nsg54
Nssg55
S'elset_wall_1_1_element_prop'
p218
sbsI37
g0
(g39
g2
Ntp219
Rp220
(dp221
g43
Nsg44
g45
sg46
(lp222
I50
aI51
aI54
aI53
asg48
I37
sg49
I00
sg50
g217
sg55
g218
sbsI38
g0
(g39
g2
Ntp223
Rp224
(dp225
g43
Nsg44
g45
sg46
(lp226
I51
aI55
aI57
aI54
asg48
I38
sg49
I00
sg50
(dp227
g52
Nsg53
Nsg54
Nssg55
S'elset_wall_1_2_element_prop'
p228
sbsI39
g0
(g39
g2
Ntp229
Rp230
(dp231
g43
Nsg44
g45
sg46
(lp232
I55
aI56
aI58
aI57
asg48
I39
sg49
I00
sg50
g227
sg55
g228
sbsI40
g0
(g39
g2
Ntp233
Rp234
(dp235
g43
Nsg44
g45
sg46
(lp236
I56
aI59
aI61
aI58
asg48
I40
sg49
I00
sg50
(dp237
g52
Nsg53
Nsg54
Nssg55
S'elset_wall_1_3_element_prop'
p238
sbsI41
g0
(g39
g2
Ntp239
Rp240
(dp241
g43
Nsg44
g45
sg46
(lp242
I59
aI60
aI62
aI61
asg48
I41
sg49
I00
sg50
g237
sg55
g238
sbsI42
g0
(g39
g2
Ntp243
Rp244
(dp245
g43
Nsg44
g45
sg46
(lp246
I63
aI64
aI50
aI49
asg48
I42
sg49
I00
sg50
(dp247
g52
Nsg53
Nsg54
Nssg55
S'elset_wall_1_4_element_prop'
p248
sbsI43
g0
(g39
g2
Ntp249
Rp250
(dp251
g43
Nsg44
g45
sg46
(lp252
I64
aI65
aI51
aI50
asg48
I43
sg49
I00
sg50
g247
sg55
g248
sbsI44
g0
(g39
g2
Ntp253
Rp254
(dp255
g43
Nsg44
g45
sg46
(lp256
I65
aI66
aI55
aI51
asg48
I44
sg49
I00
sg50
(dp257
g52
Nsg53
Nsg54
Nssg55
S'elset_wall_1_5_element_prop'
p258
sbsI45
g0
(g39
g2
Ntp259
Rp260
(dp261
g43
Nsg44
g45
sg46
(lp262
I66
aI67
aI56
aI55
asg48
I45
sg49
I00
sg50
g257
sg55
g258
sbsI46
g0
(g39
g2
Ntp263
Rp264
(dp265
g43
Nsg44
g45
sg46
(lp266
I67
aI68
aI59
aI56
asg48
I46
sg49
I00
sg50
(dp267
g52
Nsg53
Nsg54
Nssg55
S'elset_wall_1_6_element_prop'
p268
sbsI47
g0
(g39
g2
Ntp269
Rp270
(dp271
g43
Nsg44
g45
sg46
(lp272
I68
aI69
aI60
aI59
asg48
I47
sg49
I00
sg50
g267
sg55
g268
sbsI48
g0
(g39
g2
Ntp273
Rp274
(dp275
g43
Nsg44
g45
sg46
(lp276
I70
aI71
aI64
aI63
asg48
I48
sg49
I00
sg50
(dp277
g52
Nsg53
Nsg54
Nssg55
S'elset_wall_1_7_element_prop'
p278
sbsI49
g0
(g39
g2
Ntp279
Rp280
(dp281
g43
Nsg44
g45
sg46
(lp282
I71
aI72
aI65
aI64
asg48
I49
sg49
I00
sg50
g277
sg55
g278
sbsI50
g0
(g39
g2
Ntp283
Rp284
(dp285
g43
Nsg44
g45
sg46
(lp286
I72
aI73
aI66
aI65
asg48
I50
sg49
I00
sg50
(dp287
g52
Nsg53
Nsg54
Nssg55
S'elset_wall_1_8_element_prop'
p288
sbsI51
g0
(g39
g2
Ntp289
Rp290
(dp291
g43
Nsg44
g45
sg46
(lp292
I73
aI74
aI67
aI66
asg48
I51
sg49
I00
sg50
g287
sg55
g288
sbsI52
g0
(g39
g2
Ntp293
Rp294
(dp295
g43
Nsg44
g45
sg46
(lp296
I74
aI75
aI68
aI67
asg48
I52
sg49
I00
sg50
(dp297
g52
Nsg53
Nsg54
Nssg55
S'elset_wall_1_9_element_prop'
p298
sbsI53
g0
(g39
g2
Ntp299
Rp300
(dp301
g43
Nsg44
g45
sg46
(lp302
I75
aI76
aI69
aI68
asg48
I53
sg49
I00
sg50
g297
sg55
g298
sbsI54
g0
(g39
g2
Ntp303
Rp304
(dp305
g43
Nsg44
g45
sg46
(lp306
I77
aI80
aI81
aI78
asg48
I54
sg49
I00
sg50
(dp307
g52
Nsg53
Nsg54
Nssg55
S'elset_wall_2_1_element_prop'
p308
sbsI55
g0
(g39
g2
Ntp309
Rp310
(dp311
g43
Nsg44
g45
sg46
(lp312
I78
aI81
aI82
aI79
asg48
I55
sg49
I00
sg50
g307
sg55
g308
sbsI56
g0
(g39
g2
Ntp313
Rp314
(dp315
g43
Nsg44
g45
sg46
(lp316
I79
aI82
aI85
aI83
asg48
I56
sg49
I00
sg50
(dp317
g52
Nsg53
Nsg54
Nssg55
S'elset_wall_2_2_element_prop'
p318
sbsI57
g0
(g39
g2
Ntp319
Rp320
(dp321
g43
Nsg44
g45
sg46
(lp322
I83
aI85
aI86
aI84
asg48
I57
sg49
I00
sg50
g317
sg55
g318
sbsI58
g0
(g39
g2
Ntp323
Rp324
(dp325
g43
Nsg44
g45
sg46
(lp326
I84
aI86
aI89
aI87
asg48
I58
sg49
I00
sg50
(dp327
g52
Nsg53
Nsg54
Nssg55
S'elset_wall_2_3_element_prop'
p328
sbsI59
g0
(g39
g2
Ntp329
Rp330
(dp331
g43
Nsg44
g45
sg46
(lp332
I87
aI89
aI90
aI88
asg48
I59
sg49
I00
sg50
g327
sg55
g328
sbsI60
g0
(g39
g2
Ntp333
Rp334
(dp335
g43
Nsg44
g45
sg46
(lp336
I91
aI77
aI78
aI92
asg48
I60
sg49
I00
sg50
(dp337
g52
Nsg53
Nsg54
Nssg55
S'elset_wall_2_4_element_prop'
p338
sbsI61
g0
(g39
g2
Ntp339
Rp340
(dp341
g43
Nsg44
g45
sg46
(lp342
I92
aI78
aI79
aI93
asg48
I61
sg49
I00
sg50
g337
sg55
g338
sbsI62
g0
(g39
g2
Ntp343
Rp344
(dp345
g43
Nsg44
g45
sg46
(lp346
I93
aI79
aI83
aI94
asg48
I62
sg49
I00
sg50
(dp347
g52
Nsg53
Nsg54
Nssg55
S'elset_wall_2_5_element_prop'
p348
sbsI63
g0
(g39
g2
Ntp349
Rp350
(dp351
g43
Nsg44
g45
sg46
(lp352
I94
aI83
aI84
aI95
asg48
I63
sg49
I00
sg50
g347
sg55
g348
sbsI64
g0
(g39
g2
Ntp353
Rp354
(dp355
g43
Nsg44
g45
sg46
(lp356
I95
aI84
aI87
aI96
asg48
I64
sg49
I00
sg50
(dp357
g52
Nsg53
Nsg54
Nssg55
S'elset_wall_2_6_element_prop'
p358
sbsI65
g0
(g39
g2
Ntp359
Rp360
(dp361
g43
Nsg44
g45
sg46
(lp362
I96
aI87
aI88
aI97
asg48
I65
sg49
I00
sg50
g357
sg55
g358
sbsI66
g0
(g39
g2
Ntp363
Rp364
(dp365
g43
Nsg44
g45
sg46
(lp366
I98
aI91
aI92
aI99
asg48
I66
sg49
I00
sg50
(dp367
g52
Nsg53
Nsg54
Nssg55
S'elset_wall_2_7_element_prop'
p368
sbsI67
g0
(g39
g2
Ntp369
Rp370
(dp371
g43
Nsg44
g45
sg46
(lp372
I99
aI92
aI93
aI100
asg48
I67
sg49
I00
sg50
g367
sg55
g368
sbsI68
g0
(g39
g2
Ntp373
Rp374
(dp375
g43
Nsg44
g45
sg46
(lp376
I100
aI93
aI94
aI101
asg48
I68
sg49
I00
sg50
(dp377
g52
Nsg53
Nsg54
Nssg55
S'elset_wall_2_8_element_prop'
p378
sbsI69
g0
(g39
g2
Ntp379
Rp380
(dp381
g43
Nsg44
g45
sg46
(lp382
I101
aI94
aI95
aI102
asg48
I69
sg49
I00
sg50
g377
sg55
g378
sbsI70
g0
(g39
g2
Ntp383
Rp384
(dp385
g43
Nsg44
g45
sg46
(lp386
I102
aI95
aI96
aI103
asg48
I70
sg49
I00
sg50
(dp387
g52
Nsg53
Nsg54
Nssg55
S'elset_wall_2_9_element_prop'
p388
sbsI71
g0
(g39
g2
Ntp389
Rp390
(dp391
g43
Nsg44
g45
sg46
(lp392
I103
aI96
aI97
aI104
asg48
I71
sg49
I00
sg50
g387
sg55
g388
sbsI72
g0
(ccompas_fea.structure.element
MPCElement
p393
g2
Ntp394
Rp395
(dp396
g43
Nsg44
S'MPCElement'
p397
sg46
(lp398
I90
aI41
asg48
I72
sg49
I00
sg50
(dp399
g52
Nsg53
(lp400
F-3.637978807091713e-12
aF0.0
aF847.99482564141374
asg54
Nssg55
S'elset_mpc_element_prop'
p401
sbsI73
g0
(g393
g2
Ntp402
Rp403
(dp404
g43
Nsg44
g397
sg46
(lp405
I89
aI40
asg48
I73
sg49
I00
sg50
(dp406
g52
Nsg53
(lp407
F-9.0949470177292824e-13
aF0.0
aF847.99482564141374
asg54
Nssg55
g401
sbsI74
g0
(g393
g2
Ntp408
Rp409
(dp410
g43
Nsg44
g397
sg46
(lp411
I86
aI29
asg48
I74
sg49
I00
sg50
(dp412
g52
Nsg53
(lp413
F1.8189894035458565e-12
aF0.0
aF847.99482564141374
asg54
Nssg55
g401
sbsI75
g0
(g393
g2
Ntp414
Rp415
(dp416
g43
Nsg44
g397
sg46
(lp417
I85
aI28
asg48
I75
sg49
I00
sg50
(dp418
g52
Nsg53
(lp419
F-1.3642420526593924e-12
aF0.0
aF847.99482564141374
asg54
Nssg55
g401
sbsI76
g0
(g393
g2
Ntp420
Rp421
(dp422
g43
Nsg44
g397
sg46
(lp423
I82
aI17
asg48
I76
sg49
I00
sg50
(dp424
g52
Nsg53
(lp425
F-4.0927261579781771e-12
aF0.0
aF847.99482564141374
asg54
Nssg55
g401
sbsI77
g0
(g393
g2
Ntp426
Rp427
(dp428
g43
Nsg44
g397
sg46
(lp429
I81
aI16
asg48
I77
sg49
I00
sg50
(dp430
g52
Nsg53
(lp431
F-2.0463630789890885e-12
aF0.0
aF847.99482564141374
asg54
Nssg55
g401
sbsI78
g0
(g393
g2
Ntp432
Rp433
(dp434
g43
Nsg44
g397
sg46
(lp435
I80
aI15
asg48
I78
sg49
I00
sg50
(dp436
g52
Nsg53
(lp437
F0.0
aF0.0
aF847.99482564141374
asg54
Nssg55
g401
sbsI79
g0
(g393
g2
Ntp438
Rp439
(dp440
g43
Nsg44
g397
sg46
(lp441
I62
aI31
asg48
I79
sg49
I00
sg50
(dp442
g52
Nsg53
(lp443
F-3.637978807091713e-12
aF0.0
aF847.99482564141374
asg54
Nssg55
g401
sbsI80
g0
(g393
g2
Ntp444
Rp445
(dp446
g43
Nsg44
g397
sg46
(lp447
I61
aI30
asg48
I80
sg49
I00
sg50
(dp448
g52
Nsg53
(lp449
F-9.0949470177292824e-13
aF0.0
aF847.99482564141374
asg54
Nssg55
g401
sbsI81
g0
(g393
g2
Ntp450
Rp451
(dp452
g43
Nsg44
g397
sg46
(lp453
I58
aI19
asg48
I81
sg49
I00
sg50
(dp454
g52
Nsg53
(lp455
F1.8189894035458565e-12
aF0.0
aF847.99482564141374
asg54
Nssg55
g401
sbsI82
g0
(g393
g2
Ntp456
Rp457
(dp458
g43
Nsg44
g397
sg46
(lp459
I57
aI18
asg48
I82
sg49
I00
sg50
(dp460
g52
Nsg53
(lp461
F-1.3642420526593924e-12
aF0.0
aF847.99482564141374
asg54
Nssg55
g401
sbsI83
g0
(g393
g2
Ntp462
Rp463
(dp464
g43
Nsg44
g397
sg46
(lp465
I54
aI2
asg48
I83
sg49
I00
sg50
(dp466
g52
Nsg53
(lp467
F-4.0927261579781771e-12
aF0.0
aF847.99482564141374
asg54
Nssg55
g401
sbsI84
g0
(g393
g2
Ntp468
Rp469
(dp470
g43
Nsg44
g397
sg46
(lp471
I53
aI1
asg48
I84
sg49
I00
sg50
(dp472
g52
Nsg53
(lp473
F-2.0463630789890885e-12
aF0.0
aF847.99482564141374
asg54
Nssg55
g401
sbsI85
g0
(g393
g2
Ntp474
Rp475
(dp476
g43
Nsg44
g397
sg46
(lp477
I52
aI0
asg48
I85
sg49
I00
sg50
(dp478
g52
Nsg53
(lp479
F0.0
aF0.0
aF847.99482564141374
asg54
Nssg55
g401
sbssS'element_index'
p480
(dp481
S'3134.681,0.000,-1512.556'
p482
I38
sS'1880.808,9013.575,0.000'
p483
I5
sS'4388.553,11978.173,-2861.818'
p484
I63
sS'1880.808,988.199,0.000'
p485
I1
sS'3134.681,10989.973,0.000'
p486
I14
sS'6953.292,7007.231,0.000'
p487
I35
sS'4388.553,0.000,-1512.556'
p488
I39
sS'3134.681,11978.173,-4211.080'
p489
I68
sS'5661.423,10989.973,0.000'
p490
I22
sS'5661.423,0.000,-4211.080'
p491
I52
sS'5661.423,11978.173,-1512.556'
p492
I58
sS'1880.808,11978.173,-4211.080'
p493
I67
sS'6953.292,11978.173,-2861.818'
p494
I65
sS'626.936,2964.598,0.000'
p495
I2
sS'6953.292,0.000,-2861.818'
p496
I47
sS'5661.423,7007.231,0.000'
p497
I34
sS'5661.423,2964.598,0.000'
p498
I18
sS'5661.423,0.000,-1512.556'
p499
I40
sS'4388.553,9013.575,0.000'
p500
I13
sS'3134.681,988.199,0.000'
p501
I8
sS'1880.808,4970.942,0.000'
p502
I25
sS'5661.423,4970.942,0.000'
p503
I32
sS'626.936,0.000,-4211.080'
p504
I48
sS'4388.553,0.000,-4211.080'
p505
I51
sS'3134.681,11978.173,-2861.818'
p506
I62
sS'5661.423,11978.173,-2861.818'
p507
I64
sS'3134.681,9013.575,0.000'
p508
I12
sS'6953.292,10989.973,0.000'
p509
I23
sS'626.936,7007.231,0.000'
p510
I26
sS'6953.292,4970.942,0.000'
p511
I33
sS'1253.872,11978.173,-423.997'
p512
I77
sS'626.936,9013.575,0.000'
p513
I4
sS'6953.292,0.000,-4211.080'
p514
I53
sS'5661.423,0.000,-2861.818'
p515
I46
sS'5015.489,11978.173,-423.997'
p516
I74
sS'626.936,988.199,0.000'
p517
I0
sS'4388.553,2964.598,0.000'
p518
I11
sS'1880.808,7007.231,0.000'
p519
I27
sS'626.936,4970.942,0.000'
p520
I24
sS'3134.681,4970.942,0.000'
p521
I28
sS'5661.423,11978.173,-4211.080'
p522
I70
sS'3134.681,7007.231,0.000'
p523
I30
sS'626.936,11978.173,-2861.818'
p524
I60
sS'6307.358,11978.173,-423.997'
p525
I73
sS'3134.681,11978.173,-1512.556'
p526
I56
sS'1880.808,0.000,-1512.556'
p527
I37
sS'1880.808,2964.598,0.000'
p528
I3
sS'4388.553,11978.173,-1512.556'
p529
I57
sS'626.936,0.000,-1512.556'
p530
I36
sS'0.000,0.000,-423.997'
p531
I85
sS'0.000,11978.173,-423.997'
p532
I78
sS'4388.553,10989.973,0.000'
p533
I15
sS'1880.808,0.000,-4211.080'
p534
I49
sS'4388.553,7007.231,0.000'
p535
I31
sS'1253.872,0.000,-423.997'
p536
I84
sS'626.936,11978.173,-1512.556'
p537
I54
sS'1880.808,0.000,-2861.818'
p538
I43
sS'6953.292,11978.173,-1512.556'
p539
I59
sS'2507.745,11978.173,-423.997'
p540
I76
sS'3761.617,11978.173,-423.997'
p541
I75
sS'7599.226,0.000,-423.997'
p542
I79
sS'4388.553,4970.942,0.000'
p543
I29
sS'3134.681,0.000,-2861.818'
p544
I44
sS'1880.808,11978.173,-1512.556'
p545
I55
sS'1880.808,11978.173,-2861.818'
p546
I61
sS'3134.681,2964.598,0.000'
p547
I10
sS'2507.745,0.000,-423.997'
p548
I83
sS'4388.553,0.000,-2861.818'
p549
I45
sS'6953.292,0.000,-1512.556'
p550
I41
sS'6953.292,2964.598,0.000'
p551
I19
sS'4388.553,988.199,0.000'
p552
I9
sS'7599.226,11978.173,-423.997'
p553
I72
sS'6953.292,988.199,0.000'
p554
I17
sS'5661.423,988.199,0.000'
p555
I16
sS'6307.358,0.000,-423.997'
p556
I80
sS'1880.808,10989.973,0.000'
p557
I7
sS'626.936,10989.973,0.000'
p558
I6
sS'6953.292,11978.173,-4211.080'
p559
I71
sS'5015.489,0.000,-423.997'
p560
I81
sS'5661.423,9013.575,0.000'
p561
I20
sS'626.936,0.000,-2861.818'
p562
I42
sS'3761.617,0.000,-423.997'
p563
I82
sS'6953.292,9013.575,0.000'
p564
I21
sS'626.936,11978.173,-4211.080'
p565
I66
sS'4388.553,11978.173,-4211.080'
p566
I69
sS'3134.681,0.000,-4211.080'
p567
I50
ssS'element_properties'
p568
(dp569
g338
g0
(ccompas_fea.structure.element_properties
ElementProperties
p570
g2
Ntp571
Rp572
(dp573
S'index'
p574
I21
sS'__name__'
p575
S'ElementProperties'
p576
sS'name'
p577
g338
sS'material'
p578
S'wall_element_mat'
p579
sS'section'
p580
S'wall2_element_sec'
p581
sS'elset'
p582
S'elset_wall_2_4'
p583
sS'elements'
p584
NsS'rebar'
p585
(dp586
sbsg228
g0
(g570
g2
Ntp587
Rp588
(dp589
g574
I10
sg575
g576
sg577
g228
sg578
g579
sg580
S'wall1_element_sec'
p590
sg582
S'elset_wall_1_2'
p591
sg584
Nsg585
g586
sbsg288
g0
(g570
g2
Ntp592
Rp593
(dp594
g574
I16
sg575
g576
sg577
g288
sg578
g579
sg580
g590
sg582
S'elset_wall_1_8'
p595
sg584
Nsg585
g586
sbsg318
g0
(g570
g2
Ntp596
Rp597
(dp598
g574
I19
sg575
g576
sg577
g318
sg578
g579
sg580
g581
sg582
S'elset_wall_2_2'
p599
sg584
Nsg585
g586
sbsg56
g0
(g570
g2
Ntp600
Rp601
(dp602
g574
I0
sg575
g576
sg577
g56
sg578
S'plate_element_mat'
p603
sg580
S'plate_element_sec'
p604
sg582
S'elset_plate_1'
p605
sg584
Nsg585
g586
sbsg348
g0
(g570
g2
Ntp606
Rp607
(dp608
g574
I22
sg575
g576
sg577
g348
sg578
g579
sg580
g581
sg582
S'elset_wall_2_5'
p609
sg584
Nsg585
g586
sbsg200
g0
(g570
g2
Ntp610
Rp611
(dp612
g574
I8
sg575
g576
sg577
g200
sg578
g603
sg580
g604
sg582
S'elset_plate_9'
p613
sg584
Nsg585
g586
sbsg268
g0
(g570
g2
Ntp614
Rp615
(dp616
g574
I14
sg575
g576
sg577
g268
sg578
g579
sg580
g590
sg582
S'elset_wall_1_6'
p617
sg584
Nsg585
g586
sbsg128
g0
(g570
g2
Ntp618
Rp619
(dp620
g574
I4
sg575
g576
sg577
g128
sg578
g603
sg580
g604
sg582
S'elset_plate_5'
p621
sg584
Nsg585
g586
sbsg238
g0
(g570
g2
Ntp622
Rp623
(dp624
g574
I11
sg575
g576
sg577
g238
sg578
g579
sg580
g590
sg582
S'elset_wall_1_3'
p625
sg584
Nsg585
g586
sbsg92
g0
(g570
g2
Ntp626
Rp627
(dp628
g574
I2
sg575
g576
sg577
g92
sg578
g603
sg580
g604
sg582
S'elset_plate_3'
p629
sg584
Nsg585
g586
sbsg328
g0
(g570
g2
Ntp630
Rp631
(dp632
g574
I20
sg575
g576
sg577
g328
sg578
g579
sg580
g581
sg582
S'elset_wall_2_3'
p633
sg584
Nsg585
g586
sbsg358
g0
(g570
g2
Ntp634
Rp635
(dp636
g574
I23
sg575
g576
sg577
g358
sg578
g579
sg580
g581
sg582
S'elset_wall_2_6'
p637
sg584
Nsg585
g586
sbsg248
g0
(g570
g2
Ntp638
Rp639
(dp640
g574
I12
sg575
g576
sg577
g248
sg578
g579
sg580
g590
sg582
S'elset_wall_1_4'
p641
sg584
Nsg585
g586
sbsg298
g0
(g570
g2
Ntp642
Rp643
(dp644
g574
I17
sg575
g576
sg577
g298
sg578
g579
sg580
g590
sg582
S'elset_wall_1_9'
p645
sg584
Nsg585
g586
sbsg182
g0
(g570
g2
Ntp646
Rp647
(dp648
g574
I7
sg575
g576
sg577
g182
sg578
g603
sg580
g604
sg582
S'elset_plate_8'
p649
sg584
Nsg585
g586
sbsg218
g0
(g570
g2
Ntp650
Rp651
(dp652
g574
I9
sg575
g576
sg577
g218
sg578
g579
sg580
g590
sg582
S'elset_wall_1_1'
p653
sg584
Nsg585
g586
sbsg164
g0
(g570
g2
Ntp654
Rp655
(dp656
g574
I6
sg575
g576
sg577
g164
sg578
g603
sg580
g604
sg582
S'elset_plate_7'
p657
sg584
Nsg585
g586
sbsg378
g0
(g570
g2
Ntp658
Rp659
(dp660
g574
I25
sg575
g576
sg577
g378
sg578
g579
sg580
g581
sg582
S'elset_wall_2_8'
p661
sg584
Nsg585
g586
sbsg110
g0
(g570
g2
Ntp662
Rp663
(dp664
g574
I3
sg575
g576
sg577
g110
sg578
g603
sg580
g604
sg582
S'elset_plate_4'
p665
sg584
Nsg585
g586
sbsg74
g0
(g570
g2
Ntp666
Rp667
(dp668
g574
I1
sg575
g576
sg577
g74
sg578
g603
sg580
g604
sg582
S'elset_plate_2'
p669
sg584
Nsg585
g586
sbsg401
g0
(g570
g2
Ntp670
Rp671
(dp672
g574
I27
sg575
g576
sg577
g401
sg578
S'elset_mpc_element_mat'
p673
sg580
S'sec_mpc'
p674
sg582
S'elset_mpcs'
p675
sg584
Nsg585
g586
sbsg278
g0
(g570
g2
Ntp676
Rp677
(dp678
g574
I15
sg575
g576
sg577
g278
sg578
g579
sg580
g590
sg582
S'elset_wall_1_7'
p679
sg584
Nsg585
g586
sbsg368
g0
(g570
g2
Ntp680
Rp681
(dp682
g574
I24
sg575
g576
sg577
g368
sg578
g579
sg580
g581
sg582
S'elset_wall_2_7'
p683
sg584
Nsg585
g586
sbsg388
g0
(g570
g2
Ntp684
Rp685
(dp686
g574
I26
sg575
g576
sg577
g388
sg578
g579
sg580
g581
sg582
S'elset_wall_2_9'
p687
sg584
Nsg585
g586
sbsg308
g0
(g570
g2
Ntp688
Rp689
(dp690
g574
I18
sg575
g576
sg577
g308
sg578
g579
sg580
g581
sg582
S'elset_wall_2_1'
p691
sg584
Nsg585
g586
sbsg146
g0
(g570
g2
Ntp692
Rp693
(dp694
g574
I5
sg575
g576
sg577
g146
sg578
g603
sg580
g604
sg582
S'elset_plate_6'
p695
sg584
Nsg585
g586
sbsg258
g0
(g570
g2
Ntp696
Rp697
(dp698
g574
I13
sg575
g576
sg577
g258
sg578
g579
sg580
g590
sg582
S'elset_wall_1_5'
p699
sg584
Nsg585
g586
sbssS'interactions'
p700
(dp701
sS'loads'
p702
(dp703
S'earthPressure_liveLoad'
p704
g0
(ccompas_fea.structure.load
AreaLoad
p705
g2
Ntp706
Rp707
(dp708
g574
I8
sS'__name__'
p709
S'AreaLoad'
p710
sS'name'
p711
g704
sS'axes'
p712
S'local'
p713
sS'components'
p714
(dp715
S'z'
p716
F0.037699999999999997
sS'y'
p717
I0
sS'x'
p718
I0
ssS'nodes'
p719
(lp720
sS'elements'
p721
(lp722
I38
aI39
aI40
aI44
aI45
aI46
aI50
aI51
aI52
asS'attr_list'
p723
(lp724
S'name'
p725
aS'axes'
p726
aS'components'
p727
aS'nodes'
p728
aS'elements'
p729
asbsS'Gleis1_EIGENGEWICHTE_SCHIENE_Lasteinzugsflache'
p730
g0
(g705
g2
Ntp731
Rp732
(dp733
g574
I3
sg709
g710
sg711
g730
sg712
S'global'
p734
sg714
(dp735
g716
F0.0022804084718428164
sg717
I0
sg718
I0
ssg719
g720
sg721
(lp736
I2
aI4
aI5
aI6
aI7
aI8
aI9
aI10
aI11
aI12
aI13
aI15
aI25
aI26
aI27
aI28
aI29
aI30
aI31
asg723
(lp737
g725
ag726
ag727
ag728
ag729
asbsS'earthPressure_backfill'
p738
g0
(g705
g2
Ntp739
Rp740
(dp741
g574
I2
sg709
g710
sg711
g738
sg712
S'local'
p742
sg714
(dp743
g716
F0.056182024745723133
sg717
I0
sg718
I0
ssg719
g720
sg721
(lp744
g653
ag591
ag625
ag641
ag699
ag617
ag679
ag595
ag645
ag691
ag599
ag633
ag583
ag609
ag637
ag683
ag661
ag687
asg723
(lp745
g725
ag726
ag727
ag728
ag729
asbsS'Gleis1_BAHNLASTEN_Lasteinzugsflache_Lastblock_2'
p746
g0
(g705
g2
Ntp747
Rp748
(dp749
g574
I5
sg709
g710
sg711
g746
sg712
S'global'
p750
sg714
(dp751
g716
F0.070369543794263162
sg717
I0
sg718
I0
ssg719
g720
sg721
(lp752
I5
aI6
aI13
asg723
(lp753
g725
ag726
ag727
ag728
ag729
asbsS'earthPressure_gravel'
p754
g0
(g705
g2
Ntp755
Rp756
(dp757
g574
I1
sg709
g710
sg711
g754
sg712
S'global'
p758
sg714
(dp759
g716
F0.013500000000000002
sg717
I0
sg718
I0
ssg719
g720
sg721
(lp760
g605
ag669
ag629
ag665
ag621
ag695
ag657
ag649
ag613
asg723
(lp761
g725
ag726
ag727
ag728
ag729
asbsS'Gleis1_BAHNLASTEN_Lasteinzugsflache_Lastblock_3'
p762
g0
(g705
g2
Ntp763
Rp764
(dp765
g574
I6
sg709
g710
sg711
g762
sg712
g750
sg714
(dp766
g716
F0.070369543794263162
sg717
I0
sg718
I0
ssg719
g720
sg721
(lp767
I7
aI8
aI15
asg723
(lp768
g725
ag726
ag727
ag728
ag729
asbsS'Gleis1_BAHNLASTEN_Lasteinzugsflache_Lastblock_1'
p769
g0
(g705
g2
Ntp770
Rp771
(dp772
g574
I4
sg709
g710
sg711
g769
sg712
g750
sg714
(dp773
g716
F0.070369543794263162
sg717
I0
sg718
I0
ssg719
g720
sg721
(lp774
I25
aI26
aI31
asg723
(lp775
g725
ag726
ag727
ag728
ag729
asbsS'load_gravity'
p776
g0
(ccompas_fea.structure.load
GravityLoad
p777
g2
Ntp778
Rp779
(dp780
g15
I0
sg709
S'GravityLoad'
p781
sg711
g776
sg712
S'global'
p782
sg714
(dp783
S'z'
p784
F1.3500000000000001
sS'y'
p785
F0.0
sS'x'
p786
F0.0
ssg719
g720
sg721
(lp787
g605
ag669
ag629
ag665
ag621
ag695
ag657
ag649
ag613
ag653
ag591
ag625
ag641
ag699
ag617
ag679
ag595
ag645
ag691
ag599
ag633
ag583
ag609
ag637
ag683
ag661
ag687
asg723
(lp788
g725
ag726
ag727
ag728
ag729
aS'g'
p789
asS'g'
p790
F-9.8100000000000005
sbsS'Gleis1_BAHNLASTEN_Lasteinzugsflache_Lastblock_-1'
p791
g0
(g705
g2
Ntp792
Rp793
(dp794
g574
I7
sg709
g710
sg711
g791
sg712
g750
sg714
(dp795
g716
F0.070369543794263162
sg717
I0
sg718
I0
ssg719
g720
sg721
(lp796
I25
aI26
aI29
aI30
asg723
(lp797
g725
ag726
ag727
ag728
ag729
asbssS'materials'
p798
(dp799
S'elset_mpc_element_mat'
p800
g0
(ccompas_fea.structure.material
MPCStiff
p801
g2
Ntp802
Rp803
(dp804
g15
I2
sS'__name__'
p805
S'MPCStiff'
p806
sS'name'
p807
g800
sS'attr_list'
p808
(lp809
g725
aS'E'
p810
aS'v'
p811
aS'G'
p812
aS'p'
p813
aS'tension'
p814
aS'compression'
p815
asS'E'
p816
(dp817
S'E'
p818
L10000000000000L
ssS'v'
p819
(dp820
S'v'
p821
F0.29999999999999999
ssS'G'
p822
(dp823
S'G'
p824
F3846153846153.8462
ssS'p'
p825
F0.10000000000000001
sS'tension'
p826
I01
sS'compression'
p827
I01
sbsg579
g0
(ccompas_fea.structure.material
CMMUsermat
p828
g2
Ntp829
Rp830
(dp831
g15
I1
sg805
S'CMMUsermat'
p832
sg807
g579
sg808
(lp833
g725
aS'E'
p834
aS'v'
p835
aS'G'
p836
aS'p'
p837
aS'R_Rohr'
p838
aS'rho'
p839
aS'oo'
p840
aS'uu'
p841
aS'beton'
p842
aS'fcc'
p843
aS'vc'
p844
aS'ecu'
p845
aS'k_E'
p846
aS'theta_b0'
p847
aS'theta_b1'
p848
aS'k_riss'
p849
aS'Entfestigung'
p850
aS'lambdaTS'
p851
aS'srmx'
p852
aS'srmy'
p853
aS'Begrenzung'
p854
aS'KritQ'
p855
aS'winkelD'
p856
aS'k_vr'
p857
aS'fswy'
p858
aS'stahl1'
p859
aS'zm1'
p860
aS'fsy1'
p861
aS'fsu1'
p862
aS'esu1'
p863
aS'esv1'
p864
aS'Es1'
p865
aS'ka1'
p866
aS'kb1'
p867
aS'kc1'
p868
aS'as1'
p869
aS'dm1'
p870
aS'psi1'
p871
aS'stahl2'
p872
aS'zm2'
p873
aS'fsy2'
p874
aS'fsu2'
p875
aS'esu2'
p876
aS'esv2'
p877
aS'Es2'
p878
aS'ka2'
p879
aS'kb2'
p880
aS'kc2'
p881
aS'as2'
p882
aS'dm2'
p883
aS'psi2'
p884
aS'stahl3'
p885
aS'zm3'
p886
aS'fsy3'
p887
aS'fsu3'
p888
aS'esu3'
p889
aS'esv3'
p890
aS'Es3'
p891
aS'ka3'
p892
aS'kb3'
p893
aS'kc3'
p894
aS'as3'
p895
aS'dm3'
p896
aS'psi3'
p897
aS'stahl4'
p898
aS'zm4'
p899
aS'fsy4'
p900
aS'fsu4'
p901
aS'esu4'
p902
aS'esv4'
p903
aS'Es4'
p904
aS'ka4'
p905
aS'kb4'
p906
aS'kc4'
p907
aS'as4'
p908
aS'dm4'
p909
aS'psi4'
p910
asS'E'
p911
(dp912
S'E'
p913
I200000
ssS'v'
p914
(dp915
S'v'
p916
F0.10000000000000001
ssS'G'
p917
(dp918
S'G'
p919
F90909.090909090897
ssS'p'
p920
F2.5000000000000002e-06
sS'R_Rohr'
p921
(dp922
S'R_Rohr'
p923
I-1
ssS'rho'
p924
(dp925
S'rho'
p926
F2.5000000000000002e-06
ssS'oo'
p927
(dp928
S'oo'
p929
I30
ssS'uu'
p930
(dp931
S'uu'
p932
I30
ssS'beton'
p933
(dp934
S'beton'
p935
I2
ssS'fcc'
p936
(dp937
S'fcc'
p938
I29
ssS'vc'
p939
(dp940
S'vc'
p941
I0
ssS'ecu'
p942
(dp943
S'ecu'
p944
F-0.002
ssS'k_E'
p945
(dp946
S'k_E'
p947
I10000
ssS'theta_b0'
p948
(dp949
S'theta_b0'
p950
I2
ssS'theta_b1'
p951
(dp952
S'theta_b1'
p953
I1
ssS'k_riss'
p954
(dp955
S'k_riss'
p956
I0
ssS'Entfestigung'
p957
(dp958
S'Entfestigung'
p959
I0
ssS'lambdaTS'
p960
(dp961
S'lambdaTS'
p962
F0.67000000000000004
ssS'srmx'
p963
(dp964
S'srmx'
p965
I1
ssS'srmy'
p966
(dp967
S'srmy'
p968
I1
ssS'Begrenzung'
p969
(dp970
S'Begrenzung'
p971
I2
ssS'KritQ'
p972
(dp973
S'KritQ'
p974
I0
ssS'winkelD'
p975
(dp976
S'winkelD'
p977
I45
ssS'k_vr'
p978
(dp979
S'k_vr'
p980
I1
ssS'fswy'
p981
(dp982
S'fswy'
p983
I500
ssS'stahl1'
p984
(dp985
S'stahl1'
p986
I1
ssS'zm1'
p987
(dp988
S'zm1'
p989
I2
ssS'fsy1'
p990
(dp991
S'fsy1'
p992
I330
ssS'fsu1'
p993
(dp994
S'fsu1'
p995
I357
ssS'esu1'
p996
(dp997
S'esu1'
p998
F0.044999999999999998
ssS'esv1'
p999
(dp1000
S'esv1'
p1001
F0.02
ssS'Es1'
p1002
(dp1003
S'Es1'
p1004
I200000
ssS'ka1'
p1005
(dp1006
S'ka1'
p1007
I-1
ssS'kb1'
p1008
(dp1009
S'kb1'
p1010
I-1
ssS'kc1'
p1011
(dp1012
S'kc1'
p1013
I-1
ssS'as1'
p1014
(dp1015
S'as1'
p1016
F1.0686602723199223
ssS'dm1'
p1017
(dp1018
S'dm1'
p1019
F20.424129481906192
ssS'psi1'
p1020
(dp1021
S'psi1'
p1022
I90
ssS'stahl2'
p1023
(dp1024
S'stahl2'
p1025
I1
ssS'zm2'
p1026
(dp1027
S'zm2'
p1028
I2
ssS'fsy2'
p1029
(dp1030
S'fsy2'
p1031
I330
ssS'fsu2'
p1032
(dp1033
S'fsu2'
p1034
I357
ssS'esu2'
p1035
(dp1036
S'esu2'
p1037
F0.044999999999999998
ssS'esv2'
p1038
(dp1039
S'esv2'
p1040
F0.02
ssS'Es2'
p1041
(dp1042
S'Es2'
p1043
I200000
ssS'ka2'
p1044
(dp1045
S'ka2'
p1046
I-1
ssS'kb2'
p1047
(dp1048
S'kb2'
p1049
I-1
ssS'kc2'
p1050
(dp1051
S'kc2'
p1052
I-1
ssS'as2'
p1053
(dp1054
S'as2'
p1055
F0.36890542904903734
ssS'dm2'
p1056
(dp1057
S'dm2'
p1058
F12.0
ssS'psi2'
p1059
(dp1060
S'psi2'
p1061
I0
ssS'stahl3'
p1062
(dp1063
S'stahl3'
p1064
I1
ssS'zm3'
p1065
(dp1066
S'zm3'
p1067
I2
ssS'fsy3'
p1068
(dp1069
S'fsy3'
p1070
I330
ssS'fsu3'
p1071
(dp1072
S'fsu3'
p1073
I357
ssS'esu3'
p1074
(dp1075
S'esu3'
p1076
F0.044999999999999998
ssS'esv3'
p1077
(dp1078
S'esv3'
p1079
F0.02
ssS'Es3'
p1080
(dp1081
S'Es3'
p1082
I200000
ssS'ka3'
p1083
(dp1084
S'ka3'
p1085
I-1
ssS'kb3'
p1086
(dp1087
S'kb3'
p1088
I-1
ssS'kc3'
p1089
(dp1090
S'kc3'
p1091
I-1
ssS'as3'
p1092
(dp1093
S'as3'
p1094
F0.36890542904903734
ssS'dm3'
p1095
(dp1096
S'dm3'
p1097
F12.0
ssS'psi3'
p1098
(dp1099
S'psi3'
p1100
I0
ssS'stahl4'
p1101
(dp1102
S'stahl4'
p1103
I1
ssS'zm4'
p1104
(dp1105
S'zm4'
p1106
I2
ssS'fsy4'
p1107
(dp1108
S'fsy4'
p1109
I330
ssS'fsu4'
p1110
(dp1111
S'fsu4'
p1112
I357
ssS'esu4'
p1113
(dp1114
S'esu4'
p1115
F0.044999999999999998
ssS'esv4'
p1116
(dp1117
S'esv4'
p1118
F0.02
ssS'Es4'
p1119
(dp1120
S'Es4'
p1121
I200000
ssS'ka4'
p1122
(dp1123
S'ka4'
p1124
I-1
ssS'kb4'
p1125
(dp1126
S'kb4'
p1127
I-1
ssS'kc4'
p1128
(dp1129
S'kc4'
p1130
I-1
ssS'as4'
p1131
(dp1132
S'as4'
p1133
F0.3278343849624305
ssS'dm4'
p1134
(dp1135
S'dm4'
p1136
F11.31230156433258
ssS'psi4'
p1137
(dp1138
S'psi4'
p1139
I90
ssbsg603
g0
(g828
g2
Ntp1140
Rp1141
(dp1142
g15
I0
sg805
g832
sg807
g603
sg808
(lp1143
g725
ag834
ag835
ag836
ag837
ag838
ag839
ag840
ag841
ag842
ag843
ag844
ag845
ag846
ag847
ag848
ag849
ag850
ag851
ag852
ag853
ag854
ag855
ag856
ag857
ag858
ag859
ag860
ag861
ag862
ag863
ag864
ag865
ag866
ag867
ag868
ag869
ag870
ag871
ag872
ag873
ag874
ag875
ag876
ag877
ag878
ag879
ag880
ag881
ag882
ag883
ag884
ag885
ag886
ag887
ag888
ag889
ag890
ag891
ag892
ag893
ag894
ag895
ag896
ag897
ag898
ag899
ag900
ag901
ag902
ag903
ag904
ag905
ag906
ag907
ag908
ag909
ag910
asg911
(dp1144
g913
I200000
ssg914
(dp1145
g916
F0.10000000000000001
ssg917
(dp1146
g919
F90909.090909090897
ssg920
F2.5000000000000002e-06
sg921
(dp1147
g923
I-1
ssg924
(dp1148
g926
F2.5000000000000002e-06
ssg927
(dp1149
g929
I30
ssg930
(dp1150
g932
I30
ssg933
(dp1151
g935
I2
ssg936
(dp1152
g938
I29
ssg939
(dp1153
g941
I0
ssg942
(dp1154
g944
F-0.002
ssg945
(dp1155
g947
I10000
ssg948
(dp1156
g950
I2
ssg951
(dp1157
g953
I1
ssg954
(dp1158
g956
I0
ssg957
(dp1159
g959
I0
ssg960
(dp1160
g962
F0.67000000000000004
ssg963
(dp1161
g965
I1
ssg966
(dp1162
g968
I1
ssg969
(dp1163
g971
I2
ssg972
(dp1164
g974
I0
ssg975
(dp1165
g977
I45
ssg978
(dp1166
g980
I1
ssg981
(dp1167
g983
I500
ssg984
(dp1168
g986
I1
ssg987
(dp1169
g989
I2
ssg990
(dp1170
g992
I330
ssg993
(dp1171
g995
I357
ssg996
(dp1172
g998
F0.044999999999999998
ssg999
(dp1173
g1001
F0.02
ssg1002
(dp1174
g1004
I200000
ssg1005
(dp1175
g1007
I-1
ssg1008
(dp1176
g1010
I-1
ssg1011
(dp1177
g1013
I-1
ssg1014
(dp1178
g1016
F0.41704462137098341
ssg1017
(dp1179
g1019
F13.516519501862053
ssg1020
(dp1180
g1022
I90
ssg1023
(dp1181
g1025
I1
ssg1026
(dp1182
g1028
I2
ssg1029
(dp1183
g1031
I330
ssg1032
(dp1184
g1034
I357
ssg1035
(dp1185
g1037
F0.044999999999999998
ssg1038
(dp1186
g1040
F0.02
ssg1041
(dp1187
g1043
I200000
ssg1044
(dp1188
g1046
I-1
ssg1047
(dp1189
g1049
I-1
ssg1050
(dp1190
g1052
I-1
ssg1053
(dp1191
g1055
F0.42600882019298264
ssg1056
(dp1192
g1058
F13.661013124953357
ssg1059
(dp1193
g1061
I0
ssg1062
(dp1194
g1064
I1
ssg1065
(dp1195
g1067
I2
ssg1068
(dp1196
g1070
I330
ssg1071
(dp1197
g1073
I357
ssg1074
(dp1198
g1076
F0.044999999999999998
ssg1077
(dp1199
g1079
F0.02
ssg1080
(dp1200
g1082
I200000
ssg1083
(dp1201
g1085
I-1
ssg1086
(dp1202
g1088
I-1
ssg1089
(dp1203
g1091
I-1
ssg1092
(dp1204
g1094
F0.32871177829060555
ssg1095
(dp1205
g1097
F12.0
ssg1098
(dp1206
g1100
I0
ssg1101
(dp1207
g1103
I1
ssg1104
(dp1208
g1106
I2
ssg1107
(dp1209
g1109
I330
ssg1110
(dp1210
g1112
I357
ssg1113
(dp1211
g1115
F0.044999999999999998
ssg1116
(dp1212
g1118
F0.02
ssg1119
(dp1213
g1121
I200000
ssg1122
(dp1214
g1124
I-1
ssg1125
(dp1215
g1127
I-1
ssg1128
(dp1216
g1130
I-1
ssg1131
(dp1217
g1133
F0.27977737558753646
ssg1134
(dp1218
g1136
F11.07082304573728
ssg1137
(dp1219
g1139
I90
ssbssS'misc'
p1220
(dp1221
sS'name'
p1222
S'NLFE_CFB5'
p1223
sS'nodes'
p1224
(dp1225
I0
g0
(ccompas_fea.structure.node
Node
p1226
g2
Ntp1227
Rp1228
(dp1229
S'__name__'
p1230
S'Node'
p1231
sS'key'
p1232
I0
sS'x'
p1233
F0.0
sS'y'
p1234
F0.0
sS'z'
p1235
F0.0
sS'ex'
p1236
(lp1237
I1
aI0
aI0
asS'ey'
p1238
(lp1239
I0
aI1
aI0
asS'ez'
p1240
(lp1241
I0
aI0
aI1
asS'mass'
p1242
NsbsI1
g0
(g1226
g2
Ntp1243
Rp1244
(dp1245
g1230
g1231
sg1232
I1
sg1233
F1253.872299844053
sg1234
F0.0
sg1235
F0.0
sg1236
g1237
sg1238
g1239
sg1240
g1241
sg1242
NsbsI2
g0
(g1226
g2
Ntp1246
Rp1247
(dp1248
g1230
g1231
sg1232
I2
sg1233
F2507.7445996881061
sg1234
F0.0
sg1235
F0.0
sg1236
g1237
sg1238
g1239
sg1240
g1241
sg1242
NsbsI3
g0
(g1226
g2
Ntp1249
Rp1250
(dp1251
g1230
g1231
sg1232
I3
sg1233
F0.0
sg1234
F1976.3984893967454
sg1235
F0.0
sg1236
g1237
sg1238
g1239
sg1240
g1241
sg1242
NsbsI4
g0
(g1226
g2
Ntp1252
Rp1253
(dp1254
g1230
g1231
sg1232
I4
sg1233
F1253.8722998440528
sg1234
F1976.3984893967454
sg1235
F0.0
sg1236
g1237
sg1238
g1239
sg1240
g1241
sg1242
NsbsI5
g0
(g1226
g2
Ntp1255
Rp1256
(dp1257
g1230
g1231
sg1232
I5
sg1233
F2507.7445996881056
sg1234
F1976.3984893967454
sg1235
F0.0
sg1236
g1237
sg1238
g1239
sg1240
g1241
sg1242
NsbsI6
g0
(g1226
g2
Ntp1258
Rp1259
(dp1260
g1230
g1231
sg1232
I6
sg1233
F0.0
sg1234
F3952.7969787934912
sg1235
F0.0
sg1236
g1237
sg1238
g1239
sg1240
g1241
sg1242
NsbsI7
g0
(g1226
g2
Ntp1261
Rp1262
(dp1263
g1230
g1231
sg1232
I7
sg1233
F1253.872299844053
sg1234
F3952.7969787934912
sg1235
F0.0
sg1236
g1237
sg1238
g1239
sg1240
g1241
sg1242
NsbsI8
g0
(g1226
g2
Ntp1264
Rp1265
(dp1266
g1230
g1231
sg1232
I8
sg1233
F2507.7445996881061
sg1234
F3952.7969787934912
sg1235
F0.0
sg1236
g1237
sg1238
g1239
sg1240
g1241
sg1242
NsbsI9
g0
(g1226
g2
Ntp1267
Rp1268
(dp1269
g1230
g1231
sg1232
I9
sg1233
F0.0
sg1234
F8025.3756842170878
sg1235
F0.0
sg1236
g1237
sg1238
g1239
sg1240
g1241
sg1242
NsbsI10
g0
(g1226
g2
Ntp1270
Rp1271
(dp1272
g1230
g1231
sg1232
I10
sg1233
F1253.872299844053
sg1234
F8025.3756842170878
sg1235
F0.0
sg1236
g1237
sg1238
g1239
sg1240
g1241
sg1242
NsbsI11
g0
(g1226
g2
Ntp1273
Rp1274
(dp1275
g1230
g1231
sg1232
I11
sg1233
F2507.7445996881061
sg1234
F8025.3756842170878
sg1235
F0.0
sg1236
g1237
sg1238
g1239
sg1240
g1241
sg1242
NsbsI12
g0
(g1226
g2
Ntp1276
Rp1277
(dp1278
g1230
g1231
sg1232
I12
sg1233
F0.0
sg1234
F10001.774173613834
sg1235
F0.0
sg1236
g1237
sg1238
g1239
sg1240
g1241
sg1242
NsbsI13
g0
(g1226
g2
Ntp1279
Rp1280
(dp1281
g1230
g1231
sg1232
I13
sg1233
F1253.872299844053
sg1234
F10001.774173613832
sg1235
F0.0
sg1236
g1237
sg1238
g1239
sg1240
g1241
sg1242
NsbsI14
g0
(g1226
g2
Ntp1282
Rp1283
(dp1284
g1230
g1231
sg1232
I14
sg1233
F2507.7445996881061
sg1234
F10001.774173613834
sg1235
F0.0
sg1236
g1237
sg1238
g1239
sg1240
g1241
sg1242
NsbsI15
g0
(g1226
g2
Ntp1285
Rp1286
(dp1287
g1230
g1231
sg1232
I15
sg1233
F0.0
sg1234
F11978.172663010579
sg1235
F0.0
sg1236
g1237
sg1238
g1239
sg1240
g1241
sg1242
NsbsI16
g0
(g1226
g2
Ntp1288
Rp1289
(dp1290
g1230
g1231
sg1232
I16
sg1233
F1253.872299844053
sg1234
F11978.172663010579
sg1235
F0.0
sg1236
g1237
sg1238
g1239
sg1240
g1241
sg1242
NsbsI17
g0
(g1226
g2
Ntp1291
Rp1292
(dp1293
g1230
g1231
sg1232
I17
sg1233
F2507.7445996881061
sg1234
F11978.172663010579
sg1235
F0.0
sg1236
g1237
sg1238
g1239
sg1240
g1241
sg1242
NsbsI18
g0
(g1226
g2
Ntp1294
Rp1295
(dp1296
g1230
g1231
sg1232
I18
sg1233
F3761.6168995321591
sg1234
F0.0
sg1235
F0.0
sg1236
g1237
sg1238
g1239
sg1240
g1241
sg1242
NsbsI19
g0
(g1226
g2
Ntp1297
Rp1298
(dp1299
g1230
g1231
sg1232
I19
sg1233
F5015.4891993762121
sg1234
F0.0
sg1235
F0.0
sg1236
g1237
sg1238
g1239
sg1240
g1241
sg1242
NsbsI20
g0
(g1226
g2
Ntp1300
Rp1301
(dp1302
g1230
g1231
sg1232
I20
sg1233
F3761.6168995321586
sg1234
F1976.3984893967454
sg1235
F0.0
sg1236
g1237
sg1238
g1239
sg1240
g1241
sg1242
NsbsI21
g0
(g1226
g2
Ntp1303
Rp1304
(dp1305
g1230
g1231
sg1232
I21
sg1233
F5015.4891993762112
sg1234
F1976.3984893967454
sg1235
F0.0
sg1236
g1237
sg1238
g1239
sg1240
g1241
sg1242
NsbsI22
g0
(g1226
g2
Ntp1306
Rp1307
(dp1308
g1230
g1231
sg1232
I22
sg1233
F3761.6168995321591
sg1234
F3952.7969787934912
sg1235
F0.0
sg1236
g1237
sg1238
g1239
sg1240
g1241
sg1242
NsbsI23
g0
(g1226
g2
Ntp1309
Rp1310
(dp1311
g1230
g1231
sg1232
I23
sg1233
F5015.4891993762121
sg1234
F3952.7969787934912
sg1235
F0.0
sg1236
g1237
sg1238
g1239
sg1240
g1241
sg1242
NsbsI24
g0
(g1226
g2
Ntp1312
Rp1313
(dp1314
g1230
g1231
sg1232
I24
sg1233
F3761.6168995321591
sg1234
F8025.3756842170878
sg1235
F0.0
sg1236
g1237
sg1238
g1239
sg1240
g1241
sg1242
NsbsI25
g0
(g1226
g2
Ntp1315
Rp1316
(dp1317
g1230
g1231
sg1232
I25
sg1233
F5015.4891993762121
sg1234
F8025.3756842170878
sg1235
F0.0
sg1236
g1237
sg1238
g1239
sg1240
g1241
sg1242
NsbsI26
g0
(g1226
g2
Ntp1318
Rp1319
(dp1320
g1230
g1231
sg1232
I26
sg1233
F3761.6168995321591
sg1234
F10001.774173613832
sg1235
F0.0
sg1236
g1237
sg1238
g1239
sg1240
g1241
sg1242
NsbsI27
g0
(g1226
g2
Ntp1321
Rp1322
(dp1323
g1230
g1231
sg1232
I27
sg1233
F5015.4891993762121
sg1234
F10001.774173613834
sg1235
F0.0
sg1236
g1237
sg1238
g1239
sg1240
g1241
sg1242
NsbsI28
g0
(g1226
g2
Ntp1324
Rp1325
(dp1326
g1230
g1231
sg1232
I28
sg1233
F3761.6168995321591
sg1234
F11978.172663010579
sg1235
F0.0
sg1236
g1237
sg1238
g1239
sg1240
g1241
sg1242
NsbsI29
g0
(g1226
g2
Ntp1327
Rp1328
(dp1329
g1230
g1231
sg1232
I29
sg1233
F5015.4891993762121
sg1234
F11978.172663010579
sg1235
F0.0
sg1236
g1237
sg1238
g1239
sg1240
g1241
sg1242
NsbsI30
g0
(g1226
g2
Ntp1330
Rp1331
(dp1332
g1230
g1231
sg1232
I30
sg1233
F6307.3576295185694
sg1234
F0.0
sg1235
F0.0
sg1236
g1237
sg1238
g1239
sg1240
g1241
sg1242
NsbsI31
g0
(g1226
g2
Ntp1333
Rp1334
(dp1335
g1230
g1231
sg1232
I31
sg1233
F7599.2260596609267
sg1234
F0.0
sg1235
F0.0
sg1236
g1237
sg1238
g1239
sg1240
g1241
sg1242
NsbsI32
g0
(g1226
g2
Ntp1336
Rp1337
(dp1338
g1230
g1231
sg1232
I32
sg1233
F6307.3576295185685
sg1234
F1976.3984893967454
sg1235
F0.0
sg1236
g1237
sg1238
g1239
sg1240
g1241
sg1242
NsbsI33
g0
(g1226
g2
Ntp1339
Rp1340
(dp1341
g1230
g1231
sg1232
I33
sg1233
F7599.2260596609258
sg1234
F1976.3984893967454
sg1235
F0.0
sg1236
g1237
sg1238
g1239
sg1240
g1241
sg1242
NsbsI34
g0
(g1226
g2
Ntp1342
Rp1343
(dp1344
g1230
g1231
sg1232
I34
sg1233
F6307.3576295185694
sg1234
F3952.7969787934912
sg1235
F0.0
sg1236
g1237
sg1238
g1239
sg1240
g1241
sg1242
NsbsI35
g0
(g1226
g2
Ntp1345
Rp1346
(dp1347
g1230
g1231
sg1232
I35
sg1233
F7599.2260596609267
sg1234
F3952.7969787934912
sg1235
F0.0
sg1236
g1237
sg1238
g1239
sg1240
g1241
sg1242
NsbsI36
g0
(g1226
g2
Ntp1348
Rp1349
(dp1350
g1230
g1231
sg1232
I36
sg1233
F6307.3576295185694
sg1234
F8025.3756842170878
sg1235
F0.0
sg1236
g1237
sg1238
g1239
sg1240
g1241
sg1242
NsbsI37
g0
(g1226
g2
Ntp1351
Rp1352
(dp1353
g1230
g1231
sg1232
I37
sg1233
F7599.2260596609267
sg1234
F8025.3756842170878
sg1235
F0.0
sg1236
g1237
sg1238
g1239
sg1240
g1241
sg1242
NsbsI38
g0
(g1226
g2
Ntp1354
Rp1355
(dp1356
g1230
g1231
sg1232
I38
sg1233
F6307.3576295185694
sg1234
F10001.774173613832
sg1235
F0.0
sg1236
g1237
sg1238
g1239
sg1240
g1241
sg1242
NsbsI39
g0
(g1226
g2
Ntp1357
Rp1358
(dp1359
g1230
g1231
sg1232
I39
sg1233
F7599.2260596609267
sg1234
F10001.774173613834
sg1235
F0.0
sg1236
g1237
sg1238
g1239
sg1240
g1241
sg1242
NsbsI40
g0
(g1226
g2
Ntp1360
Rp1361
(dp1362
g1230
g1231
sg1232
I40
sg1233
F6307.3576295185694
sg1234
F11978.172663010579
sg1235
F0.0
sg1236
g1237
sg1238
g1239
sg1240
g1241
sg1242
NsbsI41
g0
(g1226
g2
Ntp1363
Rp1364
(dp1365
g1230
g1231
sg1232
I41
sg1233
F7599.2260596609267
sg1234
F11978.172663010579
sg1235
F0.0
sg1236
g1237
sg1238
g1239
sg1240
g1241
sg1242
NsbsI42
g0
(g1226
g2
Ntp1366
Rp1367
(dp1368
g1230
g1231
sg1232
I42
sg1233
F0.0
sg1234
F5989.0863315052893
sg1235
F0.0
sg1236
g1237
sg1238
g1239
sg1240
g1241
sg1242
NsbsI43
g0
(g1226
g2
Ntp1369
Rp1370
(dp1371
g1230
g1231
sg1232
I43
sg1233
F1253.872299844053
sg1234
F5989.0863315052893
sg1235
F0.0
sg1236
g1237
sg1238
g1239
sg1240
g1241
sg1242
NsbsI44
g0
(g1226
g2
Ntp1372
Rp1373
(dp1374
g1230
g1231
sg1232
I44
sg1233
F2507.7445996881061
sg1234
F5989.0863315052893
sg1235
F0.0
sg1236
g1237
sg1238
g1239
sg1240
g1241
sg1242
NsbsI45
g0
(g1226
g2
Ntp1375
Rp1376
(dp1377
g1230
g1231
sg1232
I45
sg1233
F3761.6168995321591
sg1234
F5989.0863315052893
sg1235
F0.0
sg1236
g1237
sg1238
g1239
sg1240
g1241
sg1242
NsbsI46
g0
(g1226
g2
Ntp1378
Rp1379
(dp1380
g1230
g1231
sg1232
I46
sg1233
F5015.4891993762121
sg1234
F5989.0863315052893
sg1235
F0.0
sg1236
g1237
sg1238
g1239
sg1240
g1241
sg1242
NsbsI47
g0
(g1226
g2
Ntp1381
Rp1382
(dp1383
g1230
g1231
sg1232
I47
sg1233
F6307.3576295185694
sg1234
F5989.0863315052893
sg1235
F0.0
sg1236
g1237
sg1238
g1239
sg1240
g1241
sg1242
NsbsI48
g0
(g1226
g2
Ntp1384
Rp1385
(dp1386
g1230
g1231
sg1232
I48
sg1233
F7599.2260596609267
sg1234
F5989.0863315052893
sg1235
F0.0
sg1236
g1237
sg1238
g1239
sg1240
g1241
sg1242
NsbsI49
g0
(g1226
g2
Ntp1387
Rp1388
(dp1389
g1230
g1231
sg1232
I49
sg1233
F0.0
sg1234
F0.0
sg1235
F-2177.1181515854828
sg1236
g1237
sg1238
g1239
sg1240
g1241
sg1242
NsbsI50
g0
(g1226
g2
Ntp1390
Rp1391
(dp1392
g1230
g1231
sg1232
I50
sg1233
F1253.8722998440551
sg1234
F0.0
sg1235
F-2177.1181515854828
sg1236
g1237
sg1238
g1239
sg1240
g1241
sg1242
NsbsI51
g0
(g1226
g2
Ntp1393
Rp1394
(dp1395
g1230
g1231
sg1232
I51
sg1233
F2507.7445996881102
sg1234
F0.0
sg1235
F-2177.1181515854828
sg1236
g1237
sg1238
g1239
sg1240
g1241
sg1242
NsbsI52
g0
(g1226
g2
Ntp1396
Rp1397
(dp1398
g1230
g1231
sg1232
I52
sg1233
F0.0
sg1234
F0.0
sg1235
F-847.99482564141374
sg1236
g1237
sg1238
g1239
sg1240
g1241
sg1242
NsbsI53
g0
(g1226
g2
Ntp1399
Rp1400
(dp1401
g1230
g1231
sg1232
I53
sg1233
F1253.8722998440551
sg1234
F0.0
sg1235
F-847.99482564141374
sg1236
g1237
sg1238
g1239
sg1240
g1241
sg1242
NsbsI54
g0
(g1226
g2
Ntp1402
Rp1403
(dp1404
g1230
g1231
sg1232
I54
sg1233
F2507.7445996881102
sg1234
F0.0
sg1235
F-847.99482564141374
sg1236
g1237
sg1238
g1239
sg1240
g1241
sg1242
NsbsI55
g0
(g1226
g2
Ntp1405
Rp1406
(dp1407
g1230
g1231
sg1232
I55
sg1233
F3761.6168995321605
sg1234
F0.0
sg1235
F-2177.1181515854828
sg1236
g1237
sg1238
g1239
sg1240
g1241
sg1242
NsbsI56
g0
(g1226
g2
Ntp1408
Rp1409
(dp1410
g1230
g1231
sg1232
I56
sg1233
F5015.4891993762103
sg1234
F0.0
sg1235
F-2177.1181515854828
sg1236
g1237
sg1238
g1239
sg1240
g1241
sg1242
NsbsI57
g0
(g1226
g2
Ntp1411
Rp1412
(dp1413
g1230
g1231
sg1232
I57
sg1233
F3761.6168995321605
sg1234
F0.0
sg1235
F-847.99482564141374
sg1236
g1237
sg1238
g1239
sg1240
g1241
sg1242
NsbsI58
g0
(g1226
g2
Ntp1414
Rp1415
(dp1416
g1230
g1231
sg1232
I58
sg1233
F5015.4891993762103
sg1234
F0.0
sg1235
F-847.99482564141374
sg1236
g1237
sg1238
g1239
sg1240
g1241
sg1242
NsbsI59
g0
(g1226
g2
Ntp1417
Rp1418
(dp1419
g1230
g1231
sg1232
I59
sg1233
F6307.3576295185703
sg1234
F0.0
sg1235
F-2177.1181515854828
sg1236
g1237
sg1238
g1239
sg1240
g1241
sg1242
NsbsI60
g0
(g1226
g2
Ntp1420
Rp1421
(dp1422
g1230
g1231
sg1232
I60
sg1233
F7599.2260596609303
sg1234
F0.0
sg1235
F-2177.1181515854828
sg1236
g1237
sg1238
g1239
sg1240
g1241
sg1242
NsbsI61
g0
(g1226
g2
Ntp1423
Rp1424
(dp1425
g1230
g1231
sg1232
I61
sg1233
F6307.3576295185703
sg1234
F0.0
sg1235
F-847.99482564141374
sg1236
g1237
sg1238
g1239
sg1240
g1241
sg1242
NsbsI62
g0
(g1226
g2
Ntp1426
Rp1427
(dp1428
g1230
g1231
sg1232
I62
sg1233
F7599.2260596609303
sg1234
F0.0
sg1235
F-847.99482564141374
sg1236
g1237
sg1238
g1239
sg1240
g1241
sg1242
NsbsI63
g0
(g1226
g2
Ntp1429
Rp1430
(dp1431
g1230
g1231
sg1232
I63
sg1233
F0.0
sg1234
F0.0
sg1235
F-3546.5179419520996
sg1236
g1237
sg1238
g1239
sg1240
g1241
sg1242
NsbsI64
g0
(g1226
g2
Ntp1432
Rp1433
(dp1434
g1230
g1231
sg1232
I64
sg1233
F1253.8722998440551
sg1234
F0.0
sg1235
F-3546.5179419520996
sg1236
g1237
sg1238
g1239
sg1240
g1241
sg1242
NsbsI65
g0
(g1226
g2
Ntp1435
Rp1436
(dp1437
g1230
g1231
sg1232
I65
sg1233
F2507.7445996881102
sg1234
F0.0
sg1235
F-3546.5179419520996
sg1236
g1237
sg1238
g1239
sg1240
g1241
sg1242
NsbsI66
g0
(g1226
g2
Ntp1438
Rp1439
(dp1440
g1230
g1231
sg1232
I66
sg1233
F3761.6168995321605
sg1234
F0.0
sg1235
F-3546.5179419520996
sg1236
g1237
sg1238
g1239
sg1240
g1241
sg1242
NsbsI67
g0
(g1226
g2
Ntp1441
Rp1442
(dp1443
g1230
g1231
sg1232
I67
sg1233
F5015.4891993762103
sg1234
F0.0
sg1235
F-3546.5179419520996
sg1236
g1237
sg1238
g1239
sg1240
g1241
sg1242
NsbsI68
g0
(g1226
g2
Ntp1444
Rp1445
(dp1446
g1230
g1231
sg1232
I68
sg1233
F6307.3576295185703
sg1234
F0.0
sg1235
F-3546.5179419520996
sg1236
g1237
sg1238
g1239
sg1240
g1241
sg1242
NsbsI69
g0
(g1226
g2
Ntp1447
Rp1448
(dp1449
g1230
g1231
sg1232
I69
sg1233
F7599.2260596609303
sg1234
F0.0
sg1235
F-3546.5179419520996
sg1236
g1237
sg1238
g1239
sg1240
g1241
sg1242
NsbsI70
g0
(g1226
g2
Ntp1450
Rp1451
(dp1452
g1230
g1231
sg1232
I70
sg1233
F0.0
sg1234
F0.0
sg1235
F-4875.6412678961688
sg1236
g1237
sg1238
g1239
sg1240
g1241
sg1242
NsbsI71
g0
(g1226
g2
Ntp1453
Rp1454
(dp1455
g1230
g1231
sg1232
I71
sg1233
F1253.8722998440551
sg1234
F0.0
sg1235
F-4875.6412678961688
sg1236
g1237
sg1238
g1239
sg1240
g1241
sg1242
NsbsI72
g0
(g1226
g2
Ntp1456
Rp1457
(dp1458
g1230
g1231
sg1232
I72
sg1233
F2507.7445996881102
sg1234
F0.0
sg1235
F-4875.6412678961688
sg1236
g1237
sg1238
g1239
sg1240
g1241
sg1242
NsbsI73
g0
(g1226
g2
Ntp1459
Rp1460
(dp1461
g1230
g1231
sg1232
I73
sg1233
F3761.6168995321605
sg1234
F0.0
sg1235
F-4875.6412678961688
sg1236
g1237
sg1238
g1239
sg1240
g1241
sg1242
NsbsI74
g0
(g1226
g2
Ntp1462
Rp1463
(dp1464
g1230
g1231
sg1232
I74
sg1233
F5015.4891993762103
sg1234
F0.0
sg1235
F-4875.6412678961688
sg1236
g1237
sg1238
g1239
sg1240
g1241
sg1242
NsbsI75
g0
(g1226
g2
Ntp1465
Rp1466
(dp1467
g1230
g1231
sg1232
I75
sg1233
F6307.3576295185703
sg1234
F0.0
sg1235
F-4875.6412678961688
sg1236
g1237
sg1238
g1239
sg1240
g1241
sg1242
NsbsI76
g0
(g1226
g2
Ntp1468
Rp1469
(dp1470
g1230
g1231
sg1232
I76
sg1233
F7599.2260596609303
sg1234
F0.0
sg1235
F-4875.6412678961688
sg1236
g1237
sg1238
g1239
sg1240
g1241
sg1242
NsbsI77
g0
(g1226
g2
Ntp1471
Rp1472
(dp1473
g1230
g1231
sg1232
I77
sg1233
F0.0
sg1234
F11978.172663010579
sg1235
F-2177.1181515854828
sg1236
g1237
sg1238
g1239
sg1240
g1241
sg1242
NsbsI78
g0
(g1226
g2
Ntp1474
Rp1475
(dp1476
g1230
g1231
sg1232
I78
sg1233
F1253.8722998440551
sg1234
F11978.172663010579
sg1235
F-2177.1181515854828
sg1236
g1237
sg1238
g1239
sg1240
g1241
sg1242
NsbsI79
g0
(g1226
g2
Ntp1477
Rp1478
(dp1479
g1230
g1231
sg1232
I79
sg1233
F2507.7445996881102
sg1234
F11978.172663010579
sg1235
F-2177.1181515854828
sg1236
g1237
sg1238
g1239
sg1240
g1241
sg1242
NsbsI80
g0
(g1226
g2
Ntp1480
Rp1481
(dp1482
g1230
g1231
sg1232
I80
sg1233
F0.0
sg1234
F11978.172663010579
sg1235
F-847.99482564141374
sg1236
g1237
sg1238
g1239
sg1240
g1241
sg1242
NsbsI81
g0
(g1226
g2
Ntp1483
Rp1484
(dp1485
g1230
g1231
sg1232
I81
sg1233
F1253.8722998440551
sg1234
F11978.172663010579
sg1235
F-847.99482564141374
sg1236
g1237
sg1238
g1239
sg1240
g1241
sg1242
NsbsI82
g0
(g1226
g2
Ntp1486
Rp1487
(dp1488
g1230
g1231
sg1232
I82
sg1233
F2507.7445996881102
sg1234
F11978.172663010579
sg1235
F-847.99482564141374
sg1236
g1237
sg1238
g1239
sg1240
g1241
sg1242
NsbsI83
g0
(g1226
g2
Ntp1489
Rp1490
(dp1491
g1230
g1231
sg1232
I83
sg1233
F3761.6168995321605
sg1234
F11978.172663010579
sg1235
F-2177.1181515854828
sg1236
g1237
sg1238
g1239
sg1240
g1241
sg1242
NsbsI84
g0
(g1226
g2
Ntp1492
Rp1493
(dp1494
g1230
g1231
sg1232
I84
sg1233
F5015.4891993762103
sg1234
F11978.172663010579
sg1235
F-2177.1181515854828
sg1236
g1237
sg1238
g1239
sg1240
g1241
sg1242
NsbsI85
g0
(g1226
g2
Ntp1495
Rp1496
(dp1497
g1230
g1231
sg1232
I85
sg1233
F3761.6168995321605
sg1234
F11978.172663010579
sg1235
F-847.99482564141374
sg1236
g1237
sg1238
g1239
sg1240
g1241
sg1242
NsbsI86
g0
(g1226
g2
Ntp1498
Rp1499
(dp1500
g1230
g1231
sg1232
I86
sg1233
F5015.4891993762103
sg1234
F11978.172663010579
sg1235
F-847.99482564141374
sg1236
g1237
sg1238
g1239
sg1240
g1241
sg1242
NsbsI87
g0
(g1226
g2
Ntp1501
Rp1502
(dp1503
g1230
g1231
sg1232
I87
sg1233
F6307.3576295185703
sg1234
F11978.172663010579
sg1235
F-2177.1181515854828
sg1236
g1237
sg1238
g1239
sg1240
g1241
sg1242
NsbsI88
g0
(g1226
g2
Ntp1504
Rp1505
(dp1506
g1230
g1231
sg1232
I88
sg1233
F7599.2260596609303
sg1234
F11978.172663010579
sg1235
F-2177.1181515854828
sg1236
g1237
sg1238
g1239
sg1240
g1241
sg1242
NsbsI89
g0
(g1226
g2
Ntp1507
Rp1508
(dp1509
g1230
g1231
sg1232
I89
sg1233
F6307.3576295185703
sg1234
F11978.172663010579
sg1235
F-847.99482564141374
sg1236
g1237
sg1238
g1239
sg1240
g1241
sg1242
NsbsI90
g0
(g1226
g2
Ntp1510
Rp1511
(dp1512
g1230
g1231
sg1232
I90
sg1233
F7599.2260596609303
sg1234
F11978.172663010579
sg1235
F-847.99482564141374
sg1236
g1237
sg1238
g1239
sg1240
g1241
sg1242
NsbsI91
g0
(g1226
g2
Ntp1513
Rp1514
(dp1515
g1230
g1231
sg1232
I91
sg1233
F0.0
sg1234
F11978.172663010579
sg1235
F-3546.5179419520996
sg1236
g1237
sg1238
g1239
sg1240
g1241
sg1242
NsbsI92
g0
(g1226
g2
Ntp1516
Rp1517
(dp1518
g1230
g1231
sg1232
I92
sg1233
F1253.8722998440551
sg1234
F11978.172663010579
sg1235
F-3546.5179419520996
sg1236
g1237
sg1238
g1239
sg1240
g1241
sg1242
NsbsI93
g0
(g1226
g2
Ntp1519
Rp1520
(dp1521
g1230
g1231
sg1232
I93
sg1233
F2507.7445996881102
sg1234
F11978.172663010579
sg1235
F-3546.5179419520996
sg1236
g1237
sg1238
g1239
sg1240
g1241
sg1242
NsbsI94
g0
(g1226
g2
Ntp1522
Rp1523
(dp1524
g1230
g1231
sg1232
I94
sg1233
F3761.6168995321605
sg1234
F11978.172663010579
sg1235
F-3546.5179419520996
sg1236
g1237
sg1238
g1239
sg1240
g1241
sg1242
NsbsI95
g0
(g1226
g2
Ntp1525
Rp1526
(dp1527
g1230
g1231
sg1232
I95
sg1233
F5015.4891993762103
sg1234
F11978.172663010579
sg1235
F-3546.5179419520996
sg1236
g1237
sg1238
g1239
sg1240
g1241
sg1242
NsbsI96
g0
(g1226
g2
Ntp1528
Rp1529
(dp1530
g1230
g1231
sg1232
I96
sg1233
F6307.3576295185703
sg1234
F11978.172663010579
sg1235
F-3546.5179419520996
sg1236
g1237
sg1238
g1239
sg1240
g1241
sg1242
NsbsI97
g0
(g1226
g2
Ntp1531
Rp1532
(dp1533
g1230
g1231
sg1232
I97
sg1233
F7599.2260596609303
sg1234
F11978.172663010579
sg1235
F-3546.5179419520996
sg1236
g1237
sg1238
g1239
sg1240
g1241
sg1242
NsbsI98
g0
(g1226
g2
Ntp1534
Rp1535
(dp1536
g1230
g1231
sg1232
I98
sg1233
F0.0
sg1234
F11978.172663010579
sg1235
F-4875.6412678961688
sg1236
g1237
sg1238
g1239
sg1240
g1241
sg1242
NsbsI99
g0
(g1226
g2
Ntp1537
Rp1538
(dp1539
g1230
g1231
sg1232
I99
sg1233
F1253.8722998440551
sg1234
F11978.172663010579
sg1235
F-4875.6412678961688
sg1236
g1237
sg1238
g1239
sg1240
g1241
sg1242
NsbsI100
g0
(g1226
g2
Ntp1540
Rp1541
(dp1542
g1230
g1231
sg1232
I100
sg1233
F2507.7445996881102
sg1234
F11978.172663010579
sg1235
F-4875.6412678961688
sg1236
g1237
sg1238
g1239
sg1240
g1241
sg1242
NsbsI101
g0
(g1226
g2
Ntp1543
Rp1544
(dp1545
g1230
g1231
sg1232
I101
sg1233
F3761.6168995321605
sg1234
F11978.172663010579
sg1235
F-4875.6412678961688
sg1236
g1237
sg1238
g1239
sg1240
g1241
sg1242
NsbsI102
g0
(g1226
g2
Ntp1546
Rp1547
(dp1548
g1230
g1231
sg1232
I102
sg1233
F5015.4891993762103
sg1234
F11978.172663010579
sg1235
F-4875.6412678961688
sg1236
g1237
sg1238
g1239
sg1240
g1241
sg1242
NsbsI103
g0
(g1226
g2
Ntp1549
Rp1550
(dp1551
g1230
g1231
sg1232
I103
sg1233
F6307.3576295185703
sg1234
F11978.172663010579
sg1235
F-4875.6412678961688
sg1236
g1237
sg1238
g1239
sg1240
g1241
sg1242
NsbsI104
g0
(g1226
g2
Ntp1552
Rp1553
(dp1554
g1230
g1231
sg1232
I104
sg1233
F7599.2260596609303
sg1234
F11978.172663010579
sg1235
F-4875.6412678961688
sg1236
g1237
sg1238
g1239
sg1240
g1241
sg1242
NsbssS'node_index'
p1555
(dp1556
S'5015.489,0.000,0.000'
p1557
I19
sS'3761.617,3952.797,0.000'
p1558
I22
sS'1253.872,0.000,0.000'
p1559
I1
sS'2507.745,0.000,-2177.118'
p1560
I51
sS'6307.358,11978.173,-3546.518'
p1561
I96
sS'0.000,11978.173,-3546.518'
p1562
I91
sS'0.000,11978.173,-847.995'
p1563
I80
sS'6307.358,0.000,-4875.641'
p1564
I75
sS'6307.358,11978.173,-847.995'
p1565
I89
sS'6307.358,0.000,-2177.118'
p1566
I59
sS'6307.358,0.000,-847.995'
p1567
I61
sS'0.000,0.000,-3546.518'
p1568
I63
sS'7599.226,10001.774,0.000'
p1569
I39
sS'2507.745,1976.398,0.000'
p1570
I5
sS'0.000,0.000,0.000'
p1571
I0
sS'5015.489,10001.774,0.000'
p1572
I27
sS'5015.489,8025.376,0.000'
p1573
I25
sS'2507.745,11978.173,-3546.518'
p1574
I93
sS'3761.617,0.000,-4875.641'
p1575
I73
sS'2507.745,11978.173,-2177.118'
p1576
I79
sS'5015.489,11978.173,-847.995'
p1577
I86
sS'1253.872,0.000,-2177.118'
p1578
I50
sS'7599.226,11978.173,-3546.518'
p1579
I97
sS'0.000,10001.774,0.000'
p1580
I12
sS'6307.358,11978.173,0.000'
p1581
I40
sS'2507.745,3952.797,0.000'
p1582
I8
sS'6307.358,3952.797,0.000'
p1583
I34
sS'6307.358,10001.774,0.000'
p1584
I38
sS'7599.226,11978.173,-2177.118'
p1585
I88
sS'0.000,11978.173,-2177.118'
p1586
I77
sS'5015.489,0.000,-847.995'
p1587
I58
sS'7599.226,11978.173,0.000'
p1588
I41
sS'7599.226,8025.376,0.000'
p1589
I37
sS'1253.872,5989.086,0.000'
p1590
I43
sS'5015.489,0.000,-2177.118'
p1591
I56
sS'1253.872,11978.173,-4875.641'
p1592
I99
sS'3761.617,0.000,0.000'
p1593
I18
sS'2507.745,0.000,-4875.641'
p1594
I72
sS'7599.226,5989.086,0.000'
p1595
I48
sS'2507.745,11978.173,0.000'
p1596
I17
sS'5015.489,11978.173,-4875.641'
p1597
I102
sS'7599.226,11978.173,-4875.641'
p1598
I104
sS'7599.226,0.000,0.000'
p1599
I31
sS'1253.872,11978.173,0.000'
p1600
I16
sS'7599.226,0.000,-847.995'
p1601
I62
sS'3761.617,11978.173,-3546.518'
p1602
I94
sS'1253.872,11978.173,-847.995'
p1603
I81
sS'5015.489,1976.398,0.000'
p1604
I21
sS'6307.358,1976.398,0.000'
p1605
I32
sS'1253.872,0.000,-3546.518'
p1606
I64
sS'1253.872,0.000,-4875.641'
p1607
I71
sS'0.000,0.000,-847.995'
p1608
I52
sS'2507.745,0.000,-847.995'
p1609
I54
sS'3761.617,0.000,-847.995'
p1610
I57
sS'6307.358,0.000,0.000'
p1611
I30
sS'0.000,5989.086,0.000'
p1612
I42
sS'6307.358,8025.376,0.000'
p1613
I36
sS'0.000,3952.797,0.000'
p1614
I6
sS'5015.489,5989.086,0.000'
p1615
I46
sS'5015.489,11978.173,-2177.118'
p1616
I84
sS'2507.745,0.000,-3546.518'
p1617
I65
sS'2507.745,5989.086,0.000'
p1618
I44
sS'5015.489,11978.173,0.000'
p1619
I29
sS'0.000,0.000,-2177.118'
p1620
I49
sS'2507.745,10001.774,0.000'
p1621
I14
sS'7599.226,0.000,-4875.641'
p1622
I76
sS'3761.617,0.000,-2177.118'
p1623
I55
sS'1253.872,10001.774,0.000'
p1624
I13
sS'2507.745,8025.376,0.000'
p1625
I11
sS'7599.226,0.000,-3546.518'
p1626
I69
sS'5015.489,3952.797,0.000'
p1627
I23
sS'7599.226,3952.797,0.000'
p1628
I35
sS'6307.358,11978.173,-2177.118'
p1629
I87
sS'3761.617,11978.173,-4875.641'
p1630
I101
sS'3761.617,8025.376,0.000'
p1631
I24
sS'3761.617,1976.398,0.000'
p1632
I20
sS'3761.617,11978.173,-847.995'
p1633
I85
sS'1253.872,3952.797,0.000'
p1634
I7
sS'0.000,11978.173,-4875.641'
p1635
I98
sS'5015.489,0.000,-4875.641'
p1636
I74
sS'6307.358,5989.086,0.000'
p1637
I47
sS'0.000,8025.376,0.000'
p1638
I9
sS'6307.358,11978.173,-4875.641'
p1639
I103
sS'1253.872,8025.376,0.000'
p1640
I10
sS'0.000,11978.173,0.000'
p1641
I15
sS'3761.617,11978.173,0.000'
p1642
I28
sS'6307.358,0.000,-3546.518'
p1643
I68
sS'1253.872,1976.398,0.000'
p1644
I4
sS'3761.617,5989.086,0.000'
p1645
I45
sS'7599.226,11978.173,-847.995'
p1646
I90
sS'2507.745,0.000,0.000'
p1647
I2
sS'1253.872,0.000,-847.995'
p1648
I53
sS'5015.489,0.000,-3546.518'
p1649
I67
sS'0.000,0.000,-4875.641'
p1650
I70
sS'7599.226,1976.398,0.000'
p1651
I33
sS'3761.617,0.000,-3546.518'
p1652
I66
sS'5015.489,11978.173,-3546.518'
p1653
I95
sS'3761.617,10001.774,0.000'
p1654
I26
sS'0.000,1976.398,0.000'
p1655
I3
sS'1253.872,11978.173,-3546.518'
p1656
I92
sS'1253.872,11978.173,-2177.118'
p1657
I78
sS'2507.745,11978.173,-4875.641'
p1658
I100
sS'3761.617,11978.173,-2177.118'
p1659
I83
sS'7599.226,0.000,-2177.118'
p1660
I60
sS'2507.745,11978.173,-847.995'
p1661
I82
ssS'path'
p1662
S'C:\\Temp\\'
p1663
sS'results'
p1664
(dp1665
S'step_2'
p1666
S'ERROR'
p1667
sS'step_3'
p1668
g1667
sS'step_4'
p1669
g1667
sS'step_1'
p1670
g1667
ssS'sections'
p1671
(dp1672
g590
g0
(ccompas_fea.structure.section
ShellSection
p1673
g2
Ntp1674
Rp1675
(dp1676
g15
I1
sS'__name__'
p1677
S'ShellSection'
p1678
sS'name'
p1679
g590
sS'geometry'
p1680
(dp1681
S't'
p1682
F731.05041868232558
ssS'loc_coords_OR'
p1683
(dp1684
S'ORxyz'
p1685
(lp1686
I0
aI0
aF-4027.6464422499998
assS'loc_coords_XA'
p1687
(dp1688
S'XAxyz'
p1689
(lp1690
I1
aI0
aF-4027.6464422499998
assS'loc_coords_YA'
p1691
(dp1692
S'YAxyz'
p1693
(lp1694
F4027.6464422499998
aF-4027.6464422499998
aF-4026.6464422499998
assS'loc_coords_EV_XA'
p1695
(dp1696
S'EV_XA'
p1697
(lp1698
F1.0
aF0.0
aF0.0
assS'loc_coords_EV_YA'
p1699
(dp1700
S'EV_YA'
p1701
(lp1702
F0.70710677028916191
aF-0.70710677028916191
aF0.00017556326763730151
assS'loc_coords_EV_ZA'
p1703
(dp1704
S'EV_ZA'
p1705
(lp1706
F0.0
aF-1.0
aF0.0
assS'nr_layers'
p1707
(dp1708
S'nn'
p1709
F65.0
ssS'offset'
p1710
(dp1711
S'mode'
p1712
S'mid'
p1713
ssbsg604
g0
(g1673
g2
Ntp1714
Rp1715
(dp1716
g15
I0
sg1677
g1678
sg1679
g604
sg1680
(dp1717
g1682
F847.99482564141374
ssg1683
(dp1718
g1685
(lp1719
I0
aI0
aI0
assg1687
(dp1720
g1689
(lp1721
I1
aI0
aI0
assg1691
(dp1722
g1693
(lp1723
F0.0
aF1.0
aF0.0
assg1695
(dp1724
g1697
(lp1725
F1.0
aF0.0
aF0.0
assg1699
(dp1726
g1701
(lp1727
F0.0
aF1.0
aF0.0
assg1703
(dp1728
g1705
(lp1729
F0.0
aF0.0
aF1.0
assg1707
(dp1730
g1709
F67.0
ssg1710
(dp1731
g1712
S'top'
p1732
ssbsg581
g0
(g1673
g2
Ntp1733
Rp1734
(dp1735
g15
I2
sg1677
g1678
sg1679
g581
sg1680
(dp1736
g1682
F731.05041868232558
ssg1683
(dp1737
g1685
(lp1738
I0
aF11978.172662999999
aF-4027.6464422499998
assg1687
(dp1739
g1689
(lp1740
I1
aF11978.172662999999
aF-4027.6464422499998
assg1691
(dp1741
g1693
(lp1742
F-4027.6464422568679
aF7950.52622075
aF-16006.819105249999
assg1695
(dp1743
g1697
(lp1744
F1.0
aF0.0
aF0.0
assg1699
(dp1745
g1701
(lp1746
F-0.30364319654832028
aF-0.30364319654780247
aF-0.90310664839771326
assg1703
(dp1747
g1705
(lp1748
F0.0
aF1.0
aF0.0
assg1707
(dp1749
g1709
F65.0
ssg1710
(dp1750
g1712
S'mid'
p1751
ssbsS'sec_mpc'
p1752
g0
(ccompas_fea.structure.section
MPCSection
p1753
g2
Ntp1754
Rp1755
(dp1756
g15
I3
sg1677
S'MPCSection'
p1757
sg1679
g1752
sg1680
NsS'nr_layers'
p1758
NsbssS'sets'
p1759
(dp1760
g699
g0
(ccompas_fea.structure.set
Set
p1761
g2
Ntp1762
Rp1763
(dp1764
S'__name__'
p1765
S'Set'
p1766
sS'name'
p1767
g699
sS'type'
p1768
S'element'
p1769
sS'selection'
p1770
(lp1771
I44
aI45
asS'index'
p1772
I13
sbsS'elset_mpcs'
p1773
g0
(g1761
g2
Ntp1774
Rp1775
(dp1776
g1765
g1766
sg1767
g1773
sg1768
g1769
sg1770
(lp1777
I72
aI73
aI74
aI75
aI76
aI77
aI78
aI79
aI80
aI81
aI82
aI83
aI84
aI85
asg1772
I27
sbsg583
g0
(g1761
g2
Ntp1778
Rp1779
(dp1780
g1765
g1766
sg1767
g583
sg1768
g1769
sg1770
(lp1781
I60
aI61
asg1772
I21
sbsg629
g0
(g1761
g2
Ntp1782
Rp1783
(dp1784
g1765
g1766
sg1767
g629
sg1768
g1769
sg1770
(lp1785
I8
aI9
aI10
aI11
asg1772
I2
sbsg595
g0
(g1761
g2
Ntp1786
Rp1787
(dp1788
g1765
g1766
sg1767
g595
sg1768
g1769
sg1770
(lp1789
I50
aI51
asg1772
I16
sbsg691
g0
(g1761
g2
Ntp1790
Rp1791
(dp1792
g1765
g1766
sg1767
g691
sg1768
g1769
sg1770
(lp1793
I54
aI55
asg1772
I18
sbsg669
g0
(g1761
g2
Ntp1794
Rp1795
(dp1796
g1765
g1766
sg1767
g669
sg1768
g1769
sg1770
(lp1797
I4
aI5
aI6
aI7
asg1772
I1
sbsg605
g0
(g1761
g2
Ntp1798
Rp1799
(dp1800
g1765
g1766
sg1767
g605
sg1768
g1769
sg1770
(lp1801
I0
aI1
aI2
aI3
asg1772
I0
sbsg657
g0
(g1761
g2
Ntp1802
Rp1803
(dp1804
g1765
g1766
sg1767
g657
sg1768
g1769
sg1770
(lp1805
I24
aI25
aI26
aI27
asg1772
I6
sbsg695
g0
(g1761
g2
Ntp1806
Rp1807
(dp1808
g1765
g1766
sg1767
g695
sg1768
g1769
sg1770
(lp1809
I20
aI21
aI22
aI23
asg1772
I5
sbsg621
g0
(g1761
g2
Ntp1810
Rp1811
(dp1812
g1765
g1766
sg1767
g621
sg1768
g1769
sg1770
(lp1813
I16
aI17
aI18
aI19
asg1772
I4
sbsg665
g0
(g1761
g2
Ntp1814
Rp1815
(dp1816
g1765
g1766
sg1767
g665
sg1768
g1769
sg1770
(lp1817
I12
aI13
aI14
aI15
asg1772
I3
sbsg613
g0
(g1761
g2
Ntp1818
Rp1819
(dp1820
g1765
g1766
sg1767
g613
sg1768
g1769
sg1770
(lp1821
I32
aI33
aI34
aI35
asg1772
I8
sbsg649
g0
(g1761
g2
Ntp1822
Rp1823
(dp1824
g1765
g1766
sg1767
g649
sg1768
g1769
sg1770
(lp1825
I28
aI29
aI30
aI31
asg1772
I7
sbsg625
g0
(g1761
g2
Ntp1826
Rp1827
(dp1828
g1765
g1766
sg1767
g625
sg1768
g1769
sg1770
(lp1829
I40
aI41
asg1772
I11
sbsg687
g0
(g1761
g2
Ntp1830
Rp1831
(dp1832
g1765
g1766
sg1767
g687
sg1768
g1769
sg1770
(lp1833
I70
aI71
asg1772
I26
sbsg637
g0
(g1761
g2
Ntp1834
Rp1835
(dp1836
g1765
g1766
sg1767
g637
sg1768
g1769
sg1770
(lp1837
I64
aI65
asg1772
I23
sbsg617
g0
(g1761
g2
Ntp1838
Rp1839
(dp1840
g1765
g1766
sg1767
g617
sg1768
g1769
sg1770
(lp1841
I46
aI47
asg1772
I14
sbsg633
g0
(g1761
g2
Ntp1842
Rp1843
(dp1844
g1765
g1766
sg1767
g633
sg1768
g1769
sg1770
(lp1845
I58
aI59
asg1772
I20
sbsg653
g0
(g1761
g2
Ntp1846
Rp1847
(dp1848
g1765
g1766
sg1767
g653
sg1768
g1769
sg1770
(lp1849
I36
aI37
asg1772
I9
sbsg645
g0
(g1761
g2
Ntp1850
Rp1851
(dp1852
g1765
g1766
sg1767
g645
sg1768
g1769
sg1770
(lp1853
I52
aI53
asg1772
I17
sbsS'nset_support_wall2'
p1854
g0
(g1761
g2
Ntp1855
Rp1856
(dp1857
g1765
g1766
sg1767
g1854
sg1768
S'node'
p1858
sg1770
(lp1859
I104
aI103
aI102
aI101
aI100
aI99
aI98
asg1772
I29
sbsg641
g0
(g1761
g2
Ntp1860
Rp1861
(dp1862
g1765
g1766
sg1767
g641
sg1768
g1769
sg1770
(lp1863
I42
aI43
asg1772
I12
sbsg661
g0
(g1761
g2
Ntp1864
Rp1865
(dp1866
g1765
g1766
sg1767
g661
sg1768
g1769
sg1770
(lp1867
I68
aI69
asg1772
I25
sbsg609
g0
(g1761
g2
Ntp1868
Rp1869
(dp1870
g1765
g1766
sg1767
g609
sg1768
g1769
sg1770
(lp1871
I62
aI63
asg1772
I22
sbsS'nset_support_wall1'
p1872
g0
(g1761
g2
Ntp1873
Rp1874
(dp1875
g1765
g1766
sg1767
g1872
sg1768
g1858
sg1770
(lp1876
I76
aI75
aI74
aI73
aI72
aI71
aI70
asg1772
I28
sbsg679
g0
(g1761
g2
Ntp1877
Rp1878
(dp1879
g1765
g1766
sg1767
g679
sg1768
g1769
sg1770
(lp1880
I48
aI49
asg1772
I15
sbsg599
g0
(g1761
g2
Ntp1881
Rp1882
(dp1883
g1765
g1766
sg1767
g599
sg1768
g1769
sg1770
(lp1884
I56
aI57
asg1772
I19
sbsg591
g0
(g1761
g2
Ntp1885
Rp1886
(dp1887
g1765
g1766
sg1767
g591
sg1768
g1769
sg1770
(lp1888
I38
aI39
asg1772
I10
sbsg683
g0
(g1761
g2
Ntp1889
Rp1890
(dp1891
g1765
g1766
sg1767
g683
sg1768
g1769
sg1770
(lp1892
I66
aI67
asg1772
I24
sbssS'steps'
p1893
(dp1894
g1666
g0
(ccompas_fea.structure.step
GeneralStep
p1895
g2
Ntp1896
Rp1897
(dp1898
g15
I1
sS'__name__'
p1899
S'GeneralStep'
p1900
sS'name'
p1901
g1666
sS'attr_list'
p1902
(lp1903
g725
aS'increments'
p1904
aS'iterations'
p1905
aS'factor'
p1906
aS'nlgeom'
p1907
aS'nlmat'
p1908
aS'displacements'
p1909
aS'loads'
p1910
aS'type'
p1911
aS'tolerance'
p1912
aS'modify'
p1913
asS'increments'
p1914
I1
sS'iterations'
p1915
I100
sS'tolerance'
p1916
F0.01
sS'factor'
p1917
F1.0
sS'nlgeom'
p1918
I00
sS'nlmat'
p1919
I01
sS'displacements'
p1920
(lp1921
sS'loads'
p1922
(lp1923
S'load_gravity'
p1924
asS'modify'
p1925
I01
sS'type'
p1926
S'static'
p1927
sbsg1668
g0
(g1895
g2
Ntp1928
Rp1929
(dp1930
g15
I2
sg1899
g1900
sg1901
g1668
sg1902
(lp1931
g725
ag1904
ag1905
ag1906
ag1907
ag1908
ag1909
ag1910
ag1911
ag1912
ag1913
asg1914
I1
sg1915
I100
sg1916
F0.01
sg1917
F1.0
sg1918
I00
sg1919
I01
sg1920
(lp1932
sg1922
(lp1933
S'earthPressure_gravel'
p1934
aS'earthPressure_backfill'
p1935
ag730
asg1925
I01
sg1926
g1927
sbsg1669
g0
(g1895
g2
Ntp1936
Rp1937
(dp1938
g15
I3
sg1899
g1900
sg1901
g1669
sg1902
(lp1939
g725
ag1904
ag1905
ag1906
ag1907
ag1908
ag1909
ag1910
ag1911
ag1912
ag1913
asg1914
I1
sg1915
I100
sg1916
F0.01
sg1917
F1.0
sg1918
I00
sg1919
I01
sg1920
(lp1940
sg1922
(lp1941
g769
ag746
ag762
ag791
ag704
asg1925
I01
sg1926
g1927
sbsg1670
g0
(g1895
g2
Ntp1942
Rp1943
(dp1944
g15
I0
sg1899
g1900
sg1901
g1670
sg1902
(lp1945
g725
ag1904
ag1905
ag1906
ag1907
ag1908
ag1909
ag1910
ag1911
ag1912
ag1913
asg1914
I1
sg1915
I100
sg1916
F0.01
sg1917
F1.0
sg1918
I00
sg1919
I01
sg1920
(lp1946
S'nset_pinned_set_disp_1'
p1947
aS'nset_pinned_set_disp_2'
p1948
asg1922
(lp1949
sg1925
I01
sg1926
g1927
sbssS'loc_coor'
p1950
(dp1951
sS'steps_order'
p1952
(lp1953
S'step_1'
p1954
aS'step_2'
p1955
aS'step_3'
p1956
aS'step_4'
p1957
asS'tol'
p1958
S'3'
p1959
sS'virtual_nodes'
p1960
(dp1961
sS'virtual_node_index'
p1962
(dp1963
sS'virtual_elements'
p1964
(dp1965
sS'virtual_element_index'
p1966
(dp1967
sb.