ccopy_reg
_reconstructor
p0
(ccompas_fea.structure.structure
Structure
p1
c__builtin__
object
p2
Ntp3
Rp4
(dp5
S'constraints'
p6
(dp7
sS'displacements'
p8
(dp9
S'nset_pinned_set_disp_1'
p10
g0
(ccompas_fea.structure.displacement
GeneralDisplacement
p11
g2
Ntp12
Rp13
(dp14
S'index'
p15
I0
sS'__name__'
p16
S'GeneralDisplacement'
p17
sS'name'
p18
g10
sS'nodes'
p19
S'nset_support_wall1'
p20
sS'components'
p21
(dp22
S'z'
p23
I0
sS'xx'
p24
I0
sS'zz'
p25
I0
sS'yy'
p26
I0
sS'y'
p27
I0
sS'x'
p28
I0
ssS'axes'
p29
S'global'
p30
sbsS'nset_pinned_set_disp_2'
p31
g0
(g11
g2
Ntp32
Rp33
(dp34
g15
I1
sg16
g17
sg18
g31
sg19
S'nset_support_wall2'
p35
sg21
(dp36
g23
I0
sg24
I0
sg25
I0
sg26
I0
sg27
I0
sg28
I0
ssg29
g30
sbssS'elements'
p37
(dp38
I0
g0
(ccompas_fea.structure.element
ShellElement
p39
g2
Ntp40
Rp41
(dp42
S'mass'
p43
NsS'__name__'
p44
S'ShellElement'
p45
sS'nodes'
p46
(lp47
I0
aI1
aI3
aI2
asS'number'
p48
I0
sS'thermal'
p49
I00
sS'axes'
p50
(dp51
S'ey'
p52
NsS'ez'
p53
NsS'ex'
p54
NssS'element_property'
p55
S'elset_plate_1_element_prop'
p56
sbsI1
g0
(g39
g2
Ntp57
Rp58
(dp59
g43
Nsg44
g45
sg46
(lp60
I2
aI3
aI5
aI4
asg48
I1
sg49
I00
sg50
g51
sg55
g56
sbsI2
g0
(g39
g2
Ntp61
Rp62
(dp63
g43
Nsg44
g45
sg46
(lp64
I4
aI5
aI7
aI6
asg48
I2
sg49
I00
sg50
g51
sg55
g56
sbsI3
g0
(g39
g2
Ntp65
Rp66
(dp67
g43
Nsg44
g45
sg46
(lp68
I8
aI9
aI11
aI10
asg48
I3
sg49
I00
sg50
(dp69
g52
Nsg53
Nsg54
Nssg55
S'elset_plate_2_element_prop'
p70
sbsI4
g0
(g39
g2
Ntp71
Rp72
(dp73
g43
Nsg44
g45
sg46
(lp74
I10
aI11
aI13
aI12
asg48
I4
sg49
I00
sg50
g69
sg55
g70
sbsI5
g0
(g39
g2
Ntp75
Rp76
(dp77
g43
Nsg44
g45
sg46
(lp78
I12
aI13
aI15
aI14
asg48
I5
sg49
I00
sg50
g69
sg55
g70
sbsI6
g0
(g39
g2
Ntp79
Rp80
(dp81
g43
Nsg44
g45
sg46
(lp82
I1
aI16
aI17
aI3
asg48
I6
sg49
I00
sg50
(dp83
g52
Nsg53
Nsg54
Nssg55
S'elset_plate_3_element_prop'
p84
sbsI7
g0
(g39
g2
Ntp85
Rp86
(dp87
g43
Nsg44
g45
sg46
(lp88
I3
aI17
aI18
aI5
asg48
I7
sg49
I00
sg50
g83
sg55
g84
sbsI8
g0
(g39
g2
Ntp89
Rp90
(dp91
g43
Nsg44
g45
sg46
(lp92
I5
aI18
aI19
aI7
asg48
I8
sg49
I00
sg50
g83
sg55
g84
sbsI9
g0
(g39
g2
Ntp93
Rp94
(dp95
g43
Nsg44
g45
sg46
(lp96
I9
aI20
aI21
aI11
asg48
I9
sg49
I00
sg50
(dp97
g52
Nsg53
Nsg54
Nssg55
S'elset_plate_4_element_prop'
p98
sbsI10
g0
(g39
g2
Ntp99
Rp100
(dp101
g43
Nsg44
g45
sg46
(lp102
I11
aI21
aI22
aI13
asg48
I10
sg49
I00
sg50
g97
sg55
g98
sbsI11
g0
(g39
g2
Ntp103
Rp104
(dp105
g43
Nsg44
g45
sg46
(lp106
I13
aI22
aI23
aI15
asg48
I11
sg49
I00
sg50
g97
sg55
g98
sbsI12
g0
(g39
g2
Ntp107
Rp108
(dp109
g43
Nsg44
g45
sg46
(lp110
I16
aI24
aI25
aI17
asg48
I12
sg49
I00
sg50
(dp111
g52
Nsg53
Nsg54
Nssg55
S'elset_plate_5_element_prop'
p112
sbsI13
g0
(g39
g2
Ntp113
Rp114
(dp115
g43
Nsg44
g45
sg46
(lp116
I17
aI25
aI26
aI18
asg48
I13
sg49
I00
sg50
g111
sg55
g112
sbsI14
g0
(g39
g2
Ntp117
Rp118
(dp119
g43
Nsg44
g45
sg46
(lp120
I18
aI26
aI27
aI19
asg48
I14
sg49
I00
sg50
g111
sg55
g112
sbsI15
g0
(g39
g2
Ntp121
Rp122
(dp123
g43
Nsg44
g45
sg46
(lp124
I20
aI28
aI29
aI21
asg48
I15
sg49
I00
sg50
(dp125
g52
Nsg53
Nsg54
Nssg55
S'elset_plate_6_element_prop'
p126
sbsI16
g0
(g39
g2
Ntp127
Rp128
(dp129
g43
Nsg44
g45
sg46
(lp130
I21
aI29
aI30
aI22
asg48
I16
sg49
I00
sg50
g125
sg55
g126
sbsI17
g0
(g39
g2
Ntp131
Rp132
(dp133
g43
Nsg44
g45
sg46
(lp134
I22
aI30
aI31
aI23
asg48
I17
sg49
I00
sg50
g125
sg55
g126
sbsI18
g0
(g39
g2
Ntp135
Rp136
(dp137
g43
Nsg44
g45
sg46
(lp138
I6
aI7
aI33
aI32
asg48
I18
sg49
I00
sg50
(dp139
g52
Nsg53
Nsg54
Nssg55
S'elset_plate_7_element_prop'
p140
sbsI19
g0
(g39
g2
Ntp141
Rp142
(dp143
g43
Nsg44
g45
sg46
(lp144
I32
aI33
aI35
aI34
asg48
I19
sg49
I00
sg50
g139
sg55
g140
sbsI20
g0
(g39
g2
Ntp145
Rp146
(dp147
g43
Nsg44
g45
sg46
(lp148
I34
aI35
aI9
aI8
asg48
I20
sg49
I00
sg50
g139
sg55
g140
sbsI21
g0
(g39
g2
Ntp149
Rp150
(dp151
g43
Nsg44
g45
sg46
(lp152
I7
aI19
aI36
aI33
asg48
I21
sg49
I00
sg50
(dp153
g52
Nsg53
Nsg54
Nssg55
S'elset_plate_8_element_prop'
p154
sbsI22
g0
(g39
g2
Ntp155
Rp156
(dp157
g43
Nsg44
g45
sg46
(lp158
I33
aI36
aI37
aI35
asg48
I22
sg49
I00
sg50
g153
sg55
g154
sbsI23
g0
(g39
g2
Ntp159
Rp160
(dp161
g43
Nsg44
g45
sg46
(lp162
I35
aI37
aI20
aI9
asg48
I23
sg49
I00
sg50
g153
sg55
g154
sbsI24
g0
(g39
g2
Ntp163
Rp164
(dp165
g43
Nsg44
g45
sg46
(lp166
I19
aI27
aI38
aI36
asg48
I24
sg49
I00
sg50
(dp167
g52
Nsg53
Nsg54
Nssg55
S'elset_plate_9_element_prop'
p168
sbsI25
g0
(g39
g2
Ntp169
Rp170
(dp171
g43
Nsg44
g45
sg46
(lp172
I36
aI38
aI39
aI37
asg48
I25
sg49
I00
sg50
g167
sg55
g168
sbsI26
g0
(g39
g2
Ntp173
Rp174
(dp175
g43
Nsg44
g45
sg46
(lp176
I37
aI39
aI28
aI20
asg48
I26
sg49
I00
sg50
g167
sg55
g168
sbsI27
g0
(g39
g2
Ntp177
Rp178
(dp179
g43
Nsg44
g45
sg46
(lp180
I40
aI41
aI43
aI42
asg48
I27
sg49
I00
sg50
(dp181
g52
Nsg53
Nsg54
Nssg55
S'elset_wall_1_1_element_prop'
p182
sbsI28
g0
(g39
g2
Ntp183
Rp184
(dp185
g43
Nsg44
g45
sg46
(lp186
I41
aI44
aI45
aI43
asg48
I28
sg49
I00
sg50
(dp187
g52
Nsg53
Nsg54
Nssg55
S'elset_wall_1_2_element_prop'
p188
sbsI29
g0
(g39
g2
Ntp189
Rp190
(dp191
g43
Nsg44
g45
sg46
(lp192
I44
aI46
aI47
aI45
asg48
I29
sg49
I00
sg50
(dp193
g52
Nsg53
Nsg54
Nssg55
S'elset_wall_1_3_element_prop'
p194
sbsI30
g0
(g39
g2
Ntp195
Rp196
(dp197
g43
Nsg44
g45
sg46
(lp198
I48
aI49
aI41
aI40
asg48
I30
sg49
I00
sg50
(dp199
g52
Nsg53
Nsg54
Nssg55
S'elset_wall_1_4_element_prop'
p200
sbsI31
g0
(g39
g2
Ntp201
Rp202
(dp203
g43
Nsg44
g45
sg46
(lp204
I49
aI50
aI44
aI41
asg48
I31
sg49
I00
sg50
(dp205
g52
Nsg53
Nsg54
Nssg55
S'elset_wall_1_5_element_prop'
p206
sbsI32
g0
(g39
g2
Ntp207
Rp208
(dp209
g43
Nsg44
g45
sg46
(lp210
I50
aI51
aI46
aI44
asg48
I32
sg49
I00
sg50
(dp211
g52
Nsg53
Nsg54
Nssg55
S'elset_wall_1_6_element_prop'
p212
sbsI33
g0
(g39
g2
Ntp213
Rp214
(dp215
g43
Nsg44
g45
sg46
(lp216
I52
aI53
aI49
aI48
asg48
I33
sg49
I00
sg50
(dp217
g52
Nsg53
Nsg54
Nssg55
S'elset_wall_1_7_element_prop'
p218
sbsI34
g0
(g39
g2
Ntp219
Rp220
(dp221
g43
Nsg44
g45
sg46
(lp222
I53
aI54
aI50
aI49
asg48
I34
sg49
I00
sg50
(dp223
g52
Nsg53
Nsg54
Nssg55
S'elset_wall_1_8_element_prop'
p224
sbsI35
g0
(g39
g2
Ntp225
Rp226
(dp227
g43
Nsg44
g45
sg46
(lp228
I54
aI55
aI51
aI50
asg48
I35
sg49
I00
sg50
(dp229
g52
Nsg53
Nsg54
Nssg55
S'elset_wall_1_9_element_prop'
p230
sbsI36
g0
(g39
g2
Ntp231
Rp232
(dp233
g43
Nsg44
g45
sg46
(lp234
I56
aI58
aI59
aI57
asg48
I36
sg49
I00
sg50
(dp235
g52
Nsg53
Nsg54
Nssg55
S'elset_wall_2_1_element_prop'
p236
sbsI37
g0
(g39
g2
Ntp237
Rp238
(dp239
g43
Nsg44
g45
sg46
(lp240
I57
aI59
aI61
aI60
asg48
I37
sg49
I00
sg50
(dp241
g52
Nsg53
Nsg54
Nssg55
S'elset_wall_2_2_element_prop'
p242
sbsI38
g0
(g39
g2
Ntp243
Rp244
(dp245
g43
Nsg44
g45
sg46
(lp246
I60
aI61
aI63
aI62
asg48
I38
sg49
I00
sg50
(dp247
g52
Nsg53
Nsg54
Nssg55
S'elset_wall_2_3_element_prop'
p248
sbsI39
g0
(g39
g2
Ntp249
Rp250
(dp251
g43
Nsg44
g45
sg46
(lp252
I64
aI56
aI57
aI65
asg48
I39
sg49
I00
sg50
(dp253
g52
Nsg53
Nsg54
Nssg55
S'elset_wall_2_4_element_prop'
p254
sbsI40
g0
(g39
g2
Ntp255
Rp256
(dp257
g43
Nsg44
g45
sg46
(lp258
I65
aI57
aI60
aI66
asg48
I40
sg49
I00
sg50
(dp259
g52
Nsg53
Nsg54
Nssg55
S'elset_wall_2_5_element_prop'
p260
sbsI41
g0
(g39
g2
Ntp261
Rp262
(dp263
g43
Nsg44
g45
sg46
(lp264
I66
aI60
aI62
aI67
asg48
I41
sg49
I00
sg50
(dp265
g52
Nsg53
Nsg54
Nssg55
S'elset_wall_2_6_element_prop'
p266
sbsI42
g0
(g39
g2
Ntp267
Rp268
(dp269
g43
Nsg44
g45
sg46
(lp270
I68
aI64
aI65
aI69
asg48
I42
sg49
I00
sg50
(dp271
g52
Nsg53
Nsg54
Nssg55
S'elset_wall_2_7_element_prop'
p272
sbsI43
g0
(g39
g2
Ntp273
Rp274
(dp275
g43
Nsg44
g45
sg46
(lp276
I69
aI65
aI66
aI70
asg48
I43
sg49
I00
sg50
(dp277
g52
Nsg53
Nsg54
Nssg55
S'elset_wall_2_8_element_prop'
p278
sbsI44
g0
(g39
g2
Ntp279
Rp280
(dp281
g43
Nsg44
g45
sg46
(lp282
I70
aI66
aI67
aI71
asg48
I44
sg49
I00
sg50
(dp283
g52
Nsg53
Nsg54
Nssg55
S'elset_wall_2_9_element_prop'
p284
sbsI45
g0
(ccompas_fea.structure.element
MPCElement
p285
g2
Ntp286
Rp287
(dp288
g43
Nsg44
S'MPCElement'
p289
sg46
(lp290
I63
aI31
asg48
I45
sg49
I00
sg50
(dp291
g52
Nsg53
(lp292
F4.5474735088646412e-13
aF0.0
aF1158.0111985921503
asg54
Nssg55
S'elset_mpc_element_prop'
p293
sbsI46
g0
(g285
g2
Ntp294
Rp295
(dp296
g43
Nsg44
g289
sg46
(lp297
I61
aI23
asg48
I46
sg49
I00
sg50
(dp298
g52
Nsg53
(lp299
F4.5474735088646412e-13
aF0.0
aF1158.0111985921503
asg54
Nssg55
g293
sbsI47
g0
(g285
g2
Ntp300
Rp301
(dp302
g43
Nsg44
g289
sg46
(lp303
I59
aI15
asg48
I47
sg49
I00
sg50
(dp304
g52
Nsg53
(lp305
F2.2737367544323206e-13
aF0.0
aF1158.0111985921503
asg54
Nssg55
g293
sbsI48
g0
(g285
g2
Ntp306
Rp307
(dp308
g43
Nsg44
g289
sg46
(lp309
I58
aI14
asg48
I48
sg49
I00
sg50
(dp310
g52
Nsg53
(lp311
F0.0
aF0.0
aF1158.0111985921503
asg54
Nssg55
g293
sbsI49
g0
(g285
g2
Ntp312
Rp313
(dp314
g43
Nsg44
g289
sg46
(lp315
I47
aI24
asg48
I49
sg49
I00
sg50
(dp316
g52
Nsg53
(lp317
F4.5474735088646412e-13
aF0.0
aF1158.0111985921503
asg54
Nssg55
g293
sbsI50
g0
(g285
g2
Ntp318
Rp319
(dp320
g43
Nsg44
g289
sg46
(lp321
I45
aI16
asg48
I50
sg49
I00
sg50
(dp322
g52
Nsg53
(lp323
F4.5474735088646412e-13
aF0.0
aF1158.0111985921503
asg54
Nssg55
g293
sbsI51
g0
(g285
g2
Ntp324
Rp325
(dp326
g43
Nsg44
g289
sg46
(lp327
I43
aI1
asg48
I51
sg49
I00
sg50
(dp328
g52
Nsg53
(lp329
F2.2737367544323206e-13
aF0.0
aF1158.0111985921503
asg54
Nssg55
g293
sbsI52
g0
(g285
g2
Ntp330
Rp331
(dp332
g43
Nsg44
g289
sg46
(lp333
I42
aI0
asg48
I52
sg49
I00
sg50
(dp334
g52
Nsg53
(lp335
F0.0
aF0.0
aF1158.0111985921503
asg54
Nssg55
g293
sbssS'element_index'
p336
(dp337
S'1747.949,8596.470,0.000'
p338
I9
sS'2930.905,0.000,-1668.648'
p339
I29
sS'582.650,11857.200,-1668.648'
p340
I36
sS'582.650,1956.438,0.000'
p341
I1
sS'2930.905,11857.200,-2705.396'
p342
I41
sS'1747.949,1956.438,0.000'
p343
I7
sS'1747.949,9900.762,0.000'
p344
I10
sS'2930.905,11857.200,-1668.648'
p345
I38
sS'2930.905,0.000,-3742.143'
p346
I35
sS'1747.949,3260.730,0.000'
p347
I8
sS'582.650,0.000,-2705.396'
p348
I30
sS'1747.949,0.000,-2705.396'
p349
I31
sS'1747.949,11857.200,-2705.396'
p350
I40
sS'582.650,652.146,0.000'
p351
I0
sS'582.650,11205.054,0.000'
p352
I5
sS'2930.905,652.146,0.000'
p353
I12
sS'1747.949,4584.784,0.000'
p354
I21
sS'2930.905,1956.438,0.000'
p355
I13
sS'1747.949,7272.416,0.000'
p356
I23
sS'1747.949,652.146,0.000'
p357
I6
sS'582.650,11857.200,-2705.396'
p358
I39
sS'582.650,4584.784,0.000'
p359
I18
sS'1165.299,11857.200,-579.006'
p360
I47
sS'2930.905,9900.762,0.000'
p361
I16
sS'3531.210,11857.200,-579.006'
p362
I45
sS'2930.905,7272.416,0.000'
p363
I26
sS'2930.905,3260.730,0.000'
p364
I14
sS'582.650,11857.200,-3742.143'
p365
I42
sS'2330.599,0.000,-579.006'
p366
I50
sS'2330.599,11857.200,-579.006'
p367
I46
sS'1747.949,11857.200,-3742.143'
p368
I43
sS'582.650,0.000,-3742.143'
p369
I33
sS'0.000,0.000,-579.006'
p370
I52
sS'1747.949,0.000,-1668.648'
p371
I28
sS'2930.905,11205.054,0.000'
p372
I17
sS'2930.905,8596.470,0.000'
p373
I15
sS'2930.905,0.000,-2705.396'
p374
I32
sS'3531.210,0.000,-579.006'
p375
I49
sS'1747.949,11205.054,0.000'
p376
I11
sS'582.650,7272.416,0.000'
p377
I20
sS'1747.949,5928.600,0.000'
p378
I22
sS'2930.905,5928.600,0.000'
p379
I25
sS'2930.905,11857.200,-3742.143'
p380
I44
sS'2930.905,4584.784,0.000'
p381
I24
sS'1747.949,0.000,-3742.143'
p382
I34
sS'1165.299,0.000,-579.006'
p383
I51
sS'582.650,0.000,-1668.648'
p384
I27
sS'582.650,5928.600,0.000'
p385
I19
sS'0.000,11857.200,-579.006'
p386
I48
sS'582.650,3260.730,0.000'
p387
I2
sS'582.650,9900.762,0.000'
p388
I4
sS'1747.949,11857.200,-1668.648'
p389
I37
sS'582.650,8596.470,0.000'
p390
I3
ssS'element_properties'
p391
(dp392
g254
g0
(ccompas_fea.structure.element_properties
ElementProperties
p393
g2
Ntp394
Rp395
(dp396
g15
I21
sS'__name__'
p397
S'ElementProperties'
p398
sS'name'
p399
g254
sS'material'
p400
S'wall_element_mat'
p401
sS'section'
p402
S'wall2_element_sec'
p403
sS'elset'
p404
S'elset_wall_2_4'
p405
sS'elements'
p406
NsS'rebar'
p407
(dp408
sbsg188
g0
(g393
g2
Ntp409
Rp410
(dp411
g15
I10
sg397
g398
sg399
g188
sg400
g401
sg402
S'wall1_element_sec'
p412
sg404
S'elset_wall_1_2'
p413
sg406
Nsg407
g408
sbsg224
g0
(g393
g2
Ntp414
Rp415
(dp416
g15
I16
sg397
g398
sg399
g224
sg400
g401
sg402
g412
sg404
S'elset_wall_1_8'
p417
sg406
Nsg407
g408
sbsg242
g0
(g393
g2
Ntp418
Rp419
(dp420
g15
I19
sg397
g398
sg399
g242
sg400
g401
sg402
g403
sg404
S'elset_wall_2_2'
p421
sg406
Nsg407
g408
sbsg56
g0
(g393
g2
Ntp422
Rp423
(dp424
g15
I0
sg397
g398
sg399
g56
sg400
S'plate_element_mat'
p425
sg402
S'plate_element_sec'
p426
sg404
S'elset_plate_1'
p427
sg406
Nsg407
g408
sbsg260
g0
(g393
g2
Ntp428
Rp429
(dp430
g15
I22
sg397
g398
sg399
g260
sg400
g401
sg402
g403
sg404
S'elset_wall_2_5'
p431
sg406
Nsg407
g408
sbsg168
g0
(g393
g2
Ntp432
Rp433
(dp434
g15
I8
sg397
g398
sg399
g168
sg400
g425
sg402
g426
sg404
S'elset_plate_9'
p435
sg406
Nsg407
g408
sbsg212
g0
(g393
g2
Ntp436
Rp437
(dp438
g15
I14
sg397
g398
sg399
g212
sg400
g401
sg402
g412
sg404
S'elset_wall_1_6'
p439
sg406
Nsg407
g408
sbsg112
g0
(g393
g2
Ntp440
Rp441
(dp442
g15
I4
sg397
g398
sg399
g112
sg400
g425
sg402
g426
sg404
S'elset_plate_5'
p443
sg406
Nsg407
g408
sbsg194
g0
(g393
g2
Ntp444
Rp445
(dp446
g15
I11
sg397
g398
sg399
g194
sg400
g401
sg402
g412
sg404
S'elset_wall_1_3'
p447
sg406
Nsg407
g408
sbsg84
g0
(g393
g2
Ntp448
Rp449
(dp450
g15
I2
sg397
g398
sg399
g84
sg400
g425
sg402
g426
sg404
S'elset_plate_3'
p451
sg406
Nsg407
g408
sbsg248
g0
(g393
g2
Ntp452
Rp453
(dp454
g15
I20
sg397
g398
sg399
g248
sg400
g401
sg402
g403
sg404
S'elset_wall_2_3'
p455
sg406
Nsg407
g408
sbsg266
g0
(g393
g2
Ntp456
Rp457
(dp458
g15
I23
sg397
g398
sg399
g266
sg400
g401
sg402
g403
sg404
S'elset_wall_2_6'
p459
sg406
Nsg407
g408
sbsg200
g0
(g393
g2
Ntp460
Rp461
(dp462
g15
I12
sg397
g398
sg399
g200
sg400
g401
sg402
g412
sg404
S'elset_wall_1_4'
p463
sg406
Nsg407
g408
sbsg230
g0
(g393
g2
Ntp464
Rp465
(dp466
g15
I17
sg397
g398
sg399
g230
sg400
g401
sg402
g412
sg404
S'elset_wall_1_9'
p467
sg406
Nsg407
g408
sbsg154
g0
(g393
g2
Ntp468
Rp469
(dp470
g15
I7
sg397
g398
sg399
g154
sg400
g425
sg402
g426
sg404
S'elset_plate_8'
p471
sg406
Nsg407
g408
sbsg182
g0
(g393
g2
Ntp472
Rp473
(dp474
g15
I9
sg397
g398
sg399
g182
sg400
g401
sg402
g412
sg404
S'elset_wall_1_1'
p475
sg406
Nsg407
g408
sbsg140
g0
(g393
g2
Ntp476
Rp477
(dp478
g15
I6
sg397
g398
sg399
g140
sg400
g425
sg402
g426
sg404
S'elset_plate_7'
p479
sg406
Nsg407
g408
sbsg278
g0
(g393
g2
Ntp480
Rp481
(dp482
g15
I25
sg397
g398
sg399
g278
sg400
g401
sg402
g403
sg404
S'elset_wall_2_8'
p483
sg406
Nsg407
g408
sbsg98
g0
(g393
g2
Ntp484
Rp485
(dp486
g15
I3
sg397
g398
sg399
g98
sg400
g425
sg402
g426
sg404
S'elset_plate_4'
p487
sg406
Nsg407
g408
sbsg70
g0
(g393
g2
Ntp488
Rp489
(dp490
g15
I1
sg397
g398
sg399
g70
sg400
g425
sg402
g426
sg404
S'elset_plate_2'
p491
sg406
Nsg407
g408
sbsg293
g0
(g393
g2
Ntp492
Rp493
(dp494
g15
I27
sg397
g398
sg399
g293
sg400
S'elset_mpc_element_mat'
p495
sg402
S'sec_mpc'
p496
sg404
S'elset_mpcs'
p497
sg406
Nsg407
g408
sbsg218
g0
(g393
g2
Ntp498
Rp499
(dp500
g15
I15
sg397
g398
sg399
g218
sg400
g401
sg402
g412
sg404
S'elset_wall_1_7'
p501
sg406
Nsg407
g408
sbsg272
g0
(g393
g2
Ntp502
Rp503
(dp504
g15
I24
sg397
g398
sg399
g272
sg400
g401
sg402
g403
sg404
S'elset_wall_2_7'
p505
sg406
Nsg407
g408
sbsg284
g0
(g393
g2
Ntp506
Rp507
(dp508
g15
I26
sg397
g398
sg399
g284
sg400
g401
sg402
g403
sg404
S'elset_wall_2_9'
p509
sg406
Nsg407
g408
sbsg236
g0
(g393
g2
Ntp510
Rp511
(dp512
g15
I18
sg397
g398
sg399
g236
sg400
g401
sg402
g403
sg404
S'elset_wall_2_1'
p513
sg406
Nsg407
g408
sbsg126
g0
(g393
g2
Ntp514
Rp515
(dp516
g15
I5
sg397
g398
sg399
g126
sg400
g425
sg402
g426
sg404
S'elset_plate_6'
p517
sg406
Nsg407
g408
sbsg206
g0
(g393
g2
Ntp518
Rp519
(dp520
g15
I13
sg397
g398
sg399
g206
sg400
g401
sg402
g412
sg404
S'elset_wall_1_5'
p521
sg406
Nsg407
g408
sbssS'interactions'
p522
(dp523
sS'loads'
p524
(dp525
S'earthPressure_liveLoad'
p526
g0
(ccompas_fea.structure.load
AreaLoad
p527
g2
Ntp528
Rp529
(dp530
g15
I7
sS'__name__'
p531
S'AreaLoad'
p532
sS'name'
p533
g526
sS'axes'
p534
S'local'
p535
sS'components'
p536
(dp537
g23
F0.037699999999999997
sg27
I0
sg28
I0
ssS'nodes'
p538
(lp539
sS'elements'
p540
(lp541
I28
aI29
aI31
aI32
aI34
aI35
asS'attr_list'
p542
(lp543
S'name'
p544
aS'axes'
p545
aS'components'
p546
aS'nodes'
p547
aS'elements'
p548
asbsS'Gleis1_BAHNLASTEN_Lasteinzugsflache_Lastblock_-2'
p549
g0
(g527
g2
Ntp550
Rp551
(dp552
g15
I6
sg531
g532
sg533
g549
sg534
S'global'
p553
sg536
(dp554
g23
F0.05633738300014627
sg27
I0
sg28
I0
ssg538
g539
sg540
(lp555
I1
aI7
asg542
(lp556
g544
ag545
ag546
ag547
ag548
asbsS'Gleis1_EIGENGEWICHTE_SCHIENE_Lasteinzugsflache'
p557
g0
(g527
g2
Ntp558
Rp559
(dp560
g15
I3
sg531
g532
sg533
g557
sg534
g553
sg536
(dp561
g23
F0.0021103839265683324
sg27
I0
sg28
I0
ssg538
g539
sg540
(lp562
I1
aI2
aI3
aI7
aI8
aI9
aI13
aI14
aI15
aI22
aI23
aI25
aI26
aI27
asg542
(lp563
g544
ag545
ag546
ag547
ag548
asbsS'earthPressure_backfill'
p564
g0
(g527
g2
Ntp565
Rp566
(dp567
g15
I2
sg531
g532
sg533
g564
sg534
g535
sg536
(dp568
g23
F0.057999151518440532
sg27
I0
sg28
I0
ssg538
g539
sg540
(lp569
g475
ag413
ag447
ag463
ag521
ag439
ag501
ag417
ag467
ag513
ag421
ag455
ag405
ag431
ag459
ag505
ag483
ag509
asg542
(lp570
g544
ag545
ag546
ag547
ag548
asbsS'earthPressure_gravel'
p571
g0
(g527
g2
Ntp572
Rp573
(dp574
g15
I1
sg531
g532
sg533
g571
sg534
g553
sg536
(dp575
g23
F0.013500000000000002
sg27
I0
sg28
I0
ssg538
g539
sg540
(lp576
g427
ag491
ag451
ag487
ag443
ag517
ag479
ag471
ag435
asg542
(lp577
g544
ag545
ag546
ag547
ag548
asbsS'Gleis1_BAHNLASTEN_Lasteinzugsflache_Lastblock_-1'
p578
g0
(g527
g2
Ntp579
Rp580
(dp581
g15
I5
sg531
g532
sg533
g578
sg534
g553
sg536
(dp582
g23
F0.05633738300014627
sg27
I0
sg28
I0
ssg538
g539
sg540
(lp583
I15
aI22
aI23
aI25
asg542
(lp584
g544
ag545
ag546
ag547
ag548
asbsS'Gleis1_BAHNLASTEN_Lasteinzugsflache_Lastblock_1'
p585
g0
(g527
g2
Ntp586
Rp587
(dp588
g15
I4
sg531
g532
sg533
g585
sg534
g553
sg536
(dp589
g23
F0.05633738300014627
sg27
I0
sg28
I0
ssg538
g539
sg540
(lp590
I23
aI26
aI27
asg542
(lp591
g544
ag545
ag546
ag547
ag548
asbsS'load_gravity'
p592
g0
(ccompas_fea.structure.load
GravityLoad
p593
g2
Ntp594
Rp595
(dp596
S'index'
p597
I0
sg531
S'GravityLoad'
p598
sg533
g592
sg534
g553
sg536
(dp599
g23
F1.3500000000000001
sg27
F0.0
sg28
F0.0
ssg538
g539
sg540
(lp600
g427
ag491
ag451
ag487
ag443
ag517
ag479
ag471
ag435
ag475
ag413
ag447
ag463
ag521
ag439
ag501
ag417
ag467
ag513
ag421
ag455
ag405
ag431
ag459
ag505
ag483
ag509
asg542
(lp601
g544
ag545
ag546
ag547
ag548
aS'g'
p602
asS'g'
p603
F-9.8100000000000005
sbssS'materials'
p604
(dp605
g495
g0
(ccompas_fea.structure.material
MPCStiff
p606
g2
Ntp607
Rp608
(dp609
g597
I2
sS'__name__'
p610
S'MPCStiff'
p611
sS'name'
p612
g495
sS'attr_list'
p613
(lp614
g544
aS'E'
p615
aS'v'
p616
aS'G'
p617
aS'p'
p618
aS'tension'
p619
aS'compression'
p620
asS'E'
p621
(dp622
g615
L10000000000000L
ssS'v'
p623
(dp624
g616
F0.29999999999999999
ssS'G'
p625
(dp626
g617
F3846153846153.8462
ssS'p'
p627
F0.10000000000000001
sS'tension'
p628
I01
sS'compression'
p629
I01
sbsg401
g0
(ccompas_fea.structure.material
CMMUsermat
p630
g2
Ntp631
Rp632
(dp633
g15
I1
sg610
S'CMMUsermat'
p634
sg612
g401
sg613
(lp635
g544
ag615
ag616
ag617
ag618
aS'R_Rohr'
p636
aS'rho'
p637
aS'oo'
p638
aS'uu'
p639
aS'beton'
p640
aS'fcc'
p641
aS'vc'
p642
aS'ecu'
p643
aS'k_E'
p644
aS'theta_b0'
p645
aS'theta_b1'
p646
aS'k_riss'
p647
aS'Entfestigung'
p648
aS'lambdaTS'
p649
aS'srmx'
p650
aS'srmy'
p651
aS'Begrenzung'
p652
aS'KritQ'
p653
aS'winkelD'
p654
aS'k_vr'
p655
aS'fswy'
p656
aS'stahl1'
p657
aS'zm1'
p658
aS'fsy1'
p659
aS'fsu1'
p660
aS'esu1'
p661
aS'esv1'
p662
aS'Es1'
p663
aS'ka1'
p664
aS'kb1'
p665
aS'kc1'
p666
aS'as1'
p667
aS'dm1'
p668
aS'psi1'
p669
aS'stahl2'
p670
aS'zm2'
p671
aS'fsy2'
p672
aS'fsu2'
p673
aS'esu2'
p674
aS'esv2'
p675
aS'Es2'
p676
aS'ka2'
p677
aS'kb2'
p678
aS'kc2'
p679
aS'as2'
p680
aS'dm2'
p681
aS'psi2'
p682
aS'stahl3'
p683
aS'zm3'
p684
aS'fsy3'
p685
aS'fsu3'
p686
aS'esu3'
p687
aS'esv3'
p688
aS'Es3'
p689
aS'ka3'
p690
aS'kb3'
p691
aS'kc3'
p692
aS'as3'
p693
aS'dm3'
p694
aS'psi3'
p695
aS'stahl4'
p696
aS'zm4'
p697
aS'fsy4'
p698
aS'fsu4'
p699
aS'esu4'
p700
aS'esv4'
p701
aS'Es4'
p702
aS'ka4'
p703
aS'kb4'
p704
aS'kc4'
p705
aS'as4'
p706
aS'dm4'
p707
aS'psi4'
p708
asS'E'
p709
(dp710
S'E'
p711
I200000
ssS'v'
p712
(dp713
S'v'
p714
F0.10000000000000001
ssS'G'
p715
(dp716
g617
F90909.090909090897
ssS'p'
p717
F2.5000000000000002e-06
sS'R_Rohr'
p718
(dp719
g636
I-1
ssS'rho'
p720
(dp721
g637
F2.5000000000000002e-06
ssS'oo'
p722
(dp723
g638
I30
ssS'uu'
p724
(dp725
g639
I30
ssS'beton'
p726
(dp727
g640
I2
ssS'fcc'
p728
(dp729
g641
I44
ssS'vc'
p730
(dp731
g642
I0
ssS'ecu'
p732
(dp733
g643
F-0.002
ssS'k_E'
p734
(dp735
g644
I10000
ssS'theta_b0'
p736
(dp737
g645
I2
ssS'theta_b1'
p738
(dp739
g646
I1
ssS'k_riss'
p740
(dp741
g647
I0
ssS'Entfestigung'
p742
(dp743
g648
I0
ssS'lambdaTS'
p744
(dp745
g649
F0.67000000000000004
ssS'srmx'
p746
(dp747
g650
I1
ssS'srmy'
p748
(dp749
g651
I1
ssS'Begrenzung'
p750
(dp751
g652
I2
ssS'KritQ'
p752
(dp753
g653
I0
ssS'winkelD'
p754
(dp755
g654
I45
ssS'k_vr'
p756
(dp757
g655
I1
ssS'fswy'
p758
(dp759
g656
I500
ssS'stahl1'
p760
(dp761
g657
I1
ssS'zm1'
p762
(dp763
g658
I2
ssS'fsy1'
p764
(dp765
g659
I333
ssS'fsu1'
p766
(dp767
g660
I360
ssS'esu1'
p768
(dp769
g661
F0.044999999999999998
ssS'esv1'
p770
(dp771
g662
F0.02
ssS'Es1'
p772
(dp773
g663
I200000
ssS'ka1'
p774
(dp775
g664
I-1
ssS'kb1'
p776
(dp777
g665
I-1
ssS'kc1'
p778
(dp779
g666
I-1
ssS'as1'
p780
(dp781
g667
F3.5222466620714474
ssS'dm1'
p782
(dp783
g668
F29.960138325297439
ssS'psi1'
p784
(dp785
g669
I90
ssS'stahl2'
p786
(dp787
g670
I1
ssS'zm2'
p788
(dp789
g671
I2
ssS'fsy2'
p790
(dp791
g672
I333
ssS'fsu2'
p792
(dp793
g673
I360
ssS'esu2'
p794
(dp795
g674
F0.044999999999999998
ssS'esv2'
p796
(dp797
g675
F0.02
ssS'Es2'
p798
(dp799
g676
I200000
ssS'ka2'
p800
(dp801
g677
I-1
ssS'kb2'
p802
(dp803
g678
I-1
ssS'kc2'
p804
(dp805
g679
I-1
ssS'as2'
p806
(dp807
g680
F0.56506008440068534
ssS'dm2'
p808
(dp809
g681
F12.0
ssS'psi2'
p810
(dp811
g682
I0
ssS'stahl3'
p812
(dp813
g683
I1
ssS'zm3'
p814
(dp815
g684
I2
ssS'fsy3'
p816
(dp817
g685
I333
ssS'fsu3'
p818
(dp819
g686
I360
ssS'esu3'
p820
(dp821
g687
F0.044999999999999998
ssS'esv3'
p822
(dp823
g688
F0.02
ssS'Es3'
p824
(dp825
g689
I200000
ssS'ka3'
p826
(dp827
g690
I-1
ssS'kb3'
p828
(dp829
g691
I-1
ssS'kc3'
p830
(dp831
g692
I-1
ssS'as3'
p832
(dp833
g693
F0.56506008440068534
ssS'dm3'
p834
(dp835
g694
F12.0
ssS'psi3'
p836
(dp837
g695
I0
ssS'stahl4'
p838
(dp839
g696
I1
ssS'zm4'
p840
(dp841
g697
I2
ssS'fsy4'
p842
(dp843
g698
I333
ssS'fsu4'
p844
(dp845
g699
I360
ssS'esu4'
p846
(dp847
g700
F0.044999999999999998
ssS'esv4'
p848
(dp849
g701
F0.02
ssS'Es4'
p850
(dp851
g702
I200000
ssS'ka4'
p852
(dp853
g703
I-1
ssS'kb4'
p854
(dp855
g704
I-1
ssS'kc4'
p856
(dp857
g705
I-1
ssS'as4'
p858
(dp859
g706
F0.40109530704432383
ssS'dm4'
p860
(dp861
g707
F10.110152846364009
ssS'psi4'
p862
(dp863
g708
I90
ssbsg425
g0
(g630
g2
Ntp864
Rp865
(dp866
g15
I0
sg610
g634
sg612
g425
sg613
(lp867
g544
ag615
ag616
ag617
ag618
ag636
ag637
ag638
ag639
ag640
ag641
ag642
ag643
ag644
ag645
ag646
ag647
ag648
ag649
ag650
ag651
ag652
ag653
ag654
ag655
ag656
ag657
ag658
ag659
ag660
ag661
ag662
ag663
ag664
ag665
ag666
ag667
ag668
ag669
ag670
ag671
ag672
ag673
ag674
ag675
ag676
ag677
ag678
ag679
ag680
ag681
ag682
ag683
ag684
ag685
ag686
ag687
ag688
ag689
ag690
ag691
ag692
ag693
ag694
ag695
ag696
ag697
ag698
ag699
ag700
ag701
ag702
ag703
ag704
ag705
ag706
ag707
ag708
asg709
(dp868
g711
I200000
ssg712
(dp869
g714
F0.10000000000000001
ssg715
(dp870
g617
F90909.090909090897
ssg717
F2.5000000000000002e-06
sg718
(dp871
g636
I-1
ssg720
(dp872
g637
F2.5000000000000002e-06
ssg722
(dp873
g638
I30
ssg724
(dp874
g639
I30
ssg726
(dp875
g640
I2
ssg728
(dp876
g641
I44
ssg730
(dp877
g642
I0
ssg732
(dp878
g643
F-0.002
ssg734
(dp879
g644
I10000
ssg736
(dp880
g645
I2
ssg738
(dp881
g646
I1
ssg740
(dp882
g647
I0
ssg742
(dp883
g648
I0
ssg744
(dp884
g649
F0.67000000000000004
ssg746
(dp885
g650
I1
ssg748
(dp886
g651
I1
ssg750
(dp887
g652
I2
ssg752
(dp888
g653
I0
ssg754
(dp889
g654
I45
ssg756
(dp890
g655
I1
ssg758
(dp891
g656
I500
ssg760
(dp892
g657
I1
ssg762
(dp893
g658
I2
ssg764
(dp894
g659
I333
ssg766
(dp895
g660
I360
ssg768
(dp896
g661
F0.044999999999999998
ssg770
(dp897
g662
F0.02
ssg772
(dp898
g663
I200000
ssg774
(dp899
g664
I-1
ssg776
(dp900
g665
I-1
ssg778
(dp901
g666
I-1
ssg780
(dp902
g667
F0.22550083295546602
ssg782
(dp903
g668
F10.83138210352285
ssg784
(dp904
g669
I90
ssg786
(dp905
g670
I1
ssg788
(dp906
g671
I2
ssg790
(dp907
g672
I333
ssg792
(dp908
g673
I360
ssg794
(dp909
g674
F0.044999999999999998
ssg796
(dp910
g675
F0.02
ssg798
(dp911
g676
I200000
ssg800
(dp912
g677
I-1
ssg802
(dp913
g678
I-1
ssg804
(dp914
g679
I-1
ssg806
(dp915
g680
F1.2577047318748675
ssg808
(dp916
g681
F25.579918069505972
ssg810
(dp917
g682
I0
ssg812
(dp918
g683
I1
ssg814
(dp919
g684
I2
ssg816
(dp920
g685
I333
ssg818
(dp921
g686
I360
ssg820
(dp922
g687
F0.044999999999999998
ssg822
(dp923
g688
F0.02
ssg824
(dp924
g689
I200000
ssg826
(dp925
g690
I-1
ssg828
(dp926
g691
I-1
ssg830
(dp927
g692
I-1
ssg832
(dp928
g693
F0.27678521560330283
ssg834
(dp929
g694
F12.0
ssg836
(dp930
g695
I0
ssg838
(dp931
g696
I1
ssg840
(dp932
g697
I2
ssg842
(dp933
g698
I333
ssg844
(dp934
g699
I360
ssg846
(dp935
g700
F0.044999999999999998
ssg848
(dp936
g701
F0.02
ssg850
(dp937
g702
I200000
ssg852
(dp938
g703
I-1
ssg854
(dp939
g704
I-1
ssg856
(dp940
g705
I-1
ssg858
(dp941
g706
F0.9353167910717336
ssg860
(dp942
g707
F22.059169978672724
ssg862
(dp943
g708
I90
ssbssS'misc'
p944
(dp945
sS'name'
p946
S'NLFE_CFB1'
p947
sS'nodes'
p948
(dp949
I0
g0
(ccompas_fea.structure.node
Node
p950
g2
Ntp951
Rp952
(dp953
S'__name__'
p954
S'Node'
p955
sS'key'
p956
I0
sS'x'
p957
F0.0
sS'y'
p958
F0.0
sS'z'
p959
F0.0
sS'ex'
p960
(lp961
I1
aI0
aI0
asS'ey'
p962
(lp963
I0
aI1
aI0
asS'ez'
p964
(lp965
I0
aI0
aI1
asS'mass'
p966
NsbsI1
g0
(g950
g2
Ntp967
Rp968
(dp969
g954
g955
sg956
I1
sg957
F1165.2994500196403
sg958
F0.0
sg959
F0.0
sg960
g961
sg962
g963
sg964
g965
sg966
NsbsI2
g0
(g950
g2
Ntp970
Rp971
(dp972
g954
g955
sg956
I2
sg957
F0.0
sg958
F1304.2920315129336
sg959
F0.0
sg960
g961
sg962
g963
sg964
g965
sg966
NsbsI3
g0
(g950
g2
Ntp973
Rp974
(dp975
g954
g955
sg956
I3
sg957
F1165.2994500196403
sg958
F1304.2920315129336
sg959
F0.0
sg960
g961
sg962
g963
sg964
g965
sg966
NsbsI4
g0
(g950
g2
Ntp976
Rp977
(dp978
g954
g955
sg956
I4
sg957
F0.0
sg958
F2608.5840630258672
sg959
F0.0
sg960
g961
sg962
g963
sg964
g965
sg966
NsbsI5
g0
(g950
g2
Ntp979
Rp980
(dp981
g954
g955
sg956
I5
sg957
F1165.2994500196403
sg958
F2608.5840630258672
sg959
F0.0
sg960
g961
sg962
g963
sg964
g965
sg966
NsbsI6
g0
(g950
g2
Ntp982
Rp983
(dp984
g954
g955
sg956
I6
sg957
F0.0
sg958
F3912.8760945388012
sg959
F0.0
sg960
g961
sg962
g963
sg964
g965
sg966
NsbsI7
g0
(g950
g2
Ntp985
Rp986
(dp987
g954
g955
sg956
I7
sg957
F1165.2994500196403
sg958
F3912.8760945388012
sg959
F0.0
sg960
g961
sg962
g963
sg964
g965
sg966
NsbsI8
g0
(g950
g2
Ntp988
Rp989
(dp990
g954
g955
sg956
I8
sg957
F0.0
sg958
F7944.3241919424136
sg959
F0.0
sg960
g961
sg962
g963
sg964
g965
sg966
NsbsI9
g0
(g950
g2
Ntp991
Rp992
(dp993
g954
g955
sg956
I9
sg957
F1165.2994500196403
sg958
F7944.3241919424136
sg959
F0.0
sg960
g961
sg962
g963
sg964
g965
sg966
NsbsI10
g0
(g950
g2
Ntp994
Rp995
(dp996
g954
g955
sg956
I10
sg957
F0.0
sg958
F9248.6162234553485
sg959
F0.0
sg960
g961
sg962
g963
sg964
g965
sg966
NsbsI11
g0
(g950
g2
Ntp997
Rp998
(dp999
g954
g955
sg956
I11
sg957
F1165.2994500196403
sg958
F9248.6162234553485
sg959
F0.0
sg960
g961
sg962
g963
sg964
g965
sg966
NsbsI12
g0
(g950
g2
Ntp1000
Rp1001
(dp1002
g954
g955
sg956
I12
sg957
F0.0
sg958
F10552.908254968283
sg959
F0.0
sg960
g961
sg962
g963
sg964
g965
sg966
NsbsI13
g0
(g950
g2
Ntp1003
Rp1004
(dp1005
g954
g955
sg956
I13
sg957
F1165.2994500196403
sg958
F10552.908254968283
sg959
F0.0
sg960
g961
sg962
g963
sg964
g965
sg966
NsbsI14
g0
(g950
g2
Ntp1006
Rp1007
(dp1008
g954
g955
sg956
I14
sg957
F0.0
sg958
F11857.200286481215
sg959
F0.0
sg960
g961
sg962
g963
sg964
g965
sg966
NsbsI15
g0
(g950
g2
Ntp1009
Rp1010
(dp1011
g954
g955
sg956
I15
sg957
F1165.2994500196403
sg958
F11857.200286481215
sg959
F0.0
sg960
g961
sg962
g963
sg964
g965
sg966
NsbsI16
g0
(g950
g2
Ntp1012
Rp1013
(dp1014
g954
g955
sg956
I16
sg957
F2330.5989000392806
sg958
F0.0
sg959
F0.0
sg960
g961
sg962
g963
sg964
g965
sg966
NsbsI17
g0
(g950
g2
Ntp1015
Rp1016
(dp1017
g954
g955
sg956
I17
sg957
F2330.5989000392806
sg958
F1304.2920315129336
sg959
F0.0
sg960
g961
sg962
g963
sg964
g965
sg966
NsbsI18
g0
(g950
g2
Ntp1018
Rp1019
(dp1020
g954
g955
sg956
I18
sg957
F2330.5989000392806
sg958
F2608.5840630258672
sg959
F0.0
sg960
g961
sg962
g963
sg964
g965
sg966
NsbsI19
g0
(g950
g2
Ntp1021
Rp1022
(dp1023
g954
g955
sg956
I19
sg957
F2330.5989000392806
sg958
F3912.8760945388012
sg959
F0.0
sg960
g961
sg962
g963
sg964
g965
sg966
NsbsI20
g0
(g950
g2
Ntp1024
Rp1025
(dp1026
g954
g955
sg956
I20
sg957
F2330.5989000392806
sg958
F7944.3241919424136
sg959
F0.0
sg960
g961
sg962
g963
sg964
g965
sg966
NsbsI21
g0
(g950
g2
Ntp1027
Rp1028
(dp1029
g954
g955
sg956
I21
sg957
F2330.5989000392806
sg958
F9248.6162234553485
sg959
F0.0
sg960
g961
sg962
g963
sg964
g965
sg966
NsbsI22
g0
(g950
g2
Ntp1030
Rp1031
(dp1032
g954
g955
sg956
I22
sg957
F2330.5989000392806
sg958
F10552.908254968283
sg959
F0.0
sg960
g961
sg962
g963
sg964
g965
sg966
NsbsI23
g0
(g950
g2
Ntp1033
Rp1034
(dp1035
g954
g955
sg956
I23
sg957
F2330.5989000392806
sg958
F11857.200286481215
sg959
F0.0
sg960
g961
sg962
g963
sg964
g965
sg966
NsbsI24
g0
(g950
g2
Ntp1036
Rp1037
(dp1038
g954
g955
sg956
I24
sg957
F3531.2104546049704
sg958
F0.0
sg959
F0.0
sg960
g961
sg962
g963
sg964
g965
sg966
NsbsI25
g0
(g950
g2
Ntp1039
Rp1040
(dp1041
g954
g955
sg956
I25
sg957
F3531.2104546049709
sg958
F1304.2920315129336
sg959
F0.0
sg960
g961
sg962
g963
sg964
g965
sg966
NsbsI26
g0
(g950
g2
Ntp1042
Rp1043
(dp1044
g954
g955
sg956
I26
sg957
F3531.2104546049704
sg958
F2608.5840630258672
sg959
F0.0
sg960
g961
sg962
g963
sg964
g965
sg966
NsbsI27
g0
(g950
g2
Ntp1045
Rp1046
(dp1047
g954
g955
sg956
I27
sg957
F3531.2104546049704
sg958
F3912.8760945388012
sg959
F0.0
sg960
g961
sg962
g963
sg964
g965
sg966
NsbsI28
g0
(g950
g2
Ntp1048
Rp1049
(dp1050
g954
g955
sg956
I28
sg957
F3531.2104546049704
sg958
F7944.3241919424136
sg959
F0.0
sg960
g961
sg962
g963
sg964
g965
sg966
NsbsI29
g0
(g950
g2
Ntp1051
Rp1052
(dp1053
g954
g955
sg956
I29
sg957
F3531.2104546049709
sg958
F9248.6162234553485
sg959
F0.0
sg960
g961
sg962
g963
sg964
g965
sg966
NsbsI30
g0
(g950
g2
Ntp1054
Rp1055
(dp1056
g954
g955
sg956
I30
sg957
F3531.2104546049704
sg958
F10552.908254968283
sg959
F0.0
sg960
g961
sg962
g963
sg964
g965
sg966
NsbsI31
g0
(g950
g2
Ntp1057
Rp1058
(dp1059
g954
g955
sg956
I31
sg957
F3531.2104546049704
sg958
F11857.200286481215
sg959
F0.0
sg960
g961
sg962
g963
sg964
g965
sg966
NsbsI32
g0
(g950
g2
Ntp1060
Rp1061
(dp1062
g954
g955
sg956
I32
sg957
F0.0
sg958
F5256.6921270066723
sg959
F0.0
sg960
g961
sg962
g963
sg964
g965
sg966
NsbsI33
g0
(g950
g2
Ntp1063
Rp1064
(dp1065
g954
g955
sg956
I33
sg957
F1165.2994500196403
sg958
F5256.6921270066723
sg959
F0.0
sg960
g961
sg962
g963
sg964
g965
sg966
NsbsI34
g0
(g950
g2
Ntp1066
Rp1067
(dp1068
g954
g955
sg956
I34
sg957
F0.0
sg958
F6600.5081594745425
sg959
F0.0
sg960
g961
sg962
g963
sg964
g965
sg966
NsbsI35
g0
(g950
g2
Ntp1069
Rp1070
(dp1071
g954
g955
sg956
I35
sg957
F1165.2994500196403
sg958
F6600.5081594745425
sg959
F0.0
sg960
g961
sg962
g963
sg964
g965
sg966
NsbsI36
g0
(g950
g2
Ntp1072
Rp1073
(dp1074
g954
g955
sg956
I36
sg957
F2330.5989000392806
sg958
F5256.6921270066723
sg959
F0.0
sg960
g961
sg962
g963
sg964
g965
sg966
NsbsI37
g0
(g950
g2
Ntp1075
Rp1076
(dp1077
g954
g955
sg956
I37
sg957
F2330.5989000392806
sg958
F6600.5081594745425
sg959
F0.0
sg960
g961
sg962
g963
sg964
g965
sg966
NsbsI38
g0
(g950
g2
Ntp1078
Rp1079
(dp1080
g954
g955
sg956
I38
sg957
F3531.2104546049709
sg958
F5256.6921270066723
sg959
F0.0
sg960
g961
sg962
g963
sg964
g965
sg966
NsbsI39
g0
(g950
g2
Ntp1081
Rp1082
(dp1083
g954
g955
sg956
I39
sg957
F3531.2104546049704
sg958
F6600.5081594745425
sg959
F0.0
sg960
g961
sg962
g963
sg964
g965
sg966
NsbsI40
g0
(g950
g2
Ntp1084
Rp1085
(dp1086
g954
g955
sg956
I40
sg957
F0.0
sg958
F0.0
sg959
F-2179.2850298267799
sg960
g961
sg962
g963
sg964
g965
sg966
NsbsI41
g0
(g950
g2
Ntp1087
Rp1088
(dp1089
g954
g955
sg956
I41
sg957
F1165.2994500196401
sg958
F0.0
sg959
F-2179.2850298267799
sg960
g961
sg962
g963
sg964
g965
sg966
NsbsI42
g0
(g950
g2
Ntp1090
Rp1091
(dp1092
g954
g955
sg956
I42
sg957
F0.0
sg958
F0.0
sg959
F-1158.0111985921503
sg960
g961
sg962
g963
sg964
g965
sg966
NsbsI43
g0
(g950
g2
Ntp1093
Rp1094
(dp1095
g954
g955
sg956
I43
sg957
F1165.2994500196401
sg958
F0.0
sg959
F-1158.0111985921503
sg960
g961
sg962
g963
sg964
g965
sg966
NsbsI44
g0
(g950
g2
Ntp1096
Rp1097
(dp1098
g954
g955
sg956
I44
sg957
F2330.5989000392801
sg958
F0.0
sg959
F-2179.2850298267799
sg960
g961
sg962
g963
sg964
g965
sg966
NsbsI45
g0
(g950
g2
Ntp1099
Rp1100
(dp1101
g954
g955
sg956
I45
sg957
F2330.5989000392801
sg958
F0.0
sg959
F-1158.0111985921503
sg960
g961
sg962
g963
sg964
g965
sg966
NsbsI46
g0
(g950
g2
Ntp1102
Rp1103
(dp1104
g954
g955
sg956
I46
sg957
F3531.21045460497
sg958
F0.0
sg959
F-2179.2850298267799
sg960
g961
sg962
g963
sg964
g965
sg966
NsbsI47
g0
(g950
g2
Ntp1105
Rp1106
(dp1107
g954
g955
sg956
I47
sg957
F3531.21045460497
sg958
F0.0
sg959
F-1158.0111985921503
sg960
g961
sg962
g963
sg964
g965
sg966
NsbsI48
g0
(g950
g2
Ntp1108
Rp1109
(dp1110
g954
g955
sg956
I48
sg957
F0.0
sg958
F0.0
sg959
F-3231.5065529170038
sg960
g961
sg962
g963
sg964
g965
sg966
NsbsI49
g0
(g950
g2
Ntp1111
Rp1112
(dp1113
g954
g955
sg956
I49
sg957
F1165.2994500196401
sg958
F0.0
sg959
F-3231.5065529170038
sg960
g961
sg962
g963
sg964
g965
sg966
NsbsI50
g0
(g950
g2
Ntp1114
Rp1115
(dp1116
g954
g955
sg956
I50
sg957
F2330.5989000392801
sg958
F0.0
sg959
F-3231.5065529170038
sg960
g961
sg962
g963
sg964
g965
sg966
NsbsI51
g0
(g950
g2
Ntp1117
Rp1118
(dp1119
g954
g955
sg956
I51
sg957
F3531.21045460497
sg958
F0.0
sg959
F-3231.5065529170038
sg960
g961
sg962
g963
sg964
g965
sg966
NsbsI52
g0
(g950
g2
Ntp1120
Rp1121
(dp1122
g954
g955
sg956
I52
sg957
F0.0
sg958
F0.0
sg959
F-4252.7803841516334
sg960
g961
sg962
g963
sg964
g965
sg966
NsbsI53
g0
(g950
g2
Ntp1123
Rp1124
(dp1125
g954
g955
sg956
I53
sg957
F1165.2994500196401
sg958
F0.0
sg959
F-4252.7803841516334
sg960
g961
sg962
g963
sg964
g965
sg966
NsbsI54
g0
(g950
g2
Ntp1126
Rp1127
(dp1128
g954
g955
sg956
I54
sg957
F2330.5989000392801
sg958
F0.0
sg959
F-4252.7803841516334
sg960
g961
sg962
g963
sg964
g965
sg966
NsbsI55
g0
(g950
g2
Ntp1129
Rp1130
(dp1131
g954
g955
sg956
I55
sg957
F3531.21045460497
sg958
F0.0
sg959
F-4252.7803841516334
sg960
g961
sg962
g963
sg964
g965
sg966
NsbsI56
g0
(g950
g2
Ntp1132
Rp1133
(dp1134
g954
g955
sg956
I56
sg957
F0.0
sg958
F11857.200286481215
sg959
F-2179.2850298267799
sg960
g961
sg962
g963
sg964
g965
sg966
NsbsI57
g0
(g950
g2
Ntp1135
Rp1136
(dp1137
g954
g955
sg956
I57
sg957
F1165.2994500196401
sg958
F11857.200286481215
sg959
F-2179.2850298267799
sg960
g961
sg962
g963
sg964
g965
sg966
NsbsI58
g0
(g950
g2
Ntp1138
Rp1139
(dp1140
g954
g955
sg956
I58
sg957
F0.0
sg958
F11857.200286481215
sg959
F-1158.0111985921503
sg960
g961
sg962
g963
sg964
g965
sg966
NsbsI59
g0
(g950
g2
Ntp1141
Rp1142
(dp1143
g954
g955
sg956
I59
sg957
F1165.2994500196401
sg958
F11857.200286481215
sg959
F-1158.0111985921503
sg960
g961
sg962
g963
sg964
g965
sg966
NsbsI60
g0
(g950
g2
Ntp1144
Rp1145
(dp1146
g954
g955
sg956
I60
sg957
F2330.5989000392801
sg958
F11857.200286481215
sg959
F-2179.2850298267799
sg960
g961
sg962
g963
sg964
g965
sg966
NsbsI61
g0
(g950
g2
Ntp1147
Rp1148
(dp1149
g954
g955
sg956
I61
sg957
F2330.5989000392801
sg958
F11857.200286481215
sg959
F-1158.0111985921503
sg960
g961
sg962
g963
sg964
g965
sg966
NsbsI62
g0
(g950
g2
Ntp1150
Rp1151
(dp1152
g954
g955
sg956
I62
sg957
F3531.21045460497
sg958
F11857.200286481215
sg959
F-2179.2850298267799
sg960
g961
sg962
g963
sg964
g965
sg966
NsbsI63
g0
(g950
g2
Ntp1153
Rp1154
(dp1155
g954
g955
sg956
I63
sg957
F3531.21045460497
sg958
F11857.200286481215
sg959
F-1158.0111985921503
sg960
g961
sg962
g963
sg964
g965
sg966
NsbsI64
g0
(g950
g2
Ntp1156
Rp1157
(dp1158
g954
g955
sg956
I64
sg957
F0.0
sg958
F11857.200286481215
sg959
F-3231.5065529170038
sg960
g961
sg962
g963
sg964
g965
sg966
NsbsI65
g0
(g950
g2
Ntp1159
Rp1160
(dp1161
g954
g955
sg956
I65
sg957
F1165.2994500196401
sg958
F11857.200286481215
sg959
F-3231.5065529170038
sg960
g961
sg962
g963
sg964
g965
sg966
NsbsI66
g0
(g950
g2
Ntp1162
Rp1163
(dp1164
g954
g955
sg956
I66
sg957
F2330.5989000392801
sg958
F11857.200286481215
sg959
F-3231.5065529170038
sg960
g961
sg962
g963
sg964
g965
sg966
NsbsI67
g0
(g950
g2
Ntp1165
Rp1166
(dp1167
g954
g955
sg956
I67
sg957
F3531.21045460497
sg958
F11857.200286481215
sg959
F-3231.5065529170038
sg960
g961
sg962
g963
sg964
g965
sg966
NsbsI68
g0
(g950
g2
Ntp1168
Rp1169
(dp1170
g954
g955
sg956
I68
sg957
F0.0
sg958
F11857.200286481215
sg959
F-4252.7803841516334
sg960
g961
sg962
g963
sg964
g965
sg966
NsbsI69
g0
(g950
g2
Ntp1171
Rp1172
(dp1173
g954
g955
sg956
I69
sg957
F1165.2994500196401
sg958
F11857.200286481215
sg959
F-4252.7803841516334
sg960
g961
sg962
g963
sg964
g965
sg966
NsbsI70
g0
(g950
g2
Ntp1174
Rp1175
(dp1176
g954
g955
sg956
I70
sg957
F2330.5989000392801
sg958
F11857.200286481215
sg959
F-4252.7803841516334
sg960
g961
sg962
g963
sg964
g965
sg966
NsbsI71
g0
(g950
g2
Ntp1177
Rp1178
(dp1179
g954
g955
sg956
I71
sg957
F3531.21045460497
sg958
F11857.200286481215
sg959
F-4252.7803841516334
sg960
g961
sg962
g963
sg964
g965
sg966
NsbssS'node_index'
p1180
(dp1181
S'0.000,0.000,-4252.780'
p1182
I52
sS'1165.299,10552.908,0.000'
p1183
I13
sS'0.000,5256.692,0.000'
p1184
I32
sS'3531.210,3912.876,0.000'
p1185
I27
sS'1165.299,6600.508,0.000'
p1186
I35
sS'1165.299,0.000,-1158.011'
p1187
I43
sS'0.000,10552.908,0.000'
p1188
I12
sS'2330.599,0.000,-3231.507'
p1189
I50
sS'3531.210,1304.292,0.000'
p1190
I25
sS'0.000,11857.200,-2179.285'
p1191
I56
sS'1165.299,9248.616,0.000'
p1192
I11
sS'3531.210,9248.616,0.000'
p1193
I29
sS'1165.299,0.000,-3231.507'
p1194
I49
sS'2330.599,11857.200,-3231.507'
p1195
I66
sS'3531.210,11857.200,-3231.507'
p1196
I67
sS'2330.599,1304.292,0.000'
p1197
I17
sS'1165.299,11857.200,-2179.285'
p1198
I57
sS'2330.599,11857.200,-2179.285'
p1199
I60
sS'2330.599,0.000,-1158.011'
p1200
I45
sS'1165.299,0.000,-4252.780'
p1201
I53
sS'3531.210,7944.324,0.000'
p1202
I28
sS'3531.210,5256.692,0.000'
p1203
I38
sS'1165.299,2608.584,0.000'
p1204
I5
sS'0.000,9248.616,0.000'
p1205
I10
sS'2330.599,2608.584,0.000'
p1206
I18
sS'2330.599,11857.200,0.000'
p1207
I23
sS'2330.599,0.000,-2179.285'
p1208
I44
sS'1165.299,5256.692,0.000'
p1209
I33
sS'0.000,1304.292,0.000'
p1210
I2
sS'3531.210,0.000,-1158.011'
p1211
I47
sS'0.000,11857.200,-1158.011'
p1212
I58
sS'2330.599,11857.200,-4252.780'
p1213
I70
sS'3531.210,0.000,-3231.507'
p1214
I51
sS'0.000,11857.200,0.000'
p1215
I14
sS'1165.299,0.000,0.000'
p1216
I1
sS'0.000,0.000,0.000'
p1217
I0
sS'3531.210,11857.200,-1158.011'
p1218
I63
sS'2330.599,0.000,-4252.780'
p1219
I54
sS'1165.299,11857.200,-3231.507'
p1220
I65
sS'1165.299,3912.876,0.000'
p1221
I7
sS'2330.599,10552.908,0.000'
p1222
I22
sS'1165.299,7944.324,0.000'
p1223
I9
sS'3531.210,11857.200,-2179.285'
p1224
I62
sS'1165.299,11857.200,-4252.780'
p1225
I69
sS'3531.210,2608.584,0.000'
p1226
I26
sS'0.000,11857.200,-4252.780'
p1227
I68
sS'0.000,0.000,-1158.011'
p1228
I42
sS'0.000,2608.584,0.000'
p1229
I4
sS'1165.299,0.000,-2179.285'
p1230
I41
sS'2330.599,0.000,0.000'
p1231
I16
sS'0.000,0.000,-2179.285'
p1232
I40
sS'0.000,11857.200,-3231.507'
p1233
I64
sS'0.000,6600.508,0.000'
p1234
I34
sS'3531.210,0.000,-4252.780'
p1235
I55
sS'3531.210,0.000,0.000'
p1236
I24
sS'3531.210,11857.200,-4252.780'
p1237
I71
sS'2330.599,3912.876,0.000'
p1238
I19
sS'1165.299,11857.200,0.000'
p1239
I15
sS'2330.599,6600.508,0.000'
p1240
I37
sS'1165.299,1304.292,0.000'
p1241
I3
sS'3531.210,0.000,-2179.285'
p1242
I46
sS'2330.599,5256.692,0.000'
p1243
I36
sS'2330.599,9248.616,0.000'
p1244
I21
sS'2330.599,7944.324,0.000'
p1245
I20
sS'3531.210,11857.200,0.000'
p1246
I31
sS'0.000,3912.876,0.000'
p1247
I6
sS'0.000,0.000,-3231.507'
p1248
I48
sS'2330.599,11857.200,-1158.011'
p1249
I61
sS'3531.210,6600.508,0.000'
p1250
I39
sS'0.000,7944.324,0.000'
p1251
I8
sS'1165.299,11857.200,-1158.011'
p1252
I59
sS'3531.210,10552.908,0.000'
p1253
I30
ssS'path'
p1254
S'C:\\Temp\\'
p1255
sS'results'
p1256
(dp1257
S'step_2'
p1258
S'ERROR'
p1259
sS'step_3'
p1260
g1259
sS'step_4'
p1261
g1259
sS'step_1'
p1262
g1259
ssS'sections'
p1263
(dp1264
g412
g0
(ccompas_fea.structure.section
ShellSection
p1265
g2
Ntp1266
Rp1267
(dp1268
g15
I1
sS'__name__'
p1269
S'ShellSection'
p1270
sS'name'
p1271
g412
sS'geometry'
p1272
(dp1273
S't'
p1274
F492.09768076877367
ssS'loc_coords_OR'
p1275
(dp1276
S'ORxyz'
p1277
(lp1278
I0
aI0
aF-3094.7691855600001
assS'loc_coords_XA'
p1279
(dp1280
S'XAxyz'
p1281
(lp1282
I1
aI0
aF-3094.7691855600001
assS'loc_coords_YA'
p1283
(dp1284
S'YAxyz'
p1285
(lp1286
F3094.7691855600001
aF-3094.7691855600001
aF-3093.7691855600001
assS'loc_coords_EV_XA'
p1287
(dp1288
S'EV_XA'
p1289
(lp1290
F1.0
aF0.0
aF0.0
assS'loc_coords_EV_YA'
p1291
(dp1292
S'EV_YA'
p1293
(lp1294
F0.70710676272923489
aF-0.70710676272923489
aF0.00022848449119519185
assS'loc_coords_EV_ZA'
p1295
(dp1296
S'EV_ZA'
p1297
(lp1298
F0.0
aF-1.0
aF0.0
assS'nr_layers'
p1299
(dp1300
S'nn'
p1301
F49.0
ssS'offset'
p1302
(dp1303
S'mode'
p1304
S'mid'
p1305
ssbsg426
g0
(g1265
g2
Ntp1306
Rp1307
(dp1308
g15
I0
sg1269
g1270
sg1271
g426
sg1272
(dp1309
g1274
F1158.0111985921503
ssg1275
(dp1310
g1277
(lp1311
I0
aI0
aI0
assg1279
(dp1312
g1281
(lp1313
I1
aI0
aI0
assg1283
(dp1314
g1285
(lp1315
F0.0
aF1.0
aF0.0
assg1287
(dp1316
g1289
(lp1317
F1.0
aF0.0
aF0.0
assg1291
(dp1318
g1293
(lp1319
F0.0
aF1.0
aF0.0
assg1295
(dp1320
g1297
(lp1321
F0.0
aF0.0
aF1.0
assg1299
(dp1322
g1301
F46.0
ssg1302
(dp1323
g1304
S'top'
p1324
ssbsg403
g0
(g1265
g2
Ntp1325
Rp1326
(dp1327
g15
I2
sg1269
g1270
sg1271
g403
sg1272
(dp1328
g1274
F492.09768076877367
ssg1275
(dp1329
g1277
(lp1330
I0
aF11857.200286499999
aF-3094.7691855600001
assg1279
(dp1331
g1281
(lp1332
I1
aF11857.200286499999
aF-3094.7691855600001
assg1283
(dp1333
g1285
(lp1334
F-3094.7691855579615
aF8762.4311009399989
aF-14952.96947206
assg1287
(dp1335
g1289
(lp1336
F1.0
aF0.0
aF0.0
assg1291
(dp1337
g1293
(lp1338
F-0.24483741365542516
aF-0.24483741365558648
aF-0.93814139752436332
assg1295
(dp1339
g1297
(lp1340
F0.0
aF1.0
aF0.0
assg1299
(dp1341
g1301
F49.0
ssg1302
(dp1342
g1304
g1305
ssbsg496
g0
(ccompas_fea.structure.section
MPCSection
p1343
g2
Ntp1344
Rp1345
(dp1346
g597
I3
sg1269
S'MPCSection'
p1347
sg1271
g496
sg1272
NsS'nr_layers'
p1348
NsbssS'sets'
p1349
(dp1350
g521
g0
(ccompas_fea.structure.set
Set
p1351
g2
Ntp1352
Rp1353
(dp1354
S'__name__'
p1355
S'Set'
p1356
sS'name'
p1357
g521
sS'type'
p1358
S'element'
p1359
sS'selection'
p1360
(lp1361
I31
asS'index'
p1362
I13
sbsg497
g0
(g1351
g2
Ntp1363
Rp1364
(dp1365
g1355
g1356
sg1357
g497
sg1358
g1359
sg1360
(lp1366
I48
aI49
aI50
aI51
aI52
aI45
aI46
aI47
asg1362
I27
sbsg405
g0
(g1351
g2
Ntp1367
Rp1368
(dp1369
g1355
g1356
sg1357
g405
sg1358
g1359
sg1360
(lp1370
I39
asg1362
I21
sbsg451
g0
(g1351
g2
Ntp1371
Rp1372
(dp1373
g1355
g1356
sg1357
g451
sg1358
g1359
sg1360
(lp1374
I8
aI6
aI7
asg1362
I2
sbsg417
g0
(g1351
g2
Ntp1375
Rp1376
(dp1377
g1355
g1356
sg1357
g417
sg1358
g1359
sg1360
(lp1378
I34
asg1362
I16
sbsg513
g0
(g1351
g2
Ntp1379
Rp1380
(dp1381
g1355
g1356
sg1357
g513
sg1358
g1359
sg1360
(lp1382
I36
asg1362
I18
sbsg491
g0
(g1351
g2
Ntp1383
Rp1384
(dp1385
g1355
g1356
sg1357
g491
sg1358
g1359
sg1360
(lp1386
I3
aI4
aI5
asg1362
I1
sbsg427
g0
(g1351
g2
Ntp1387
Rp1388
(dp1389
g1355
g1356
sg1357
g427
sg1358
g1359
sg1360
(lp1390
I0
aI1
aI2
asg1362
I0
sbsg479
g0
(g1351
g2
Ntp1391
Rp1392
(dp1393
g1355
g1356
sg1357
g479
sg1358
g1359
sg1360
(lp1394
I18
aI19
aI20
asg1362
I6
sbsg517
g0
(g1351
g2
Ntp1395
Rp1396
(dp1397
g1355
g1356
sg1357
g517
sg1358
g1359
sg1360
(lp1398
I16
aI17
aI15
asg1362
I5
sbsg443
g0
(g1351
g2
Ntp1399
Rp1400
(dp1401
g1355
g1356
sg1357
g443
sg1358
g1359
sg1360
(lp1402
I12
aI13
aI14
asg1362
I4
sbsg487
g0
(g1351
g2
Ntp1403
Rp1404
(dp1405
g1355
g1356
sg1357
g487
sg1358
g1359
sg1360
(lp1406
I9
aI10
aI11
asg1362
I3
sbsg435
g0
(g1351
g2
Ntp1407
Rp1408
(dp1409
g1355
g1356
sg1357
g435
sg1358
g1359
sg1360
(lp1410
I24
aI25
aI26
asg1362
I8
sbsg471
g0
(g1351
g2
Ntp1411
Rp1412
(dp1413
g1355
g1356
sg1357
g471
sg1358
g1359
sg1360
(lp1414
I21
aI22
aI23
asg1362
I7
sbsg447
g0
(g1351
g2
Ntp1415
Rp1416
(dp1417
g1355
g1356
sg1357
g447
sg1358
g1359
sg1360
(lp1418
I29
asg1362
I11
sbsg509
g0
(g1351
g2
Ntp1419
Rp1420
(dp1421
g1355
g1356
sg1357
g509
sg1358
g1359
sg1360
(lp1422
I44
asg1362
I26
sbsg459
g0
(g1351
g2
Ntp1423
Rp1424
(dp1425
g1355
g1356
sg1357
g459
sg1358
g1359
sg1360
(lp1426
I41
asg1362
I23
sbsg439
g0
(g1351
g2
Ntp1427
Rp1428
(dp1429
g1355
g1356
sg1357
g439
sg1358
g1359
sg1360
(lp1430
I32
asg1362
I14
sbsg455
g0
(g1351
g2
Ntp1431
Rp1432
(dp1433
g1355
g1356
sg1357
g455
sg1358
g1359
sg1360
(lp1434
I38
asg1362
I20
sbsg475
g0
(g1351
g2
Ntp1435
Rp1436
(dp1437
g1355
g1356
sg1357
g475
sg1358
g1359
sg1360
(lp1438
I27
asg1362
I9
sbsg467
g0
(g1351
g2
Ntp1439
Rp1440
(dp1441
g1355
g1356
sg1357
g467
sg1358
g1359
sg1360
(lp1442
I35
asg1362
I17
sbsg35
g0
(g1351
g2
Ntp1443
Rp1444
(dp1445
g1355
g1356
sg1357
g35
sg1358
S'node'
p1446
sg1360
(lp1447
I71
aI70
aI69
aI68
asg1362
I29
sbsg463
g0
(g1351
g2
Ntp1448
Rp1449
(dp1450
g1355
g1356
sg1357
g463
sg1358
g1359
sg1360
(lp1451
I30
asg1362
I12
sbsg483
g0
(g1351
g2
Ntp1452
Rp1453
(dp1454
g1355
g1356
sg1357
g483
sg1358
g1359
sg1360
(lp1455
I43
asg1362
I25
sbsg431
g0
(g1351
g2
Ntp1456
Rp1457
(dp1458
g1355
g1356
sg1357
g431
sg1358
g1359
sg1360
(lp1459
I40
asg1362
I22
sbsg20
g0
(g1351
g2
Ntp1460
Rp1461
(dp1462
g1355
g1356
sg1357
g20
sg1358
g1446
sg1360
(lp1463
I55
aI54
aI53
aI52
asg1362
I28
sbsg501
g0
(g1351
g2
Ntp1464
Rp1465
(dp1466
g1355
g1356
sg1357
g501
sg1358
g1359
sg1360
(lp1467
I33
asg1362
I15
sbsg421
g0
(g1351
g2
Ntp1468
Rp1469
(dp1470
g1355
g1356
sg1357
g421
sg1358
g1359
sg1360
(lp1471
I37
asg1362
I19
sbsg413
g0
(g1351
g2
Ntp1472
Rp1473
(dp1474
g1355
g1356
sg1357
g413
sg1358
g1359
sg1360
(lp1475
I28
asg1362
I10
sbsg505
g0
(g1351
g2
Ntp1476
Rp1477
(dp1478
g1355
g1356
sg1357
g505
sg1358
g1359
sg1360
(lp1479
I42
asg1362
I24
sbssS'steps'
p1480
(dp1481
g1258
g0
(ccompas_fea.structure.step
GeneralStep
p1482
g2
Ntp1483
Rp1484
(dp1485
g15
I1
sS'__name__'
p1486
S'GeneralStep'
p1487
sS'name'
p1488
g1258
sS'attr_list'
p1489
(lp1490
g544
aS'increments'
p1491
aS'iterations'
p1492
aS'factor'
p1493
aS'nlgeom'
p1494
aS'nlmat'
p1495
aS'displacements'
p1496
aS'loads'
p1497
aS'type'
p1498
aS'tolerance'
p1499
aS'modify'
p1500
asS'increments'
p1501
I1
sS'iterations'
p1502
I100
sS'tolerance'
p1503
F0.01
sS'factor'
p1504
F1.0
sS'nlgeom'
p1505
I00
sS'nlmat'
p1506
I01
sS'displacements'
p1507
(lp1508
sS'loads'
p1509
(lp1510
g592
asS'modify'
p1511
I01
sS'type'
p1512
S'static'
p1513
sbsg1260
g0
(g1482
g2
Ntp1514
Rp1515
(dp1516
g15
I2
sg1486
g1487
sg1488
g1260
sg1489
(lp1517
g544
ag1491
ag1492
ag1493
ag1494
ag1495
ag1496
ag1497
ag1498
ag1499
ag1500
asg1501
I1
sg1502
I100
sg1503
F0.01
sg1504
F1.0
sg1505
I00
sg1506
I01
sg1507
(lp1518
sg1509
(lp1519
g571
ag564
ag557
asg1511
I01
sg1512
g1513
sbsg1261
g0
(g1482
g2
Ntp1520
Rp1521
(dp1522
g15
I3
sg1486
g1487
sg1488
g1261
sg1489
(lp1523
g544
ag1491
ag1492
ag1493
ag1494
ag1495
ag1496
ag1497
ag1498
ag1499
ag1500
asg1501
I1
sg1502
I100
sg1503
F0.01
sg1504
F1.0
sg1505
I00
sg1506
I01
sg1507
(lp1524
sg1509
(lp1525
g585
ag578
ag549
ag526
asg1511
I01
sg1512
g1513
sbsg1262
g0
(g1482
g2
Ntp1526
Rp1527
(dp1528
g15
I0
sg1486
g1487
sg1488
g1262
sg1489
(lp1529
g544
ag1491
ag1492
ag1493
ag1494
ag1495
ag1496
ag1497
ag1498
ag1499
ag1500
asg1501
I1
sg1502
I100
sg1503
F0.01
sg1504
F1.0
sg1505
I00
sg1506
I01
sg1507
(lp1530
g10
ag31
asg1509
(lp1531
sg1511
I01
sg1512
g1513
sbssS'loc_coor'
p1532
(dp1533
sS'steps_order'
p1534
(lp1535
g1262
ag1258
ag1260
ag1261
asS'tol'
p1536
S'3'
p1537
sS'virtual_nodes'
p1538
(dp1539
sS'virtual_node_index'
p1540
(dp1541
sS'virtual_elements'
p1542
(dp1543
sS'virtual_element_index'
p1544
(dp1545
sb.