ccopy_reg
_reconstructor
p0
(ccompas_fea.structure.structure
Structure
p1
c__builtin__
object
p2
Ntp3
Rp4
(dp5
S'constraints'
p6
(dp7
sS'displacements'
p8
(dp9
S'nset_pinned_set_disp_1'
p10
g0
(ccompas_fea.structure.displacement
GeneralDisplacement
p11
g2
Ntp12
Rp13
(dp14
S'index'
p15
I0
sS'__name__'
p16
S'GeneralDisplacement'
p17
sS'name'
p18
g10
sS'nodes'
p19
S'nset_support_wall1'
p20
sS'components'
p21
(dp22
S'z'
p23
I0
sS'xx'
p24
I0
sS'zz'
p25
I0
sS'yy'
p26
I0
sS'y'
p27
I0
sS'x'
p28
I0
ssS'axes'
p29
S'global'
p30
sbsS'nset_pinned_set_disp_2'
p31
g0
(g11
g2
Ntp32
Rp33
(dp34
g15
I1
sg16
g17
sg18
g31
sg19
S'nset_support_wall2'
p35
sg21
(dp36
g23
I0
sg24
I0
sg25
I0
sg26
I0
sg27
I0
sg28
I0
ssg29
g30
sbssS'elements'
p37
(dp38
I0
g0
(ccompas_fea.structure.element
ShellElement
p39
g2
Ntp40
Rp41
(dp42
S'mass'
p43
NsS'__name__'
p44
S'ShellElement'
p45
sS'nodes'
p46
(lp47
I0
aI1
aI3
aI2
asS'number'
p48
I0
sS'thermal'
p49
I00
sS'axes'
p50
(dp51
S'ey'
p52
NsS'ez'
p53
NsS'ex'
p54
NssS'element_property'
p55
S'elset_plate_1_element_prop'
p56
sbsI1
g0
(g39
g2
Ntp57
Rp58
(dp59
g43
Nsg44
g45
sg46
(lp60
I2
aI3
aI5
aI4
asg48
I1
sg49
I00
sg50
g51
sg55
g56
sbsI2
g0
(g39
g2
Ntp61
Rp62
(dp63
g43
Nsg44
g45
sg46
(lp64
I6
aI7
aI9
aI8
asg48
I2
sg49
I00
sg50
(dp65
g52
Nsg53
Nsg54
Nssg55
S'elset_plate_2_element_prop'
p66
sbsI3
g0
(g39
g2
Ntp67
Rp68
(dp69
g43
Nsg44
g45
sg46
(lp70
I8
aI9
aI11
aI10
asg48
I3
sg49
I00
sg50
g65
sg55
g66
sbsI4
g0
(g39
g2
Ntp71
Rp72
(dp73
g43
Nsg44
g45
sg46
(lp74
I1
aI12
aI13
aI3
asg48
I4
sg49
I00
sg50
(dp75
g52
Nsg53
Nsg54
Nssg55
S'elset_plate_3_element_prop'
p76
sbsI5
g0
(g39
g2
Ntp77
Rp78
(dp79
g43
Nsg44
g45
sg46
(lp80
I3
aI13
aI14
aI5
asg48
I5
sg49
I00
sg50
g75
sg55
g76
sbsI6
g0
(g39
g2
Ntp81
Rp82
(dp83
g43
Nsg44
g45
sg46
(lp84
I7
aI15
aI16
aI9
asg48
I6
sg49
I00
sg50
(dp85
g52
Nsg53
Nsg54
Nssg55
S'elset_plate_4_element_prop'
p86
sbsI7
g0
(g39
g2
Ntp87
Rp88
(dp89
g43
Nsg44
g45
sg46
(lp90
I9
aI16
aI17
aI11
asg48
I7
sg49
I00
sg50
g85
sg55
g86
sbsI8
g0
(g39
g2
Ntp91
Rp92
(dp93
g43
Nsg44
g45
sg46
(lp94
I12
aI18
aI19
aI13
asg48
I8
sg49
I00
sg50
(dp95
g52
Nsg53
Nsg54
Nssg55
S'elset_plate_5_element_prop'
p96
sbsI9
g0
(g39
g2
Ntp97
Rp98
(dp99
g43
Nsg44
g45
sg46
(lp100
I13
aI19
aI20
aI14
asg48
I9
sg49
I00
sg50
g95
sg55
g96
sbsI10
g0
(g39
g2
Ntp101
Rp102
(dp103
g43
Nsg44
g45
sg46
(lp104
I15
aI21
aI22
aI16
asg48
I10
sg49
I00
sg50
(dp105
g52
Nsg53
Nsg54
Nssg55
S'elset_plate_6_element_prop'
p106
sbsI11
g0
(g39
g2
Ntp107
Rp108
(dp109
g43
Nsg44
g45
sg46
(lp110
I16
aI22
aI23
aI17
asg48
I11
sg49
I00
sg50
g105
sg55
g106
sbsI12
g0
(g39
g2
Ntp111
Rp112
(dp113
g43
Nsg44
g45
sg46
(lp114
I4
aI5
aI25
aI24
asg48
I12
sg49
I00
sg50
(dp115
g52
Nsg53
Nsg54
Nssg55
S'elset_plate_7_element_prop'
p116
sbsI13
g0
(g39
g2
Ntp117
Rp118
(dp119
g43
Nsg44
g45
sg46
(lp120
I24
aI25
aI27
aI26
asg48
I13
sg49
I00
sg50
g115
sg55
g116
sbsI14
g0
(g39
g2
Ntp121
Rp122
(dp123
g43
Nsg44
g45
sg46
(lp124
I26
aI27
aI7
aI6
asg48
I14
sg49
I00
sg50
g115
sg55
g116
sbsI15
g0
(g39
g2
Ntp125
Rp126
(dp127
g43
Nsg44
g45
sg46
(lp128
I5
aI14
aI28
aI25
asg48
I15
sg49
I00
sg50
(dp129
g52
Nsg53
Nsg54
Nssg55
S'elset_plate_8_element_prop'
p130
sbsI16
g0
(g39
g2
Ntp131
Rp132
(dp133
g43
Nsg44
g45
sg46
(lp134
I25
aI28
aI29
aI27
asg48
I16
sg49
I00
sg50
g129
sg55
g130
sbsI17
g0
(g39
g2
Ntp135
Rp136
(dp137
g43
Nsg44
g45
sg46
(lp138
I27
aI29
aI15
aI7
asg48
I17
sg49
I00
sg50
g129
sg55
g130
sbsI18
g0
(g39
g2
Ntp139
Rp140
(dp141
g43
Nsg44
g45
sg46
(lp142
I14
aI20
aI30
aI28
asg48
I18
sg49
I00
sg50
(dp143
g52
Nsg53
Nsg54
Nssg55
S'elset_plate_9_element_prop'
p144
sbsI19
g0
(g39
g2
Ntp145
Rp146
(dp147
g43
Nsg44
g45
sg46
(lp148
I28
aI30
aI31
aI29
asg48
I19
sg49
I00
sg50
g143
sg55
g144
sbsI20
g0
(g39
g2
Ntp149
Rp150
(dp151
g43
Nsg44
g45
sg46
(lp152
I29
aI31
aI21
aI15
asg48
I20
sg49
I00
sg50
g143
sg55
g144
sbsI21
g0
(g39
g2
Ntp153
Rp154
(dp155
g43
Nsg44
g45
sg46
(lp156
I32
aI33
aI35
aI34
asg48
I21
sg49
I00
sg50
(dp157
g52
Nsg53
Nsg54
Nssg55
S'elset_wall_1_1_element_prop'
p158
sbsI22
g0
(g39
g2
Ntp159
Rp160
(dp161
g43
Nsg44
g45
sg46
(lp162
I33
aI36
aI37
aI35
asg48
I22
sg49
I00
sg50
(dp163
g52
Nsg53
Nsg54
Nssg55
S'elset_wall_1_2_element_prop'
p164
sbsI23
g0
(g39
g2
Ntp165
Rp166
(dp167
g43
Nsg44
g45
sg46
(lp168
I36
aI38
aI39
aI37
asg48
I23
sg49
I00
sg50
(dp169
g52
Nsg53
Nsg54
Nssg55
S'elset_wall_1_3_element_prop'
p170
sbsI24
g0
(g39
g2
Ntp171
Rp172
(dp173
g43
Nsg44
g45
sg46
(lp174
I40
aI41
aI33
aI32
asg48
I24
sg49
I00
sg50
(dp175
g52
Nsg53
Nsg54
Nssg55
S'elset_wall_1_4_element_prop'
p176
sbsI25
g0
(g39
g2
Ntp177
Rp178
(dp179
g43
Nsg44
g45
sg46
(lp180
I41
aI42
aI36
aI33
asg48
I25
sg49
I00
sg50
(dp181
g52
Nsg53
Nsg54
Nssg55
S'elset_wall_1_5_element_prop'
p182
sbsI26
g0
(g39
g2
Ntp183
Rp184
(dp185
g43
Nsg44
g45
sg46
(lp186
I42
aI43
aI38
aI36
asg48
I26
sg49
I00
sg50
(dp187
g52
Nsg53
Nsg54
Nssg55
S'elset_wall_1_6_element_prop'
p188
sbsI27
g0
(g39
g2
Ntp189
Rp190
(dp191
g43
Nsg44
g45
sg46
(lp192
I44
aI45
aI41
aI40
asg48
I27
sg49
I00
sg50
(dp193
g52
Nsg53
Nsg54
Nssg55
S'elset_wall_1_7_element_prop'
p194
sbsI28
g0
(g39
g2
Ntp195
Rp196
(dp197
g43
Nsg44
g45
sg46
(lp198
I45
aI46
aI42
aI41
asg48
I28
sg49
I00
sg50
(dp199
g52
Nsg53
Nsg54
Nssg55
S'elset_wall_1_8_element_prop'
p200
sbsI29
g0
(g39
g2
Ntp201
Rp202
(dp203
g43
Nsg44
g45
sg46
(lp204
I46
aI47
aI43
aI42
asg48
I29
sg49
I00
sg50
(dp205
g52
Nsg53
Nsg54
Nssg55
S'elset_wall_1_9_element_prop'
p206
sbsI30
g0
(g39
g2
Ntp207
Rp208
(dp209
g43
Nsg44
g45
sg46
(lp210
I48
aI50
aI51
aI49
asg48
I30
sg49
I00
sg50
(dp211
g52
Nsg53
Nsg54
Nssg55
S'elset_wall_2_1_element_prop'
p212
sbsI31
g0
(g39
g2
Ntp213
Rp214
(dp215
g43
Nsg44
g45
sg46
(lp216
I49
aI51
aI53
aI52
asg48
I31
sg49
I00
sg50
(dp217
g52
Nsg53
Nsg54
Nssg55
S'elset_wall_2_2_element_prop'
p218
sbsI32
g0
(g39
g2
Ntp219
Rp220
(dp221
g43
Nsg44
g45
sg46
(lp222
I52
aI53
aI55
aI54
asg48
I32
sg49
I00
sg50
(dp223
g52
Nsg53
Nsg54
Nssg55
S'elset_wall_2_3_element_prop'
p224
sbsI33
g0
(g39
g2
Ntp225
Rp226
(dp227
g43
Nsg44
g45
sg46
(lp228
I56
aI48
aI49
aI57
asg48
I33
sg49
I00
sg50
(dp229
g52
Nsg53
Nsg54
Nssg55
S'elset_wall_2_4_element_prop'
p230
sbsI34
g0
(g39
g2
Ntp231
Rp232
(dp233
g43
Nsg44
g45
sg46
(lp234
I57
aI49
aI52
aI58
asg48
I34
sg49
I00
sg50
(dp235
g52
Nsg53
Nsg54
Nssg55
S'elset_wall_2_5_element_prop'
p236
sbsI35
g0
(g39
g2
Ntp237
Rp238
(dp239
g43
Nsg44
g45
sg46
(lp240
I58
aI52
aI54
aI59
asg48
I35
sg49
I00
sg50
(dp241
g52
Nsg53
Nsg54
Nssg55
S'elset_wall_2_6_element_prop'
p242
sbsI36
g0
(g39
g2
Ntp243
Rp244
(dp245
g43
Nsg44
g45
sg46
(lp246
I60
aI56
aI57
aI61
asg48
I36
sg49
I00
sg50
(dp247
g52
Nsg53
Nsg54
Nssg55
S'elset_wall_2_7_element_prop'
p248
sbsI37
g0
(g39
g2
Ntp249
Rp250
(dp251
g43
Nsg44
g45
sg46
(lp252
I61
aI57
aI58
aI62
asg48
I37
sg49
I00
sg50
(dp253
g52
Nsg53
Nsg54
Nssg55
S'elset_wall_2_8_element_prop'
p254
sbsI38
g0
(g39
g2
Ntp255
Rp256
(dp257
g43
Nsg44
g45
sg46
(lp258
I62
aI58
aI59
aI63
asg48
I38
sg49
I00
sg50
(dp259
g52
Nsg53
Nsg54
Nssg55
S'elset_wall_2_9_element_prop'
p260
sbsI39
g0
(ccompas_fea.structure.element
MPCElement
p261
g2
Ntp262
Rp263
(dp264
g43
Nsg44
S'MPCElement'
p265
sg46
(lp266
I55
aI23
asg48
I39
sg49
I00
sg50
(dp267
g52
Nsg53
(lp268
F-9.0949470177292824e-13
aF0.0
aF870.52504627686665
asg54
Nssg55
S'elset_mpc_element_prop'
p269
sbsI40
g0
(g261
g2
Ntp270
Rp271
(dp272
g43
Nsg44
g265
sg46
(lp273
I53
aI17
asg48
I40
sg49
I00
sg50
(dp274
g52
Nsg53
(lp275
F-2.2737367544323206e-12
aF0.0
aF870.52504627686665
asg54
Nssg55
g269
sbsI41
g0
(g261
g2
Ntp276
Rp277
(dp278
g43
Nsg44
g265
sg46
(lp279
I51
aI11
asg48
I41
sg49
I00
sg50
(dp280
g52
Nsg53
(lp281
F3.865352482534945e-12
aF0.0
aF870.52504627686665
asg54
Nssg55
g269
sbsI42
g0
(g261
g2
Ntp282
Rp283
(dp284
g43
Nsg44
g265
sg46
(lp285
I50
aI10
asg48
I42
sg49
I00
sg50
(dp286
g52
Nsg53
(lp287
F0.0
aF0.0
aF870.52504627686665
asg54
Nssg55
g269
sbsI43
g0
(g261
g2
Ntp288
Rp289
(dp290
g43
Nsg44
g265
sg46
(lp291
I39
aI18
asg48
I43
sg49
I00
sg50
(dp292
g52
Nsg53
(lp293
F-9.0949470177292824e-13
aF0.0
aF870.52504627686665
asg54
Nssg55
g269
sbsI44
g0
(g261
g2
Ntp294
Rp295
(dp296
g43
Nsg44
g265
sg46
(lp297
I37
aI12
asg48
I44
sg49
I00
sg50
(dp298
g52
Nsg53
(lp299
F-2.2737367544323206e-12
aF0.0
aF870.52504627686665
asg54
Nssg55
g269
sbsI45
g0
(g261
g2
Ntp300
Rp301
(dp302
g43
Nsg44
g265
sg46
(lp303
I35
aI1
asg48
I45
sg49
I00
sg50
(dp304
g52
Nsg53
(lp305
F3.865352482534945e-12
aF0.0
aF870.52504627686665
asg54
Nssg55
g269
sbsI46
g0
(g261
g2
Ntp306
Rp307
(dp308
g43
Nsg44
g265
sg46
(lp309
I34
aI0
asg48
I46
sg49
I00
sg50
(dp310
g52
Nsg53
(lp311
F0.0
aF0.0
aF870.52504627686665
asg54
Nssg55
g269
sbssS'element_index'
p312
(dp313
S'2171.163,6098.142,0.000'
p314
I15
sS'3640.536,9672.914,0.000'
p315
I20
sS'3640.536,11867.720,0.000'
p316
I10
sS'723.721,3903.336,0.000'
p317
I1
sS'2171.163,7885.528,0.000'
p318
I16
sS'723.721,14469.944,0.000'
p319
I3
sS'2171.163,1301.112,0.000'
p320
I4
sS'2171.163,0.000,-3522.391'
p321
I28
sS'2171.163,15771.056,-2458.469'
p322
I34
sS'3640.536,15771.056,-3522.391'
p323
I38
sS'3640.536,15771.056,-2458.469'
p324
I35
sS'723.721,0.000,-3522.391'
p325
I27
sS'723.721,6098.142,0.000'
p326
I12
sS'723.721,0.000,-2458.469'
p327
I24
sS'2171.163,14469.944,0.000'
p328
I7
sS'2171.163,0.000,-2458.469'
p329
I25
sS'3640.536,6098.142,0.000'
p330
I18
sS'2171.163,9672.914,0.000'
p331
I17
sS'3640.536,0.000,-3522.391'
p332
I29
sS'2171.163,3903.336,0.000'
p333
I5
sS'0.000,0.000,-435.263'
p334
I46
sS'3640.536,0.000,-1394.546'
p335
I23
sS'723.721,15771.056,-2458.469'
p336
I33
sS'723.721,15771.056,-3522.391'
p337
I36
sS'2894.884,15771.056,-435.263'
p338
I40
sS'2171.163,15771.056,-3522.391'
p339
I37
sS'723.721,7885.528,0.000'
p340
I13
sS'3640.536,7885.528,0.000'
p341
I19
sS'3640.536,15771.056,-1394.546'
p342
I32
sS'2171.163,0.000,-1394.546'
p343
I22
sS'2171.163,11867.720,0.000'
p344
I6
sS'0.000,15771.056,-435.263'
p345
I42
sS'2171.163,15771.056,-1394.546'
p346
I31
sS'723.721,15771.056,-1394.546'
p347
I30
sS'3640.536,0.000,-2458.469'
p348
I26
sS'2894.884,0.000,-435.263'
p349
I44
sS'723.721,11867.720,0.000'
p350
I2
sS'3640.536,14469.944,0.000'
p351
I11
sS'3640.536,1301.112,0.000'
p352
I8
sS'1447.442,15771.056,-435.263'
p353
I41
sS'4386.188,0.000,-435.263'
p354
I43
sS'723.721,0.000,-1394.546'
p355
I21
sS'723.721,1301.112,0.000'
p356
I0
sS'723.721,9672.914,0.000'
p357
I14
sS'1447.442,0.000,-435.263'
p358
I45
sS'3640.536,3903.336,0.000'
p359
I9
sS'4386.188,15771.056,-435.263'
p360
I39
ssS'element_properties'
p361
(dp362
g230
g0
(ccompas_fea.structure.element_properties
ElementProperties
p363
g2
Ntp364
Rp365
(dp366
g15
I21
sS'__name__'
p367
S'ElementProperties'
p368
sS'name'
p369
g230
sS'material'
p370
S'wall_element_mat'
p371
sS'section'
p372
S'wall2_element_sec'
p373
sS'elset'
p374
S'elset_wall_2_4'
p375
sS'elements'
p376
NsS'rebar'
p377
(dp378
sbsg164
g0
(g363
g2
Ntp379
Rp380
(dp381
g15
I10
sg367
g368
sg369
g164
sg370
g371
sg372
S'wall1_element_sec'
p382
sg374
S'elset_wall_1_2'
p383
sg376
Nsg377
g378
sbsg200
g0
(g363
g2
Ntp384
Rp385
(dp386
g15
I16
sg367
g368
sg369
g200
sg370
g371
sg372
g382
sg374
S'elset_wall_1_8'
p387
sg376
Nsg377
g378
sbsg218
g0
(g363
g2
Ntp388
Rp389
(dp390
g15
I19
sg367
g368
sg369
g218
sg370
g371
sg372
g373
sg374
S'elset_wall_2_2'
p391
sg376
Nsg377
g378
sbsg56
g0
(g363
g2
Ntp392
Rp393
(dp394
g15
I0
sg367
g368
sg369
g56
sg370
S'plate_element_mat'
p395
sg372
S'plate_element_sec'
p396
sg374
S'elset_plate_1'
p397
sg376
Nsg377
g378
sbsg236
g0
(g363
g2
Ntp398
Rp399
(dp400
g15
I22
sg367
g368
sg369
g236
sg370
g371
sg372
g373
sg374
S'elset_wall_2_5'
p401
sg376
Nsg377
g378
sbsg144
g0
(g363
g2
Ntp402
Rp403
(dp404
g15
I8
sg367
g368
sg369
g144
sg370
g395
sg372
g396
sg374
S'elset_plate_9'
p405
sg376
Nsg377
g378
sbsg188
g0
(g363
g2
Ntp406
Rp407
(dp408
g15
I14
sg367
g368
sg369
g188
sg370
g371
sg372
g382
sg374
S'elset_wall_1_6'
p409
sg376
Nsg377
g378
sbsg96
g0
(g363
g2
Ntp410
Rp411
(dp412
g15
I4
sg367
g368
sg369
g96
sg370
g395
sg372
g396
sg374
S'elset_plate_5'
p413
sg376
Nsg377
g378
sbsg170
g0
(g363
g2
Ntp414
Rp415
(dp416
g15
I11
sg367
g368
sg369
g170
sg370
g371
sg372
g382
sg374
S'elset_wall_1_3'
p417
sg376
Nsg377
g378
sbsg76
g0
(g363
g2
Ntp418
Rp419
(dp420
g15
I2
sg367
g368
sg369
g76
sg370
g395
sg372
g396
sg374
S'elset_plate_3'
p421
sg376
Nsg377
g378
sbsg224
g0
(g363
g2
Ntp422
Rp423
(dp424
g15
I20
sg367
g368
sg369
g224
sg370
g371
sg372
g373
sg374
S'elset_wall_2_3'
p425
sg376
Nsg377
g378
sbsg242
g0
(g363
g2
Ntp426
Rp427
(dp428
g15
I23
sg367
g368
sg369
g242
sg370
g371
sg372
g373
sg374
S'elset_wall_2_6'
p429
sg376
Nsg377
g378
sbsg176
g0
(g363
g2
Ntp430
Rp431
(dp432
g15
I12
sg367
g368
sg369
g176
sg370
g371
sg372
g382
sg374
S'elset_wall_1_4'
p433
sg376
Nsg377
g378
sbsg206
g0
(g363
g2
Ntp434
Rp435
(dp436
g15
I17
sg367
g368
sg369
g206
sg370
g371
sg372
g382
sg374
S'elset_wall_1_9'
p437
sg376
Nsg377
g378
sbsg130
g0
(g363
g2
Ntp438
Rp439
(dp440
g15
I7
sg367
g368
sg369
g130
sg370
g395
sg372
g396
sg374
S'elset_plate_8'
p441
sg376
Nsg377
g378
sbsg158
g0
(g363
g2
Ntp442
Rp443
(dp444
g15
I9
sg367
g368
sg369
g158
sg370
g371
sg372
g382
sg374
S'elset_wall_1_1'
p445
sg376
Nsg377
g378
sbsg116
g0
(g363
g2
Ntp446
Rp447
(dp448
g15
I6
sg367
g368
sg369
g116
sg370
g395
sg372
g396
sg374
S'elset_plate_7'
p449
sg376
Nsg377
g378
sbsg254
g0
(g363
g2
Ntp450
Rp451
(dp452
g15
I25
sg367
g368
sg369
g254
sg370
g371
sg372
g373
sg374
S'elset_wall_2_8'
p453
sg376
Nsg377
g378
sbsg86
g0
(g363
g2
Ntp454
Rp455
(dp456
g15
I3
sg367
g368
sg369
g86
sg370
g395
sg372
g396
sg374
S'elset_plate_4'
p457
sg376
Nsg377
g378
sbsg66
g0
(g363
g2
Ntp458
Rp459
(dp460
g15
I1
sg367
g368
sg369
g66
sg370
g395
sg372
g396
sg374
S'elset_plate_2'
p461
sg376
Nsg377
g378
sbsg269
g0
(g363
g2
Ntp462
Rp463
(dp464
g15
I27
sg367
g368
sg369
g269
sg370
S'elset_mpc_element_mat'
p465
sg372
S'sec_mpc'
p466
sg374
S'elset_mpcs'
p467
sg376
Nsg377
g378
sbsg194
g0
(g363
g2
Ntp468
Rp469
(dp470
g15
I15
sg367
g368
sg369
g194
sg370
g371
sg372
g382
sg374
S'elset_wall_1_7'
p471
sg376
Nsg377
g378
sbsg248
g0
(g363
g2
Ntp472
Rp473
(dp474
g15
I24
sg367
g368
sg369
g248
sg370
g371
sg372
g373
sg374
S'elset_wall_2_7'
p475
sg376
Nsg377
g378
sbsg260
g0
(g363
g2
Ntp476
Rp477
(dp478
g15
I26
sg367
g368
sg369
g260
sg370
g371
sg372
g373
sg374
S'elset_wall_2_9'
p479
sg376
Nsg377
g378
sbsg212
g0
(g363
g2
Ntp480
Rp481
(dp482
g15
I18
sg367
g368
sg369
g212
sg370
g371
sg372
g373
sg374
S'elset_wall_2_1'
p483
sg376
Nsg377
g378
sbsg106
g0
(g363
g2
Ntp484
Rp485
(dp486
g15
I5
sg367
g368
sg369
g106
sg370
g395
sg372
g396
sg374
S'elset_plate_6'
p487
sg376
Nsg377
g378
sbsg182
g0
(g363
g2
Ntp488
Rp489
(dp490
g15
I13
sg367
g368
sg369
g182
sg370
g371
sg372
g382
sg374
S'elset_wall_1_5'
p491
sg376
Nsg377
g378
sbssS'interactions'
p492
(dp493
sS'loads'
p494
(dp495
S'Gleis1_BAHNLASTEN_Lasteinzugsflache_Lastblock_-3'
p496
g0
(ccompas_fea.structure.load
AreaLoad
p497
g2
Ntp498
Rp499
(dp500
g15
I5
sS'__name__'
p501
S'AreaLoad'
p502
sS'name'
p503
g496
sS'axes'
p504
S'global'
p505
sS'components'
p506
(dp507
g23
F0.06917594404815923
sg27
I0
sg28
I0
ssS'nodes'
p508
(lp509
sS'elements'
p510
(lp511
I5
aI9
asS'attr_list'
p512
(lp513
S'name'
p514
aS'axes'
p515
aS'components'
p516
aS'nodes'
p517
aS'elements'
p518
asbsS'earthPressure_liveLoad'
p519
g0
(g497
g2
Ntp520
Rp521
(dp522
g15
I6
sg501
g502
sg503
g519
sg504
S'local'
p523
sg506
(dp524
g23
F0.037699999999999997
sg27
I0
sg28
I0
ssg508
g509
sg510
(lp525
I22
aI23
aI25
aI26
aI28
aI29
asg512
(lp526
g514
ag515
ag516
ag517
ag518
asbsS'Gleis1_BAHNLASTEN_Lasteinzugsflache_Lastblock_-2'
p527
g0
(g497
g2
Ntp528
Rp529
(dp530
g15
I4
sg501
g502
sg503
g527
sg504
g505
sg506
(dp531
g23
F0.06917594404815923
sg27
I0
sg28
I0
ssg508
g509
sg510
(lp532
I6
aI10
asg512
(lp533
g514
ag515
ag516
ag517
ag518
asbsS'Gleis1_EIGENGEWICHTE_SCHIENE_Lasteinzugsflache'
p534
g0
(g497
g2
Ntp535
Rp536
(dp537
g15
I3
sg501
g502
sg503
g534
sg504
g505
sg506
(dp538
g23
F0.0022671342763795942
sg27
I0
sg28
I0
ssg508
g509
sg510
(lp539
I1
aI5
aI6
aI9
aI10
asg512
(lp540
g514
ag515
ag516
ag517
ag518
asbsS'earthPressure_backfill'
p541
g0
(g497
g2
Ntp542
Rp543
(dp544
g15
I2
sg501
g502
sg503
g541
sg504
g523
sg506
(dp545
g23
F0.052000388017810713
sg27
I0
sg28
I0
ssg508
g509
sg510
(lp546
g445
ag383
ag417
ag433
ag491
ag409
ag471
ag387
ag437
ag483
ag391
ag425
ag375
ag401
ag429
ag475
ag453
ag479
asg512
(lp547
g514
ag515
ag516
ag517
ag518
asbsS'earthPressure_gravel'
p548
g0
(g497
g2
Ntp549
Rp550
(dp551
g15
I1
sg501
g502
sg503
g548
sg504
g505
sg506
(dp552
g23
F0.013500000000000002
sg27
I0
sg28
I0
ssg508
g509
sg510
(lp553
g397
ag461
ag421
ag457
ag413
ag487
ag449
ag441
ag405
asg512
(lp554
g514
ag515
ag516
ag517
ag518
asbsS'load_gravity'
p555
g0
(ccompas_fea.structure.load
GravityLoad
p556
g2
Ntp557
Rp558
(dp559
g15
I0
sg501
S'GravityLoad'
p560
sg503
g555
sg504
g505
sg506
(dp561
g23
F1.3500000000000001
sg27
F0.0
sg28
F0.0
ssg508
g509
sg510
(lp562
g397
ag461
ag421
ag457
ag413
ag487
ag449
ag441
ag405
ag445
ag383
ag417
ag433
ag491
ag409
ag471
ag387
ag437
ag483
ag391
ag425
ag375
ag401
ag429
ag475
ag453
ag479
asg512
(lp563
g514
ag515
ag516
ag517
ag518
aS'g'
p564
asS'g'
p565
F-9.8100000000000005
sbssS'materials'
p566
(dp567
g465
g0
(ccompas_fea.structure.material
MPCStiff
p568
g2
Ntp569
Rp570
(dp571
g15
I2
sS'__name__'
p572
S'MPCStiff'
p573
sS'name'
p574
g465
sS'attr_list'
p575
(lp576
g514
aS'E'
p577
aS'v'
p578
aS'G'
p579
aS'p'
p580
aS'tension'
p581
aS'compression'
p582
asS'E'
p583
(dp584
g577
L10000000000000L
ssS'v'
p585
(dp586
g578
F0.29999999999999999
ssS'G'
p587
(dp588
g579
F3846153846153.8462
ssS'p'
p589
F0.10000000000000001
sS'tension'
p590
I01
sS'compression'
p591
I01
sbsg371
g0
(ccompas_fea.structure.material
CMMUsermat
p592
g2
Ntp593
Rp594
(dp595
g15
I1
sg572
S'CMMUsermat'
p596
sg574
g371
sg575
(lp597
g514
ag577
ag578
ag579
ag580
aS'R_Rohr'
p598
aS'rho'
p599
aS'oo'
p600
aS'uu'
p601
aS'beton'
p602
aS'fcc'
p603
aS'vc'
p604
aS'ecu'
p605
aS'k_E'
p606
aS'theta_b0'
p607
aS'theta_b1'
p608
aS'k_riss'
p609
aS'Entfestigung'
p610
aS'lambdaTS'
p611
aS'srmx'
p612
aS'srmy'
p613
aS'Begrenzung'
p614
aS'KritQ'
p615
aS'winkelD'
p616
aS'k_vr'
p617
aS'fswy'
p618
aS'stahl1'
p619
aS'zm1'
p620
aS'fsy1'
p621
aS'fsu1'
p622
aS'esu1'
p623
aS'esv1'
p624
aS'Es1'
p625
aS'ka1'
p626
aS'kb1'
p627
aS'kc1'
p628
aS'as1'
p629
aS'dm1'
p630
aS'psi1'
p631
aS'stahl2'
p632
aS'zm2'
p633
aS'fsy2'
p634
aS'fsu2'
p635
aS'esu2'
p636
aS'esv2'
p637
aS'Es2'
p638
aS'ka2'
p639
aS'kb2'
p640
aS'kc2'
p641
aS'as2'
p642
aS'dm2'
p643
aS'psi2'
p644
aS'stahl3'
p645
aS'zm3'
p646
aS'fsy3'
p647
aS'fsu3'
p648
aS'esu3'
p649
aS'esv3'
p650
aS'Es3'
p651
aS'ka3'
p652
aS'kb3'
p653
aS'kc3'
p654
aS'as3'
p655
aS'dm3'
p656
aS'psi3'
p657
aS'stahl4'
p658
aS'zm4'
p659
aS'fsy4'
p660
aS'fsu4'
p661
aS'esu4'
p662
aS'esv4'
p663
aS'Es4'
p664
aS'ka4'
p665
aS'kb4'
p666
aS'kc4'
p667
aS'as4'
p668
aS'dm4'
p669
aS'psi4'
p670
asS'E'
p671
(dp672
S'E'
p673
I200000
ssS'v'
p674
(dp675
S'v'
p676
F0.10000000000000001
ssS'G'
p677
(dp678
g579
F90909.090909090897
ssS'p'
p679
F2.5000000000000002e-06
sS'R_Rohr'
p680
(dp681
g598
I-1
ssS'rho'
p682
(dp683
g599
F2.5000000000000002e-06
ssS'oo'
p684
(dp685
g600
I30
ssS'uu'
p686
(dp687
g601
I30
ssS'beton'
p688
(dp689
g602
I2
ssS'fcc'
p690
(dp691
g603
I27
ssS'vc'
p692
(dp693
g604
I0
ssS'ecu'
p694
(dp695
g605
F-0.002
ssS'k_E'
p696
(dp697
g606
I10000
ssS'theta_b0'
p698
(dp699
g607
I2
ssS'theta_b1'
p700
(dp701
g608
I1
ssS'k_riss'
p702
(dp703
g609
I0
ssS'Entfestigung'
p704
(dp705
g610
I0
ssS'lambdaTS'
p706
(dp707
g611
F0.67000000000000004
ssS'srmx'
p708
(dp709
g612
I1
ssS'srmy'
p710
(dp711
g613
I1
ssS'Begrenzung'
p712
(dp713
g614
I2
ssS'KritQ'
p714
(dp715
g615
I0
ssS'winkelD'
p716
(dp717
g616
I45
ssS'k_vr'
p718
(dp719
g617
I1
ssS'fswy'
p720
(dp721
g618
I500
ssS'stahl1'
p722
(dp723
g619
I1
ssS'zm1'
p724
(dp725
g620
I2
ssS'fsy1'
p726
(dp727
g621
I309
ssS'fsu1'
p728
(dp729
g622
I334
ssS'esu1'
p730
(dp731
g623
F0.044999999999999998
ssS'esv1'
p732
(dp733
g624
F0.02
ssS'Es1'
p734
(dp735
g625
I200000
ssS'ka1'
p736
(dp737
g626
I-1
ssS'kb1'
p738
(dp739
g627
I-1
ssS'kc1'
p740
(dp741
g628
I-1
ssS'as1'
p742
(dp743
g629
F0.73916762553270854
ssS'dm1'
p744
(dp745
g630
F20.998888516455828
ssS'psi1'
p746
(dp747
g631
I90
ssS'stahl2'
p748
(dp749
g632
I1
ssS'zm2'
p750
(dp751
g633
I2
ssS'fsy2'
p752
(dp753
g634
I309
ssS'fsu2'
p754
(dp755
g635
I334
ssS'esu2'
p756
(dp757
g636
F0.044999999999999998
ssS'esv2'
p758
(dp759
g637
F0.02
ssS'Es2'
p760
(dp761
g638
I200000
ssS'ka2'
p762
(dp763
g639
I-1
ssS'kb2'
p764
(dp765
g640
I-1
ssS'kc2'
p766
(dp767
g641
I-1
ssS'as2'
p768
(dp769
g642
F0.24138640873784228
ssS'dm2'
p770
(dp771
g643
F12.0
ssS'psi2'
p772
(dp773
g644
I0
ssS'stahl3'
p774
(dp775
g645
I1
ssS'zm3'
p776
(dp777
g646
I2
ssS'fsy3'
p778
(dp779
g647
I309
ssS'fsu3'
p780
(dp781
g648
I334
ssS'esu3'
p782
(dp783
g649
F0.044999999999999998
ssS'esv3'
p784
(dp785
g650
F0.02
ssS'Es3'
p786
(dp787
g651
I200000
ssS'ka3'
p788
(dp789
g652
I-1
ssS'kb3'
p790
(dp791
g653
I-1
ssS'kc3'
p792
(dp793
g654
I-1
ssS'as3'
p794
(dp795
g655
F0.24138640873784228
ssS'dm3'
p796
(dp797
g656
F12.0
ssS'psi3'
p798
(dp799
g657
I0
ssS'stahl4'
p800
(dp801
g658
I1
ssS'zm4'
p802
(dp803
g659
I2
ssS'fsy4'
p804
(dp805
g660
I309
ssS'fsu4'
p806
(dp807
g661
I334
ssS'esu4'
p808
(dp809
g662
F0.044999999999999998
ssS'esv4'
p810
(dp811
g663
F0.02
ssS'Es4'
p812
(dp813
g664
I200000
ssS'ka4'
p814
(dp815
g665
I-1
ssS'kb4'
p816
(dp817
g666
I-1
ssS'kc4'
p818
(dp819
g667
I-1
ssS'as4'
p820
(dp821
g668
F1.0197855952251516
ssS'dm4'
p822
(dp823
g669
F24.66489527733345
ssS'psi4'
p824
(dp825
g670
I90
ssbsg395
g0
(g592
g2
Ntp826
Rp827
(dp828
g15
I0
sg572
g596
sg574
g395
sg575
(lp829
g514
ag577
ag578
ag579
ag580
ag598
ag599
ag600
ag601
ag602
ag603
ag604
ag605
ag606
ag607
ag608
ag609
ag610
ag611
ag612
ag613
ag614
ag615
ag616
ag617
ag618
ag619
ag620
ag621
ag622
ag623
ag624
ag625
ag626
ag627
ag628
ag629
ag630
ag631
ag632
ag633
ag634
ag635
ag636
ag637
ag638
ag639
ag640
ag641
ag642
ag643
ag644
ag645
ag646
ag647
ag648
ag649
ag650
ag651
ag652
ag653
ag654
ag655
ag656
ag657
ag658
ag659
ag660
ag661
ag662
ag663
ag664
ag665
ag666
ag667
ag668
ag669
ag670
asg671
(dp830
g673
I200000
ssg674
(dp831
g676
F0.10000000000000001
ssg677
(dp832
g579
F90909.090909090897
ssg679
F2.5000000000000002e-06
sg680
(dp833
g598
I-1
ssg682
(dp834
g599
F2.5000000000000002e-06
ssg684
(dp835
g600
I30
ssg686
(dp836
g601
I30
ssg688
(dp837
g602
I2
ssg690
(dp838
g603
I27
ssg692
(dp839
g604
I0
ssg694
(dp840
g605
F-0.002
ssg696
(dp841
g606
I10000
ssg698
(dp842
g607
I2
ssg700
(dp843
g608
I1
ssg702
(dp844
g609
I0
ssg704
(dp845
g610
I0
ssg706
(dp846
g611
F0.67000000000000004
ssg708
(dp847
g612
I1
ssg710
(dp848
g613
I1
ssg712
(dp849
g614
I2
ssg714
(dp850
g615
I0
ssg716
(dp851
g616
I45
ssg718
(dp852
g617
I1
ssg720
(dp853
g618
I500
ssg722
(dp854
g619
I1
ssg724
(dp855
g620
I2
ssg726
(dp856
g621
I309
ssg728
(dp857
g622
I334
ssg730
(dp858
g623
F0.044999999999999998
ssg732
(dp859
g624
F0.02
ssg734
(dp860
g625
I200000
ssg736
(dp861
g626
I-1
ssg738
(dp862
g627
I-1
ssg740
(dp863
g628
I-1
ssg742
(dp864
g629
F0.49628667286676881
ssg744
(dp865
g630
F17.346812373874535
ssg746
(dp866
g631
I90
ssg748
(dp867
g632
I1
ssg750
(dp868
g633
I2
ssg752
(dp869
g634
I309
ssg754
(dp870
g635
I334
ssg756
(dp871
g636
F0.044999999999999998
ssg758
(dp872
g637
F0.02
ssg760
(dp873
g638
I200000
ssg762
(dp874
g639
I-1
ssg764
(dp875
g640
I-1
ssg766
(dp876
g641
I-1
ssg768
(dp877
g642
F0.89962787317161919
ssg770
(dp878
g643
F23.355266432245784
ssg772
(dp879
g644
I0
ssg774
(dp880
g645
I1
ssg776
(dp881
g646
I2
ssg778
(dp882
g647
I309
ssg780
(dp883
g648
I334
ssg782
(dp884
g649
F0.044999999999999998
ssg784
(dp885
g650
F0.02
ssg786
(dp886
g651
I200000
ssg788
(dp887
g652
I-1
ssg790
(dp888
g653
I-1
ssg792
(dp889
g654
I-1
ssg794
(dp890
g655
F0.23749569559525929
ssg796
(dp891
g656
F12.0
ssg798
(dp892
g657
I0
ssg800
(dp893
g658
I1
ssg802
(dp894
g659
I2
ssg804
(dp895
g660
I309
ssg806
(dp896
g661
I334
ssg808
(dp897
g662
F0.044999999999999998
ssg810
(dp898
g663
F0.02
ssg812
(dp899
g664
I200000
ssg814
(dp900
g665
I-1
ssg816
(dp901
g666
I-1
ssg818
(dp902
g667
I-1
ssg820
(dp903
g668
F0.7282766501779333
ssg822
(dp904
g669
F21.013653540122377
ssg824
(dp905
g670
I90
ssbssS'misc'
p906
(dp907
sS'name'
p908
S'NLFE_CFB5'
p909
sS'nodes'
p910
(dp911
I0
g0
(ccompas_fea.structure.node
Node
p912
g2
Ntp913
Rp914
(dp915
S'__name__'
p916
S'Node'
p917
sS'key'
p918
I0
sS'x'
p919
F0.0
sS'y'
p920
F0.0
sS'z'
p921
F0.0
sS'ex'
p922
(lp923
I1
aI0
aI0
asS'ey'
p924
(lp925
I0
aI1
aI0
asS'ez'
p926
(lp927
I0
aI0
aI1
asS'mass'
p928
NsbsI1
g0
(g912
g2
Ntp929
Rp930
(dp931
g916
g917
sg918
I1
sg919
F1447.4420588135438
sg920
F0.0
sg921
F0.0
sg922
g923
sg924
g925
sg926
g927
sg928
NsbsI2
g0
(g912
g2
Ntp932
Rp933
(dp934
g916
g917
sg918
I2
sg919
F0.0
sg920
F2602.2242487925246
sg921
F0.0
sg922
g923
sg924
g925
sg926
g927
sg928
NsbsI3
g0
(g912
g2
Ntp935
Rp936
(dp937
g916
g917
sg918
I3
sg919
F1447.4420588135438
sg920
F2602.2242487925246
sg921
F0.0
sg922
g923
sg924
g925
sg926
g927
sg928
NsbsI4
g0
(g912
g2
Ntp938
Rp939
(dp940
g916
g917
sg918
I4
sg919
F0.0
sg920
F5204.4484975850492
sg921
F0.0
sg922
g923
sg924
g925
sg926
g927
sg928
NsbsI5
g0
(g912
g2
Ntp941
Rp942
(dp943
g916
g917
sg918
I5
sg919
F1447.4420588135438
sg920
F5204.4484975850492
sg921
F0.0
sg922
g923
sg924
g925
sg926
g927
sg928
NsbsI6
g0
(g912
g2
Ntp944
Rp945
(dp946
g916
g917
sg918
I6
sg919
F0.0
sg920
F10566.60755570298
sg921
F0.0
sg922
g923
sg924
g925
sg926
g927
sg928
NsbsI7
g0
(g912
g2
Ntp947
Rp948
(dp949
g916
g917
sg918
I7
sg919
F1447.4420588135438
sg920
F10566.60755570298
sg921
F0.0
sg922
g923
sg924
g925
sg926
g927
sg928
NsbsI8
g0
(g912
g2
Ntp950
Rp951
(dp952
g916
g917
sg918
I8
sg919
F0.0
sg920
F13168.831804495505
sg921
F0.0
sg922
g923
sg924
g925
sg926
g927
sg928
NsbsI9
g0
(g912
g2
Ntp953
Rp954
(dp955
g916
g917
sg918
I9
sg919
F1447.4420588135438
sg920
F13168.831804495505
sg921
F0.0
sg922
g923
sg924
g925
sg926
g927
sg928
NsbsI10
g0
(g912
g2
Ntp956
Rp957
(dp958
g916
g917
sg918
I10
sg919
F0.0
sg920
F15771.056053288028
sg921
F0.0
sg922
g923
sg924
g925
sg926
g927
sg928
NsbsI11
g0
(g912
g2
Ntp959
Rp960
(dp961
g916
g917
sg918
I11
sg919
F1447.4420588135438
sg920
F15771.056053288028
sg921
F0.0
sg922
g923
sg924
g925
sg926
g927
sg928
NsbsI12
g0
(g912
g2
Ntp962
Rp963
(dp964
g916
g917
sg918
I12
sg919
F2894.8841176270876
sg920
F0.0
sg921
F0.0
sg922
g923
sg924
g925
sg926
g927
sg928
NsbsI13
g0
(g912
g2
Ntp965
Rp966
(dp967
g916
g917
sg918
I13
sg919
F2894.8841176270876
sg920
F2602.2242487925246
sg921
F0.0
sg922
g923
sg924
g925
sg926
g927
sg928
NsbsI14
g0
(g912
g2
Ntp968
Rp969
(dp970
g916
g917
sg918
I14
sg919
F2894.8841176270876
sg920
F5204.4484975850492
sg921
F0.0
sg922
g923
sg924
g925
sg926
g927
sg928
NsbsI15
g0
(g912
g2
Ntp971
Rp972
(dp973
g916
g917
sg918
I15
sg919
F2894.8841176270876
sg920
F10566.60755570298
sg921
F0.0
sg922
g923
sg924
g925
sg926
g927
sg928
NsbsI16
g0
(g912
g2
Ntp974
Rp975
(dp976
g916
g917
sg918
I16
sg919
F2894.8841176270876
sg920
F13168.831804495505
sg921
F0.0
sg922
g923
sg924
g925
sg926
g927
sg928
NsbsI17
g0
(g912
g2
Ntp977
Rp978
(dp979
g916
g917
sg918
I17
sg919
F2894.8841176270876
sg920
F15771.056053288028
sg921
F0.0
sg922
g923
sg924
g925
sg926
g927
sg928
NsbsI18
g0
(g912
g2
Ntp980
Rp981
(dp982
g916
g917
sg918
I18
sg919
F4386.1880570107387
sg920
F0.0
sg921
F0.0
sg922
g923
sg924
g925
sg926
g927
sg928
NsbsI19
g0
(g912
g2
Ntp983
Rp984
(dp985
g916
g917
sg918
I19
sg919
F4386.1880570107387
sg920
F2602.2242487925246
sg921
F0.0
sg922
g923
sg924
g925
sg926
g927
sg928
NsbsI20
g0
(g912
g2
Ntp986
Rp987
(dp988
g916
g917
sg918
I20
sg919
F4386.1880570107387
sg920
F5204.4484975850492
sg921
F0.0
sg922
g923
sg924
g925
sg926
g927
sg928
NsbsI21
g0
(g912
g2
Ntp989
Rp990
(dp991
g916
g917
sg918
I21
sg919
F4386.1880570107387
sg920
F10566.60755570298
sg921
F0.0
sg922
g923
sg924
g925
sg926
g927
sg928
NsbsI22
g0
(g912
g2
Ntp992
Rp993
(dp994
g916
g917
sg918
I22
sg919
F4386.1880570107387
sg920
F13168.831804495505
sg921
F0.0
sg922
g923
sg924
g925
sg926
g927
sg928
NsbsI23
g0
(g912
g2
Ntp995
Rp996
(dp997
g916
g917
sg918
I23
sg919
F4386.1880570107387
sg920
F15771.056053288028
sg921
F0.0
sg922
g923
sg924
g925
sg926
g927
sg928
NsbsI24
g0
(g912
g2
Ntp998
Rp999
(dp1000
g916
g917
sg918
I24
sg919
F0.0
sg920
F6991.8348502910267
sg921
F0.0
sg922
g923
sg924
g925
sg926
g927
sg928
NsbsI25
g0
(g912
g2
Ntp1001
Rp1002
(dp1003
g916
g917
sg918
I25
sg919
F1447.4420588135438
sg920
F6991.8348502910267
sg921
F0.0
sg922
g923
sg924
g925
sg926
g927
sg928
NsbsI26
g0
(g912
g2
Ntp1004
Rp1005
(dp1006
g916
g917
sg918
I26
sg919
F0.0
sg920
F8779.2212029970033
sg921
F0.0
sg922
g923
sg924
g925
sg926
g927
sg928
NsbsI27
g0
(g912
g2
Ntp1007
Rp1008
(dp1009
g916
g917
sg918
I27
sg919
F1447.4420588135438
sg920
F8779.2212029970033
sg921
F0.0
sg922
g923
sg924
g925
sg926
g927
sg928
NsbsI28
g0
(g912
g2
Ntp1010
Rp1011
(dp1012
g916
g917
sg918
I28
sg919
F2894.8841176270876
sg920
F6991.8348502910267
sg921
F0.0
sg922
g923
sg924
g925
sg926
g927
sg928
NsbsI29
g0
(g912
g2
Ntp1013
Rp1014
(dp1015
g916
g917
sg918
I29
sg919
F2894.8841176270876
sg920
F8779.2212029970033
sg921
F0.0
sg922
g923
sg924
g925
sg926
g927
sg928
NsbsI30
g0
(g912
g2
Ntp1016
Rp1017
(dp1018
g916
g917
sg918
I30
sg919
F4386.1880570107387
sg920
F6991.8348502910267
sg921
F0.0
sg922
g923
sg924
g925
sg926
g927
sg928
NsbsI31
g0
(g912
g2
Ntp1019
Rp1020
(dp1021
g916
g917
sg918
I31
sg919
F4386.1880570107387
sg920
F8779.2212029970033
sg921
F0.0
sg922
g923
sg924
g925
sg926
g927
sg928
NsbsI32
g0
(g912
g2
Ntp1022
Rp1023
(dp1024
g916
g917
sg918
I32
sg919
F0.0
sg920
F0.0
sg921
F-1918.5678207427036
sg922
g923
sg924
g925
sg926
g927
sg928
NsbsI33
g0
(g912
g2
Ntp1025
Rp1026
(dp1027
g916
g917
sg918
I33
sg919
F1447.4420588135399
sg920
F0.0
sg921
F-1918.5678207427036
sg922
g923
sg924
g925
sg926
g927
sg928
NsbsI34
g0
(g912
g2
Ntp1028
Rp1029
(dp1030
g916
g917
sg918
I34
sg919
F0.0
sg920
F0.0
sg921
F-870.52504627686665
sg922
g923
sg924
g925
sg926
g927
sg928
NsbsI35
g0
(g912
g2
Ntp1031
Rp1032
(dp1033
g916
g917
sg918
I35
sg919
F1447.4420588135399
sg920
F0.0
sg921
F-870.52504627686665
sg922
g923
sg924
g925
sg926
g927
sg928
NsbsI36
g0
(g912
g2
Ntp1034
Rp1035
(dp1036
g916
g917
sg918
I36
sg919
F2894.8841176270898
sg920
F0.0
sg921
F-1918.5678207427036
sg922
g923
sg924
g925
sg926
g927
sg928
NsbsI37
g0
(g912
g2
Ntp1037
Rp1038
(dp1039
g916
g917
sg918
I37
sg919
F2894.8841176270898
sg920
F0.0
sg921
F-870.52504627686665
sg922
g923
sg924
g925
sg926
g927
sg928
NsbsI38
g0
(g912
g2
Ntp1040
Rp1041
(dp1042
g916
g917
sg918
I38
sg919
F4386.1880570107396
sg920
F0.0
sg921
F-1918.5678207427036
sg922
g923
sg924
g925
sg926
g927
sg928
NsbsI39
g0
(g912
g2
Ntp1043
Rp1044
(dp1045
g916
g917
sg918
I39
sg919
F4386.1880570107396
sg920
F0.0
sg921
F-870.52504627686665
sg922
g923
sg924
g925
sg926
g927
sg928
NsbsI40
g0
(g912
g2
Ntp1046
Rp1047
(dp1048
g916
g917
sg918
I40
sg919
F0.0
sg920
F0.0
sg921
F-2998.3694671620515
sg922
g923
sg924
g925
sg926
g927
sg928
NsbsI41
g0
(g912
g2
Ntp1049
Rp1050
(dp1051
g916
g917
sg918
I41
sg919
F1447.4420588135399
sg920
F0.0
sg921
F-2998.3694671620515
sg922
g923
sg924
g925
sg926
g927
sg928
NsbsI42
g0
(g912
g2
Ntp1052
Rp1053
(dp1054
g916
g917
sg918
I42
sg919
F2894.8841176270898
sg920
F0.0
sg921
F-2998.3694671620515
sg922
g923
sg924
g925
sg926
g927
sg928
NsbsI43
g0
(g912
g2
Ntp1055
Rp1056
(dp1057
g916
g917
sg918
I43
sg919
F4386.1880570107396
sg920
F0.0
sg921
F-2998.3694671620515
sg922
g923
sg924
g925
sg926
g927
sg928
NsbsI44
g0
(g912
g2
Ntp1058
Rp1059
(dp1060
g916
g917
sg918
I44
sg919
F0.0
sg920
F0.0
sg921
F-4046.4122416278883
sg922
g923
sg924
g925
sg926
g927
sg928
NsbsI45
g0
(g912
g2
Ntp1061
Rp1062
(dp1063
g916
g917
sg918
I45
sg919
F1447.4420588135399
sg920
F0.0
sg921
F-4046.4122416278883
sg922
g923
sg924
g925
sg926
g927
sg928
NsbsI46
g0
(g912
g2
Ntp1064
Rp1065
(dp1066
g916
g917
sg918
I46
sg919
F2894.8841176270898
sg920
F0.0
sg921
F-4046.4122416278883
sg922
g923
sg924
g925
sg926
g927
sg928
NsbsI47
g0
(g912
g2
Ntp1067
Rp1068
(dp1069
g916
g917
sg918
I47
sg919
F4386.1880570107396
sg920
F0.0
sg921
F-4046.4122416278883
sg922
g923
sg924
g925
sg926
g927
sg928
NsbsI48
g0
(g912
g2
Ntp1070
Rp1071
(dp1072
g916
g917
sg918
I48
sg919
F0.0
sg920
F15771.056053288028
sg921
F-1918.5678207427036
sg922
g923
sg924
g925
sg926
g927
sg928
NsbsI49
g0
(g912
g2
Ntp1073
Rp1074
(dp1075
g916
g917
sg918
I49
sg919
F1447.4420588135399
sg920
F15771.056053288028
sg921
F-1918.5678207427036
sg922
g923
sg924
g925
sg926
g927
sg928
NsbsI50
g0
(g912
g2
Ntp1076
Rp1077
(dp1078
g916
g917
sg918
I50
sg919
F0.0
sg920
F15771.056053288028
sg921
F-870.52504627686665
sg922
g923
sg924
g925
sg926
g927
sg928
NsbsI51
g0
(g912
g2
Ntp1079
Rp1080
(dp1081
g916
g917
sg918
I51
sg919
F1447.4420588135399
sg920
F15771.056053288028
sg921
F-870.52504627686665
sg922
g923
sg924
g925
sg926
g927
sg928
NsbsI52
g0
(g912
g2
Ntp1082
Rp1083
(dp1084
g916
g917
sg918
I52
sg919
F2894.8841176270898
sg920
F15771.056053288028
sg921
F-1918.5678207427036
sg922
g923
sg924
g925
sg926
g927
sg928
NsbsI53
g0
(g912
g2
Ntp1085
Rp1086
(dp1087
g916
g917
sg918
I53
sg919
F2894.8841176270898
sg920
F15771.056053288028
sg921
F-870.52504627686665
sg922
g923
sg924
g925
sg926
g927
sg928
NsbsI54
g0
(g912
g2
Ntp1088
Rp1089
(dp1090
g916
g917
sg918
I54
sg919
F4386.1880570107396
sg920
F15771.056053288028
sg921
F-1918.5678207427036
sg922
g923
sg924
g925
sg926
g927
sg928
NsbsI55
g0
(g912
g2
Ntp1091
Rp1092
(dp1093
g916
g917
sg918
I55
sg919
F4386.1880570107396
sg920
F15771.056053288028
sg921
F-870.52504627686665
sg922
g923
sg924
g925
sg926
g927
sg928
NsbsI56
g0
(g912
g2
Ntp1094
Rp1095
(dp1096
g916
g917
sg918
I56
sg919
F0.0
sg920
F15771.056053288028
sg921
F-2998.3694671620515
sg922
g923
sg924
g925
sg926
g927
sg928
NsbsI57
g0
(g912
g2
Ntp1097
Rp1098
(dp1099
g916
g917
sg918
I57
sg919
F1447.4420588135399
sg920
F15771.056053288028
sg921
F-2998.3694671620515
sg922
g923
sg924
g925
sg926
g927
sg928
NsbsI58
g0
(g912
g2
Ntp1100
Rp1101
(dp1102
g916
g917
sg918
I58
sg919
F2894.8841176270898
sg920
F15771.056053288028
sg921
F-2998.3694671620515
sg922
g923
sg924
g925
sg926
g927
sg928
NsbsI59
g0
(g912
g2
Ntp1103
Rp1104
(dp1105
g916
g917
sg918
I59
sg919
F4386.1880570107396
sg920
F15771.056053288028
sg921
F-2998.3694671620515
sg922
g923
sg924
g925
sg926
g927
sg928
NsbsI60
g0
(g912
g2
Ntp1106
Rp1107
(dp1108
g916
g917
sg918
I60
sg919
F0.0
sg920
F15771.056053288028
sg921
F-4046.4122416278883
sg922
g923
sg924
g925
sg926
g927
sg928
NsbsI61
g0
(g912
g2
Ntp1109
Rp1110
(dp1111
g916
g917
sg918
I61
sg919
F1447.4420588135399
sg920
F15771.056053288028
sg921
F-4046.4122416278883
sg922
g923
sg924
g925
sg926
g927
sg928
NsbsI62
g0
(g912
g2
Ntp1112
Rp1113
(dp1114
g916
g917
sg918
I62
sg919
F2894.8841176270898
sg920
F15771.056053288028
sg921
F-4046.4122416278883
sg922
g923
sg924
g925
sg926
g927
sg928
NsbsI63
g0
(g912
g2
Ntp1115
Rp1116
(dp1117
g916
g917
sg918
I63
sg919
F4386.1880570107396
sg920
F15771.056053288028
sg921
F-4046.4122416278883
sg922
g923
sg924
g925
sg926
g927
sg928
NsbssS'node_index'
p1118
(dp1119
S'2894.884,8779.221,0.000'
p1120
I29
sS'2894.884,0.000,-2998.369'
p1121
I42
sS'4386.188,13168.832,0.000'
p1122
I22
sS'2894.884,0.000,-1918.568'
p1123
I36
sS'1447.442,5204.448,0.000'
p1124
I5
sS'1447.442,0.000,-870.525'
p1125
I35
sS'0.000,0.000,-4046.412'
p1126
I44
sS'2894.884,5204.448,0.000'
p1127
I14
sS'0.000,15771.056,-870.525'
p1128
I50
sS'0.000,13168.832,0.000'
p1129
I8
sS'1447.442,10566.608,0.000'
p1130
I7
sS'1447.442,0.000,-4046.412'
p1131
I45
sS'1447.442,13168.832,0.000'
p1132
I9
sS'1447.442,0.000,-1918.568'
p1133
I33
sS'1447.442,15771.056,-2998.369'
p1134
I57
sS'2894.884,15771.056,-4046.412'
p1135
I62
sS'4386.188,0.000,0.000'
p1136
I18
sS'0.000,15771.056,-1918.568'
p1137
I48
sS'4386.188,0.000,-870.525'
p1138
I39
sS'2894.884,6991.835,0.000'
p1139
I28
sS'2894.884,15771.056,-870.525'
p1140
I53
sS'2894.884,15771.056,-1918.568'
p1141
I52
sS'0.000,0.000,-2998.369'
p1142
I40
sS'0.000,10566.608,0.000'
p1143
I6
sS'4386.188,15771.056,-1918.568'
p1144
I54
sS'2894.884,2602.224,0.000'
p1145
I13
sS'1447.442,2602.224,0.000'
p1146
I3
sS'0.000,0.000,0.000'
p1147
I0
sS'0.000,15771.056,-4046.412'
p1148
I60
sS'1447.442,15771.056,0.000'
p1149
I11
sS'2894.884,0.000,0.000'
p1150
I12
sS'4386.188,10566.608,0.000'
p1151
I21
sS'2894.884,0.000,-4046.412'
p1152
I46
sS'0.000,0.000,-1918.568'
p1153
I32
sS'1447.442,0.000,-2998.369'
p1154
I41
sS'4386.188,15771.056,-2998.369'
p1155
I59
sS'1447.442,6991.835,0.000'
p1156
I25
sS'1447.442,0.000,0.000'
p1157
I1
sS'4386.188,6991.835,0.000'
p1158
I30
sS'1447.442,15771.056,-4046.412'
p1159
I61
sS'4386.188,0.000,-1918.568'
p1160
I38
sS'4386.188,15771.056,-4046.412'
p1161
I63
sS'1447.442,15771.056,-1918.568'
p1162
I49
sS'4386.188,15771.056,-870.525'
p1163
I55
sS'0.000,15771.056,-2998.369'
p1164
I56
sS'2894.884,10566.608,0.000'
p1165
I15
sS'2894.884,15771.056,-2998.369'
p1166
I58
sS'4386.188,0.000,-2998.369'
p1167
I43
sS'4386.188,15771.056,0.000'
p1168
I23
sS'0.000,5204.448,0.000'
p1169
I4
sS'1447.442,15771.056,-870.525'
p1170
I51
sS'0.000,0.000,-870.525'
p1171
I34
sS'4386.188,5204.448,0.000'
p1172
I20
sS'4386.188,2602.224,0.000'
p1173
I19
sS'0.000,8779.221,0.000'
p1174
I26
sS'2894.884,15771.056,0.000'
p1175
I17
sS'0.000,2602.224,0.000'
p1176
I2
sS'1447.442,8779.221,0.000'
p1177
I27
sS'4386.188,8779.221,0.000'
p1178
I31
sS'4386.188,0.000,-4046.412'
p1179
I47
sS'2894.884,0.000,-870.525'
p1180
I37
sS'0.000,6991.835,0.000'
p1181
I24
sS'0.000,15771.056,0.000'
p1182
I10
sS'2894.884,13168.832,0.000'
p1183
I16
ssS'path'
p1184
S'C:\\Temp\\'
p1185
sS'results'
p1186
(dp1187
S'step_2'
p1188
S'ERROR'
p1189
sS'step_3'
p1190
g1189
sS'step_4'
p1191
g1189
sS'step_1'
p1192
g1189
ssS'sections'
p1193
(dp1194
g382
g0
(ccompas_fea.structure.section
ShellSection
p1195
g2
Ntp1196
Rp1197
(dp1198
g15
I1
sS'__name__'
p1199
S'ShellSection'
p1200
sS'name'
p1201
g382
sS'geometry'
p1202
(dp1203
S't'
p1204
F944.40828835814511
ssS'loc_coords_OR'
p1205
(dp1206
S'ORxyz'
p1207
(lp1208
I0
aI0
aF-3175.8871953500002
assS'loc_coords_XA'
p1209
(dp1210
S'XAxyz'
p1211
(lp1212
I1
aI0
aF-3175.8871953500002
assS'loc_coords_YA'
p1213
(dp1214
S'YAxyz'
p1215
(lp1216
F3175.8871953500002
aF-3175.8871953500002
aF-3174.8871953500002
assS'loc_coords_EV_XA'
p1217
(dp1218
S'EV_XA'
p1219
(lp1220
F1.0
aF0.0
aF0.0
assS'loc_coords_EV_YA'
p1221
(dp1222
S'EV_YA'
p1223
(lp1224
F0.7071067636600612
aF-0.7071067636600612
aF0.00022264857665454146
assS'loc_coords_EV_ZA'
p1225
(dp1226
S'EV_ZA'
p1227
(lp1228
F0.0
aF-1.0
aF0.0
assS'nr_layers'
p1229
(dp1230
S'nn'
p1231
F73.0
ssS'offset'
p1232
(dp1233
S'mode'
p1234
S'mid'
p1235
ssbsg396
g0
(g1195
g2
Ntp1236
Rp1237
(dp1238
g15
I0
sg1199
g1200
sg1201
g396
sg1202
(dp1239
g1204
F870.52504627686665
ssg1205
(dp1240
g1207
(lp1241
I0
aI0
aI0
assg1209
(dp1242
g1211
(lp1243
I1
aI0
aI0
assg1213
(dp1244
g1215
(lp1245
F0.0
aF1.0
aF0.0
assg1217
(dp1246
g1219
(lp1247
F1.0
aF0.0
aF0.0
assg1221
(dp1248
g1223
(lp1249
F0.0
aF1.0
aF0.0
assg1225
(dp1250
g1227
(lp1251
F0.0
aF0.0
aF1.0
assg1229
(dp1252
g1231
F73.0
ssg1232
(dp1253
g1234
S'top'
p1254
ssbsg373
g0
(g1195
g2
Ntp1255
Rp1256
(dp1257
g15
I2
sg1199
g1200
sg1201
g373
sg1202
(dp1258
g1204
F944.40828835814511
ssg1205
(dp1259
g1207
(lp1260
I0
aF15771.056053300001
aF-3175.8871953500002
assg1209
(dp1261
g1211
(lp1262
I1
aF15771.056053300001
aF-3175.8871953500002
assg1213
(dp1263
g1215
(lp1264
F-3175.8871953487396
aF12595.168857950001
aF-18947.943248650001
assg1217
(dp1265
g1219
(lp1266
F1.0
aF0.0
aF0.0
assg1221
(dp1267
g1223
(lp1268
F-0.19366236156830852
aF-0.1936623615683854
aF-0.96176388964420023
assg1225
(dp1269
g1227
(lp1270
F0.0
aF1.0
aF0.0
assg1229
(dp1271
g1231
F73.0
ssg1232
(dp1272
g1234
g1235
ssbsg466
g0
(ccompas_fea.structure.section
MPCSection
p1273
g2
Ntp1274
Rp1275
(dp1276
g15
I3
sg1199
S'MPCSection'
p1277
sg1201
g466
sg1202
NsS'nr_layers'
p1278
NsbssS'sets'
p1279
(dp1280
g491
g0
(ccompas_fea.structure.set
Set
p1281
g2
Ntp1282
Rp1283
(dp1284
S'__name__'
p1285
S'Set'
p1286
sS'name'
p1287
g491
sS'type'
p1288
S'element'
p1289
sS'selection'
p1290
(lp1291
I25
asS'index'
p1292
I13
sbsg467
g0
(g1281
g2
Ntp1293
Rp1294
(dp1295
g1285
g1286
sg1287
g467
sg1288
g1289
sg1290
(lp1296
I39
aI40
aI41
aI42
aI43
aI44
aI45
aI46
asg1292
I27
sbsg375
g0
(g1281
g2
Ntp1297
Rp1298
(dp1299
g1285
g1286
sg1287
g375
sg1288
g1289
sg1290
(lp1300
I33
asg1292
I21
sbsg421
g0
(g1281
g2
Ntp1301
Rp1302
(dp1303
g1285
g1286
sg1287
g421
sg1288
g1289
sg1290
(lp1304
I4
aI5
asg1292
I2
sbsg387
g0
(g1281
g2
Ntp1305
Rp1306
(dp1307
g1285
g1286
sg1287
g387
sg1288
g1289
sg1290
(lp1308
I28
asg1292
I16
sbsg483
g0
(g1281
g2
Ntp1309
Rp1310
(dp1311
g1285
g1286
sg1287
g483
sg1288
g1289
sg1290
(lp1312
I30
asg1292
I18
sbsg461
g0
(g1281
g2
Ntp1313
Rp1314
(dp1315
g1285
g1286
sg1287
g461
sg1288
g1289
sg1290
(lp1316
I2
aI3
asg1292
I1
sbsg397
g0
(g1281
g2
Ntp1317
Rp1318
(dp1319
g1285
g1286
sg1287
g397
sg1288
g1289
sg1290
(lp1320
I0
aI1
asg1292
I0
sbsg449
g0
(g1281
g2
Ntp1321
Rp1322
(dp1323
g1285
g1286
sg1287
g449
sg1288
g1289
sg1290
(lp1324
I12
aI13
aI14
asg1292
I6
sbsg487
g0
(g1281
g2
Ntp1325
Rp1326
(dp1327
g1285
g1286
sg1287
g487
sg1288
g1289
sg1290
(lp1328
I10
aI11
asg1292
I5
sbsg413
g0
(g1281
g2
Ntp1329
Rp1330
(dp1331
g1285
g1286
sg1287
g413
sg1288
g1289
sg1290
(lp1332
I8
aI9
asg1292
I4
sbsg457
g0
(g1281
g2
Ntp1333
Rp1334
(dp1335
g1285
g1286
sg1287
g457
sg1288
g1289
sg1290
(lp1336
I6
aI7
asg1292
I3
sbsg405
g0
(g1281
g2
Ntp1337
Rp1338
(dp1339
g1285
g1286
sg1287
g405
sg1288
g1289
sg1290
(lp1340
I18
aI19
aI20
asg1292
I8
sbsg441
g0
(g1281
g2
Ntp1341
Rp1342
(dp1343
g1285
g1286
sg1287
g441
sg1288
g1289
sg1290
(lp1344
I16
aI17
aI15
asg1292
I7
sbsg417
g0
(g1281
g2
Ntp1345
Rp1346
(dp1347
g1285
g1286
sg1287
g417
sg1288
g1289
sg1290
(lp1348
I23
asg1292
I11
sbsg479
g0
(g1281
g2
Ntp1349
Rp1350
(dp1351
g1285
g1286
sg1287
g479
sg1288
g1289
sg1290
(lp1352
I38
asg1292
I26
sbsg429
g0
(g1281
g2
Ntp1353
Rp1354
(dp1355
g1285
g1286
sg1287
g429
sg1288
g1289
sg1290
(lp1356
I35
asg1292
I23
sbsg409
g0
(g1281
g2
Ntp1357
Rp1358
(dp1359
g1285
g1286
sg1287
g409
sg1288
g1289
sg1290
(lp1360
I26
asg1292
I14
sbsg425
g0
(g1281
g2
Ntp1361
Rp1362
(dp1363
g1285
g1286
sg1287
g425
sg1288
g1289
sg1290
(lp1364
I32
asg1292
I20
sbsg445
g0
(g1281
g2
Ntp1365
Rp1366
(dp1367
g1285
g1286
sg1287
g445
sg1288
g1289
sg1290
(lp1368
I21
asg1292
I9
sbsg437
g0
(g1281
g2
Ntp1369
Rp1370
(dp1371
g1285
g1286
sg1287
g437
sg1288
g1289
sg1290
(lp1372
I29
asg1292
I17
sbsg35
g0
(g1281
g2
Ntp1373
Rp1374
(dp1375
g1285
g1286
sg1287
g35
sg1288
S'node'
p1376
sg1290
(lp1377
I63
aI62
aI61
aI60
asg1292
I29
sbsg433
g0
(g1281
g2
Ntp1378
Rp1379
(dp1380
g1285
g1286
sg1287
g433
sg1288
g1289
sg1290
(lp1381
I24
asg1292
I12
sbsg453
g0
(g1281
g2
Ntp1382
Rp1383
(dp1384
g1285
g1286
sg1287
g453
sg1288
g1289
sg1290
(lp1385
I37
asg1292
I25
sbsg401
g0
(g1281
g2
Ntp1386
Rp1387
(dp1388
g1285
g1286
sg1287
g401
sg1288
g1289
sg1290
(lp1389
I34
asg1292
I22
sbsg20
g0
(g1281
g2
Ntp1390
Rp1391
(dp1392
g1285
g1286
sg1287
g20
sg1288
g1376
sg1290
(lp1393
I47
aI46
aI45
aI44
asg1292
I28
sbsg471
g0
(g1281
g2
Ntp1394
Rp1395
(dp1396
g1285
g1286
sg1287
g471
sg1288
g1289
sg1290
(lp1397
I27
asg1292
I15
sbsg391
g0
(g1281
g2
Ntp1398
Rp1399
(dp1400
g1285
g1286
sg1287
g391
sg1288
g1289
sg1290
(lp1401
I31
asg1292
I19
sbsg383
g0
(g1281
g2
Ntp1402
Rp1403
(dp1404
g1285
g1286
sg1287
g383
sg1288
g1289
sg1290
(lp1405
I22
asg1292
I10
sbsg475
g0
(g1281
g2
Ntp1406
Rp1407
(dp1408
g1285
g1286
sg1287
g475
sg1288
g1289
sg1290
(lp1409
I36
asg1292
I24
sbssS'steps'
p1410
(dp1411
g1188
g0
(ccompas_fea.structure.step
GeneralStep
p1412
g2
Ntp1413
Rp1414
(dp1415
g15
I1
sS'__name__'
p1416
S'GeneralStep'
p1417
sS'name'
p1418
g1188
sS'attr_list'
p1419
(lp1420
g514
aS'increments'
p1421
aS'iterations'
p1422
aS'factor'
p1423
aS'nlgeom'
p1424
aS'nlmat'
p1425
aS'displacements'
p1426
aS'loads'
p1427
aS'type'
p1428
aS'tolerance'
p1429
aS'modify'
p1430
asS'increments'
p1431
I1
sS'iterations'
p1432
I100
sS'tolerance'
p1433
F0.01
sS'factor'
p1434
F1.0
sS'nlgeom'
p1435
I00
sS'nlmat'
p1436
I01
sS'displacements'
p1437
(lp1438
sS'loads'
p1439
(lp1440
g555
asS'modify'
p1441
I01
sS'type'
p1442
S'static'
p1443
sbsg1190
g0
(g1412
g2
Ntp1444
Rp1445
(dp1446
g15
I2
sg1416
g1417
sg1418
g1190
sg1419
(lp1447
g514
ag1421
ag1422
ag1423
ag1424
ag1425
ag1426
ag1427
ag1428
ag1429
ag1430
asg1431
I1
sg1432
I100
sg1433
F0.01
sg1434
F1.0
sg1435
I00
sg1436
I01
sg1437
(lp1448
sg1439
(lp1449
g548
ag541
ag534
asg1441
I01
sg1442
g1443
sbsg1191
g0
(g1412
g2
Ntp1450
Rp1451
(dp1452
g15
I3
sg1416
g1417
sg1418
g1191
sg1419
(lp1453
g514
ag1421
ag1422
ag1423
ag1424
ag1425
ag1426
ag1427
ag1428
ag1429
ag1430
asg1431
I1
sg1432
I100
sg1433
F0.01
sg1434
F1.0
sg1435
I00
sg1436
I01
sg1437
(lp1454
sg1439
(lp1455
g527
ag496
ag519
asg1441
I01
sg1442
g1443
sbsg1192
g0
(g1412
g2
Ntp1456
Rp1457
(dp1458
g15
I0
sg1416
g1417
sg1418
g1192
sg1419
(lp1459
g514
ag1421
ag1422
ag1423
ag1424
ag1425
ag1426
ag1427
ag1428
ag1429
ag1430
asg1431
I1
sg1432
I100
sg1433
F0.01
sg1434
F1.0
sg1435
I00
sg1436
I01
sg1437
(lp1460
g10
ag31
asg1439
(lp1461
sg1441
I01
sg1442
g1443
sbssS'loc_coor'
p1462
(dp1463
sS'steps_order'
p1464
(lp1465
g1192
ag1188
ag1190
ag1191
asS'tol'
p1466
S'3'
p1467
sS'virtual_nodes'
p1468
(dp1469
sS'virtual_node_index'
p1470
(dp1471
sS'virtual_elements'
p1472
(dp1473
sS'virtual_element_index'
p1474
(dp1475
sb.