ccopy_reg
_reconstructor
p0
(ccompas_fea.structure.structure
Structure
p1
c__builtin__
object
p2
Ntp3
Rp4
(dp5
S'constraints'
p6
(dp7
sS'displacements'
p8
(dp9
S'nset_pinned_set_disp_1'
p10
g0
(ccompas_fea.structure.displacement
GeneralDisplacement
p11
g2
Ntp12
Rp13
(dp14
S'index'
p15
I0
sS'__name__'
p16
S'GeneralDisplacement'
p17
sS'name'
p18
g10
sS'nodes'
p19
S'nset_support_wall1'
p20
sS'components'
p21
(dp22
S'z'
p23
I0
sS'xx'
p24
I0
sS'zz'
p25
I0
sS'yy'
p26
I0
sS'y'
p27
I0
sS'x'
p28
I0
ssS'axes'
p29
S'global'
p30
sbsS'nset_pinned_set_disp_2'
p31
g0
(g11
g2
Ntp32
Rp33
(dp34
g15
I1
sg16
g17
sg18
g31
sg19
S'nset_support_wall2'
p35
sg21
(dp36
g23
I0
sg24
I0
sg25
I0
sg26
I0
sg27
I0
sg28
I0
ssg29
g30
sbssS'elements'
p37
(dp38
I0
g0
(ccompas_fea.structure.element
ShellElement
p39
g2
Ntp40
Rp41
(dp42
S'mass'
p43
NsS'__name__'
p44
S'ShellElement'
p45
sS'nodes'
p46
(lp47
I0
aI1
aI4
aI3
asS'number'
p48
I0
sS'thermal'
p49
I00
sS'axes'
p50
(dp51
S'ey'
p52
NsS'ez'
p53
NsS'ex'
p54
NssS'element_property'
p55
S'elset_plate_1_element_prop'
p56
sbsI1
g0
(g39
g2
Ntp57
Rp58
(dp59
g43
Nsg44
g45
sg46
(lp60
I1
aI2
aI5
aI4
asg48
I1
sg49
I00
sg50
g51
sg55
g56
sbsI2
g0
(g39
g2
Ntp61
Rp62
(dp63
g43
Nsg44
g45
sg46
(lp64
I3
aI4
aI7
aI6
asg48
I2
sg49
I00
sg50
g51
sg55
g56
sbsI3
g0
(g39
g2
Ntp65
Rp66
(dp67
g43
Nsg44
g45
sg46
(lp68
I4
aI5
aI8
aI7
asg48
I3
sg49
I00
sg50
g51
sg55
g56
sbsI4
g0
(g39
g2
Ntp69
Rp70
(dp71
g43
Nsg44
g45
sg46
(lp72
I6
aI7
aI10
aI9
asg48
I4
sg49
I00
sg50
g51
sg55
g56
sbsI5
g0
(g39
g2
Ntp73
Rp74
(dp75
g43
Nsg44
g45
sg46
(lp76
I7
aI8
aI11
aI10
asg48
I5
sg49
I00
sg50
g51
sg55
g56
sbsI6
g0
(g39
g2
Ntp77
Rp78
(dp79
g43
Nsg44
g45
sg46
(lp80
I9
aI10
aI13
aI12
asg48
I6
sg49
I00
sg50
g51
sg55
g56
sbsI7
g0
(g39
g2
Ntp81
Rp82
(dp83
g43
Nsg44
g45
sg46
(lp84
I10
aI11
aI14
aI13
asg48
I7
sg49
I00
sg50
g51
sg55
g56
sbsI8
g0
(g39
g2
Ntp85
Rp86
(dp87
g43
Nsg44
g45
sg46
(lp88
I12
aI13
aI16
aI15
asg48
I8
sg49
I00
sg50
g51
sg55
g56
sbsI9
g0
(g39
g2
Ntp89
Rp90
(dp91
g43
Nsg44
g45
sg46
(lp92
I13
aI14
aI17
aI16
asg48
I9
sg49
I00
sg50
g51
sg55
g56
sbsI10
g0
(g39
g2
Ntp93
Rp94
(dp95
g43
Nsg44
g45
sg46
(lp96
I18
aI19
aI22
aI21
asg48
I10
sg49
I00
sg50
(dp97
g52
Nsg53
Nsg54
Nssg55
S'elset_plate_2_element_prop'
p98
sbsI11
g0
(g39
g2
Ntp99
Rp100
(dp101
g43
Nsg44
g45
sg46
(lp102
I19
aI20
aI23
aI22
asg48
I11
sg49
I00
sg50
g97
sg55
g98
sbsI12
g0
(g39
g2
Ntp103
Rp104
(dp105
g43
Nsg44
g45
sg46
(lp106
I21
aI22
aI25
aI24
asg48
I12
sg49
I00
sg50
g97
sg55
g98
sbsI13
g0
(g39
g2
Ntp107
Rp108
(dp109
g43
Nsg44
g45
sg46
(lp110
I22
aI23
aI26
aI25
asg48
I13
sg49
I00
sg50
g97
sg55
g98
sbsI14
g0
(g39
g2
Ntp111
Rp112
(dp113
g43
Nsg44
g45
sg46
(lp114
I24
aI25
aI28
aI27
asg48
I14
sg49
I00
sg50
g97
sg55
g98
sbsI15
g0
(g39
g2
Ntp115
Rp116
(dp117
g43
Nsg44
g45
sg46
(lp118
I25
aI26
aI29
aI28
asg48
I15
sg49
I00
sg50
g97
sg55
g98
sbsI16
g0
(g39
g2
Ntp119
Rp120
(dp121
g43
Nsg44
g45
sg46
(lp122
I27
aI28
aI31
aI30
asg48
I16
sg49
I00
sg50
g97
sg55
g98
sbsI17
g0
(g39
g2
Ntp123
Rp124
(dp125
g43
Nsg44
g45
sg46
(lp126
I28
aI29
aI32
aI31
asg48
I17
sg49
I00
sg50
g97
sg55
g98
sbsI18
g0
(g39
g2
Ntp127
Rp128
(dp129
g43
Nsg44
g45
sg46
(lp130
I30
aI31
aI34
aI33
asg48
I18
sg49
I00
sg50
g97
sg55
g98
sbsI19
g0
(g39
g2
Ntp131
Rp132
(dp133
g43
Nsg44
g45
sg46
(lp134
I31
aI32
aI35
aI34
asg48
I19
sg49
I00
sg50
g97
sg55
g98
sbsI20
g0
(g39
g2
Ntp135
Rp136
(dp137
g43
Nsg44
g45
sg46
(lp138
I2
aI36
aI38
aI5
asg48
I20
sg49
I00
sg50
(dp139
g52
Nsg53
Nsg54
Nssg55
S'elset_plate_3_element_prop'
p140
sbsI21
g0
(g39
g2
Ntp141
Rp142
(dp143
g43
Nsg44
g45
sg46
(lp144
I36
aI37
aI39
aI38
asg48
I21
sg49
I00
sg50
g139
sg55
g140
sbsI22
g0
(g39
g2
Ntp145
Rp146
(dp147
g43
Nsg44
g45
sg46
(lp148
I5
aI38
aI40
aI8
asg48
I22
sg49
I00
sg50
g139
sg55
g140
sbsI23
g0
(g39
g2
Ntp149
Rp150
(dp151
g43
Nsg44
g45
sg46
(lp152
I38
aI39
aI41
aI40
asg48
I23
sg49
I00
sg50
g139
sg55
g140
sbsI24
g0
(g39
g2
Ntp153
Rp154
(dp155
g43
Nsg44
g45
sg46
(lp156
I8
aI40
aI42
aI11
asg48
I24
sg49
I00
sg50
g139
sg55
g140
sbsI25
g0
(g39
g2
Ntp157
Rp158
(dp159
g43
Nsg44
g45
sg46
(lp160
I40
aI41
aI43
aI42
asg48
I25
sg49
I00
sg50
g139
sg55
g140
sbsI26
g0
(g39
g2
Ntp161
Rp162
(dp163
g43
Nsg44
g45
sg46
(lp164
I11
aI42
aI44
aI14
asg48
I26
sg49
I00
sg50
g139
sg55
g140
sbsI27
g0
(g39
g2
Ntp165
Rp166
(dp167
g43
Nsg44
g45
sg46
(lp168
I42
aI43
aI45
aI44
asg48
I27
sg49
I00
sg50
g139
sg55
g140
sbsI28
g0
(g39
g2
Ntp169
Rp170
(dp171
g43
Nsg44
g45
sg46
(lp172
I14
aI44
aI46
aI17
asg48
I28
sg49
I00
sg50
g139
sg55
g140
sbsI29
g0
(g39
g2
Ntp173
Rp174
(dp175
g43
Nsg44
g45
sg46
(lp176
I44
aI45
aI47
aI46
asg48
I29
sg49
I00
sg50
g139
sg55
g140
sbsI30
g0
(g39
g2
Ntp177
Rp178
(dp179
g43
Nsg44
g45
sg46
(lp180
I20
aI48
aI50
aI23
asg48
I30
sg49
I00
sg50
(dp181
g52
Nsg53
Nsg54
Nssg55
S'elset_plate_4_element_prop'
p182
sbsI31
g0
(g39
g2
Ntp183
Rp184
(dp185
g43
Nsg44
g45
sg46
(lp186
I48
aI49
aI51
aI50
asg48
I31
sg49
I00
sg50
g181
sg55
g182
sbsI32
g0
(g39
g2
Ntp187
Rp188
(dp189
g43
Nsg44
g45
sg46
(lp190
I23
aI50
aI52
aI26
asg48
I32
sg49
I00
sg50
g181
sg55
g182
sbsI33
g0
(g39
g2
Ntp191
Rp192
(dp193
g43
Nsg44
g45
sg46
(lp194
I50
aI51
aI53
aI52
asg48
I33
sg49
I00
sg50
g181
sg55
g182
sbsI34
g0
(g39
g2
Ntp195
Rp196
(dp197
g43
Nsg44
g45
sg46
(lp198
I26
aI52
aI54
aI29
asg48
I34
sg49
I00
sg50
g181
sg55
g182
sbsI35
g0
(g39
g2
Ntp199
Rp200
(dp201
g43
Nsg44
g45
sg46
(lp202
I52
aI53
aI55
aI54
asg48
I35
sg49
I00
sg50
g181
sg55
g182
sbsI36
g0
(g39
g2
Ntp203
Rp204
(dp205
g43
Nsg44
g45
sg46
(lp206
I29
aI54
aI56
aI32
asg48
I36
sg49
I00
sg50
g181
sg55
g182
sbsI37
g0
(g39
g2
Ntp207
Rp208
(dp209
g43
Nsg44
g45
sg46
(lp210
I54
aI55
aI57
aI56
asg48
I37
sg49
I00
sg50
g181
sg55
g182
sbsI38
g0
(g39
g2
Ntp211
Rp212
(dp213
g43
Nsg44
g45
sg46
(lp214
I32
aI56
aI58
aI35
asg48
I38
sg49
I00
sg50
g181
sg55
g182
sbsI39
g0
(g39
g2
Ntp215
Rp216
(dp217
g43
Nsg44
g45
sg46
(lp218
I56
aI57
aI59
aI58
asg48
I39
sg49
I00
sg50
g181
sg55
g182
sbsI40
g0
(g39
g2
Ntp219
Rp220
(dp221
g43
Nsg44
g45
sg46
(lp222
I37
aI60
aI62
aI39
asg48
I40
sg49
I00
sg50
(dp223
g52
Nsg53
Nsg54
Nssg55
S'elset_plate_5_element_prop'
p224
sbsI41
g0
(g39
g2
Ntp225
Rp226
(dp227
g43
Nsg44
g45
sg46
(lp228
I60
aI61
aI63
aI62
asg48
I41
sg49
I00
sg50
g223
sg55
g224
sbsI42
g0
(g39
g2
Ntp229
Rp230
(dp231
g43
Nsg44
g45
sg46
(lp232
I39
aI62
aI64
aI41
asg48
I42
sg49
I00
sg50
g223
sg55
g224
sbsI43
g0
(g39
g2
Ntp233
Rp234
(dp235
g43
Nsg44
g45
sg46
(lp236
I62
aI63
aI65
aI64
asg48
I43
sg49
I00
sg50
g223
sg55
g224
sbsI44
g0
(g39
g2
Ntp237
Rp238
(dp239
g43
Nsg44
g45
sg46
(lp240
I41
aI64
aI66
aI43
asg48
I44
sg49
I00
sg50
g223
sg55
g224
sbsI45
g0
(g39
g2
Ntp241
Rp242
(dp243
g43
Nsg44
g45
sg46
(lp244
I64
aI65
aI67
aI66
asg48
I45
sg49
I00
sg50
g223
sg55
g224
sbsI46
g0
(g39
g2
Ntp245
Rp246
(dp247
g43
Nsg44
g45
sg46
(lp248
I43
aI66
aI68
aI45
asg48
I46
sg49
I00
sg50
g223
sg55
g224
sbsI47
g0
(g39
g2
Ntp249
Rp250
(dp251
g43
Nsg44
g45
sg46
(lp252
I66
aI67
aI69
aI68
asg48
I47
sg49
I00
sg50
g223
sg55
g224
sbsI48
g0
(g39
g2
Ntp253
Rp254
(dp255
g43
Nsg44
g45
sg46
(lp256
I45
aI68
aI70
aI47
asg48
I48
sg49
I00
sg50
g223
sg55
g224
sbsI49
g0
(g39
g2
Ntp257
Rp258
(dp259
g43
Nsg44
g45
sg46
(lp260
I68
aI69
aI71
aI70
asg48
I49
sg49
I00
sg50
g223
sg55
g224
sbsI50
g0
(g39
g2
Ntp261
Rp262
(dp263
g43
Nsg44
g45
sg46
(lp264
I49
aI72
aI74
aI51
asg48
I50
sg49
I00
sg50
(dp265
g52
Nsg53
Nsg54
Nssg55
S'elset_plate_6_element_prop'
p266
sbsI51
g0
(g39
g2
Ntp267
Rp268
(dp269
g43
Nsg44
g45
sg46
(lp270
I72
aI73
aI75
aI74
asg48
I51
sg49
I00
sg50
g265
sg55
g266
sbsI52
g0
(g39
g2
Ntp271
Rp272
(dp273
g43
Nsg44
g45
sg46
(lp274
I51
aI74
aI76
aI53
asg48
I52
sg49
I00
sg50
g265
sg55
g266
sbsI53
g0
(g39
g2
Ntp275
Rp276
(dp277
g43
Nsg44
g45
sg46
(lp278
I74
aI75
aI77
aI76
asg48
I53
sg49
I00
sg50
g265
sg55
g266
sbsI54
g0
(g39
g2
Ntp279
Rp280
(dp281
g43
Nsg44
g45
sg46
(lp282
I53
aI76
aI78
aI55
asg48
I54
sg49
I00
sg50
g265
sg55
g266
sbsI55
g0
(g39
g2
Ntp283
Rp284
(dp285
g43
Nsg44
g45
sg46
(lp286
I76
aI77
aI79
aI78
asg48
I55
sg49
I00
sg50
g265
sg55
g266
sbsI56
g0
(g39
g2
Ntp287
Rp288
(dp289
g43
Nsg44
g45
sg46
(lp290
I55
aI78
aI80
aI57
asg48
I56
sg49
I00
sg50
g265
sg55
g266
sbsI57
g0
(g39
g2
Ntp291
Rp292
(dp293
g43
Nsg44
g45
sg46
(lp294
I78
aI79
aI81
aI80
asg48
I57
sg49
I00
sg50
g265
sg55
g266
sbsI58
g0
(g39
g2
Ntp295
Rp296
(dp297
g43
Nsg44
g45
sg46
(lp298
I57
aI80
aI82
aI59
asg48
I58
sg49
I00
sg50
g265
sg55
g266
sbsI59
g0
(g39
g2
Ntp299
Rp300
(dp301
g43
Nsg44
g45
sg46
(lp302
I80
aI81
aI83
aI82
asg48
I59
sg49
I00
sg50
g265
sg55
g266
sbsI60
g0
(g39
g2
Ntp303
Rp304
(dp305
g43
Nsg44
g45
sg46
(lp306
I15
aI16
aI85
aI84
asg48
I60
sg49
I00
sg50
(dp307
g52
Nsg53
Nsg54
Nssg55
S'elset_plate_7_element_prop'
p308
sbsI61
g0
(g39
g2
Ntp309
Rp310
(dp311
g43
Nsg44
g45
sg46
(lp312
I16
aI17
aI86
aI85
asg48
I61
sg49
I00
sg50
g307
sg55
g308
sbsI62
g0
(g39
g2
Ntp313
Rp314
(dp315
g43
Nsg44
g45
sg46
(lp316
I84
aI85
aI88
aI87
asg48
I62
sg49
I00
sg50
g307
sg55
g308
sbsI63
g0
(g39
g2
Ntp317
Rp318
(dp319
g43
Nsg44
g45
sg46
(lp320
I85
aI86
aI89
aI88
asg48
I63
sg49
I00
sg50
g307
sg55
g308
sbsI64
g0
(g39
g2
Ntp321
Rp322
(dp323
g43
Nsg44
g45
sg46
(lp324
I87
aI88
aI91
aI90
asg48
I64
sg49
I00
sg50
g307
sg55
g308
sbsI65
g0
(g39
g2
Ntp325
Rp326
(dp327
g43
Nsg44
g45
sg46
(lp328
I88
aI89
aI92
aI91
asg48
I65
sg49
I00
sg50
g307
sg55
g308
sbsI66
g0
(g39
g2
Ntp329
Rp330
(dp331
g43
Nsg44
g45
sg46
(lp332
I90
aI91
aI94
aI93
asg48
I66
sg49
I00
sg50
g307
sg55
g308
sbsI67
g0
(g39
g2
Ntp333
Rp334
(dp335
g43
Nsg44
g45
sg46
(lp336
I91
aI92
aI95
aI94
asg48
I67
sg49
I00
sg50
g307
sg55
g308
sbsI68
g0
(g39
g2
Ntp337
Rp338
(dp339
g43
Nsg44
g45
sg46
(lp340
I93
aI94
aI19
aI18
asg48
I68
sg49
I00
sg50
g307
sg55
g308
sbsI69
g0
(g39
g2
Ntp341
Rp342
(dp343
g43
Nsg44
g45
sg46
(lp344
I94
aI95
aI20
aI19
asg48
I69
sg49
I00
sg50
g307
sg55
g308
sbsI70
g0
(g39
g2
Ntp345
Rp346
(dp347
g43
Nsg44
g45
sg46
(lp348
I17
aI46
aI96
aI86
asg48
I70
sg49
I00
sg50
(dp349
g52
Nsg53
Nsg54
Nssg55
S'elset_plate_8_element_prop'
p350
sbsI71
g0
(g39
g2
Ntp351
Rp352
(dp353
g43
Nsg44
g45
sg46
(lp354
I46
aI47
aI97
aI96
asg48
I71
sg49
I00
sg50
g349
sg55
g350
sbsI72
g0
(g39
g2
Ntp355
Rp356
(dp357
g43
Nsg44
g45
sg46
(lp358
I86
aI96
aI98
aI89
asg48
I72
sg49
I00
sg50
g349
sg55
g350
sbsI73
g0
(g39
g2
Ntp359
Rp360
(dp361
g43
Nsg44
g45
sg46
(lp362
I96
aI97
aI99
aI98
asg48
I73
sg49
I00
sg50
g349
sg55
g350
sbsI74
g0
(g39
g2
Ntp363
Rp364
(dp365
g43
Nsg44
g45
sg46
(lp366
I89
aI98
aI100
aI92
asg48
I74
sg49
I00
sg50
g349
sg55
g350
sbsI75
g0
(g39
g2
Ntp367
Rp368
(dp369
g43
Nsg44
g45
sg46
(lp370
I98
aI99
aI101
aI100
asg48
I75
sg49
I00
sg50
g349
sg55
g350
sbsI76
g0
(g39
g2
Ntp371
Rp372
(dp373
g43
Nsg44
g45
sg46
(lp374
I92
aI100
aI102
aI95
asg48
I76
sg49
I00
sg50
g349
sg55
g350
sbsI77
g0
(g39
g2
Ntp375
Rp376
(dp377
g43
Nsg44
g45
sg46
(lp378
I100
aI101
aI103
aI102
asg48
I77
sg49
I00
sg50
g349
sg55
g350
sbsI78
g0
(g39
g2
Ntp379
Rp380
(dp381
g43
Nsg44
g45
sg46
(lp382
I95
aI102
aI48
aI20
asg48
I78
sg49
I00
sg50
g349
sg55
g350
sbsI79
g0
(g39
g2
Ntp383
Rp384
(dp385
g43
Nsg44
g45
sg46
(lp386
I102
aI103
aI49
aI48
asg48
I79
sg49
I00
sg50
g349
sg55
g350
sbsI80
g0
(g39
g2
Ntp387
Rp388
(dp389
g43
Nsg44
g45
sg46
(lp390
I47
aI70
aI104
aI97
asg48
I80
sg49
I00
sg50
(dp391
g52
Nsg53
Nsg54
Nssg55
S'elset_plate_9_element_prop'
p392
sbsI81
g0
(g39
g2
Ntp393
Rp394
(dp395
g43
Nsg44
g45
sg46
(lp396
I70
aI71
aI105
aI104
asg48
I81
sg49
I00
sg50
g391
sg55
g392
sbsI82
g0
(g39
g2
Ntp397
Rp398
(dp399
g43
Nsg44
g45
sg46
(lp400
I97
aI104
aI106
aI99
asg48
I82
sg49
I00
sg50
g391
sg55
g392
sbsI83
g0
(g39
g2
Ntp401
Rp402
(dp403
g43
Nsg44
g45
sg46
(lp404
I104
aI105
aI107
aI106
asg48
I83
sg49
I00
sg50
g391
sg55
g392
sbsI84
g0
(g39
g2
Ntp405
Rp406
(dp407
g43
Nsg44
g45
sg46
(lp408
I99
aI106
aI108
aI101
asg48
I84
sg49
I00
sg50
g391
sg55
g392
sbsI85
g0
(g39
g2
Ntp409
Rp410
(dp411
g43
Nsg44
g45
sg46
(lp412
I106
aI107
aI109
aI108
asg48
I85
sg49
I00
sg50
g391
sg55
g392
sbsI86
g0
(g39
g2
Ntp413
Rp414
(dp415
g43
Nsg44
g45
sg46
(lp416
I101
aI108
aI110
aI103
asg48
I86
sg49
I00
sg50
g391
sg55
g392
sbsI87
g0
(g39
g2
Ntp417
Rp418
(dp419
g43
Nsg44
g45
sg46
(lp420
I108
aI109
aI111
aI110
asg48
I87
sg49
I00
sg50
g391
sg55
g392
sbsI88
g0
(g39
g2
Ntp421
Rp422
(dp423
g43
Nsg44
g45
sg46
(lp424
I103
aI110
aI72
aI49
asg48
I88
sg49
I00
sg50
g391
sg55
g392
sbsI89
g0
(g39
g2
Ntp425
Rp426
(dp427
g43
Nsg44
g45
sg46
(lp428
I110
aI111
aI73
aI72
asg48
I89
sg49
I00
sg50
g391
sg55
g392
sbsI90
g0
(g39
g2
Ntp429
Rp430
(dp431
g43
Nsg44
g45
sg46
(lp432
I112
aI113
aI116
aI115
asg48
I90
sg49
I00
sg50
(dp433
g52
Nsg53
Nsg54
Nssg55
S'elset_wall_1_1_element_prop'
p434
sbsI91
g0
(g39
g2
Ntp435
Rp436
(dp437
g43
Nsg44
g45
sg46
(lp438
I113
aI114
aI117
aI116
asg48
I91
sg49
I00
sg50
g433
sg55
g434
sbsI92
g0
(g39
g2
Ntp439
Rp440
(dp441
g43
Nsg44
g45
sg46
(lp442
I115
aI116
aI119
aI118
asg48
I92
sg49
I00
sg50
g433
sg55
g434
sbsI93
g0
(g39
g2
Ntp443
Rp444
(dp445
g43
Nsg44
g45
sg46
(lp446
I116
aI117
aI120
aI119
asg48
I93
sg49
I00
sg50
g433
sg55
g434
sbsI94
g0
(g39
g2
Ntp447
Rp448
(dp449
g43
Nsg44
g45
sg46
(lp450
I114
aI121
aI123
aI117
asg48
I94
sg49
I00
sg50
(dp451
g52
Nsg53
Nsg54
Nssg55
S'elset_wall_1_2_element_prop'
p452
sbsI95
g0
(g39
g2
Ntp453
Rp454
(dp455
g43
Nsg44
g45
sg46
(lp456
I121
aI122
aI124
aI123
asg48
I95
sg49
I00
sg50
g451
sg55
g452
sbsI96
g0
(g39
g2
Ntp457
Rp458
(dp459
g43
Nsg44
g45
sg46
(lp460
I117
aI123
aI125
aI120
asg48
I96
sg49
I00
sg50
g451
sg55
g452
sbsI97
g0
(g39
g2
Ntp461
Rp462
(dp463
g43
Nsg44
g45
sg46
(lp464
I123
aI124
aI126
aI125
asg48
I97
sg49
I00
sg50
g451
sg55
g452
sbsI98
g0
(g39
g2
Ntp465
Rp466
(dp467
g43
Nsg44
g45
sg46
(lp468
I122
aI127
aI129
aI124
asg48
I98
sg49
I00
sg50
(dp469
g52
Nsg53
Nsg54
Nssg55
S'elset_wall_1_3_element_prop'
p470
sbsI99
g0
(g39
g2
Ntp471
Rp472
(dp473
g43
Nsg44
g45
sg46
(lp474
I127
aI128
aI130
aI129
asg48
I99
sg49
I00
sg50
g469
sg55
g470
sbsI100
g0
(g39
g2
Ntp475
Rp476
(dp477
g43
Nsg44
g45
sg46
(lp478
I124
aI129
aI131
aI126
asg48
I100
sg49
I00
sg50
g469
sg55
g470
sbsI101
g0
(g39
g2
Ntp479
Rp480
(dp481
g43
Nsg44
g45
sg46
(lp482
I129
aI130
aI132
aI131
asg48
I101
sg49
I00
sg50
g469
sg55
g470
sbsI102
g0
(g39
g2
Ntp483
Rp484
(dp485
g43
Nsg44
g45
sg46
(lp486
I133
aI134
aI137
aI136
asg48
I102
sg49
I00
sg50
(dp487
g52
Nsg53
Nsg54
Nssg55
S'elset_wall_1_4_element_prop'
p488
sbsI103
g0
(g39
g2
Ntp489
Rp490
(dp491
g43
Nsg44
g45
sg46
(lp492
I134
aI135
aI138
aI137
asg48
I103
sg49
I00
sg50
g487
sg55
g488
sbsI104
g0
(g39
g2
Ntp493
Rp494
(dp495
g43
Nsg44
g45
sg46
(lp496
I136
aI137
aI113
aI112
asg48
I104
sg49
I00
sg50
g487
sg55
g488
sbsI105
g0
(g39
g2
Ntp497
Rp498
(dp499
g43
Nsg44
g45
sg46
(lp500
I137
aI138
aI114
aI113
asg48
I105
sg49
I00
sg50
g487
sg55
g488
sbsI106
g0
(g39
g2
Ntp501
Rp502
(dp503
g43
Nsg44
g45
sg46
(lp504
I135
aI139
aI141
aI138
asg48
I106
sg49
I00
sg50
(dp505
g52
Nsg53
Nsg54
Nssg55
S'elset_wall_1_5_element_prop'
p506
sbsI107
g0
(g39
g2
Ntp507
Rp508
(dp509
g43
Nsg44
g45
sg46
(lp510
I139
aI140
aI142
aI141
asg48
I107
sg49
I00
sg50
g505
sg55
g506
sbsI108
g0
(g39
g2
Ntp511
Rp512
(dp513
g43
Nsg44
g45
sg46
(lp514
I138
aI141
aI121
aI114
asg48
I108
sg49
I00
sg50
g505
sg55
g506
sbsI109
g0
(g39
g2
Ntp515
Rp516
(dp517
g43
Nsg44
g45
sg46
(lp518
I141
aI142
aI122
aI121
asg48
I109
sg49
I00
sg50
g505
sg55
g506
sbsI110
g0
(g39
g2
Ntp519
Rp520
(dp521
g43
Nsg44
g45
sg46
(lp522
I140
aI143
aI145
aI142
asg48
I110
sg49
I00
sg50
(dp523
g52
Nsg53
Nsg54
Nssg55
S'elset_wall_1_6_element_prop'
p524
sbsI111
g0
(g39
g2
Ntp525
Rp526
(dp527
g43
Nsg44
g45
sg46
(lp528
I143
aI144
aI146
aI145
asg48
I111
sg49
I00
sg50
g523
sg55
g524
sbsI112
g0
(g39
g2
Ntp529
Rp530
(dp531
g43
Nsg44
g45
sg46
(lp532
I142
aI145
aI127
aI122
asg48
I112
sg49
I00
sg50
g523
sg55
g524
sbsI113
g0
(g39
g2
Ntp533
Rp534
(dp535
g43
Nsg44
g45
sg46
(lp536
I145
aI146
aI128
aI127
asg48
I113
sg49
I00
sg50
g523
sg55
g524
sbsI114
g0
(g39
g2
Ntp537
Rp538
(dp539
g43
Nsg44
g45
sg46
(lp540
I147
aI148
aI151
aI150
asg48
I114
sg49
I00
sg50
(dp541
g52
Nsg53
Nsg54
Nssg55
S'elset_wall_1_7_element_prop'
p542
sbsI115
g0
(g39
g2
Ntp543
Rp544
(dp545
g43
Nsg44
g45
sg46
(lp546
I148
aI149
aI152
aI151
asg48
I115
sg49
I00
sg50
g541
sg55
g542
sbsI116
g0
(g39
g2
Ntp547
Rp548
(dp549
g43
Nsg44
g45
sg46
(lp550
I150
aI151
aI134
aI133
asg48
I116
sg49
I00
sg50
g541
sg55
g542
sbsI117
g0
(g39
g2
Ntp551
Rp552
(dp553
g43
Nsg44
g45
sg46
(lp554
I151
aI152
aI135
aI134
asg48
I117
sg49
I00
sg50
g541
sg55
g542
sbsI118
g0
(g39
g2
Ntp555
Rp556
(dp557
g43
Nsg44
g45
sg46
(lp558
I149
aI153
aI155
aI152
asg48
I118
sg49
I00
sg50
(dp559
g52
Nsg53
Nsg54
Nssg55
S'elset_wall_1_8_element_prop'
p560
sbsI119
g0
(g39
g2
Ntp561
Rp562
(dp563
g43
Nsg44
g45
sg46
(lp564
I153
aI154
aI156
aI155
asg48
I119
sg49
I00
sg50
g559
sg55
g560
sbsI120
g0
(g39
g2
Ntp565
Rp566
(dp567
g43
Nsg44
g45
sg46
(lp568
I152
aI155
aI139
aI135
asg48
I120
sg49
I00
sg50
g559
sg55
g560
sbsI121
g0
(g39
g2
Ntp569
Rp570
(dp571
g43
Nsg44
g45
sg46
(lp572
I155
aI156
aI140
aI139
asg48
I121
sg49
I00
sg50
g559
sg55
g560
sbsI122
g0
(g39
g2
Ntp573
Rp574
(dp575
g43
Nsg44
g45
sg46
(lp576
I154
aI157
aI159
aI156
asg48
I122
sg49
I00
sg50
(dp577
g52
Nsg53
Nsg54
Nssg55
S'elset_wall_1_9_element_prop'
p578
sbsI123
g0
(g39
g2
Ntp579
Rp580
(dp581
g43
Nsg44
g45
sg46
(lp582
I157
aI158
aI160
aI159
asg48
I123
sg49
I00
sg50
g577
sg55
g578
sbsI124
g0
(g39
g2
Ntp583
Rp584
(dp585
g43
Nsg44
g45
sg46
(lp586
I156
aI159
aI143
aI140
asg48
I124
sg49
I00
sg50
g577
sg55
g578
sbsI125
g0
(g39
g2
Ntp587
Rp588
(dp589
g43
Nsg44
g45
sg46
(lp590
I159
aI160
aI144
aI143
asg48
I125
sg49
I00
sg50
g577
sg55
g578
sbsI126
g0
(g39
g2
Ntp591
Rp592
(dp593
g43
Nsg44
g45
sg46
(lp594
I161
aI164
aI165
aI162
asg48
I126
sg49
I00
sg50
(dp595
g52
Nsg53
Nsg54
Nssg55
S'elset_wall_2_1_element_prop'
p596
sbsI127
g0
(g39
g2
Ntp597
Rp598
(dp599
g43
Nsg44
g45
sg46
(lp600
I162
aI165
aI166
aI163
asg48
I127
sg49
I00
sg50
g595
sg55
g596
sbsI128
g0
(g39
g2
Ntp601
Rp602
(dp603
g43
Nsg44
g45
sg46
(lp604
I164
aI167
aI168
aI165
asg48
I128
sg49
I00
sg50
g595
sg55
g596
sbsI129
g0
(g39
g2
Ntp605
Rp606
(dp607
g43
Nsg44
g45
sg46
(lp608
I165
aI168
aI169
aI166
asg48
I129
sg49
I00
sg50
g595
sg55
g596
sbsI130
g0
(g39
g2
Ntp609
Rp610
(dp611
g43
Nsg44
g45
sg46
(lp612
I163
aI166
aI172
aI170
asg48
I130
sg49
I00
sg50
(dp613
g52
Nsg53
Nsg54
Nssg55
S'elset_wall_2_2_element_prop'
p614
sbsI131
g0
(g39
g2
Ntp615
Rp616
(dp617
g43
Nsg44
g45
sg46
(lp618
I170
aI172
aI173
aI171
asg48
I131
sg49
I00
sg50
g613
sg55
g614
sbsI132
g0
(g39
g2
Ntp619
Rp620
(dp621
g43
Nsg44
g45
sg46
(lp622
I166
aI169
aI174
aI172
asg48
I132
sg49
I00
sg50
g613
sg55
g614
sbsI133
g0
(g39
g2
Ntp623
Rp624
(dp625
g43
Nsg44
g45
sg46
(lp626
I172
aI174
aI175
aI173
asg48
I133
sg49
I00
sg50
g613
sg55
g614
sbsI134
g0
(g39
g2
Ntp627
Rp628
(dp629
g43
Nsg44
g45
sg46
(lp630
I171
aI173
aI178
aI176
asg48
I134
sg49
I00
sg50
(dp631
g52
Nsg53
Nsg54
Nssg55
S'elset_wall_2_3_element_prop'
p632
sbsI135
g0
(g39
g2
Ntp633
Rp634
(dp635
g43
Nsg44
g45
sg46
(lp636
I176
aI178
aI179
aI177
asg48
I135
sg49
I00
sg50
g631
sg55
g632
sbsI136
g0
(g39
g2
Ntp637
Rp638
(dp639
g43
Nsg44
g45
sg46
(lp640
I173
aI175
aI180
aI178
asg48
I136
sg49
I00
sg50
g631
sg55
g632
sbsI137
g0
(g39
g2
Ntp641
Rp642
(dp643
g43
Nsg44
g45
sg46
(lp644
I178
aI180
aI181
aI179
asg48
I137
sg49
I00
sg50
g631
sg55
g632
sbsI138
g0
(g39
g2
Ntp645
Rp646
(dp647
g43
Nsg44
g45
sg46
(lp648
I182
aI185
aI186
aI183
asg48
I138
sg49
I00
sg50
(dp649
g52
Nsg53
Nsg54
Nssg55
S'elset_wall_2_4_element_prop'
p650
sbsI139
g0
(g39
g2
Ntp651
Rp652
(dp653
g43
Nsg44
g45
sg46
(lp654
I183
aI186
aI187
aI184
asg48
I139
sg49
I00
sg50
g649
sg55
g650
sbsI140
g0
(g39
g2
Ntp655
Rp656
(dp657
g43
Nsg44
g45
sg46
(lp658
I185
aI161
aI162
aI186
asg48
I140
sg49
I00
sg50
g649
sg55
g650
sbsI141
g0
(g39
g2
Ntp659
Rp660
(dp661
g43
Nsg44
g45
sg46
(lp662
I186
aI162
aI163
aI187
asg48
I141
sg49
I00
sg50
g649
sg55
g650
sbsI142
g0
(g39
g2
Ntp663
Rp664
(dp665
g43
Nsg44
g45
sg46
(lp666
I184
aI187
aI190
aI188
asg48
I142
sg49
I00
sg50
(dp667
g52
Nsg53
Nsg54
Nssg55
S'elset_wall_2_5_element_prop'
p668
sbsI143
g0
(g39
g2
Ntp669
Rp670
(dp671
g43
Nsg44
g45
sg46
(lp672
I188
aI190
aI191
aI189
asg48
I143
sg49
I00
sg50
g667
sg55
g668
sbsI144
g0
(g39
g2
Ntp673
Rp674
(dp675
g43
Nsg44
g45
sg46
(lp676
I187
aI163
aI170
aI190
asg48
I144
sg49
I00
sg50
g667
sg55
g668
sbsI145
g0
(g39
g2
Ntp677
Rp678
(dp679
g43
Nsg44
g45
sg46
(lp680
I190
aI170
aI171
aI191
asg48
I145
sg49
I00
sg50
g667
sg55
g668
sbsI146
g0
(g39
g2
Ntp681
Rp682
(dp683
g43
Nsg44
g45
sg46
(lp684
I189
aI191
aI194
aI192
asg48
I146
sg49
I00
sg50
(dp685
g52
Nsg53
Nsg54
Nssg55
S'elset_wall_2_6_element_prop'
p686
sbsI147
g0
(g39
g2
Ntp687
Rp688
(dp689
g43
Nsg44
g45
sg46
(lp690
I192
aI194
aI195
aI193
asg48
I147
sg49
I00
sg50
g685
sg55
g686
sbsI148
g0
(g39
g2
Ntp691
Rp692
(dp693
g43
Nsg44
g45
sg46
(lp694
I191
aI171
aI176
aI194
asg48
I148
sg49
I00
sg50
g685
sg55
g686
sbsI149
g0
(g39
g2
Ntp695
Rp696
(dp697
g43
Nsg44
g45
sg46
(lp698
I194
aI176
aI177
aI195
asg48
I149
sg49
I00
sg50
g685
sg55
g686
sbsI150
g0
(g39
g2
Ntp699
Rp700
(dp701
g43
Nsg44
g45
sg46
(lp702
I196
aI199
aI200
aI197
asg48
I150
sg49
I00
sg50
(dp703
g52
Nsg53
Nsg54
Nssg55
S'elset_wall_2_7_element_prop'
p704
sbsI151
g0
(g39
g2
Ntp705
Rp706
(dp707
g43
Nsg44
g45
sg46
(lp708
I197
aI200
aI201
aI198
asg48
I151
sg49
I00
sg50
g703
sg55
g704
sbsI152
g0
(g39
g2
Ntp709
Rp710
(dp711
g43
Nsg44
g45
sg46
(lp712
I199
aI182
aI183
aI200
asg48
I152
sg49
I00
sg50
g703
sg55
g704
sbsI153
g0
(g39
g2
Ntp713
Rp714
(dp715
g43
Nsg44
g45
sg46
(lp716
I200
aI183
aI184
aI201
asg48
I153
sg49
I00
sg50
g703
sg55
g704
sbsI154
g0
(g39
g2
Ntp717
Rp718
(dp719
g43
Nsg44
g45
sg46
(lp720
I198
aI201
aI204
aI202
asg48
I154
sg49
I00
sg50
(dp721
g52
Nsg53
Nsg54
Nssg55
S'elset_wall_2_8_element_prop'
p722
sbsI155
g0
(g39
g2
Ntp723
Rp724
(dp725
g43
Nsg44
g45
sg46
(lp726
I202
aI204
aI205
aI203
asg48
I155
sg49
I00
sg50
g721
sg55
g722
sbsI156
g0
(g39
g2
Ntp727
Rp728
(dp729
g43
Nsg44
g45
sg46
(lp730
I201
aI184
aI188
aI204
asg48
I156
sg49
I00
sg50
g721
sg55
g722
sbsI157
g0
(g39
g2
Ntp731
Rp732
(dp733
g43
Nsg44
g45
sg46
(lp734
I204
aI188
aI189
aI205
asg48
I157
sg49
I00
sg50
g721
sg55
g722
sbsI158
g0
(g39
g2
Ntp735
Rp736
(dp737
g43
Nsg44
g45
sg46
(lp738
I203
aI205
aI208
aI206
asg48
I158
sg49
I00
sg50
(dp739
g52
Nsg53
Nsg54
Nssg55
S'elset_wall_2_9_element_prop'
p740
sbsI159
g0
(g39
g2
Ntp741
Rp742
(dp743
g43
Nsg44
g45
sg46
(lp744
I206
aI208
aI209
aI207
asg48
I159
sg49
I00
sg50
g739
sg55
g740
sbsI160
g0
(g39
g2
Ntp745
Rp746
(dp747
g43
Nsg44
g45
sg46
(lp748
I205
aI189
aI192
aI208
asg48
I160
sg49
I00
sg50
g739
sg55
g740
sbsI161
g0
(g39
g2
Ntp749
Rp750
(dp751
g43
Nsg44
g45
sg46
(lp752
I208
aI192
aI193
aI209
asg48
I161
sg49
I00
sg50
g739
sg55
g740
sbsI162
g0
(ccompas_fea.structure.element
MPCElement
p753
g2
Ntp754
Rp755
(dp756
g43
Nsg44
S'MPCElement'
p757
sg46
(lp758
I181
aI83
asg48
I162
sg49
I00
sg50
(dp759
g52
Nsg53
(lp760
F-1.8189894035458565e-12
aF0.0
aF1077.4619445590824
asg54
Nssg55
S'elset_mpc_element_prop'
p761
sbsI163
g0
(g753
g2
Ntp762
Rp763
(dp764
g43
Nsg44
g757
sg46
(lp765
I180
aI82
asg48
I163
sg49
I00
sg50
(dp766
g52
Nsg53
(lp767
F-4.5474735088646412e-13
aF0.0
aF1077.4619445590822
asg54
Nssg55
g761
sbsI164
g0
(g753
g2
Ntp768
Rp769
(dp770
g43
Nsg44
g757
sg46
(lp771
I175
aI59
asg48
I164
sg49
I00
sg50
(dp772
g52
Nsg53
(lp773
F-4.5474735088646412e-13
aF0.0
aF1077.4619445590824
asg54
Nssg55
g761
sbsI165
g0
(g753
g2
Ntp774
Rp775
(dp776
g43
Nsg44
g757
sg46
(lp777
I174
aI58
asg48
I165
sg49
I00
sg50
(dp778
g52
Nsg53
(lp779
F1.8189894035458565e-12
aF0.0
aF1077.4619445590824
asg54
Nssg55
g761
sbsI166
g0
(g753
g2
Ntp780
Rp781
(dp782
g43
Nsg44
g757
sg46
(lp783
I169
aI35
asg48
I166
sg49
I00
sg50
(dp784
g52
Nsg53
(lp785
F4.7748471843078732e-12
aF0.0
aF1077.4619445590824
asg54
Nssg55
g761
sbsI167
g0
(g753
g2
Ntp786
Rp787
(dp788
g43
Nsg44
g757
sg46
(lp789
I168
aI34
asg48
I167
sg49
I00
sg50
(dp790
g52
Nsg53
(lp791
F2.3874235921539366e-12
aF0.0
aF1077.4619445590822
asg54
Nssg55
g761
sbsI168
g0
(g753
g2
Ntp792
Rp793
(dp794
g43
Nsg44
g757
sg46
(lp795
I167
aI33
asg48
I168
sg49
I00
sg50
(dp796
g52
Nsg53
(lp797
F0.0
aF0.0
aF1077.4619445590824
asg54
Nssg55
g761
sbsI169
g0
(g753
g2
Ntp798
Rp799
(dp800
g43
Nsg44
g757
sg46
(lp801
I132
aI61
asg48
I169
sg49
I00
sg50
(dp802
g52
Nsg53
(lp803
F-1.8189894035458565e-12
aF0.0
aF1077.4619445590824
asg54
Nssg55
g761
sbsI170
g0
(g753
g2
Ntp804
Rp805
(dp806
g43
Nsg44
g757
sg46
(lp807
I131
aI60
asg48
I170
sg49
I00
sg50
(dp808
g52
Nsg53
(lp809
F-4.5474735088646412e-13
aF0.0
aF1077.4619445590822
asg54
Nssg55
g761
sbsI171
g0
(g753
g2
Ntp810
Rp811
(dp812
g43
Nsg44
g757
sg46
(lp813
I126
aI37
asg48
I171
sg49
I00
sg50
(dp814
g52
Nsg53
(lp815
F-4.5474735088646412e-13
aF0.0
aF1077.4619445590824
asg54
Nssg55
g761
sbsI172
g0
(g753
g2
Ntp816
Rp817
(dp818
g43
Nsg44
g757
sg46
(lp819
I125
aI36
asg48
I172
sg49
I00
sg50
(dp820
g52
Nsg53
(lp821
F1.8189894035458565e-12
aF0.0
aF1077.4619445590824
asg54
Nssg55
g761
sbsI173
g0
(g753
g2
Ntp822
Rp823
(dp824
g43
Nsg44
g757
sg46
(lp825
I120
aI2
asg48
I173
sg49
I00
sg50
(dp826
g52
Nsg53
(lp827
F4.7748471843078732e-12
aF0.0
aF1077.4619445590824
asg54
Nssg55
g761
sbsI174
g0
(g753
g2
Ntp828
Rp829
(dp830
g43
Nsg44
g757
sg46
(lp831
I119
aI1
asg48
I174
sg49
I00
sg50
(dp832
g52
Nsg53
(lp833
F2.3874235921539366e-12
aF0.0
aF1077.4619445590822
asg54
Nssg55
g761
sbsI175
g0
(g753
g2
Ntp834
Rp835
(dp836
g43
Nsg44
g757
sg46
(lp837
I118
aI0
asg48
I175
sg49
I00
sg50
(dp838
g52
Nsg53
(lp839
F0.0
aF0.0
aF1077.4619445590824
asg54
Nssg55
g761
sbssS'element_index'
p840
(dp841
S'1961.097,16761.046,0.000'
p842
I38
sS'2745.536,17333.036,-3821.003'
p843
I143
sS'392.219,0.000,-3023.734'
p844
I104
sS'3541.860,571.990,0.000'
p845
I40
sS'3137.755,0.000,-538.731'
p846
I171
sS'1176.658,2859.951,0.000'
p847
I5
sS'4350.070,4003.931,0.000'
p848
I47
sS'4350.070,7487.872,0.000'
p849
I83
sS'3541.860,8666.518,0.000'
p850
I84
sS'4754.175,0.000,-538.731'
p851
I169
sS'3541.860,5147.912,0.000'
p852
I48
sS'0.000,17333.036,-538.731'
p853
I168
sS'4350.070,11023.811,0.000'
p854
I89
sS'3541.860,0.000,-3821.003'
p855
I110
sS'1176.658,17333.036,-5380.365'
p856
I151
sS'1961.097,6309.225,0.000'
p857
I70
sS'2745.536,6309.225,0.000'
p858
I71
sS'1176.658,0.000,-1464.372'
p859
I93
sS'392.219,0.000,-5380.365'
p860
I114
sS'2745.536,13329.105,0.000'
p861
I33
sS'1961.097,4003.931,0.000'
p862
I26
sS'392.219,0.000,-2238.191'
p863
I90
sS'3541.860,16761.046,0.000'
p864
I58
sS'392.219,0.000,-3821.003'
p865
I102
sS'392.219,16761.046,0.000'
p866
I18
sS'2745.536,0.000,-1464.372'
p867
I97
sS'3137.755,17333.036,-538.731'
p868
I164
sS'1176.658,17333.036,-1464.372'
p869
I129
sS'2745.536,17333.036,-5380.365'
p870
I155
sS'2353.316,0.000,-538.731'
p871
I172
sS'1961.097,11023.811,0.000'
p872
I78
sS'2745.536,0.000,-2238.191'
p873
I95
sS'392.219,8666.518,0.000'
p874
I64
sS'2745.536,571.990,0.000'
p875
I21
sS'1961.097,9845.165,0.000'
p876
I76
sS'4350.070,17333.036,-4606.546'
p877
I161
sS'2745.536,0.000,-5380.365'
p878
I119
sS'2745.536,17333.036,-3023.734'
p879
I145
sS'4350.070,5147.912,0.000'
p880
I49
sS'4350.070,17333.036,-5380.365'
p881
I159
sS'2745.536,1715.971,0.000'
p882
I23
sS'1961.097,17333.036,-1464.372'
p883
I132
sS'1176.658,15617.066,0.000'
p884
I17
sS'3541.860,1715.971,0.000'
p885
I42
sS'3541.860,2859.951,0.000'
p886
I44
sS'2745.536,17333.036,-1464.372'
p887
I133
sS'2745.536,17333.036,-2238.191'
p888
I131
sS'4350.070,6309.225,0.000'
p889
I81
sS'4350.070,17333.036,-3821.003'
p890
I147
sS'392.219,17333.036,-5380.365'
p891
I150
sS'1176.658,9845.165,0.000'
p892
I67
sS'1176.658,17333.036,-4606.546'
p893
I153
sS'3541.860,17333.036,-3023.734'
p894
I148
sS'0.000,0.000,-538.731'
p895
I175
sS'1176.658,11023.811,0.000'
p896
I69
sS'1961.097,0.000,-3023.734'
p897
I108
sS'2745.536,14473.085,0.000'
p898
I35
sS'1176.658,0.000,-4606.546'
p899
I117
sS'4350.070,14473.085,0.000'
p900
I55
sS'1961.097,13329.105,0.000'
p901
I32
sS'1176.658,12185.124,0.000'
p902
I11
sS'1176.658,7487.872,0.000'
p903
I63
sS'392.219,6309.225,0.000'
p904
I60
sS'4350.070,17333.036,-2238.191'
p905
I135
sS'2745.536,17333.036,-4606.546'
p906
I157
sS'2353.316,17333.036,-538.731'
p907
I165
sS'1961.097,14473.085,0.000'
p908
I34
sS'2745.536,9845.165,0.000'
p909
I77
sS'1176.658,5147.912,0.000'
p910
I9
sS'1961.097,5147.912,0.000'
p911
I28
sS'1961.097,12185.124,0.000'
p912
I30
sS'1961.097,17333.036,-5380.365'
p913
I154
sS'1176.658,0.000,-3023.734'
p914
I105
sS'3541.860,0.000,-2238.191'
p915
I98
sS'1961.097,0.000,-3821.003'
p916
I106
sS'4350.070,571.990,0.000'
p917
I41
sS'392.219,2859.951,0.000'
p918
I4
sS'1961.097,2859.951,0.000'
p919
I24
sS'1961.097,0.000,-4606.546'
p920
I120
sS'1961.097,0.000,-2238.191'
p921
I94
sS'392.219,14473.085,0.000'
p922
I14
sS'3541.860,17333.036,-5380.365'
p923
I158
sS'1961.097,17333.036,-2238.191'
p924
I130
sS'4350.070,0.000,-3821.003'
p925
I111
sS'2745.536,11023.811,0.000'
p926
I79
sS'3541.860,17333.036,-1464.372'
p927
I136
sS'4350.070,8666.518,0.000'
p928
I85
sS'3541.860,0.000,-5380.365'
p929
I122
sS'4350.070,17333.036,-1464.372'
p930
I137
sS'4350.070,0.000,-3023.734'
p931
I113
sS'2745.536,7487.872,0.000'
p932
I73
sS'1176.658,0.000,-2238.191'
p933
I91
sS'2745.536,15617.066,0.000'
p934
I37
sS'1176.658,571.990,0.000'
p935
I1
sS'3541.860,4003.931,0.000'
p936
I46
sS'4350.070,15617.066,0.000'
p937
I57
sS'392.219,4003.931,0.000'
p938
I6
sS'3541.860,11023.811,0.000'
p939
I88
sS'3541.860,6309.225,0.000'
p940
I80
sS'4350.070,9845.165,0.000'
p941
I87
sS'1961.097,17333.036,-3821.003'
p942
I142
sS'4350.070,2859.951,0.000'
p943
I45
sS'1176.658,0.000,-3821.003'
p944
I103
sS'392.219,12185.124,0.000'
p945
I10
sS'392.219,5147.912,0.000'
p946
I8
sS'4350.070,16761.046,0.000'
p947
I59
sS'392.219,11023.811,0.000'
p948
I68
sS'2745.536,12185.124,0.000'
p949
I31
sS'1961.097,0.000,-5380.365'
p950
I118
sS'1961.097,17333.036,-3023.734'
p951
I144
sS'1176.658,17333.036,-2238.191'
p952
I127
sS'1961.097,1715.971,0.000'
p953
I22
sS'2745.536,0.000,-3023.734'
p954
I109
sS'392.219,17333.036,-3821.003'
p955
I138
sS'392.219,571.990,0.000'
p956
I0
sS'4754.175,17333.036,-538.731'
p957
I162
sS'4350.070,0.000,-4606.546'
p958
I125
sS'3945.965,17333.036,-538.731'
p959
I163
sS'3541.860,13329.105,0.000'
p960
I52
sS'2745.536,0.000,-4606.546'
p961
I121
sS'4350.070,0.000,-5380.365'
p962
I123
sS'1961.097,0.000,-1464.372'
p963
I96
sS'392.219,17333.036,-4606.546'
p964
I152
sS'4350.070,17333.036,-3023.734'
p965
I149
sS'2745.536,4003.931,0.000'
p966
I27
sS'1176.658,17333.036,-3821.003'
p967
I139
sS'4350.070,0.000,-1464.372'
p968
I101
sS'1176.658,1715.971,0.000'
p969
I3
sS'392.219,17333.036,-3023.734'
p970
I140
sS'3945.965,0.000,-538.731'
p971
I170
sS'3541.860,7487.872,0.000'
p972
I82
sS'2745.536,5147.912,0.000'
p973
I29
sS'1568.878,0.000,-538.731'
p974
I173
sS'3541.860,0.000,-1464.372'
p975
I100
sS'3541.860,17333.036,-2238.191'
p976
I134
sS'784.439,0.000,-538.731'
p977
I174
sS'2745.536,0.000,-3821.003'
p978
I107
sS'3541.860,17333.036,-3821.003'
p979
I146
sS'1176.658,13329.105,0.000'
p980
I13
sS'3541.860,17333.036,-4606.546'
p981
I160
sS'3541.860,0.000,-4606.546'
p982
I124
sS'1961.097,571.990,0.000'
p983
I20
sS'4350.070,12185.124,0.000'
p984
I51
sS'392.219,0.000,-4606.546'
p985
I116
sS'392.219,17333.036,-1464.372'
p986
I128
sS'392.219,15617.066,0.000'
p987
I16
sS'1176.658,0.000,-5380.365'
p988
I115
sS'1176.658,17333.036,-3023.734'
p989
I141
sS'1568.878,17333.036,-538.731'
p990
I166
sS'1961.097,7487.872,0.000'
p991
I72
sS'3541.860,15617.066,0.000'
p992
I56
sS'3541.860,12185.124,0.000'
p993
I50
sS'392.219,7487.872,0.000'
p994
I62
sS'1961.097,17333.036,-4606.546'
p995
I156
sS'4350.070,0.000,-2238.191'
p996
I99
sS'392.219,9845.165,0.000'
p997
I66
sS'2745.536,16761.046,0.000'
p998
I39
sS'392.219,0.000,-1464.372'
p999
I92
sS'1176.658,6309.225,0.000'
p1000
I61
sS'784.439,17333.036,-538.731'
p1001
I167
sS'1961.097,15617.066,0.000'
p1002
I36
sS'3541.860,9845.165,0.000'
p1003
I86
sS'1961.097,8666.518,0.000'
p1004
I74
sS'4350.070,13329.105,0.000'
p1005
I53
sS'3541.860,14473.085,0.000'
p1006
I54
sS'1176.658,16761.046,0.000'
p1007
I19
sS'1176.658,4003.931,0.000'
p1008
I7
sS'392.219,13329.105,0.000'
p1009
I12
sS'392.219,1715.971,0.000'
p1010
I2
sS'1176.658,14473.085,0.000'
p1011
I15
sS'392.219,17333.036,-2238.191'
p1012
I126
sS'1176.658,8666.518,0.000'
p1013
I65
sS'2745.536,2859.951,0.000'
p1014
I25
sS'4350.070,1715.971,0.000'
p1015
I43
sS'3541.860,0.000,-3023.734'
p1016
I112
sS'2745.536,8666.518,0.000'
p1017
I75
ssS'element_properties'
p1018
(dp1019
g650
g0
(ccompas_fea.structure.element_properties
ElementProperties
p1020
g2
Ntp1021
Rp1022
(dp1023
g15
I21
sS'__name__'
p1024
S'ElementProperties'
p1025
sS'name'
p1026
g650
sS'material'
p1027
S'wall_element_mat'
p1028
sS'section'
p1029
S'wall2_element_sec'
p1030
sS'elset'
p1031
S'elset_wall_2_4'
p1032
sS'elements'
p1033
NsS'rebar'
p1034
(dp1035
sbsg452
g0
(g1020
g2
Ntp1036
Rp1037
(dp1038
g15
I10
sg1024
g1025
sg1026
g452
sg1027
g1028
sg1029
S'wall1_element_sec'
p1039
sg1031
S'elset_wall_1_2'
p1040
sg1033
Nsg1034
g1035
sbsg560
g0
(g1020
g2
Ntp1041
Rp1042
(dp1043
g15
I16
sg1024
g1025
sg1026
g560
sg1027
g1028
sg1029
g1039
sg1031
S'elset_wall_1_8'
p1044
sg1033
Nsg1034
g1035
sbsg614
g0
(g1020
g2
Ntp1045
Rp1046
(dp1047
g15
I19
sg1024
g1025
sg1026
g614
sg1027
g1028
sg1029
g1030
sg1031
S'elset_wall_2_2'
p1048
sg1033
Nsg1034
g1035
sbsg56
g0
(g1020
g2
Ntp1049
Rp1050
(dp1051
g15
I0
sg1024
g1025
sg1026
g56
sg1027
S'plate_element_mat'
p1052
sg1029
S'plate_element_sec'
p1053
sg1031
S'elset_plate_1'
p1054
sg1033
Nsg1034
g1035
sbsg668
g0
(g1020
g2
Ntp1055
Rp1056
(dp1057
g15
I22
sg1024
g1025
sg1026
g668
sg1027
g1028
sg1029
g1030
sg1031
S'elset_wall_2_5'
p1058
sg1033
Nsg1034
g1035
sbsg392
g0
(g1020
g2
Ntp1059
Rp1060
(dp1061
g15
I8
sg1024
g1025
sg1026
g392
sg1027
g1052
sg1029
g1053
sg1031
S'elset_plate_9'
p1062
sg1033
Nsg1034
g1035
sbsg524
g0
(g1020
g2
Ntp1063
Rp1064
(dp1065
g15
I14
sg1024
g1025
sg1026
g524
sg1027
g1028
sg1029
g1039
sg1031
S'elset_wall_1_6'
p1066
sg1033
Nsg1034
g1035
sbsg224
g0
(g1020
g2
Ntp1067
Rp1068
(dp1069
g15
I4
sg1024
g1025
sg1026
g224
sg1027
g1052
sg1029
g1053
sg1031
S'elset_plate_5'
p1070
sg1033
Nsg1034
g1035
sbsg470
g0
(g1020
g2
Ntp1071
Rp1072
(dp1073
g15
I11
sg1024
g1025
sg1026
g470
sg1027
g1028
sg1029
g1039
sg1031
S'elset_wall_1_3'
p1074
sg1033
Nsg1034
g1035
sbsg140
g0
(g1020
g2
Ntp1075
Rp1076
(dp1077
g15
I2
sg1024
g1025
sg1026
g140
sg1027
g1052
sg1029
g1053
sg1031
S'elset_plate_3'
p1078
sg1033
Nsg1034
g1035
sbsg632
g0
(g1020
g2
Ntp1079
Rp1080
(dp1081
g15
I20
sg1024
g1025
sg1026
g632
sg1027
g1028
sg1029
g1030
sg1031
S'elset_wall_2_3'
p1082
sg1033
Nsg1034
g1035
sbsg686
g0
(g1020
g2
Ntp1083
Rp1084
(dp1085
g15
I23
sg1024
g1025
sg1026
g686
sg1027
g1028
sg1029
g1030
sg1031
S'elset_wall_2_6'
p1086
sg1033
Nsg1034
g1035
sbsg488
g0
(g1020
g2
Ntp1087
Rp1088
(dp1089
g15
I12
sg1024
g1025
sg1026
g488
sg1027
g1028
sg1029
g1039
sg1031
S'elset_wall_1_4'
p1090
sg1033
Nsg1034
g1035
sbsg578
g0
(g1020
g2
Ntp1091
Rp1092
(dp1093
g15
I17
sg1024
g1025
sg1026
g578
sg1027
g1028
sg1029
g1039
sg1031
S'elset_wall_1_9'
p1094
sg1033
Nsg1034
g1035
sbsg350
g0
(g1020
g2
Ntp1095
Rp1096
(dp1097
g15
I7
sg1024
g1025
sg1026
g350
sg1027
g1052
sg1029
g1053
sg1031
S'elset_plate_8'
p1098
sg1033
Nsg1034
g1035
sbsg434
g0
(g1020
g2
Ntp1099
Rp1100
(dp1101
g15
I9
sg1024
g1025
sg1026
g434
sg1027
g1028
sg1029
g1039
sg1031
S'elset_wall_1_1'
p1102
sg1033
Nsg1034
g1035
sbsg308
g0
(g1020
g2
Ntp1103
Rp1104
(dp1105
g15
I6
sg1024
g1025
sg1026
g308
sg1027
g1052
sg1029
g1053
sg1031
S'elset_plate_7'
p1106
sg1033
Nsg1034
g1035
sbsg722
g0
(g1020
g2
Ntp1107
Rp1108
(dp1109
g15
I25
sg1024
g1025
sg1026
g722
sg1027
g1028
sg1029
g1030
sg1031
S'elset_wall_2_8'
p1110
sg1033
Nsg1034
g1035
sbsg182
g0
(g1020
g2
Ntp1111
Rp1112
(dp1113
g15
I3
sg1024
g1025
sg1026
g182
sg1027
g1052
sg1029
g1053
sg1031
S'elset_plate_4'
p1114
sg1033
Nsg1034
g1035
sbsg98
g0
(g1020
g2
Ntp1115
Rp1116
(dp1117
g15
I1
sg1024
g1025
sg1026
g98
sg1027
g1052
sg1029
g1053
sg1031
S'elset_plate_2'
p1118
sg1033
Nsg1034
g1035
sbsg761
g0
(g1020
g2
Ntp1119
Rp1120
(dp1121
g15
I27
sg1024
g1025
sg1026
g761
sg1027
S'elset_mpc_element_mat'
p1122
sg1029
S'sec_mpc'
p1123
sg1031
S'elset_mpcs'
p1124
sg1033
Nsg1034
g1035
sbsg542
g0
(g1020
g2
Ntp1125
Rp1126
(dp1127
g15
I15
sg1024
g1025
sg1026
g542
sg1027
g1028
sg1029
g1039
sg1031
S'elset_wall_1_7'
p1128
sg1033
Nsg1034
g1035
sbsg704
g0
(g1020
g2
Ntp1129
Rp1130
(dp1131
g15
I24
sg1024
g1025
sg1026
g704
sg1027
g1028
sg1029
g1030
sg1031
S'elset_wall_2_7'
p1132
sg1033
Nsg1034
g1035
sbsg740
g0
(g1020
g2
Ntp1133
Rp1134
(dp1135
g15
I26
sg1024
g1025
sg1026
g740
sg1027
g1028
sg1029
g1030
sg1031
S'elset_wall_2_9'
p1136
sg1033
Nsg1034
g1035
sbsg596
g0
(g1020
g2
Ntp1137
Rp1138
(dp1139
g15
I18
sg1024
g1025
sg1026
g596
sg1027
g1028
sg1029
g1030
sg1031
S'elset_wall_2_1'
p1140
sg1033
Nsg1034
g1035
sbsg266
g0
(g1020
g2
Ntp1141
Rp1142
(dp1143
g15
I5
sg1024
g1025
sg1026
g266
sg1027
g1052
sg1029
g1053
sg1031
S'elset_plate_6'
p1144
sg1033
Nsg1034
g1035
sbsg506
g0
(g1020
g2
Ntp1145
Rp1146
(dp1147
g15
I13
sg1024
g1025
sg1026
g506
sg1027
g1028
sg1029
g1039
sg1031
S'elset_wall_1_5'
p1148
sg1033
Nsg1034
g1035
sbssS'interactions'
p1149
(dp1150
sS'loads'
p1151
(dp1152
S'Gleis1_BAHNLASTEN_Lasteinzugsflache_Lastblock_-3'
p1153
g0
(ccompas_fea.structure.load
AreaLoad
p1154
g2
Ntp1155
Rp1156
(dp1157
g15
I5
sS'__name__'
p1158
S'AreaLoad'
p1159
sS'name'
p1160
g1153
sS'axes'
p1161
S'global'
p1162
sS'components'
p1163
(dp1164
g23
F0.057552622246711489
sg27
I0
sg28
I0
ssS'nodes'
p1165
(lp1166
sS'elements'
p1167
(lp1168
I3
aI4
aI5
aI6
aI8
aI25
asS'attr_list'
p1169
(lp1170
S'name'
p1171
aS'axes'
p1172
aS'components'
p1173
aS'nodes'
p1174
aS'elements'
p1175
asbsS'Gleis1_BAHNLASTEN_Lasteinzugsflache_Lastblock_-5'
p1176
g0
(g1154
g2
Ntp1177
Rp1178
(dp1179
g15
I7
sg1158
g1159
sg1160
g1176
sg1161
g1162
sg1163
(dp1180
g23
F0.057552622246711489
sg27
I0
sg28
I0
ssg1165
g1166
sg1167
(lp1181
I42
asg1169
(lp1182
g1171
ag1172
ag1173
ag1174
ag1175
asbsS'earthPressure_liveLoad'
p1183
g0
(g1154
g2
Ntp1184
Rp1185
(dp1186
g15
I8
sg1158
g1159
sg1160
g1183
sg1161
S'local'
p1187
sg1163
(dp1188
g23
F0.037699999999999997
sg27
I0
sg28
I0
ssg1165
g1166
sg1167
(lp1189
I92
aI94
aI95
aI96
aI97
aI98
aI99
aI101
aI104
aI106
aI107
aI108
aI109
aI110
aI111
aI113
aI116
aI118
aI119
aI120
aI121
aI122
aI123
aI125
asg1169
(lp1190
g1171
ag1172
ag1173
ag1174
ag1175
asbsS'Gleis1_BAHNLASTEN_Lasteinzugsflache_Lastblock_-2'
p1191
g0
(g1154
g2
Ntp1192
Rp1193
(dp1194
g15
I4
sg1158
g1159
sg1160
g1191
sg1161
g1162
sg1163
(dp1195
g23
F0.057552622246711489
sg27
I0
sg28
I0
ssg1165
g1166
sg1167
(lp1196
I7
aI8
aI9
asg1169
(lp1197
g1171
ag1172
ag1173
ag1174
ag1175
asbsS'Gleis1_EIGENGEWICHTE_SCHIENE_Lasteinzugsflache'
p1198
g0
(g1154
g2
Ntp1199
Rp1200
(dp1201
g15
I3
sg1158
g1159
sg1160
g1198
sg1161
g1162
sg1163
(dp1202
g23
F0.0021520740400064941
sg27
I0
sg28
I0
ssg1165
g1166
sg1167
(lp1203
I1
aI2
aI3
aI4
aI5
aI6
aI7
aI8
aI9
aI21
aI22
aI23
aI24
aI25
aI41
aI42
aI43
asg1169
(lp1204
g1171
ag1172
ag1173
ag1174
ag1175
asbsS'Gleis1_BAHNLASTEN_Lasteinzugsflache_Lastblock_-4'
p1205
g0
(g1154
g2
Ntp1206
Rp1207
(dp1208
g15
I6
sg1158
g1159
sg1160
g1205
sg1161
g1162
sg1163
(dp1209
g23
F0.057552622246711489
sg27
I0
sg28
I0
ssg1165
g1166
sg1167
(lp1210
I2
aI21
aI22
aI24
aI41
aI42
aI43
asg1169
(lp1211
g1171
ag1172
ag1173
ag1174
ag1175
asbsS'earthPressure_backfill'
p1212
g0
(g1154
g2
Ntp1213
Rp1214
(dp1215
g15
I2
sg1158
g1159
sg1160
g1212
sg1161
g1187
sg1163
(dp1216
g23
F0.064474441143264616
sg27
I0
sg28
I0
ssg1165
g1166
sg1167
(lp1217
g1102
ag1040
ag1074
ag1090
ag1148
ag1066
ag1128
ag1044
ag1094
ag1140
ag1048
ag1082
ag1032
ag1058
ag1086
ag1132
ag1110
ag1136
asg1169
(lp1218
g1171
ag1172
ag1173
ag1174
ag1175
asbsS'earthPressure_gravel'
p1219
g0
(g1154
g2
Ntp1220
Rp1221
(dp1222
g15
I1
sg1158
g1159
sg1160
g1219
sg1161
g1162
sg1163
(dp1223
g23
F0.013500000000000002
sg27
I0
sg28
I0
ssg1165
g1166
sg1167
(lp1224
g1054
ag1118
ag1078
ag1114
ag1070
ag1144
ag1106
ag1098
ag1062
asg1169
(lp1225
g1171
ag1172
ag1173
ag1174
ag1175
asbsS'load_gravity'
p1226
g0
(ccompas_fea.structure.load
GravityLoad
p1227
g2
Ntp1228
Rp1229
(dp1230
g15
I0
sg1158
S'GravityLoad'
p1231
sg1160
g1226
sg1161
g1162
sg1163
(dp1232
g23
F1.3500000000000001
sg27
F0.0
sg28
F0.0
ssg1165
g1166
sg1167
(lp1233
g1054
ag1118
ag1078
ag1114
ag1070
ag1144
ag1106
ag1098
ag1062
ag1102
ag1040
ag1074
ag1090
ag1148
ag1066
ag1128
ag1044
ag1094
ag1140
ag1048
ag1082
ag1032
ag1058
ag1086
ag1132
ag1110
ag1136
asg1169
(lp1234
g1171
ag1172
ag1173
ag1174
ag1175
aS'g'
p1235
asS'g'
p1236
F-9.8100000000000005
sbssS'materials'
p1237
(dp1238
g1122
g0
(ccompas_fea.structure.material
MPCStiff
p1239
g2
Ntp1240
Rp1241
(dp1242
g15
I2
sS'__name__'
p1243
S'MPCStiff'
p1244
sS'name'
p1245
g1122
sS'attr_list'
p1246
(lp1247
g1171
aS'E'
p1248
aS'v'
p1249
aS'G'
p1250
aS'p'
p1251
aS'tension'
p1252
aS'compression'
p1253
asS'E'
p1254
(dp1255
g1248
L10000000000000L
ssS'v'
p1256
(dp1257
g1249
F0.29999999999999999
ssS'G'
p1258
(dp1259
g1250
F3846153846153.8462
ssS'p'
p1260
F0.10000000000000001
sS'tension'
p1261
I01
sS'compression'
p1262
I01
sbsg1028
g0
(ccompas_fea.structure.material
CMMUsermat
p1263
g2
Ntp1264
Rp1265
(dp1266
g15
I1
sg1243
S'CMMUsermat'
p1267
sg1245
g1028
sg1246
(lp1268
g1171
ag1248
ag1249
ag1250
ag1251
aS'R_Rohr'
p1269
aS'rho'
p1270
aS'oo'
p1271
aS'uu'
p1272
aS'beton'
p1273
aS'fcc'
p1274
aS'vc'
p1275
aS'ecu'
p1276
aS'k_E'
p1277
aS'theta_b0'
p1278
aS'theta_b1'
p1279
aS'k_riss'
p1280
aS'Entfestigung'
p1281
aS'lambdaTS'
p1282
aS'srmx'
p1283
aS'srmy'
p1284
aS'Begrenzung'
p1285
aS'KritQ'
p1286
aS'winkelD'
p1287
aS'k_vr'
p1288
aS'fswy'
p1289
aS'stahl1'
p1290
aS'zm1'
p1291
aS'fsy1'
p1292
aS'fsu1'
p1293
aS'esu1'
p1294
aS'esv1'
p1295
aS'Es1'
p1296
aS'ka1'
p1297
aS'kb1'
p1298
aS'kc1'
p1299
aS'as1'
p1300
aS'dm1'
p1301
aS'psi1'
p1302
aS'stahl2'
p1303
aS'zm2'
p1304
aS'fsy2'
p1305
aS'fsu2'
p1306
aS'esu2'
p1307
aS'esv2'
p1308
aS'Es2'
p1309
aS'ka2'
p1310
aS'kb2'
p1311
aS'kc2'
p1312
aS'as2'
p1313
aS'dm2'
p1314
aS'psi2'
p1315
aS'stahl3'
p1316
aS'zm3'
p1317
aS'fsy3'
p1318
aS'fsu3'
p1319
aS'esu3'
p1320
aS'esv3'
p1321
aS'Es3'
p1322
aS'ka3'
p1323
aS'kb3'
p1324
aS'kc3'
p1325
aS'as3'
p1326
aS'dm3'
p1327
aS'psi3'
p1328
aS'stahl4'
p1329
aS'zm4'
p1330
aS'fsy4'
p1331
aS'fsu4'
p1332
aS'esu4'
p1333
aS'esv4'
p1334
aS'Es4'
p1335
aS'ka4'
p1336
aS'kb4'
p1337
aS'kc4'
p1338
aS'as4'
p1339
aS'dm4'
p1340
aS'psi4'
p1341
asS'E'
p1342
(dp1343
S'E'
p1344
I200000
ssS'v'
p1345
(dp1346
S'v'
p1347
F0.10000000000000001
ssS'G'
p1348
(dp1349
g1250
F90909.090909090897
ssS'p'
p1350
F2.5000000000000002e-06
sS'R_Rohr'
p1351
(dp1352
g1269
I-1
ssS'rho'
p1353
(dp1354
g1270
F2.5000000000000002e-06
ssS'oo'
p1355
(dp1356
g1271
I30
ssS'uu'
p1357
(dp1358
g1272
I30
ssS'beton'
p1359
(dp1360
g1273
I2
ssS'fcc'
p1361
(dp1362
g1274
I43
ssS'vc'
p1363
(dp1364
g1275
I0
ssS'ecu'
p1365
(dp1366
g1276
F-0.002
ssS'k_E'
p1367
(dp1368
g1277
I10000
ssS'theta_b0'
p1369
(dp1370
g1278
I2
ssS'theta_b1'
p1371
(dp1372
g1279
I1
ssS'k_riss'
p1373
(dp1374
g1280
I0
ssS'Entfestigung'
p1375
(dp1376
g1281
I0
ssS'lambdaTS'
p1377
(dp1378
g1282
F0.67000000000000004
ssS'srmx'
p1379
(dp1380
g1283
I1
ssS'srmy'
p1381
(dp1382
g1284
I1
ssS'Begrenzung'
p1383
(dp1384
g1285
I2
ssS'KritQ'
p1385
(dp1386
g1286
I0
ssS'winkelD'
p1387
(dp1388
g1287
I45
ssS'k_vr'
p1389
(dp1390
g1288
I1
ssS'fswy'
p1391
(dp1392
g1289
I500
ssS'stahl1'
p1393
(dp1394
g1290
I1
ssS'zm1'
p1395
(dp1396
g1291
I2
ssS'fsy1'
p1397
(dp1398
g1292
I354
ssS'fsu1'
p1399
(dp1400
g1293
I382
ssS'esu1'
p1401
(dp1402
g1294
F0.044999999999999998
ssS'esv1'
p1403
(dp1404
g1295
F0.02
ssS'Es1'
p1405
(dp1406
g1296
I200000
ssS'ka1'
p1407
(dp1408
g1297
I-1
ssS'kb1'
p1409
(dp1410
g1298
I-1
ssS'kc1'
p1411
(dp1412
g1299
I-1
ssS'as1'
p1413
(dp1414
g1300
F1.2563993805514788
ssS'dm1'
p1415
(dp1416
g1301
F24.300807332136607
ssS'psi1'
p1417
(dp1418
g1302
I90
ssS'stahl2'
p1419
(dp1420
g1303
I1
ssS'zm2'
p1421
(dp1422
g1304
I2
ssS'fsy2'
p1423
(dp1424
g1305
I354
ssS'fsu2'
p1425
(dp1426
g1306
I382
ssS'esu2'
p1427
(dp1428
g1307
F0.044999999999999998
ssS'esv2'
p1429
(dp1430
g1308
F0.02
ssS'Es2'
p1431
(dp1432
g1309
I200000
ssS'ka2'
p1433
(dp1434
g1310
I-1
ssS'kb2'
p1435
(dp1436
g1311
I-1
ssS'kc2'
p1437
(dp1438
g1312
I-1
ssS'as2'
p1439
(dp1440
g1313
F0.3063718093290041
ssS'dm2'
p1441
(dp1442
g1314
F12.0
ssS'psi2'
p1443
(dp1444
g1315
I0
ssS'stahl3'
p1445
(dp1446
g1316
I1
ssS'zm3'
p1447
(dp1448
g1317
I2
ssS'fsy3'
p1449
(dp1450
g1318
I354
ssS'fsu3'
p1451
(dp1452
g1319
I382
ssS'esu3'
p1453
(dp1454
g1320
F0.044999999999999998
ssS'esv3'
p1455
(dp1456
g1321
F0.02
ssS'Es3'
p1457
(dp1458
g1322
I200000
ssS'ka3'
p1459
(dp1460
g1323
I-1
ssS'kb3'
p1461
(dp1462
g1324
I-1
ssS'kc3'
p1463
(dp1464
g1325
I-1
ssS'as3'
p1465
(dp1466
g1326
F0.3063718093290041
ssS'dm3'
p1467
(dp1468
g1327
F12.0
ssS'psi3'
p1469
(dp1470
g1328
I0
ssS'stahl4'
p1471
(dp1472
g1329
I1
ssS'zm4'
p1473
(dp1474
g1330
I2
ssS'fsy4'
p1475
(dp1476
g1331
I354
ssS'fsu4'
p1477
(dp1478
g1332
I382
ssS'esu4'
p1479
(dp1480
g1333
F0.044999999999999998
ssS'esv4'
p1481
(dp1482
g1334
F0.02
ssS'Es4'
p1483
(dp1484
g1335
I200000
ssS'ka4'
p1485
(dp1486
g1336
I-1
ssS'kb4'
p1487
(dp1488
g1337
I-1
ssS'kc4'
p1489
(dp1490
g1338
I-1
ssS'as4'
p1491
(dp1492
g1339
F1.4022585829000969
ssS'dm4'
p1493
(dp1494
g1340
F25.672661750657706
ssS'psi4'
p1495
(dp1496
g1341
I90
ssbsg1052
g0
(g1263
g2
Ntp1497
Rp1498
(dp1499
g15
I0
sg1243
g1267
sg1245
g1052
sg1246
(lp1500
g1171
ag1248
ag1249
ag1250
ag1251
ag1269
ag1270
ag1271
ag1272
ag1273
ag1274
ag1275
ag1276
ag1277
ag1278
ag1279
ag1280
ag1281
ag1282
ag1283
ag1284
ag1285
ag1286
ag1287
ag1288
ag1289
ag1290
ag1291
ag1292
ag1293
ag1294
ag1295
ag1296
ag1297
ag1298
ag1299
ag1300
ag1301
ag1302
ag1303
ag1304
ag1305
ag1306
ag1307
ag1308
ag1309
ag1310
ag1311
ag1312
ag1313
ag1314
ag1315
ag1316
ag1317
ag1318
ag1319
ag1320
ag1321
ag1322
ag1323
ag1324
ag1325
ag1326
ag1327
ag1328
ag1329
ag1330
ag1331
ag1332
ag1333
ag1334
ag1335
ag1336
ag1337
ag1338
ag1339
ag1340
ag1341
asg1342
(dp1501
g1344
I200000
ssg1345
(dp1502
g1347
F0.10000000000000001
ssg1348
(dp1503
g1250
F90909.090909090897
ssg1350
F2.5000000000000002e-06
sg1351
(dp1504
g1269
I-1
ssg1353
(dp1505
g1270
F2.5000000000000002e-06
ssg1355
(dp1506
g1271
I30
ssg1357
(dp1507
g1272
I30
ssg1359
(dp1508
g1273
I2
ssg1361
(dp1509
g1274
I43
ssg1363
(dp1510
g1275
I0
ssg1365
(dp1511
g1276
F-0.002
ssg1367
(dp1512
g1277
I10000
ssg1369
(dp1513
g1278
I2
ssg1371
(dp1514
g1279
I1
ssg1373
(dp1515
g1280
I0
ssg1375
(dp1516
g1281
I0
ssg1377
(dp1517
g1282
F0.67000000000000004
ssg1379
(dp1518
g1283
I1
ssg1381
(dp1519
g1284
I1
ssg1383
(dp1520
g1285
I2
ssg1385
(dp1521
g1286
I0
ssg1387
(dp1522
g1287
I45
ssg1389
(dp1523
g1288
I1
ssg1391
(dp1524
g1289
I500
ssg1393
(dp1525
g1290
I1
ssg1395
(dp1526
g1291
I2
ssg1397
(dp1527
g1292
I354
ssg1399
(dp1528
g1293
I382
ssg1401
(dp1529
g1294
F0.044999999999999998
ssg1403
(dp1530
g1295
F0.02
ssg1405
(dp1531
g1296
I200000
ssg1407
(dp1532
g1297
I-1
ssg1409
(dp1533
g1298
I-1
ssg1411
(dp1534
g1299
I-1
ssg1413
(dp1535
g1300
F0.55789237814589321
ssg1415
(dp1536
g1301
F11.943120972401466
ssg1417
(dp1537
g1302
I90
ssg1419
(dp1538
g1303
I1
ssg1421
(dp1539
g1304
I2
ssg1423
(dp1540
g1305
I354
ssg1425
(dp1541
g1306
I382
ssg1427
(dp1542
g1307
F0.044999999999999998
ssg1429
(dp1543
g1308
F0.02
ssg1431
(dp1544
g1309
I200000
ssg1433
(dp1545
g1310
I-1
ssg1435
(dp1546
g1311
I-1
ssg1437
(dp1547
g1312
I-1
ssg1439
(dp1548
g1313
F1.3787697881146379
ssg1441
(dp1549
g1314
F18.775369663381831
ssg1443
(dp1550
g1315
I0
ssg1445
(dp1551
g1316
I1
ssg1447
(dp1552
g1317
I2
ssg1449
(dp1553
g1318
I354
ssg1451
(dp1554
g1319
I382
ssg1453
(dp1555
g1320
F0.044999999999999998
ssg1455
(dp1556
g1321
F0.02
ssg1457
(dp1557
g1322
I200000
ssg1459
(dp1558
g1323
I-1
ssg1461
(dp1559
g1324
I-1
ssg1463
(dp1560
g1325
I-1
ssg1465
(dp1561
g1326
F0.5632189487555469
ssg1467
(dp1562
g1327
F12.0
ssg1469
(dp1563
g1328
I0
ssg1471
(dp1564
g1329
I1
ssg1473
(dp1565
g1330
I2
ssg1475
(dp1566
g1331
I354
ssg1477
(dp1567
g1332
I382
ssg1479
(dp1568
g1333
F0.044999999999999998
ssg1481
(dp1569
g1334
F0.02
ssg1483
(dp1570
g1335
I200000
ssg1485
(dp1571
g1336
I-1
ssg1487
(dp1572
g1337
I-1
ssg1489
(dp1573
g1338
I-1
ssg1491
(dp1574
g1339
F1.518183040312588
ssg1493
(dp1575
g1340
F19.70174460685762
ssg1495
(dp1576
g1341
I90
ssbssS'misc'
p1577
(dp1578
sS'name'
p1579
S'NLFE_CFB1'
p1580
sS'nodes'
p1581
(dp1582
I0
g0
(ccompas_fea.structure.node
Node
p1583
g2
Ntp1584
Rp1585
(dp1586
S'__name__'
p1587
S'Node'
p1588
sS'key'
p1589
I0
sS'x'
p1590
F0.0
sS'y'
p1591
F0.0
sS'z'
p1592
F0.0
sS'ex'
p1593
(lp1594
I1
aI0
aI0
asS'ey'
p1595
(lp1596
I0
aI1
aI0
asS'ez'
p1597
(lp1598
I0
aI0
aI1
asS'mass'
p1599
NsbsI1
g0
(g1583
g2
Ntp1600
Rp1601
(dp1602
g1587
g1588
sg1589
I1
sg1590
F784.43882857962228
sg1591
F0.0
sg1592
F0.0
sg1593
g1594
sg1595
g1596
sg1597
g1598
sg1599
NsbsI2
g0
(g1583
g2
Ntp1603
Rp1604
(dp1605
g1587
g1588
sg1589
I2
sg1590
F1568.8776571592448
sg1591
F0.0
sg1592
F0.0
sg1593
g1594
sg1595
g1596
sg1597
g1598
sg1599
NsbsI3
g0
(g1583
g2
Ntp1606
Rp1607
(dp1608
g1587
g1588
sg1589
I3
sg1590
F0.0
sg1591
F1143.9803901234068
sg1592
F0.0
sg1593
g1594
sg1595
g1596
sg1597
g1598
sg1599
NsbsI4
g0
(g1583
g2
Ntp1609
Rp1610
(dp1611
g1587
g1588
sg1589
I4
sg1590
F784.4388285796224
sg1591
F1143.9803901234066
sg1592
F0.0
sg1593
g1594
sg1595
g1596
sg1597
g1598
sg1599
NsbsI5
g0
(g1583
g2
Ntp1612
Rp1613
(dp1614
g1587
g1588
sg1589
I5
sg1590
F1568.877657159245
sg1591
F1143.9803901234068
sg1592
F0.0
sg1593
g1594
sg1595
g1596
sg1597
g1598
sg1599
NsbsI6
g0
(g1583
g2
Ntp1615
Rp1616
(dp1617
g1587
g1588
sg1589
I6
sg1590
F0.0
sg1591
F2287.9607802468136
sg1592
F0.0
sg1593
g1594
sg1595
g1596
sg1597
g1598
sg1599
NsbsI7
g0
(g1583
g2
Ntp1618
Rp1619
(dp1620
g1587
g1588
sg1589
I7
sg1590
F784.43882857962228
sg1591
F2287.9607802468131
sg1592
F0.0
sg1593
g1594
sg1595
g1596
sg1597
g1598
sg1599
NsbsI8
g0
(g1583
g2
Ntp1621
Rp1622
(dp1623
g1587
g1588
sg1589
I8
sg1590
F1568.8776571592448
sg1591
F2287.9607802468136
sg1592
F0.0
sg1593
g1594
sg1595
g1596
sg1597
g1598
sg1599
NsbsI9
g0
(g1583
g2
Ntp1624
Rp1625
(dp1626
g1587
g1588
sg1589
I9
sg1590
F0.0
sg1591
F3431.9411703702199
sg1592
F0.0
sg1593
g1594
sg1595
g1596
sg1597
g1598
sg1599
NsbsI10
g0
(g1583
g2
Ntp1627
Rp1628
(dp1629
g1587
g1588
sg1589
I10
sg1590
F784.43882857962228
sg1591
F3431.9411703702194
sg1592
F0.0
sg1593
g1594
sg1595
g1596
sg1597
g1598
sg1599
NsbsI11
g0
(g1583
g2
Ntp1630
Rp1631
(dp1632
g1587
g1588
sg1589
I11
sg1590
F1568.8776571592448
sg1591
F3431.9411703702199
sg1592
F0.0
sg1593
g1594
sg1595
g1596
sg1597
g1598
sg1599
NsbsI12
g0
(g1583
g2
Ntp1633
Rp1634
(dp1635
g1587
g1588
sg1589
I12
sg1590
F0.0
sg1591
F4575.9215604936271
sg1592
F0.0
sg1593
g1594
sg1595
g1596
sg1597
g1598
sg1599
NsbsI13
g0
(g1583
g2
Ntp1636
Rp1637
(dp1638
g1587
g1588
sg1589
I13
sg1590
F784.43882857962228
sg1591
F4575.9215604936262
sg1592
F0.0
sg1593
g1594
sg1595
g1596
sg1597
g1598
sg1599
NsbsI14
g0
(g1583
g2
Ntp1639
Rp1640
(dp1641
g1587
g1588
sg1589
I14
sg1590
F1568.8776571592448
sg1591
F4575.9215604936271
sg1592
F0.0
sg1593
g1594
sg1595
g1596
sg1597
g1598
sg1599
NsbsI15
g0
(g1583
g2
Ntp1642
Rp1643
(dp1644
g1587
g1588
sg1589
I15
sg1590
F0.0
sg1591
F5719.9019506170334
sg1592
F0.0
sg1593
g1594
sg1595
g1596
sg1597
g1598
sg1599
NsbsI16
g0
(g1583
g2
Ntp1645
Rp1646
(dp1647
g1587
g1588
sg1589
I16
sg1590
F784.43882857962228
sg1591
F5719.9019506170325
sg1592
F0.0
sg1593
g1594
sg1595
g1596
sg1597
g1598
sg1599
NsbsI17
g0
(g1583
g2
Ntp1648
Rp1649
(dp1650
g1587
g1588
sg1589
I17
sg1590
F1568.8776571592448
sg1591
F5719.9019506170334
sg1592
F0.0
sg1593
g1594
sg1595
g1596
sg1597
g1598
sg1599
NsbsI18
g0
(g1583
g2
Ntp1651
Rp1652
(dp1653
g1587
g1588
sg1589
I18
sg1590
F0.0
sg1591
F11613.134263373977
sg1592
F0.0
sg1593
g1594
sg1595
g1596
sg1597
g1598
sg1599
NsbsI19
g0
(g1583
g2
Ntp1654
Rp1655
(dp1656
g1587
g1588
sg1589
I19
sg1590
F784.43882857962228
sg1591
F11613.134263373975
sg1592
F0.0
sg1593
g1594
sg1595
g1596
sg1597
g1598
sg1599
NsbsI20
g0
(g1583
g2
Ntp1657
Rp1658
(dp1659
g1587
g1588
sg1589
I20
sg1590
F1568.8776571592448
sg1591
F11613.134263373977
sg1592
F0.0
sg1593
g1594
sg1595
g1596
sg1597
g1598
sg1599
NsbsI21
g0
(g1583
g2
Ntp1660
Rp1661
(dp1662
g1587
g1588
sg1589
I21
sg1590
F0.0
sg1591
F12757.114653497383
sg1592
F0.0
sg1593
g1594
sg1595
g1596
sg1597
g1598
sg1599
NsbsI22
g0
(g1583
g2
Ntp1663
Rp1664
(dp1665
g1587
g1588
sg1589
I22
sg1590
F784.4388285796224
sg1591
F12757.114653497381
sg1592
F0.0
sg1593
g1594
sg1595
g1596
sg1597
g1598
sg1599
NsbsI23
g0
(g1583
g2
Ntp1666
Rp1667
(dp1668
g1587
g1588
sg1589
I23
sg1590
F1568.877657159245
sg1591
F12757.114653497383
sg1592
F0.0
sg1593
g1594
sg1595
g1596
sg1597
g1598
sg1599
NsbsI24
g0
(g1583
g2
Ntp1669
Rp1670
(dp1671
g1587
g1588
sg1589
I24
sg1590
F0.0
sg1591
F13901.09504362079
sg1592
F0.0
sg1593
g1594
sg1595
g1596
sg1597
g1598
sg1599
NsbsI25
g0
(g1583
g2
Ntp1672
Rp1673
(dp1674
g1587
g1588
sg1589
I25
sg1590
F784.43882857962228
sg1591
F13901.095043620788
sg1592
F0.0
sg1593
g1594
sg1595
g1596
sg1597
g1598
sg1599
NsbsI26
g0
(g1583
g2
Ntp1675
Rp1676
(dp1677
g1587
g1588
sg1589
I26
sg1590
F1568.8776571592448
sg1591
F13901.09504362079
sg1592
F0.0
sg1593
g1594
sg1595
g1596
sg1597
g1598
sg1599
NsbsI27
g0
(g1583
g2
Ntp1678
Rp1679
(dp1680
g1587
g1588
sg1589
I27
sg1590
F0.0
sg1591
F15045.075433744196
sg1592
F0.0
sg1593
g1594
sg1595
g1596
sg1597
g1598
sg1599
NsbsI28
g0
(g1583
g2
Ntp1681
Rp1682
(dp1683
g1587
g1588
sg1589
I28
sg1590
F784.43882857962228
sg1591
F15045.075433744194
sg1592
F0.0
sg1593
g1594
sg1595
g1596
sg1597
g1598
sg1599
NsbsI29
g0
(g1583
g2
Ntp1684
Rp1685
(dp1686
g1587
g1588
sg1589
I29
sg1590
F1568.8776571592448
sg1591
F15045.075433744196
sg1592
F0.0
sg1593
g1594
sg1595
g1596
sg1597
g1598
sg1599
NsbsI30
g0
(g1583
g2
Ntp1687
Rp1688
(dp1689
g1587
g1588
sg1589
I30
sg1590
F0.0
sg1591
F16189.055823867602
sg1592
F0.0
sg1593
g1594
sg1595
g1596
sg1597
g1598
sg1599
NsbsI31
g0
(g1583
g2
Ntp1690
Rp1691
(dp1692
g1587
g1588
sg1589
I31
sg1590
F784.43882857962228
sg1591
F16189.0558238676
sg1592
F0.0
sg1593
g1594
sg1595
g1596
sg1597
g1598
sg1599
NsbsI32
g0
(g1583
g2
Ntp1693
Rp1694
(dp1695
g1587
g1588
sg1589
I32
sg1590
F1568.8776571592448
sg1591
F16189.055823867602
sg1592
F0.0
sg1593
g1594
sg1595
g1596
sg1597
g1598
sg1599
NsbsI33
g0
(g1583
g2
Ntp1696
Rp1697
(dp1698
g1587
g1588
sg1589
I33
sg1590
F0.0
sg1591
F17333.03621399101
sg1592
F0.0
sg1593
g1594
sg1595
g1596
sg1597
g1598
sg1599
NsbsI34
g0
(g1583
g2
Ntp1699
Rp1700
(dp1701
g1587
g1588
sg1589
I34
sg1590
F784.43882857962228
sg1591
F17333.036213991007
sg1592
F0.0
sg1593
g1594
sg1595
g1596
sg1597
g1598
sg1599
NsbsI35
g0
(g1583
g2
Ntp1702
Rp1703
(dp1704
g1587
g1588
sg1589
I35
sg1590
F1568.8776571592448
sg1591
F17333.03621399101
sg1592
F0.0
sg1593
g1594
sg1595
g1596
sg1597
g1598
sg1599
NsbsI36
g0
(g1583
g2
Ntp1705
Rp1706
(dp1707
g1587
g1588
sg1589
I36
sg1590
F2353.316485738867
sg1591
F0.0
sg1592
F0.0
sg1593
g1594
sg1595
g1596
sg1597
g1598
sg1599
NsbsI37
g0
(g1583
g2
Ntp1708
Rp1709
(dp1710
g1587
g1588
sg1589
I37
sg1590
F3137.7553143184896
sg1591
F0.0
sg1592
F0.0
sg1593
g1594
sg1595
g1596
sg1597
g1598
sg1599
NsbsI38
g0
(g1583
g2
Ntp1711
Rp1712
(dp1713
g1587
g1588
sg1589
I38
sg1590
F2353.316485738867
sg1591
F1143.9803901234066
sg1592
F0.0
sg1593
g1594
sg1595
g1596
sg1597
g1598
sg1599
NsbsI39
g0
(g1583
g2
Ntp1714
Rp1715
(dp1716
g1587
g1588
sg1589
I39
sg1590
F3137.75531431849
sg1591
F1143.9803901234068
sg1592
F0.0
sg1593
g1594
sg1595
g1596
sg1597
g1598
sg1599
NsbsI40
g0
(g1583
g2
Ntp1717
Rp1718
(dp1719
g1587
g1588
sg1589
I40
sg1590
F2353.316485738867
sg1591
F2287.9607802468131
sg1592
F0.0
sg1593
g1594
sg1595
g1596
sg1597
g1598
sg1599
NsbsI41
g0
(g1583
g2
Ntp1720
Rp1721
(dp1722
g1587
g1588
sg1589
I41
sg1590
F3137.7553143184896
sg1591
F2287.9607802468136
sg1592
F0.0
sg1593
g1594
sg1595
g1596
sg1597
g1598
sg1599
NsbsI42
g0
(g1583
g2
Ntp1723
Rp1724
(dp1725
g1587
g1588
sg1589
I42
sg1590
F2353.316485738867
sg1591
F3431.9411703702194
sg1592
F0.0
sg1593
g1594
sg1595
g1596
sg1597
g1598
sg1599
NsbsI43
g0
(g1583
g2
Ntp1726
Rp1727
(dp1728
g1587
g1588
sg1589
I43
sg1590
F3137.7553143184896
sg1591
F3431.9411703702199
sg1592
F0.0
sg1593
g1594
sg1595
g1596
sg1597
g1598
sg1599
NsbsI44
g0
(g1583
g2
Ntp1729
Rp1730
(dp1731
g1587
g1588
sg1589
I44
sg1590
F2353.3164857388665
sg1591
F4575.9215604936262
sg1592
F0.0
sg1593
g1594
sg1595
g1596
sg1597
g1598
sg1599
NsbsI45
g0
(g1583
g2
Ntp1732
Rp1733
(dp1734
g1587
g1588
sg1589
I45
sg1590
F3137.7553143184896
sg1591
F4575.9215604936271
sg1592
F0.0
sg1593
g1594
sg1595
g1596
sg1597
g1598
sg1599
NsbsI46
g0
(g1583
g2
Ntp1735
Rp1736
(dp1737
g1587
g1588
sg1589
I46
sg1590
F2353.316485738867
sg1591
F5719.9019506170325
sg1592
F0.0
sg1593
g1594
sg1595
g1596
sg1597
g1598
sg1599
NsbsI47
g0
(g1583
g2
Ntp1738
Rp1739
(dp1740
g1587
g1588
sg1589
I47
sg1590
F3137.7553143184896
sg1591
F5719.9019506170334
sg1592
F0.0
sg1593
g1594
sg1595
g1596
sg1597
g1598
sg1599
NsbsI48
g0
(g1583
g2
Ntp1741
Rp1742
(dp1743
g1587
g1588
sg1589
I48
sg1590
F2353.316485738867
sg1591
F11613.134263373975
sg1592
F0.0
sg1593
g1594
sg1595
g1596
sg1597
g1598
sg1599
NsbsI49
g0
(g1583
g2
Ntp1744
Rp1745
(dp1746
g1587
g1588
sg1589
I49
sg1590
F3137.7553143184896
sg1591
F11613.134263373977
sg1592
F0.0
sg1593
g1594
sg1595
g1596
sg1597
g1598
sg1599
NsbsI50
g0
(g1583
g2
Ntp1747
Rp1748
(dp1749
g1587
g1588
sg1589
I50
sg1590
F2353.316485738867
sg1591
F12757.114653497381
sg1592
F0.0
sg1593
g1594
sg1595
g1596
sg1597
g1598
sg1599
NsbsI51
g0
(g1583
g2
Ntp1750
Rp1751
(dp1752
g1587
g1588
sg1589
I51
sg1590
F3137.75531431849
sg1591
F12757.114653497383
sg1592
F0.0
sg1593
g1594
sg1595
g1596
sg1597
g1598
sg1599
NsbsI52
g0
(g1583
g2
Ntp1753
Rp1754
(dp1755
g1587
g1588
sg1589
I52
sg1590
F2353.316485738867
sg1591
F13901.095043620788
sg1592
F0.0
sg1593
g1594
sg1595
g1596
sg1597
g1598
sg1599
NsbsI53
g0
(g1583
g2
Ntp1756
Rp1757
(dp1758
g1587
g1588
sg1589
I53
sg1590
F3137.7553143184896
sg1591
F13901.09504362079
sg1592
F0.0
sg1593
g1594
sg1595
g1596
sg1597
g1598
sg1599
NsbsI54
g0
(g1583
g2
Ntp1759
Rp1760
(dp1761
g1587
g1588
sg1589
I54
sg1590
F2353.316485738867
sg1591
F15045.075433744194
sg1592
F0.0
sg1593
g1594
sg1595
g1596
sg1597
g1598
sg1599
NsbsI55
g0
(g1583
g2
Ntp1762
Rp1763
(dp1764
g1587
g1588
sg1589
I55
sg1590
F3137.7553143184896
sg1591
F15045.075433744196
sg1592
F0.0
sg1593
g1594
sg1595
g1596
sg1597
g1598
sg1599
NsbsI56
g0
(g1583
g2
Ntp1765
Rp1766
(dp1767
g1587
g1588
sg1589
I56
sg1590
F2353.3164857388665
sg1591
F16189.0558238676
sg1592
F0.0
sg1593
g1594
sg1595
g1596
sg1597
g1598
sg1599
NsbsI57
g0
(g1583
g2
Ntp1768
Rp1769
(dp1770
g1587
g1588
sg1589
I57
sg1590
F3137.7553143184896
sg1591
F16189.055823867602
sg1592
F0.0
sg1593
g1594
sg1595
g1596
sg1597
g1598
sg1599
NsbsI58
g0
(g1583
g2
Ntp1771
Rp1772
(dp1773
g1587
g1588
sg1589
I58
sg1590
F2353.316485738867
sg1591
F17333.036213991007
sg1592
F0.0
sg1593
g1594
sg1595
g1596
sg1597
g1598
sg1599
NsbsI59
g0
(g1583
g2
Ntp1774
Rp1775
(dp1776
g1587
g1588
sg1589
I59
sg1590
F3137.7553143184896
sg1591
F17333.03621399101
sg1592
F0.0
sg1593
g1594
sg1595
g1596
sg1597
g1598
sg1599
NsbsI60
g0
(g1583
g2
Ntp1777
Rp1778
(dp1779
g1587
g1588
sg1589
I60
sg1590
F3945.9650164914337
sg1591
F0.0
sg1592
F0.0
sg1593
g1594
sg1595
g1596
sg1597
g1598
sg1599
NsbsI61
g0
(g1583
g2
Ntp1780
Rp1781
(dp1782
g1587
g1588
sg1589
I61
sg1590
F4754.1747186643779
sg1591
F0.0
sg1592
F0.0
sg1593
g1594
sg1595
g1596
sg1597
g1598
sg1599
NsbsI62
g0
(g1583
g2
Ntp1783
Rp1784
(dp1785
g1587
g1588
sg1589
I62
sg1590
F3945.9650164914347
sg1591
F1143.9803901234068
sg1592
F0.0
sg1593
g1594
sg1595
g1596
sg1597
g1598
sg1599
NsbsI63
g0
(g1583
g2
Ntp1786
Rp1787
(dp1788
g1587
g1588
sg1589
I63
sg1590
F4754.1747186643788
sg1591
F1143.9803901234068
sg1592
F0.0
sg1593
g1594
sg1595
g1596
sg1597
g1598
sg1599
NsbsI64
g0
(g1583
g2
Ntp1789
Rp1790
(dp1791
g1587
g1588
sg1589
I64
sg1590
F3945.9650164914337
sg1591
F2287.9607802468136
sg1592
F0.0
sg1593
g1594
sg1595
g1596
sg1597
g1598
sg1599
NsbsI65
g0
(g1583
g2
Ntp1792
Rp1793
(dp1794
g1587
g1588
sg1589
I65
sg1590
F4754.1747186643779
sg1591
F2287.9607802468136
sg1592
F0.0
sg1593
g1594
sg1595
g1596
sg1597
g1598
sg1599
NsbsI66
g0
(g1583
g2
Ntp1795
Rp1796
(dp1797
g1587
g1588
sg1589
I66
sg1590
F3945.9650164914337
sg1591
F3431.9411703702199
sg1592
F0.0
sg1593
g1594
sg1595
g1596
sg1597
g1598
sg1599
NsbsI67
g0
(g1583
g2
Ntp1798
Rp1799
(dp1800
g1587
g1588
sg1589
I67
sg1590
F4754.1747186643779
sg1591
F3431.9411703702199
sg1592
F0.0
sg1593
g1594
sg1595
g1596
sg1597
g1598
sg1599
NsbsI68
g0
(g1583
g2
Ntp1801
Rp1802
(dp1803
g1587
g1588
sg1589
I68
sg1590
F3945.9650164914337
sg1591
F4575.9215604936271
sg1592
F0.0
sg1593
g1594
sg1595
g1596
sg1597
g1598
sg1599
NsbsI69
g0
(g1583
g2
Ntp1804
Rp1805
(dp1806
g1587
g1588
sg1589
I69
sg1590
F4754.1747186643779
sg1591
F4575.9215604936271
sg1592
F0.0
sg1593
g1594
sg1595
g1596
sg1597
g1598
sg1599
NsbsI70
g0
(g1583
g2
Ntp1807
Rp1808
(dp1809
g1587
g1588
sg1589
I70
sg1590
F3945.9650164914337
sg1591
F5719.9019506170334
sg1592
F0.0
sg1593
g1594
sg1595
g1596
sg1597
g1598
sg1599
NsbsI71
g0
(g1583
g2
Ntp1810
Rp1811
(dp1812
g1587
g1588
sg1589
I71
sg1590
F4754.1747186643779
sg1591
F5719.9019506170334
sg1592
F0.0
sg1593
g1594
sg1595
g1596
sg1597
g1598
sg1599
NsbsI72
g0
(g1583
g2
Ntp1813
Rp1814
(dp1815
g1587
g1588
sg1589
I72
sg1590
F3945.9650164914337
sg1591
F11613.134263373977
sg1592
F0.0
sg1593
g1594
sg1595
g1596
sg1597
g1598
sg1599
NsbsI73
g0
(g1583
g2
Ntp1816
Rp1817
(dp1818
g1587
g1588
sg1589
I73
sg1590
F4754.1747186643779
sg1591
F11613.134263373977
sg1592
F0.0
sg1593
g1594
sg1595
g1596
sg1597
g1598
sg1599
NsbsI74
g0
(g1583
g2
Ntp1819
Rp1820
(dp1821
g1587
g1588
sg1589
I74
sg1590
F3945.9650164914347
sg1591
F12757.114653497385
sg1592
F0.0
sg1593
g1594
sg1595
g1596
sg1597
g1598
sg1599
NsbsI75
g0
(g1583
g2
Ntp1822
Rp1823
(dp1824
g1587
g1588
sg1589
I75
sg1590
F4754.1747186643788
sg1591
F12757.114653497383
sg1592
F0.0
sg1593
g1594
sg1595
g1596
sg1597
g1598
sg1599
NsbsI76
g0
(g1583
g2
Ntp1825
Rp1826
(dp1827
g1587
g1588
sg1589
I76
sg1590
F3945.9650164914337
sg1591
F13901.09504362079
sg1592
F0.0
sg1593
g1594
sg1595
g1596
sg1597
g1598
sg1599
NsbsI77
g0
(g1583
g2
Ntp1828
Rp1829
(dp1830
g1587
g1588
sg1589
I77
sg1590
F4754.1747186643779
sg1591
F13901.09504362079
sg1592
F0.0
sg1593
g1594
sg1595
g1596
sg1597
g1598
sg1599
NsbsI78
g0
(g1583
g2
Ntp1831
Rp1832
(dp1833
g1587
g1588
sg1589
I78
sg1590
F3945.9650164914337
sg1591
F15045.075433744198
sg1592
F0.0
sg1593
g1594
sg1595
g1596
sg1597
g1598
sg1599
NsbsI79
g0
(g1583
g2
Ntp1834
Rp1835
(dp1836
g1587
g1588
sg1589
I79
sg1590
F4754.1747186643779
sg1591
F15045.075433744196
sg1592
F0.0
sg1593
g1594
sg1595
g1596
sg1597
g1598
sg1599
NsbsI80
g0
(g1583
g2
Ntp1837
Rp1838
(dp1839
g1587
g1588
sg1589
I80
sg1590
F3945.9650164914337
sg1591
F16189.055823867602
sg1592
F0.0
sg1593
g1594
sg1595
g1596
sg1597
g1598
sg1599
NsbsI81
g0
(g1583
g2
Ntp1840
Rp1841
(dp1842
g1587
g1588
sg1589
I81
sg1590
F4754.1747186643779
sg1591
F16189.055823867602
sg1592
F0.0
sg1593
g1594
sg1595
g1596
sg1597
g1598
sg1599
NsbsI82
g0
(g1583
g2
Ntp1843
Rp1844
(dp1845
g1587
g1588
sg1589
I82
sg1590
F3945.9650164914337
sg1591
F17333.03621399101
sg1592
F0.0
sg1593
g1594
sg1595
g1596
sg1597
g1598
sg1599
NsbsI83
g0
(g1583
g2
Ntp1846
Rp1847
(dp1848
g1587
g1588
sg1589
I83
sg1590
F4754.1747186643779
sg1591
F17333.03621399101
sg1592
F0.0
sg1593
g1594
sg1595
g1596
sg1597
g1598
sg1599
NsbsI84
g0
(g1583
g2
Ntp1849
Rp1850
(dp1851
g1587
g1588
sg1589
I84
sg1590
F0.0
sg1591
F6898.5484131684216
sg1592
F0.0
sg1593
g1594
sg1595
g1596
sg1597
g1598
sg1599
NsbsI85
g0
(g1583
g2
Ntp1852
Rp1853
(dp1854
g1587
g1588
sg1589
I85
sg1590
F784.43882857962228
sg1591
F6898.5484131684207
sg1592
F0.0
sg1593
g1594
sg1595
g1596
sg1597
g1598
sg1599
NsbsI86
g0
(g1583
g2
Ntp1855
Rp1856
(dp1857
g1587
g1588
sg1589
I86
sg1590
F1568.8776571592448
sg1591
F6898.5484131684216
sg1592
F0.0
sg1593
g1594
sg1595
g1596
sg1597
g1598
sg1599
NsbsI87
g0
(g1583
g2
Ntp1858
Rp1859
(dp1860
g1587
g1588
sg1589
I87
sg1590
F0.0
sg1591
F8077.1948757198106
sg1592
F0.0
sg1593
g1594
sg1595
g1596
sg1597
g1598
sg1599
NsbsI88
g0
(g1583
g2
Ntp1861
Rp1862
(dp1863
g1587
g1588
sg1589
I88
sg1590
F784.43882857962228
sg1591
F8077.1948757198097
sg1592
F0.0
sg1593
g1594
sg1595
g1596
sg1597
g1598
sg1599
NsbsI89
g0
(g1583
g2
Ntp1864
Rp1865
(dp1866
g1587
g1588
sg1589
I89
sg1590
F1568.8776571592448
sg1591
F8077.1948757198106
sg1592
F0.0
sg1593
g1594
sg1595
g1596
sg1597
g1598
sg1599
NsbsI90
g0
(g1583
g2
Ntp1867
Rp1868
(dp1869
g1587
g1588
sg1589
I90
sg1590
F0.0
sg1591
F9255.8413382711988
sg1592
F0.0
sg1593
g1594
sg1595
g1596
sg1597
g1598
sg1599
NsbsI91
g0
(g1583
g2
Ntp1870
Rp1871
(dp1872
g1587
g1588
sg1589
I91
sg1590
F784.43882857962228
sg1591
F9255.8413382711988
sg1592
F0.0
sg1593
g1594
sg1595
g1596
sg1597
g1598
sg1599
NsbsI92
g0
(g1583
g2
Ntp1873
Rp1874
(dp1875
g1587
g1588
sg1589
I92
sg1590
F1568.8776571592448
sg1591
F9255.8413382711988
sg1592
F0.0
sg1593
g1594
sg1595
g1596
sg1597
g1598
sg1599
NsbsI93
g0
(g1583
g2
Ntp1876
Rp1877
(dp1878
g1587
g1588
sg1589
I93
sg1590
F0.0
sg1591
F10434.487800822588
sg1592
F0.0
sg1593
g1594
sg1595
g1596
sg1597
g1598
sg1599
NsbsI94
g0
(g1583
g2
Ntp1879
Rp1880
(dp1881
g1587
g1588
sg1589
I94
sg1590
F784.43882857962228
sg1591
F10434.487800822588
sg1592
F0.0
sg1593
g1594
sg1595
g1596
sg1597
g1598
sg1599
NsbsI95
g0
(g1583
g2
Ntp1882
Rp1883
(dp1884
g1587
g1588
sg1589
I95
sg1590
F1568.8776571592448
sg1591
F10434.487800822588
sg1592
F0.0
sg1593
g1594
sg1595
g1596
sg1597
g1598
sg1599
NsbsI96
g0
(g1583
g2
Ntp1885
Rp1886
(dp1887
g1587
g1588
sg1589
I96
sg1590
F2353.3164857388665
sg1591
F6898.5484131684207
sg1592
F0.0
sg1593
g1594
sg1595
g1596
sg1597
g1598
sg1599
NsbsI97
g0
(g1583
g2
Ntp1888
Rp1889
(dp1890
g1587
g1588
sg1589
I97
sg1590
F3137.7553143184896
sg1591
F6898.5484131684216
sg1592
F0.0
sg1593
g1594
sg1595
g1596
sg1597
g1598
sg1599
NsbsI98
g0
(g1583
g2
Ntp1891
Rp1892
(dp1893
g1587
g1588
sg1589
I98
sg1590
F2353.316485738867
sg1591
F8077.1948757198097
sg1592
F0.0
sg1593
g1594
sg1595
g1596
sg1597
g1598
sg1599
NsbsI99
g0
(g1583
g2
Ntp1894
Rp1895
(dp1896
g1587
g1588
sg1589
I99
sg1590
F3137.7553143184896
sg1591
F8077.1948757198106
sg1592
F0.0
sg1593
g1594
sg1595
g1596
sg1597
g1598
sg1599
NsbsI100
g0
(g1583
g2
Ntp1897
Rp1898
(dp1899
g1587
g1588
sg1589
I100
sg1590
F2353.316485738867
sg1591
F9255.8413382711988
sg1592
F0.0
sg1593
g1594
sg1595
g1596
sg1597
g1598
sg1599
NsbsI101
g0
(g1583
g2
Ntp1900
Rp1901
(dp1902
g1587
g1588
sg1589
I101
sg1590
F3137.7553143184896
sg1591
F9255.8413382711988
sg1592
F0.0
sg1593
g1594
sg1595
g1596
sg1597
g1598
sg1599
NsbsI102
g0
(g1583
g2
Ntp1903
Rp1904
(dp1905
g1587
g1588
sg1589
I102
sg1590
F2353.3164857388665
sg1591
F10434.487800822588
sg1592
F0.0
sg1593
g1594
sg1595
g1596
sg1597
g1598
sg1599
NsbsI103
g0
(g1583
g2
Ntp1906
Rp1907
(dp1908
g1587
g1588
sg1589
I103
sg1590
F3137.7553143184896
sg1591
F10434.487800822588
sg1592
F0.0
sg1593
g1594
sg1595
g1596
sg1597
g1598
sg1599
NsbsI104
g0
(g1583
g2
Ntp1909
Rp1910
(dp1911
g1587
g1588
sg1589
I104
sg1590
F3945.9650164914337
sg1591
F6898.5484131684216
sg1592
F0.0
sg1593
g1594
sg1595
g1596
sg1597
g1598
sg1599
NsbsI105
g0
(g1583
g2
Ntp1912
Rp1913
(dp1914
g1587
g1588
sg1589
I105
sg1590
F4754.1747186643779
sg1591
F6898.5484131684216
sg1592
F0.0
sg1593
g1594
sg1595
g1596
sg1597
g1598
sg1599
NsbsI106
g0
(g1583
g2
Ntp1915
Rp1916
(dp1917
g1587
g1588
sg1589
I106
sg1590
F3945.9650164914337
sg1591
F8077.1948757198106
sg1592
F0.0
sg1593
g1594
sg1595
g1596
sg1597
g1598
sg1599
NsbsI107
g0
(g1583
g2
Ntp1918
Rp1919
(dp1920
g1587
g1588
sg1589
I107
sg1590
F4754.1747186643779
sg1591
F8077.1948757198106
sg1592
F0.0
sg1593
g1594
sg1595
g1596
sg1597
g1598
sg1599
NsbsI108
g0
(g1583
g2
Ntp1921
Rp1922
(dp1923
g1587
g1588
sg1589
I108
sg1590
F3945.9650164914337
sg1591
F9255.8413382711988
sg1592
F0.0
sg1593
g1594
sg1595
g1596
sg1597
g1598
sg1599
NsbsI109
g0
(g1583
g2
Ntp1924
Rp1925
(dp1926
g1587
g1588
sg1589
I109
sg1590
F4754.1747186643779
sg1591
F9255.8413382711988
sg1592
F0.0
sg1593
g1594
sg1595
g1596
sg1597
g1598
sg1599
NsbsI110
g0
(g1583
g2
Ntp1927
Rp1928
(dp1929
g1587
g1588
sg1589
I110
sg1590
F3945.9650164914337
sg1591
F10434.487800822588
sg1592
F0.0
sg1593
g1594
sg1595
g1596
sg1597
g1598
sg1599
NsbsI111
g0
(g1583
g2
Ntp1930
Rp1931
(dp1932
g1587
g1588
sg1589
I111
sg1590
F4754.1747186643779
sg1591
F10434.487800822588
sg1592
F0.0
sg1593
g1594
sg1595
g1596
sg1597
g1598
sg1599
NsbsI112
g0
(g1583
g2
Ntp1933
Rp1934
(dp1935
g1587
g1588
sg1589
I112
sg1590
F0.0
sg1591
F0.0
sg1592
F-2625.100278239056
sg1593
g1594
sg1595
g1596
sg1597
g1598
sg1599
NsbsI113
g0
(g1583
g2
Ntp1936
Rp1937
(dp1938
g1587
g1588
sg1589
I113
sg1590
F784.43882857961989
sg1591
F0.0
sg1592
F-2625.1002782390556
sg1593
g1594
sg1595
g1596
sg1597
g1598
sg1599
NsbsI114
g0
(g1583
g2
Ntp1939
Rp1940
(dp1941
g1587
g1588
sg1589
I114
sg1590
F1568.87765715924
sg1591
F0.0
sg1592
F-2625.100278239056
sg1593
g1594
sg1595
g1596
sg1597
g1598
sg1599
NsbsI115
g0
(g1583
g2
Ntp1942
Rp1943
(dp1944
g1587
g1588
sg1589
I115
sg1590
F0.0
sg1591
F0.0
sg1592
F-1851.2811113990692
sg1593
g1594
sg1595
g1596
sg1597
g1598
sg1599
NsbsI116
g0
(g1583
g2
Ntp1945
Rp1946
(dp1947
g1587
g1588
sg1589
I116
sg1590
F784.43882857961989
sg1591
F0.0
sg1592
F-1851.281111399069
sg1593
g1594
sg1595
g1596
sg1597
g1598
sg1599
NsbsI117
g0
(g1583
g2
Ntp1948
Rp1949
(dp1950
g1587
g1588
sg1589
I117
sg1590
F1568.87765715924
sg1591
F0.0
sg1592
F-1851.2811113990692
sg1593
g1594
sg1595
g1596
sg1597
g1598
sg1599
NsbsI118
g0
(g1583
g2
Ntp1951
Rp1952
(dp1953
g1587
g1588
sg1589
I118
sg1590
F0.0
sg1591
F0.0
sg1592
F-1077.4619445590824
sg1593
g1594
sg1595
g1596
sg1597
g1598
sg1599
NsbsI119
g0
(g1583
g2
Ntp1954
Rp1955
(dp1956
g1587
g1588
sg1589
I119
sg1590
F784.43882857961989
sg1591
F0.0
sg1592
F-1077.4619445590822
sg1593
g1594
sg1595
g1596
sg1597
g1598
sg1599
NsbsI120
g0
(g1583
g2
Ntp1957
Rp1958
(dp1959
g1587
g1588
sg1589
I120
sg1590
F1568.87765715924
sg1591
F0.0
sg1592
F-1077.4619445590824
sg1593
g1594
sg1595
g1596
sg1597
g1598
sg1599
NsbsI121
g0
(g1583
g2
Ntp1960
Rp1961
(dp1962
g1587
g1588
sg1589
I121
sg1590
F2353.3164857388651
sg1591
F0.0
sg1592
F-2625.100278239056
sg1593
g1594
sg1595
g1596
sg1597
g1598
sg1599
NsbsI122
g0
(g1583
g2
Ntp1963
Rp1964
(dp1965
g1587
g1588
sg1589
I122
sg1590
F3137.75531431849
sg1591
F0.0
sg1592
F-2625.100278239056
sg1593
g1594
sg1595
g1596
sg1597
g1598
sg1599
NsbsI123
g0
(g1583
g2
Ntp1966
Rp1967
(dp1968
g1587
g1588
sg1589
I123
sg1590
F2353.3164857388651
sg1591
F0.0
sg1592
F-1851.2811113990692
sg1593
g1594
sg1595
g1596
sg1597
g1598
sg1599
NsbsI124
g0
(g1583
g2
Ntp1969
Rp1970
(dp1971
g1587
g1588
sg1589
I124
sg1590
F3137.75531431849
sg1591
F0.0
sg1592
F-1851.2811113990692
sg1593
g1594
sg1595
g1596
sg1597
g1598
sg1599
NsbsI125
g0
(g1583
g2
Ntp1972
Rp1973
(dp1974
g1587
g1588
sg1589
I125
sg1590
F2353.3164857388651
sg1591
F0.0
sg1592
F-1077.4619445590824
sg1593
g1594
sg1595
g1596
sg1597
g1598
sg1599
NsbsI126
g0
(g1583
g2
Ntp1975
Rp1976
(dp1977
g1587
g1588
sg1589
I126
sg1590
F3137.75531431849
sg1591
F0.0
sg1592
F-1077.4619445590824
sg1593
g1594
sg1595
g1596
sg1597
g1598
sg1599
NsbsI127
g0
(g1583
g2
Ntp1978
Rp1979
(dp1980
g1587
g1588
sg1589
I127
sg1590
F3945.9650164914342
sg1591
F0.0
sg1592
F-2625.1002782390556
sg1593
g1594
sg1595
g1596
sg1597
g1598
sg1599
NsbsI128
g0
(g1583
g2
Ntp1981
Rp1982
(dp1983
g1587
g1588
sg1589
I128
sg1590
F4754.1747186643797
sg1591
F0.0
sg1592
F-2625.100278239056
sg1593
g1594
sg1595
g1596
sg1597
g1598
sg1599
NsbsI129
g0
(g1583
g2
Ntp1984
Rp1985
(dp1986
g1587
g1588
sg1589
I129
sg1590
F3945.9650164914342
sg1591
F0.0
sg1592
F-1851.281111399069
sg1593
g1594
sg1595
g1596
sg1597
g1598
sg1599
NsbsI130
g0
(g1583
g2
Ntp1987
Rp1988
(dp1989
g1587
g1588
sg1589
I130
sg1590
F4754.1747186643797
sg1591
F0.0
sg1592
F-1851.2811113990692
sg1593
g1594
sg1595
g1596
sg1597
g1598
sg1599
NsbsI131
g0
(g1583
g2
Ntp1990
Rp1991
(dp1992
g1587
g1588
sg1589
I131
sg1590
F3945.9650164914342
sg1591
F0.0
sg1592
F-1077.4619445590822
sg1593
g1594
sg1595
g1596
sg1597
g1598
sg1599
NsbsI132
g0
(g1583
g2
Ntp1993
Rp1994
(dp1995
g1587
g1588
sg1589
I132
sg1590
F4754.1747186643797
sg1591
F0.0
sg1592
F-1077.4619445590824
sg1593
g1594
sg1595
g1596
sg1597
g1598
sg1599
NsbsI133
g0
(g1583
g2
Ntp1996
Rp1997
(dp1998
g1587
g1588
sg1589
I133
sg1590
F0.0
sg1591
F0.0
sg1592
F-4219.6367432426641
sg1593
g1594
sg1595
g1596
sg1597
g1598
sg1599
NsbsI134
g0
(g1583
g2
Ntp1999
Rp2000
(dp2001
g1587
g1588
sg1589
I134
sg1590
F784.43882857961989
sg1591
F0.0
sg1592
F-4219.6367432426632
sg1593
g1594
sg1595
g1596
sg1597
g1598
sg1599
NsbsI135
g0
(g1583
g2
Ntp2002
Rp2003
(dp2004
g1587
g1588
sg1589
I135
sg1590
F1568.87765715924
sg1591
F0.0
sg1592
F-4219.6367432426641
sg1593
g1594
sg1595
g1596
sg1597
g1598
sg1599
NsbsI136
g0
(g1583
g2
Ntp2005
Rp2006
(dp2007
g1587
g1588
sg1589
I136
sg1590
F0.0
sg1591
F0.0
sg1592
F-3422.3685107408601
sg1593
g1594
sg1595
g1596
sg1597
g1598
sg1599
NsbsI137
g0
(g1583
g2
Ntp2008
Rp2009
(dp2010
g1587
g1588
sg1589
I137
sg1590
F784.43882857961989
sg1591
F0.0
sg1592
F-3422.3685107408592
sg1593
g1594
sg1595
g1596
sg1597
g1598
sg1599
NsbsI138
g0
(g1583
g2
Ntp2011
Rp2012
(dp2013
g1587
g1588
sg1589
I138
sg1590
F1568.87765715924
sg1591
F0.0
sg1592
F-3422.3685107408601
sg1593
g1594
sg1595
g1596
sg1597
g1598
sg1599
NsbsI139
g0
(g1583
g2
Ntp2014
Rp2015
(dp2016
g1587
g1588
sg1589
I139
sg1590
F2353.3164857388651
sg1591
F0.0
sg1592
F-4219.6367432426641
sg1593
g1594
sg1595
g1596
sg1597
g1598
sg1599
NsbsI140
g0
(g1583
g2
Ntp2017
Rp2018
(dp2019
g1587
g1588
sg1589
I140
sg1590
F3137.75531431849
sg1591
F0.0
sg1592
F-4219.6367432426641
sg1593
g1594
sg1595
g1596
sg1597
g1598
sg1599
NsbsI141
g0
(g1583
g2
Ntp2020
Rp2021
(dp2022
g1587
g1588
sg1589
I141
sg1590
F2353.3164857388651
sg1591
F0.0
sg1592
F-3422.3685107408601
sg1593
g1594
sg1595
g1596
sg1597
g1598
sg1599
NsbsI142
g0
(g1583
g2
Ntp2023
Rp2024
(dp2025
g1587
g1588
sg1589
I142
sg1590
F3137.75531431849
sg1591
F0.0
sg1592
F-3422.3685107408601
sg1593
g1594
sg1595
g1596
sg1597
g1598
sg1599
NsbsI143
g0
(g1583
g2
Ntp2026
Rp2027
(dp2028
g1587
g1588
sg1589
I143
sg1590
F3945.9650164914342
sg1591
F0.0
sg1592
F-4219.6367432426632
sg1593
g1594
sg1595
g1596
sg1597
g1598
sg1599
NsbsI144
g0
(g1583
g2
Ntp2029
Rp2030
(dp2031
g1587
g1588
sg1589
I144
sg1590
F4754.1747186643797
sg1591
F0.0
sg1592
F-4219.6367432426641
sg1593
g1594
sg1595
g1596
sg1597
g1598
sg1599
NsbsI145
g0
(g1583
g2
Ntp2032
Rp2033
(dp2034
g1587
g1588
sg1589
I145
sg1590
F3945.9650164914342
sg1591
F0.0
sg1592
F-3422.3685107408592
sg1593
g1594
sg1595
g1596
sg1597
g1598
sg1599
NsbsI146
g0
(g1583
g2
Ntp2035
Rp2036
(dp2037
g1587
g1588
sg1589
I146
sg1590
F4754.1747186643797
sg1591
F0.0
sg1592
F-3422.3685107408601
sg1593
g1594
sg1595
g1596
sg1597
g1598
sg1599
NsbsI147
g0
(g1583
g2
Ntp2038
Rp2039
(dp2040
g1587
g1588
sg1589
I147
sg1590
F0.0
sg1591
F0.0
sg1592
F-5767.2750769226377
sg1593
g1594
sg1595
g1596
sg1597
g1598
sg1599
NsbsI148
g0
(g1583
g2
Ntp2041
Rp2042
(dp2043
g1587
g1588
sg1589
I148
sg1590
F784.43882857961989
sg1591
F0.0
sg1592
F-5767.2750769226368
sg1593
g1594
sg1595
g1596
sg1597
g1598
sg1599
NsbsI149
g0
(g1583
g2
Ntp2044
Rp2045
(dp2046
g1587
g1588
sg1589
I149
sg1590
F1568.87765715924
sg1591
F0.0
sg1592
F-5767.2750769226377
sg1593
g1594
sg1595
g1596
sg1597
g1598
sg1599
NsbsI150
g0
(g1583
g2
Ntp2047
Rp2048
(dp2049
g1587
g1588
sg1589
I150
sg1590
F0.0
sg1591
F0.0
sg1592
F-4993.4559100826509
sg1593
g1594
sg1595
g1596
sg1597
g1598
sg1599
NsbsI151
g0
(g1583
g2
Ntp2050
Rp2051
(dp2052
g1587
g1588
sg1589
I151
sg1590
F784.43882857961989
sg1591
F0.0
sg1592
F-4993.45591008265
sg1593
g1594
sg1595
g1596
sg1597
g1598
sg1599
NsbsI152
g0
(g1583
g2
Ntp2053
Rp2054
(dp2055
g1587
g1588
sg1589
I152
sg1590
F1568.87765715924
sg1591
F0.0
sg1592
F-4993.4559100826509
sg1593
g1594
sg1595
g1596
sg1597
g1598
sg1599
NsbsI153
g0
(g1583
g2
Ntp2056
Rp2057
(dp2058
g1587
g1588
sg1589
I153
sg1590
F2353.3164857388651
sg1591
F0.0
sg1592
F-5767.2750769226377
sg1593
g1594
sg1595
g1596
sg1597
g1598
sg1599
NsbsI154
g0
(g1583
g2
Ntp2059
Rp2060
(dp2061
g1587
g1588
sg1589
I154
sg1590
F3137.75531431849
sg1591
F0.0
sg1592
F-5767.2750769226377
sg1593
g1594
sg1595
g1596
sg1597
g1598
sg1599
NsbsI155
g0
(g1583
g2
Ntp2062
Rp2063
(dp2064
g1587
g1588
sg1589
I155
sg1590
F2353.3164857388651
sg1591
F0.0
sg1592
F-4993.4559100826509
sg1593
g1594
sg1595
g1596
sg1597
g1598
sg1599
NsbsI156
g0
(g1583
g2
Ntp2065
Rp2066
(dp2067
g1587
g1588
sg1589
I156
sg1590
F3137.75531431849
sg1591
F0.0
sg1592
F-4993.4559100826509
sg1593
g1594
sg1595
g1596
sg1597
g1598
sg1599
NsbsI157
g0
(g1583
g2
Ntp2068
Rp2069
(dp2070
g1587
g1588
sg1589
I157
sg1590
F3945.9650164914342
sg1591
F0.0
sg1592
F-5767.2750769226368
sg1593
g1594
sg1595
g1596
sg1597
g1598
sg1599
NsbsI158
g0
(g1583
g2
Ntp2071
Rp2072
(dp2073
g1587
g1588
sg1589
I158
sg1590
F4754.1747186643797
sg1591
F0.0
sg1592
F-5767.2750769226377
sg1593
g1594
sg1595
g1596
sg1597
g1598
sg1599
NsbsI159
g0
(g1583
g2
Ntp2074
Rp2075
(dp2076
g1587
g1588
sg1589
I159
sg1590
F3945.9650164914342
sg1591
F0.0
sg1592
F-4993.45591008265
sg1593
g1594
sg1595
g1596
sg1597
g1598
sg1599
NsbsI160
g0
(g1583
g2
Ntp2077
Rp2078
(dp2079
g1587
g1588
sg1589
I160
sg1590
F4754.1747186643797
sg1591
F0.0
sg1592
F-4993.4559100826509
sg1593
g1594
sg1595
g1596
sg1597
g1598
sg1599
NsbsI161
g0
(g1583
g2
Ntp2080
Rp2081
(dp2082
g1587
g1588
sg1589
I161
sg1590
F0.0
sg1591
F17333.03621399101
sg1592
F-2625.100278239056
sg1593
g1594
sg1595
g1596
sg1597
g1598
sg1599
NsbsI162
g0
(g1583
g2
Ntp2083
Rp2084
(dp2085
g1587
g1588
sg1589
I162
sg1590
F784.43882857961989
sg1591
F17333.03621399101
sg1592
F-2625.1002782390556
sg1593
g1594
sg1595
g1596
sg1597
g1598
sg1599
NsbsI163
g0
(g1583
g2
Ntp2086
Rp2087
(dp2088
g1587
g1588
sg1589
I163
sg1590
F1568.87765715924
sg1591
F17333.03621399101
sg1592
F-2625.100278239056
sg1593
g1594
sg1595
g1596
sg1597
g1598
sg1599
NsbsI164
g0
(g1583
g2
Ntp2089
Rp2090
(dp2091
g1587
g1588
sg1589
I164
sg1590
F0.0
sg1591
F17333.03621399101
sg1592
F-1851.2811113990692
sg1593
g1594
sg1595
g1596
sg1597
g1598
sg1599
NsbsI165
g0
(g1583
g2
Ntp2092
Rp2093
(dp2094
g1587
g1588
sg1589
I165
sg1590
F784.43882857961989
sg1591
F17333.03621399101
sg1592
F-1851.281111399069
sg1593
g1594
sg1595
g1596
sg1597
g1598
sg1599
NsbsI166
g0
(g1583
g2
Ntp2095
Rp2096
(dp2097
g1587
g1588
sg1589
I166
sg1590
F1568.87765715924
sg1591
F17333.03621399101
sg1592
F-1851.2811113990692
sg1593
g1594
sg1595
g1596
sg1597
g1598
sg1599
NsbsI167
g0
(g1583
g2
Ntp2098
Rp2099
(dp2100
g1587
g1588
sg1589
I167
sg1590
F0.0
sg1591
F17333.03621399101
sg1592
F-1077.4619445590824
sg1593
g1594
sg1595
g1596
sg1597
g1598
sg1599
NsbsI168
g0
(g1583
g2
Ntp2101
Rp2102
(dp2103
g1587
g1588
sg1589
I168
sg1590
F784.43882857961989
sg1591
F17333.03621399101
sg1592
F-1077.4619445590822
sg1593
g1594
sg1595
g1596
sg1597
g1598
sg1599
NsbsI169
g0
(g1583
g2
Ntp2104
Rp2105
(dp2106
g1587
g1588
sg1589
I169
sg1590
F1568.87765715924
sg1591
F17333.03621399101
sg1592
F-1077.4619445590824
sg1593
g1594
sg1595
g1596
sg1597
g1598
sg1599
NsbsI170
g0
(g1583
g2
Ntp2107
Rp2108
(dp2109
g1587
g1588
sg1589
I170
sg1590
F2353.3164857388651
sg1591
F17333.03621399101
sg1592
F-2625.100278239056
sg1593
g1594
sg1595
g1596
sg1597
g1598
sg1599
NsbsI171
g0
(g1583
g2
Ntp2110
Rp2111
(dp2112
g1587
g1588
sg1589
I171
sg1590
F3137.75531431849
sg1591
F17333.03621399101
sg1592
F-2625.100278239056
sg1593
g1594
sg1595
g1596
sg1597
g1598
sg1599
NsbsI172
g0
(g1583
g2
Ntp2113
Rp2114
(dp2115
g1587
g1588
sg1589
I172
sg1590
F2353.3164857388651
sg1591
F17333.03621399101
sg1592
F-1851.2811113990692
sg1593
g1594
sg1595
g1596
sg1597
g1598
sg1599
NsbsI173
g0
(g1583
g2
Ntp2116
Rp2117
(dp2118
g1587
g1588
sg1589
I173
sg1590
F3137.75531431849
sg1591
F17333.03621399101
sg1592
F-1851.2811113990692
sg1593
g1594
sg1595
g1596
sg1597
g1598
sg1599
NsbsI174
g0
(g1583
g2
Ntp2119
Rp2120
(dp2121
g1587
g1588
sg1589
I174
sg1590
F2353.3164857388651
sg1591
F17333.03621399101
sg1592
F-1077.4619445590824
sg1593
g1594
sg1595
g1596
sg1597
g1598
sg1599
NsbsI175
g0
(g1583
g2
Ntp2122
Rp2123
(dp2124
g1587
g1588
sg1589
I175
sg1590
F3137.75531431849
sg1591
F17333.03621399101
sg1592
F-1077.4619445590824
sg1593
g1594
sg1595
g1596
sg1597
g1598
sg1599
NsbsI176
g0
(g1583
g2
Ntp2125
Rp2126
(dp2127
g1587
g1588
sg1589
I176
sg1590
F3945.9650164914342
sg1591
F17333.03621399101
sg1592
F-2625.1002782390556
sg1593
g1594
sg1595
g1596
sg1597
g1598
sg1599
NsbsI177
g0
(g1583
g2
Ntp2128
Rp2129
(dp2130
g1587
g1588
sg1589
I177
sg1590
F4754.1747186643797
sg1591
F17333.03621399101
sg1592
F-2625.100278239056
sg1593
g1594
sg1595
g1596
sg1597
g1598
sg1599
NsbsI178
g0
(g1583
g2
Ntp2131
Rp2132
(dp2133
g1587
g1588
sg1589
I178
sg1590
F3945.9650164914342
sg1591
F17333.03621399101
sg1592
F-1851.281111399069
sg1593
g1594
sg1595
g1596
sg1597
g1598
sg1599
NsbsI179
g0
(g1583
g2
Ntp2134
Rp2135
(dp2136
g1587
g1588
sg1589
I179
sg1590
F4754.1747186643797
sg1591
F17333.03621399101
sg1592
F-1851.2811113990692
sg1593
g1594
sg1595
g1596
sg1597
g1598
sg1599
NsbsI180
g0
(g1583
g2
Ntp2137
Rp2138
(dp2139
g1587
g1588
sg1589
I180
sg1590
F3945.9650164914342
sg1591
F17333.03621399101
sg1592
F-1077.4619445590822
sg1593
g1594
sg1595
g1596
sg1597
g1598
sg1599
NsbsI181
g0
(g1583
g2
Ntp2140
Rp2141
(dp2142
g1587
g1588
sg1589
I181
sg1590
F4754.1747186643797
sg1591
F17333.03621399101
sg1592
F-1077.4619445590824
sg1593
g1594
sg1595
g1596
sg1597
g1598
sg1599
NsbsI182
g0
(g1583
g2
Ntp2143
Rp2144
(dp2145
g1587
g1588
sg1589
I182
sg1590
F0.0
sg1591
F17333.03621399101
sg1592
F-4219.6367432426641
sg1593
g1594
sg1595
g1596
sg1597
g1598
sg1599
NsbsI183
g0
(g1583
g2
Ntp2146
Rp2147
(dp2148
g1587
g1588
sg1589
I183
sg1590
F784.43882857961989
sg1591
F17333.03621399101
sg1592
F-4219.6367432426632
sg1593
g1594
sg1595
g1596
sg1597
g1598
sg1599
NsbsI184
g0
(g1583
g2
Ntp2149
Rp2150
(dp2151
g1587
g1588
sg1589
I184
sg1590
F1568.87765715924
sg1591
F17333.03621399101
sg1592
F-4219.6367432426641
sg1593
g1594
sg1595
g1596
sg1597
g1598
sg1599
NsbsI185
g0
(g1583
g2
Ntp2152
Rp2153
(dp2154
g1587
g1588
sg1589
I185
sg1590
F0.0
sg1591
F17333.03621399101
sg1592
F-3422.3685107408601
sg1593
g1594
sg1595
g1596
sg1597
g1598
sg1599
NsbsI186
g0
(g1583
g2
Ntp2155
Rp2156
(dp2157
g1587
g1588
sg1589
I186
sg1590
F784.43882857961989
sg1591
F17333.03621399101
sg1592
F-3422.3685107408592
sg1593
g1594
sg1595
g1596
sg1597
g1598
sg1599
NsbsI187
g0
(g1583
g2
Ntp2158
Rp2159
(dp2160
g1587
g1588
sg1589
I187
sg1590
F1568.87765715924
sg1591
F17333.03621399101
sg1592
F-3422.3685107408601
sg1593
g1594
sg1595
g1596
sg1597
g1598
sg1599
NsbsI188
g0
(g1583
g2
Ntp2161
Rp2162
(dp2163
g1587
g1588
sg1589
I188
sg1590
F2353.3164857388651
sg1591
F17333.03621399101
sg1592
F-4219.6367432426641
sg1593
g1594
sg1595
g1596
sg1597
g1598
sg1599
NsbsI189
g0
(g1583
g2
Ntp2164
Rp2165
(dp2166
g1587
g1588
sg1589
I189
sg1590
F3137.75531431849
sg1591
F17333.03621399101
sg1592
F-4219.6367432426641
sg1593
g1594
sg1595
g1596
sg1597
g1598
sg1599
NsbsI190
g0
(g1583
g2
Ntp2167
Rp2168
(dp2169
g1587
g1588
sg1589
I190
sg1590
F2353.3164857388651
sg1591
F17333.03621399101
sg1592
F-3422.3685107408601
sg1593
g1594
sg1595
g1596
sg1597
g1598
sg1599
NsbsI191
g0
(g1583
g2
Ntp2170
Rp2171
(dp2172
g1587
g1588
sg1589
I191
sg1590
F3137.75531431849
sg1591
F17333.03621399101
sg1592
F-3422.3685107408601
sg1593
g1594
sg1595
g1596
sg1597
g1598
sg1599
NsbsI192
g0
(g1583
g2
Ntp2173
Rp2174
(dp2175
g1587
g1588
sg1589
I192
sg1590
F3945.9650164914342
sg1591
F17333.03621399101
sg1592
F-4219.6367432426632
sg1593
g1594
sg1595
g1596
sg1597
g1598
sg1599
NsbsI193
g0
(g1583
g2
Ntp2176
Rp2177
(dp2178
g1587
g1588
sg1589
I193
sg1590
F4754.1747186643797
sg1591
F17333.03621399101
sg1592
F-4219.6367432426641
sg1593
g1594
sg1595
g1596
sg1597
g1598
sg1599
NsbsI194
g0
(g1583
g2
Ntp2179
Rp2180
(dp2181
g1587
g1588
sg1589
I194
sg1590
F3945.9650164914342
sg1591
F17333.03621399101
sg1592
F-3422.3685107408592
sg1593
g1594
sg1595
g1596
sg1597
g1598
sg1599
NsbsI195
g0
(g1583
g2
Ntp2182
Rp2183
(dp2184
g1587
g1588
sg1589
I195
sg1590
F4754.1747186643797
sg1591
F17333.03621399101
sg1592
F-3422.3685107408601
sg1593
g1594
sg1595
g1596
sg1597
g1598
sg1599
NsbsI196
g0
(g1583
g2
Ntp2185
Rp2186
(dp2187
g1587
g1588
sg1589
I196
sg1590
F0.0
sg1591
F17333.03621399101
sg1592
F-5767.2750769226377
sg1593
g1594
sg1595
g1596
sg1597
g1598
sg1599
NsbsI197
g0
(g1583
g2
Ntp2188
Rp2189
(dp2190
g1587
g1588
sg1589
I197
sg1590
F784.43882857961989
sg1591
F17333.03621399101
sg1592
F-5767.2750769226368
sg1593
g1594
sg1595
g1596
sg1597
g1598
sg1599
NsbsI198
g0
(g1583
g2
Ntp2191
Rp2192
(dp2193
g1587
g1588
sg1589
I198
sg1590
F1568.87765715924
sg1591
F17333.03621399101
sg1592
F-5767.2750769226377
sg1593
g1594
sg1595
g1596
sg1597
g1598
sg1599
NsbsI199
g0
(g1583
g2
Ntp2194
Rp2195
(dp2196
g1587
g1588
sg1589
I199
sg1590
F0.0
sg1591
F17333.03621399101
sg1592
F-4993.4559100826509
sg1593
g1594
sg1595
g1596
sg1597
g1598
sg1599
NsbsI200
g0
(g1583
g2
Ntp2197
Rp2198
(dp2199
g1587
g1588
sg1589
I200
sg1590
F784.43882857961989
sg1591
F17333.03621399101
sg1592
F-4993.45591008265
sg1593
g1594
sg1595
g1596
sg1597
g1598
sg1599
NsbsI201
g0
(g1583
g2
Ntp2200
Rp2201
(dp2202
g1587
g1588
sg1589
I201
sg1590
F1568.87765715924
sg1591
F17333.03621399101
sg1592
F-4993.4559100826509
sg1593
g1594
sg1595
g1596
sg1597
g1598
sg1599
NsbsI202
g0
(g1583
g2
Ntp2203
Rp2204
(dp2205
g1587
g1588
sg1589
I202
sg1590
F2353.3164857388651
sg1591
F17333.03621399101
sg1592
F-5767.2750769226377
sg1593
g1594
sg1595
g1596
sg1597
g1598
sg1599
NsbsI203
g0
(g1583
g2
Ntp2206
Rp2207
(dp2208
g1587
g1588
sg1589
I203
sg1590
F3137.75531431849
sg1591
F17333.03621399101
sg1592
F-5767.2750769226377
sg1593
g1594
sg1595
g1596
sg1597
g1598
sg1599
NsbsI204
g0
(g1583
g2
Ntp2209
Rp2210
(dp2211
g1587
g1588
sg1589
I204
sg1590
F2353.3164857388651
sg1591
F17333.03621399101
sg1592
F-4993.4559100826509
sg1593
g1594
sg1595
g1596
sg1597
g1598
sg1599
NsbsI205
g0
(g1583
g2
Ntp2212
Rp2213
(dp2214
g1587
g1588
sg1589
I205
sg1590
F3137.75531431849
sg1591
F17333.03621399101
sg1592
F-4993.4559100826509
sg1593
g1594
sg1595
g1596
sg1597
g1598
sg1599
NsbsI206
g0
(g1583
g2
Ntp2215
Rp2216
(dp2217
g1587
g1588
sg1589
I206
sg1590
F3945.9650164914342
sg1591
F17333.03621399101
sg1592
F-5767.2750769226368
sg1593
g1594
sg1595
g1596
sg1597
g1598
sg1599
NsbsI207
g0
(g1583
g2
Ntp2218
Rp2219
(dp2220
g1587
g1588
sg1589
I207
sg1590
F4754.1747186643797
sg1591
F17333.03621399101
sg1592
F-5767.2750769226377
sg1593
g1594
sg1595
g1596
sg1597
g1598
sg1599
NsbsI208
g0
(g1583
g2
Ntp2221
Rp2222
(dp2223
g1587
g1588
sg1589
I208
sg1590
F3945.9650164914342
sg1591
F17333.03621399101
sg1592
F-4993.45591008265
sg1593
g1594
sg1595
g1596
sg1597
g1598
sg1599
NsbsI209
g0
(g1583
g2
Ntp2224
Rp2225
(dp2226
g1587
g1588
sg1589
I209
sg1590
F4754.1747186643797
sg1591
F17333.03621399101
sg1592
F-4993.4559100826509
sg1593
g1594
sg1595
g1596
sg1597
g1598
sg1599
NsbssS'node_index'
p2227
(dp2228
S'784.439,12757.115,0.000'
p2229
I22
sS'2353.316,0.000,-2625.100'
p2230
I121
sS'3137.755,0.000,-3422.369'
p2231
I142
sS'4754.175,11613.134,0.000'
p2232
I73
sS'3945.965,17333.036,-1851.281'
p2233
I178
sS'0.000,8077.195,0.000'
p2234
I87
sS'0.000,0.000,-3422.369'
p2235
I136
sS'3137.755,0.000,-2625.100'
p2236
I122
sS'3945.965,4575.922,0.000'
p2237
I68
sS'784.439,1143.980,0.000'
p2238
I4
sS'1568.878,3431.941,0.000'
p2239
I11
sS'3945.965,17333.036,-1077.462'
p2240
I180
sS'2353.316,0.000,-4219.637'
p2241
I139
sS'1568.878,17333.036,-5767.275'
p2242
I198
sS'3137.755,16189.056,0.000'
p2243
I57
sS'2353.316,15045.075,0.000'
p2244
I54
sS'0.000,0.000,-4219.637'
p2245
I133
sS'1568.878,4575.922,0.000'
p2246
I14
sS'3945.965,15045.075,0.000'
p2247
I78
sS'2353.316,0.000,-4993.456'
p2248
I155
sS'2353.316,0.000,-5767.275'
p2249
I153
sS'3137.755,2287.961,0.000'
p2250
I41
sS'784.439,8077.195,0.000'
p2251
I88
sS'4754.175,15045.075,0.000'
p2252
I79
sS'3137.755,11613.134,0.000'
p2253
I49
sS'784.439,17333.036,-5767.275'
p2254
I197
sS'1568.878,2287.961,0.000'
p2255
I8
sS'3945.965,17333.036,-2625.100'
p2256
I176
sS'0.000,0.000,0.000'
p2257
I0
sS'2353.316,17333.036,-1077.462'
p2258
I174
sS'2353.316,11613.134,0.000'
p2259
I48
sS'3137.755,15045.075,0.000'
p2260
I55
sS'3137.755,10434.488,0.000'
p2261
I103
sS'3945.965,16189.056,0.000'
p2262
I80
sS'1568.878,17333.036,-1077.462'
p2263
I169
sS'784.439,0.000,-5767.275'
p2264
I148
sS'3945.965,5719.902,0.000'
p2265
I70
sS'784.439,17333.036,-4993.456'
p2266
I200
sS'0.000,13901.095,0.000'
p2267
I24
sS'784.439,16189.056,0.000'
p2268
I31
sS'3945.965,17333.036,-4993.456'
p2269
I208
sS'1568.878,10434.488,0.000'
p2270
I95
sS'3945.965,0.000,-4993.456'
p2271
I159
sS'1568.878,17333.036,-3422.369'
p2272
I187
sS'1568.878,17333.036,0.000'
p2273
I35
sS'2353.316,2287.961,0.000'
p2274
I40
sS'4754.175,0.000,-4993.456'
p2275
I160
sS'784.439,17333.036,-2625.100'
p2276
I162
sS'0.000,17333.036,0.000'
p2277
I33
sS'3137.755,17333.036,0.000'
p2278
I59
sS'3137.755,0.000,-1851.281'
p2279
I124
sS'0.000,15045.075,0.000'
p2280
I27
sS'3945.965,0.000,-4219.637'
p2281
I143
sS'3137.755,0.000,-5767.275'
p2282
I154
sS'3137.755,0.000,-4219.637'
p2283
I140
sS'4754.175,4575.922,0.000'
p2284
I69
sS'1568.878,13901.095,0.000'
p2285
I26
sS'4754.175,12757.115,0.000'
p2286
I75
sS'0.000,17333.036,-2625.100'
p2287
I161
sS'0.000,17333.036,-5767.275'
p2288
I196
sS'4754.175,0.000,-5767.275'
p2289
I158
sS'3945.965,17333.036,-5767.275'
p2290
I206
sS'3945.965,2287.961,0.000'
p2291
I64
sS'2353.316,0.000,0.000'
p2292
I36
sS'4754.175,17333.036,-3422.369'
p2293
I195
sS'2353.316,13901.095,0.000'
p2294
I52
sS'2353.316,17333.036,-4219.637'
p2295
I188
sS'4754.175,9255.841,0.000'
p2296
I109
sS'4754.175,2287.961,0.000'
p2297
I65
sS'1568.878,0.000,-1077.462'
p2298
I120
sS'1568.878,15045.075,0.000'
p2299
I29
sS'2353.316,8077.195,0.000'
p2300
I98
sS'3137.755,17333.036,-1851.281'
p2301
I173
sS'784.439,17333.036,0.000'
p2302
I34
sS'4754.175,0.000,0.000'
p2303
I61
sS'3945.965,3431.941,0.000'
p2304
I66
sS'4754.175,13901.095,0.000'
p2305
I77
sS'0.000,5719.902,0.000'
p2306
I15
sS'4754.175,17333.036,-2625.100'
p2307
I177
sS'2353.316,17333.036,-3422.369'
p2308
I190
sS'0.000,9255.841,0.000'
p2309
I90
sS'3945.965,8077.195,0.000'
p2310
I106
sS'784.439,0.000,-2625.100'
p2311
I113
sS'1568.878,0.000,-4993.456'
p2312
I152
sS'0.000,0.000,-1077.462'
p2313
I118
sS'1568.878,0.000,-2625.100'
p2314
I114
sS'3945.965,0.000,0.000'
p2315
I60
sS'3945.965,11613.134,0.000'
p2316
I72
sS'784.439,0.000,-4219.637'
p2317
I134
sS'3137.755,17333.036,-3422.369'
p2318
I191
sS'784.439,17333.036,-3422.369'
p2319
I186
sS'3137.755,4575.922,0.000'
p2320
I45
sS'2353.316,5719.902,0.000'
p2321
I46
sS'2353.316,12757.115,0.000'
p2322
I50
sS'3945.965,17333.036,-4219.637'
p2323
I192
sS'3945.965,0.000,-1077.462'
p2324
I131
sS'3137.755,17333.036,-4993.456'
p2325
I205
sS'2353.316,1143.980,0.000'
p2326
I38
sS'0.000,0.000,-2625.100'
p2327
I112
sS'1568.878,0.000,-3422.369'
p2328
I138
sS'4754.175,17333.036,0.000'
p2329
I83
sS'3945.965,17333.036,0.000'
p2330
I82
sS'0.000,11613.134,0.000'
p2331
I18
sS'784.439,0.000,-1851.281'
p2332
I116
sS'1568.878,17333.036,-1851.281'
p2333
I166
sS'3137.755,5719.902,0.000'
p2334
I47
sS'784.439,13901.095,0.000'
p2335
I25
sS'3137.755,3431.941,0.000'
p2336
I43
sS'0.000,17333.036,-3422.369'
p2337
I185
sS'1568.878,0.000,0.000'
p2338
I2
sS'3137.755,13901.095,0.000'
p2339
I53
sS'0.000,10434.488,0.000'
p2340
I93
sS'3137.755,8077.195,0.000'
p2341
I99
sS'2353.316,17333.036,-4993.456'
p2342
I204
sS'784.439,2287.961,0.000'
p2343
I7
sS'1568.878,11613.134,0.000'
p2344
I20
sS'3137.755,0.000,-1077.462'
p2345
I126
sS'2353.316,17333.036,-5767.275'
p2346
I202
sS'2353.316,9255.841,0.000'
p2347
I100
sS'784.439,0.000,-3422.369'
p2348
I137
sS'4754.175,17333.036,-1077.462'
p2349
I181
sS'3945.965,13901.095,0.000'
p2350
I76
sS'2353.316,17333.036,-2625.100'
p2351
I170
sS'4754.175,17333.036,-4219.637'
p2352
I193
sS'3945.965,6898.548,0.000'
p2353
I104
sS'4754.175,8077.195,0.000'
p2354
I107
sS'0.000,17333.036,-4219.637'
p2355
I182
sS'1568.878,9255.841,0.000'
p2356
I92
sS'4754.175,5719.902,0.000'
p2357
I71
sS'784.439,0.000,-4993.456'
p2358
I151
sS'4754.175,17333.036,-1851.281'
p2359
I179
sS'3137.755,17333.036,-2625.100'
p2360
I171
sS'2353.316,6898.548,0.000'
p2361
I96
sS'784.439,11613.134,0.000'
p2362
I19
sS'3137.755,6898.548,0.000'
p2363
I97
sS'3137.755,17333.036,-1077.462'
p2364
I175
sS'3137.755,9255.841,0.000'
p2365
I101
sS'3945.965,9255.841,0.000'
p2366
I108
sS'3137.755,12757.115,0.000'
p2367
I51
sS'4754.175,1143.980,0.000'
p2368
I63
sS'1568.878,0.000,-5767.275'
p2369
I149
sS'784.439,5719.902,0.000'
p2370
I16
sS'3137.755,0.000,-4993.456'
p2371
I156
sS'1568.878,16189.056,0.000'
p2372
I32
sS'0.000,6898.548,0.000'
p2373
I84
sS'4754.175,16189.056,0.000'
p2374
I81
sS'4754.175,6898.548,0.000'
p2375
I105
sS'1568.878,17333.036,-4219.637'
p2376
I184
sS'2353.316,0.000,-3422.369'
p2377
I141
sS'3137.755,17333.036,-5767.275'
p2378
I203
sS'784.439,0.000,-1077.462'
p2379
I119
sS'0.000,12757.115,0.000'
p2380
I21
sS'784.439,17333.036,-4219.637'
p2381
I183
sS'3137.755,17333.036,-4219.637'
p2382
I189
sS'784.439,6898.548,0.000'
p2383
I85
sS'2353.316,0.000,-1077.462'
p2384
I125
sS'1568.878,0.000,-4219.637'
p2385
I135
sS'1568.878,6898.548,0.000'
p2386
I86
sS'784.439,4575.922,0.000'
p2387
I13
sS'0.000,0.000,-1851.281'
p2388
I115
sS'0.000,0.000,-4993.456'
p2389
I150
sS'4754.175,0.000,-2625.100'
p2390
I128
sS'784.439,0.000,0.000'
p2391
I1
sS'3137.755,1143.980,0.000'
p2392
I39
sS'784.439,10434.488,0.000'
p2393
I94
sS'3945.965,0.000,-3422.369'
p2394
I145
sS'3945.965,12757.115,0.000'
p2395
I74
sS'3945.965,10434.488,0.000'
p2396
I110
sS'0.000,16189.056,0.000'
p2397
I30
sS'3945.965,0.000,-2625.100'
p2398
I127
sS'4754.175,3431.941,0.000'
p2399
I67
sS'784.439,17333.036,-1851.281'
p2400
I165
sS'0.000,17333.036,-4993.456'
p2401
I199
sS'4754.175,0.000,-1851.281'
p2402
I130
sS'0.000,0.000,-5767.275'
p2403
I147
sS'0.000,1143.980,0.000'
p2404
I3
sS'2353.316,3431.941,0.000'
p2405
I42
sS'3945.965,1143.980,0.000'
p2406
I62
sS'4754.175,0.000,-1077.462'
p2407
I132
sS'1568.878,12757.115,0.000'
p2408
I23
sS'3137.755,0.000,0.000'
p2409
I37
sS'784.439,3431.941,0.000'
p2410
I10
sS'784.439,9255.841,0.000'
p2411
I91
sS'1568.878,8077.195,0.000'
p2412
I89
sS'4754.175,0.000,-4219.637'
p2413
I144
sS'2353.316,16189.056,0.000'
p2414
I56
sS'0.000,17333.036,-1851.281'
p2415
I164
sS'2353.316,10434.488,0.000'
p2416
I102
sS'4754.175,0.000,-3422.369'
p2417
I146
sS'1568.878,0.000,-1851.281'
p2418
I117
sS'0.000,17333.036,-1077.462'
p2419
I167
sS'0.000,4575.922,0.000'
p2420
I12
sS'3945.965,17333.036,-3422.369'
p2421
I194
sS'2353.316,0.000,-1851.281'
p2422
I123
sS'2353.316,17333.036,0.000'
p2423
I58
sS'4754.175,17333.036,-5767.275'
p2424
I207
sS'3945.965,0.000,-1851.281'
p2425
I129
sS'1568.878,17333.036,-2625.100'
p2426
I163
sS'1568.878,17333.036,-4993.456'
p2427
I201
sS'784.439,17333.036,-1077.462'
p2428
I168
sS'784.439,15045.075,0.000'
p2429
I28
sS'0.000,2287.961,0.000'
p2430
I6
sS'1568.878,1143.980,0.000'
p2431
I5
sS'1568.878,5719.902,0.000'
p2432
I17
sS'4754.175,10434.488,0.000'
p2433
I111
sS'2353.316,17333.036,-1851.281'
p2434
I172
sS'0.000,3431.941,0.000'
p2435
I9
sS'3945.965,0.000,-5767.275'
p2436
I157
sS'4754.175,17333.036,-4993.456'
p2437
I209
sS'2353.316,4575.922,0.000'
p2438
I44
ssS'path'
p2439
S'C:\\Temp\\'
p2440
sS'results'
p2441
(dp2442
S'step_2'
p2443
S'ERROR'
p2444
sS'step_3'
p2445
g2444
sS'step_4'
p2446
g2444
sS'step_1'
p2447
g2444
ssS'sections'
p2448
(dp2449
g1039
g0
(ccompas_fea.structure.section
ShellSection
p2450
g2
Ntp2451
Rp2452
(dp2453
g15
I1
sS'__name__'
p2454
S'ShellSection'
p2455
sS'name'
p2456
g1039
sS'geometry'
p2457
(dp2458
S't'
p2459
F467.30702670990837
ssS'loc_coords_OR'
p2460
(dp2461
S'ORxyz'
p2462
(lp2463
I0
aI0
aF-4689.8131323600001
assS'loc_coords_XA'
p2464
(dp2465
S'XAxyz'
p2466
(lp2467
I1
aI0
aF-4689.8131323600001
assS'loc_coords_YA'
p2468
(dp2469
S'YAxyz'
p2470
(lp2471
F4689.8131323600001
aF-4689.8131323600001
aF-4688.8131323600001
assS'loc_coords_EV_XA'
p2472
(dp2473
S'EV_XA'
p2474
(lp2475
F1.0
aF0.0
aF0.0
assS'loc_coords_EV_YA'
p2476
(dp2477
S'EV_YA'
p2478
(lp2479
F0.70710677314917814
aF-0.70710677314917814
aF0.00015077504224424163
assS'loc_coords_EV_ZA'
p2480
(dp2481
S'EV_ZA'
p2482
(lp2483
F0.0
aF-1.0
aF0.0
assS'nr_layers'
p2484
(dp2485
S'nn'
p2486
F39.0
ssS'offset'
p2487
(dp2488
S'mode'
p2489
S'mid'
p2490
ssbsg1053
g0
(g2450
g2
Ntp2491
Rp2492
(dp2493
g15
I0
sg2454
g2455
sg2456
g1053
sg2457
(dp2494
g2459
F1077.4619445590824
ssg2460
(dp2495
g2462
(lp2496
I0
aI0
aI0
assg2464
(dp2497
g2466
(lp2498
I1
aI0
aI0
assg2468
(dp2499
g2470
(lp2500
F0.0
aF1.0
aF0.0
assg2472
(dp2501
g2474
(lp2502
F1.0
aF0.0
aF0.0
assg2476
(dp2503
g2478
(lp2504
F0.0
aF1.0
aF0.0
assg2480
(dp2505
g2482
(lp2506
F0.0
aF0.0
aF1.0
assg2484
(dp2507
g2486
F40.0
ssg2487
(dp2508
g2489
S'top'
p2509
ssbsg1030
g0
(g2450
g2
Ntp2510
Rp2511
(dp2512
g15
I2
sg2454
g2455
sg2456
g1030
sg2457
(dp2513
g2459
F467.30702670990837
ssg2460
(dp2514
g2462
(lp2515
I0
aF17333.036214
aF-4689.8131323600001
assg2464
(dp2516
g2466
(lp2517
I1
aF17333.036214
aF-4689.8131323600001
assg2468
(dp2518
g2470
(lp2519
F-4689.8131323605776
aF12643.223081640001
aF-22023.849346359999
assg2472
(dp2520
g2474
(lp2521
F1.0
aF0.0
aF0.0
assg2476
(dp2522
g2478
(lp2523
F-0.25268980022756793
aF-0.25268980022753679
aF-0.93396773483987083
assg2480
(dp2524
g2482
(lp2525
F0.0
aF1.0
aF0.0
assg2484
(dp2526
g2486
F39.0
ssg2487
(dp2527
g2489
g2490
ssbsg1123
g0
(ccompas_fea.structure.section
MPCSection
p2528
g2
Ntp2529
Rp2530
(dp2531
g15
I3
sg2454
S'MPCSection'
p2532
sg2456
g1123
sg2457
NsS'nr_layers'
p2533
NsbssS'sets'
p2534
(dp2535
g1148
g0
(ccompas_fea.structure.set
Set
p2536
g2
Ntp2537
Rp2538
(dp2539
S'__name__'
p2540
S'Set'
p2541
sS'name'
p2542
g1148
sS'type'
p2543
S'element'
p2544
sS'selection'
p2545
(lp2546
I106
aI107
aI108
aI109
asS'index'
p2547
I13
sbsg1124
g0
(g2536
g2
Ntp2548
Rp2549
(dp2550
g2540
g2541
sg2542
g1124
sg2543
g2544
sg2545
(lp2551
I162
aI163
aI164
aI165
aI166
aI167
aI168
aI169
aI170
aI171
aI172
aI173
aI174
aI175
asg2547
I27
sbsg1032
g0
(g2536
g2
Ntp2552
Rp2553
(dp2554
g2540
g2541
sg2542
g1032
sg2543
g2544
sg2545
(lp2555
I138
aI139
aI140
aI141
asg2547
I21
sbsg1078
g0
(g2536
g2
Ntp2556
Rp2557
(dp2558
g2540
g2541
sg2542
g1078
sg2543
g2544
sg2545
(lp2559
I20
aI21
aI22
aI23
aI24
aI25
aI26
aI27
aI28
aI29
asg2547
I2
sbsg1044
g0
(g2536
g2
Ntp2560
Rp2561
(dp2562
g2540
g2541
sg2542
g1044
sg2543
g2544
sg2545
(lp2563
I120
aI121
aI118
aI119
asg2547
I16
sbsg1140
g0
(g2536
g2
Ntp2564
Rp2565
(dp2566
g2540
g2541
sg2542
g1140
sg2543
g2544
sg2545
(lp2567
I128
aI129
aI126
aI127
asg2547
I18
sbsg1118
g0
(g2536
g2
Ntp2568
Rp2569
(dp2570
g2540
g2541
sg2542
g1118
sg2543
g2544
sg2545
(lp2571
I16
aI17
aI18
aI19
aI10
aI11
aI12
aI13
aI14
aI15
asg2547
I1
sbsg1054
g0
(g2536
g2
Ntp2572
Rp2573
(dp2574
g2540
g2541
sg2542
g1054
sg2543
g2544
sg2545
(lp2575
I0
aI1
aI2
aI3
aI4
aI5
aI6
aI7
aI8
aI9
asg2547
I0
sbsg1106
g0
(g2536
g2
Ntp2576
Rp2577
(dp2578
g2540
g2541
sg2542
g1106
sg2543
g2544
sg2545
(lp2579
I64
aI65
aI66
aI67
aI68
aI69
aI60
aI61
aI62
aI63
asg2547
I6
sbsg1144
g0
(g2536
g2
Ntp2580
Rp2581
(dp2582
g2540
g2541
sg2542
g1144
sg2543
g2544
sg2545
(lp2583
I50
aI51
aI52
aI53
aI54
aI55
aI56
aI57
aI58
aI59
asg2547
I5
sbsg1070
g0
(g2536
g2
Ntp2584
Rp2585
(dp2586
g2540
g2541
sg2542
g1070
sg2543
g2544
sg2545
(lp2587
I48
aI49
aI40
aI41
aI42
aI43
aI44
aI45
aI46
aI47
asg2547
I4
sbsg1114
g0
(g2536
g2
Ntp2588
Rp2589
(dp2590
g2540
g2541
sg2542
g1114
sg2543
g2544
sg2545
(lp2591
I32
aI33
aI34
aI35
aI36
aI37
aI38
aI39
aI30
aI31
asg2547
I3
sbsg1062
g0
(g2536
g2
Ntp2592
Rp2593
(dp2594
g2540
g2541
sg2542
g1062
sg2543
g2544
sg2545
(lp2595
I80
aI81
aI82
aI83
aI84
aI85
aI86
aI87
aI88
aI89
asg2547
I8
sbsg1098
g0
(g2536
g2
Ntp2596
Rp2597
(dp2598
g2540
g2541
sg2542
g1098
sg2543
g2544
sg2545
(lp2599
I70
aI71
aI72
aI73
aI74
aI75
aI76
aI77
aI78
aI79
asg2547
I7
sbsg1074
g0
(g2536
g2
Ntp2600
Rp2601
(dp2602
g2540
g2541
sg2542
g1074
sg2543
g2544
sg2545
(lp2603
I98
aI99
aI100
aI101
asg2547
I11
sbsg1136
g0
(g2536
g2
Ntp2604
Rp2605
(dp2606
g2540
g2541
sg2542
g1136
sg2543
g2544
sg2545
(lp2607
I160
aI161
aI158
aI159
asg2547
I26
sbsg1086
g0
(g2536
g2
Ntp2608
Rp2609
(dp2610
g2540
g2541
sg2542
g1086
sg2543
g2544
sg2545
(lp2611
I146
aI147
aI148
aI149
asg2547
I23
sbsg1066
g0
(g2536
g2
Ntp2612
Rp2613
(dp2614
g2540
g2541
sg2542
g1066
sg2543
g2544
sg2545
(lp2615
I112
aI113
aI110
aI111
asg2547
I14
sbsg1082
g0
(g2536
g2
Ntp2616
Rp2617
(dp2618
g2540
g2541
sg2542
g1082
sg2543
g2544
sg2545
(lp2619
I136
aI137
aI134
aI135
asg2547
I20
sbsg1102
g0
(g2536
g2
Ntp2620
Rp2621
(dp2622
g2540
g2541
sg2542
g1102
sg2543
g2544
sg2545
(lp2623
I90
aI91
aI92
aI93
asg2547
I9
sbsg1094
g0
(g2536
g2
Ntp2624
Rp2625
(dp2626
g2540
g2541
sg2542
g1094
sg2543
g2544
sg2545
(lp2627
I122
aI123
aI124
aI125
asg2547
I17
sbsg35
g0
(g2536
g2
Ntp2628
Rp2629
(dp2630
g2540
g2541
sg2542
g35
sg2543
S'node'
p2631
sg2545
(lp2632
I207
aI206
aI203
aI202
aI198
aI197
aI196
asg2547
I29
sbsg1090
g0
(g2536
g2
Ntp2633
Rp2634
(dp2635
g2540
g2541
sg2542
g1090
sg2543
g2544
sg2545
(lp2636
I104
aI105
aI102
aI103
asg2547
I12
sbsg1110
g0
(g2536
g2
Ntp2637
Rp2638
(dp2639
g2540
g2541
sg2542
g1110
sg2543
g2544
sg2545
(lp2640
I154
aI155
aI156
aI157
asg2547
I25
sbsg1058
g0
(g2536
g2
Ntp2641
Rp2642
(dp2643
g2540
g2541
sg2542
g1058
sg2543
g2544
sg2545
(lp2644
I144
aI145
aI142
aI143
asg2547
I22
sbsg20
g0
(g2536
g2
Ntp2645
Rp2646
(dp2647
g2540
g2541
sg2542
g20
sg2543
g2631
sg2545
(lp2648
I158
aI157
aI154
aI153
aI149
aI148
aI147
asg2547
I28
sbsg1128
g0
(g2536
g2
Ntp2649
Rp2650
(dp2651
g2540
g2541
sg2542
g1128
sg2543
g2544
sg2545
(lp2652
I114
aI115
aI116
aI117
asg2547
I15
sbsg1048
g0
(g2536
g2
Ntp2653
Rp2654
(dp2655
g2540
g2541
sg2542
g1048
sg2543
g2544
sg2545
(lp2656
I130
aI131
aI132
aI133
asg2547
I19
sbsg1040
g0
(g2536
g2
Ntp2657
Rp2658
(dp2659
g2540
g2541
sg2542
g1040
sg2543
g2544
sg2545
(lp2660
I96
aI97
aI94
aI95
asg2547
I10
sbsg1132
g0
(g2536
g2
Ntp2661
Rp2662
(dp2663
g2540
g2541
sg2542
g1132
sg2543
g2544
sg2545
(lp2664
I152
aI153
aI150
aI151
asg2547
I24
sbssS'steps'
p2665
(dp2666
g2443
g0
(ccompas_fea.structure.step
GeneralStep
p2667
g2
Ntp2668
Rp2669
(dp2670
g15
I1
sS'__name__'
p2671
S'GeneralStep'
p2672
sS'name'
p2673
g2443
sS'attr_list'
p2674
(lp2675
g1171
aS'increments'
p2676
aS'iterations'
p2677
aS'factor'
p2678
aS'nlgeom'
p2679
aS'nlmat'
p2680
aS'displacements'
p2681
aS'loads'
p2682
aS'type'
p2683
aS'tolerance'
p2684
aS'modify'
p2685
asS'increments'
p2686
I1
sS'iterations'
p2687
I100
sS'tolerance'
p2688
F0.01
sS'factor'
p2689
F1.0
sS'nlgeom'
p2690
I00
sS'nlmat'
p2691
I01
sS'displacements'
p2692
(lp2693
sS'loads'
p2694
(lp2695
g1226
asS'modify'
p2696
I01
sS'type'
p2697
S'static'
p2698
sbsg2445
g0
(g2667
g2
Ntp2699
Rp2700
(dp2701
g15
I2
sg2671
g2672
sg2673
g2445
sg2674
(lp2702
g1171
ag2676
ag2677
ag2678
ag2679
ag2680
ag2681
ag2682
ag2683
ag2684
ag2685
asg2686
I1
sg2687
I100
sg2688
F0.01
sg2689
F1.0
sg2690
I00
sg2691
I01
sg2692
(lp2703
sg2694
(lp2704
g1219
ag1212
ag1198
asg2696
I01
sg2697
g2698
sbsg2446
g0
(g2667
g2
Ntp2705
Rp2706
(dp2707
g15
I3
sg2671
g2672
sg2673
g2446
sg2674
(lp2708
g1171
ag2676
ag2677
ag2678
ag2679
ag2680
ag2681
ag2682
ag2683
ag2684
ag2685
asg2686
I1
sg2687
I100
sg2688
F0.01
sg2689
F1.0
sg2690
I00
sg2691
I01
sg2692
(lp2709
sg2694
(lp2710
g1191
ag1153
ag1205
ag1176
ag1183
asg2696
I01
sg2697
g2698
sbsg2447
g0
(g2667
g2
Ntp2711
Rp2712
(dp2713
g15
I0
sg2671
g2672
sg2673
g2447
sg2674
(lp2714
g1171
ag2676
ag2677
ag2678
ag2679
ag2680
ag2681
ag2682
ag2683
ag2684
ag2685
asg2686
I1
sg2687
I100
sg2688
F0.01
sg2689
F1.0
sg2690
I00
sg2691
I01
sg2692
(lp2715
g10
ag31
asg2694
(lp2716
sg2696
I01
sg2697
g2698
sbssS'loc_coor'
p2717
(dp2718
sS'steps_order'
p2719
(lp2720
g2447
ag2443
ag2445
ag2446
asS'tol'
p2721
S'3'
p2722
sS'virtual_nodes'
p2723
(dp2724
sS'virtual_node_index'
p2725
(dp2726
sS'virtual_elements'
p2727
(dp2728
sS'virtual_element_index'
p2729
(dp2730
sb.