ccopy_reg
_reconstructor
p0
(ccompas_fea.structure.structure
Structure
p1
c__builtin__
object
p2
Ntp3
Rp4
(dp5
S'constraints'
p6
(dp7
sS'displacements'
p8
(dp9
S'nset_pinned_set_disp_1'
p10
g0
(ccompas_fea.structure.displacement
GeneralDisplacement
p11
g2
Ntp12
Rp13
(dp14
S'index'
p15
I0
sS'__name__'
p16
S'GeneralDisplacement'
p17
sS'name'
p18
g10
sS'nodes'
p19
S'nset_support_wall1'
p20
sS'components'
p21
(dp22
S'z'
p23
I0
sS'xx'
p24
I0
sS'zz'
p25
I0
sS'yy'
p26
I0
sS'y'
p27
I0
sS'x'
p28
I0
ssS'axes'
p29
S'global'
p30
sbsS'nset_pinned_set_disp_2'
p31
g0
(g11
g2
Ntp32
Rp33
(dp34
g15
I1
sg16
g17
sg18
g31
sg19
S'nset_support_wall2'
p35
sg21
(dp36
g23
I0
sg24
I0
sg25
I0
sg26
I0
sg27
I0
sg28
I0
ssg29
g30
sbssS'elements'
p37
(dp38
I0
g0
(ccompas_fea.structure.element
ShellElement
p39
g2
Ntp40
Rp41
(dp42
S'mass'
p43
NsS'__name__'
p44
S'ShellElement'
p45
sS'nodes'
p46
(lp47
I0
aI1
aI3
aI2
asS'number'
p48
I0
sS'thermal'
p49
I00
sS'axes'
p50
(dp51
S'ey'
p52
NsS'ez'
p53
NsS'ex'
p54
NssS'element_property'
p55
S'elset_plate_1_element_prop'
p56
sbsI1
g0
(g39
g2
Ntp57
Rp58
(dp59
g43
Nsg44
g45
sg46
(lp60
I2
aI3
aI5
aI4
asg48
I1
sg49
I00
sg50
g51
sg55
g56
sbsI2
g0
(g39
g2
Ntp61
Rp62
(dp63
g43
Nsg44
g45
sg46
(lp64
I4
aI5
aI7
aI6
asg48
I2
sg49
I00
sg50
g51
sg55
g56
sbsI3
g0
(g39
g2
Ntp65
Rp66
(dp67
g43
Nsg44
g45
sg46
(lp68
I8
aI9
aI11
aI10
asg48
I3
sg49
I00
sg50
(dp69
g52
Nsg53
Nsg54
Nssg55
S'elset_plate_2_element_prop'
p70
sbsI4
g0
(g39
g2
Ntp71
Rp72
(dp73
g43
Nsg44
g45
sg46
(lp74
I10
aI11
aI13
aI12
asg48
I4
sg49
I00
sg50
g69
sg55
g70
sbsI5
g0
(g39
g2
Ntp75
Rp76
(dp77
g43
Nsg44
g45
sg46
(lp78
I12
aI13
aI15
aI14
asg48
I5
sg49
I00
sg50
g69
sg55
g70
sbsI6
g0
(g39
g2
Ntp79
Rp80
(dp81
g43
Nsg44
g45
sg46
(lp82
I1
aI16
aI17
aI3
asg48
I6
sg49
I00
sg50
(dp83
g52
Nsg53
Nsg54
Nssg55
S'elset_plate_3_element_prop'
p84
sbsI7
g0
(g39
g2
Ntp85
Rp86
(dp87
g43
Nsg44
g45
sg46
(lp88
I3
aI17
aI18
aI5
asg48
I7
sg49
I00
sg50
g83
sg55
g84
sbsI8
g0
(g39
g2
Ntp89
Rp90
(dp91
g43
Nsg44
g45
sg46
(lp92
I5
aI18
aI19
aI7
asg48
I8
sg49
I00
sg50
g83
sg55
g84
sbsI9
g0
(g39
g2
Ntp93
Rp94
(dp95
g43
Nsg44
g45
sg46
(lp96
I9
aI20
aI21
aI11
asg48
I9
sg49
I00
sg50
(dp97
g52
Nsg53
Nsg54
Nssg55
S'elset_plate_4_element_prop'
p98
sbsI10
g0
(g39
g2
Ntp99
Rp100
(dp101
g43
Nsg44
g45
sg46
(lp102
I11
aI21
aI22
aI13
asg48
I10
sg49
I00
sg50
g97
sg55
g98
sbsI11
g0
(g39
g2
Ntp103
Rp104
(dp105
g43
Nsg44
g45
sg46
(lp106
I13
aI22
aI23
aI15
asg48
I11
sg49
I00
sg50
g97
sg55
g98
sbsI12
g0
(g39
g2
Ntp107
Rp108
(dp109
g43
Nsg44
g45
sg46
(lp110
I16
aI24
aI25
aI17
asg48
I12
sg49
I00
sg50
(dp111
g52
Nsg53
Nsg54
Nssg55
S'elset_plate_5_element_prop'
p112
sbsI13
g0
(g39
g2
Ntp113
Rp114
(dp115
g43
Nsg44
g45
sg46
(lp116
I17
aI25
aI26
aI18
asg48
I13
sg49
I00
sg50
g111
sg55
g112
sbsI14
g0
(g39
g2
Ntp117
Rp118
(dp119
g43
Nsg44
g45
sg46
(lp120
I18
aI26
aI27
aI19
asg48
I14
sg49
I00
sg50
g111
sg55
g112
sbsI15
g0
(g39
g2
Ntp121
Rp122
(dp123
g43
Nsg44
g45
sg46
(lp124
I20
aI28
aI29
aI21
asg48
I15
sg49
I00
sg50
(dp125
g52
Nsg53
Nsg54
Nssg55
S'elset_plate_6_element_prop'
p126
sbsI16
g0
(g39
g2
Ntp127
Rp128
(dp129
g43
Nsg44
g45
sg46
(lp130
I21
aI29
aI30
aI22
asg48
I16
sg49
I00
sg50
g125
sg55
g126
sbsI17
g0
(g39
g2
Ntp131
Rp132
(dp133
g43
Nsg44
g45
sg46
(lp134
I22
aI30
aI31
aI23
asg48
I17
sg49
I00
sg50
g125
sg55
g126
sbsI18
g0
(g39
g2
Ntp135
Rp136
(dp137
g43
Nsg44
g45
sg46
(lp138
I6
aI7
aI33
aI32
asg48
I18
sg49
I00
sg50
(dp139
g52
Nsg53
Nsg54
Nssg55
S'elset_plate_7_element_prop'
p140
sbsI19
g0
(g39
g2
Ntp141
Rp142
(dp143
g43
Nsg44
g45
sg46
(lp144
I32
aI33
aI35
aI34
asg48
I19
sg49
I00
sg50
g139
sg55
g140
sbsI20
g0
(g39
g2
Ntp145
Rp146
(dp147
g43
Nsg44
g45
sg46
(lp148
I34
aI35
aI9
aI8
asg48
I20
sg49
I00
sg50
g139
sg55
g140
sbsI21
g0
(g39
g2
Ntp149
Rp150
(dp151
g43
Nsg44
g45
sg46
(lp152
I7
aI19
aI36
aI33
asg48
I21
sg49
I00
sg50
(dp153
g52
Nsg53
Nsg54
Nssg55
S'elset_plate_8_element_prop'
p154
sbsI22
g0
(g39
g2
Ntp155
Rp156
(dp157
g43
Nsg44
g45
sg46
(lp158
I33
aI36
aI37
aI35
asg48
I22
sg49
I00
sg50
g153
sg55
g154
sbsI23
g0
(g39
g2
Ntp159
Rp160
(dp161
g43
Nsg44
g45
sg46
(lp162
I35
aI37
aI20
aI9
asg48
I23
sg49
I00
sg50
g153
sg55
g154
sbsI24
g0
(g39
g2
Ntp163
Rp164
(dp165
g43
Nsg44
g45
sg46
(lp166
I19
aI27
aI38
aI36
asg48
I24
sg49
I00
sg50
(dp167
g52
Nsg53
Nsg54
Nssg55
S'elset_plate_9_element_prop'
p168
sbsI25
g0
(g39
g2
Ntp169
Rp170
(dp171
g43
Nsg44
g45
sg46
(lp172
I36
aI38
aI39
aI37
asg48
I25
sg49
I00
sg50
g167
sg55
g168
sbsI26
g0
(g39
g2
Ntp173
Rp174
(dp175
g43
Nsg44
g45
sg46
(lp176
I37
aI39
aI28
aI20
asg48
I26
sg49
I00
sg50
g167
sg55
g168
sbsI27
g0
(g39
g2
Ntp177
Rp178
(dp179
g43
Nsg44
g45
sg46
(lp180
I40
aI41
aI43
aI42
asg48
I27
sg49
I00
sg50
(dp181
g52
Nsg53
Nsg54
Nssg55
S'elset_wall_1_1_element_prop'
p182
sbsI28
g0
(g39
g2
Ntp183
Rp184
(dp185
g43
Nsg44
g45
sg46
(lp186
I41
aI44
aI45
aI43
asg48
I28
sg49
I00
sg50
(dp187
g52
Nsg53
Nsg54
Nssg55
S'elset_wall_1_2_element_prop'
p188
sbsI29
g0
(g39
g2
Ntp189
Rp190
(dp191
g43
Nsg44
g45
sg46
(lp192
I44
aI46
aI47
aI45
asg48
I29
sg49
I00
sg50
(dp193
g52
Nsg53
Nsg54
Nssg55
S'elset_wall_1_3_element_prop'
p194
sbsI30
g0
(g39
g2
Ntp195
Rp196
(dp197
g43
Nsg44
g45
sg46
(lp198
I48
aI49
aI41
aI40
asg48
I30
sg49
I00
sg50
(dp199
g52
Nsg53
Nsg54
Nssg55
S'elset_wall_1_4_element_prop'
p200
sbsI31
g0
(g39
g2
Ntp201
Rp202
(dp203
g43
Nsg44
g45
sg46
(lp204
I49
aI50
aI44
aI41
asg48
I31
sg49
I00
sg50
(dp205
g52
Nsg53
Nsg54
Nssg55
S'elset_wall_1_5_element_prop'
p206
sbsI32
g0
(g39
g2
Ntp207
Rp208
(dp209
g43
Nsg44
g45
sg46
(lp210
I50
aI51
aI46
aI44
asg48
I32
sg49
I00
sg50
(dp211
g52
Nsg53
Nsg54
Nssg55
S'elset_wall_1_6_element_prop'
p212
sbsI33
g0
(g39
g2
Ntp213
Rp214
(dp215
g43
Nsg44
g45
sg46
(lp216
I52
aI53
aI49
aI48
asg48
I33
sg49
I00
sg50
(dp217
g52
Nsg53
Nsg54
Nssg55
S'elset_wall_1_7_element_prop'
p218
sbsI34
g0
(g39
g2
Ntp219
Rp220
(dp221
g43
Nsg44
g45
sg46
(lp222
I53
aI54
aI50
aI49
asg48
I34
sg49
I00
sg50
(dp223
g52
Nsg53
Nsg54
Nssg55
S'elset_wall_1_8_element_prop'
p224
sbsI35
g0
(g39
g2
Ntp225
Rp226
(dp227
g43
Nsg44
g45
sg46
(lp228
I54
aI55
aI51
aI50
asg48
I35
sg49
I00
sg50
(dp229
g52
Nsg53
Nsg54
Nssg55
S'elset_wall_1_9_element_prop'
p230
sbsI36
g0
(g39
g2
Ntp231
Rp232
(dp233
g43
Nsg44
g45
sg46
(lp234
I56
aI58
aI59
aI57
asg48
I36
sg49
I00
sg50
(dp235
g52
Nsg53
Nsg54
Nssg55
S'elset_wall_2_1_element_prop'
p236
sbsI37
g0
(g39
g2
Ntp237
Rp238
(dp239
g43
Nsg44
g45
sg46
(lp240
I57
aI59
aI61
aI60
asg48
I37
sg49
I00
sg50
(dp241
g52
Nsg53
Nsg54
Nssg55
S'elset_wall_2_2_element_prop'
p242
sbsI38
g0
(g39
g2
Ntp243
Rp244
(dp245
g43
Nsg44
g45
sg46
(lp246
I60
aI61
aI63
aI62
asg48
I38
sg49
I00
sg50
(dp247
g52
Nsg53
Nsg54
Nssg55
S'elset_wall_2_3_element_prop'
p248
sbsI39
g0
(g39
g2
Ntp249
Rp250
(dp251
g43
Nsg44
g45
sg46
(lp252
I64
aI56
aI57
aI65
asg48
I39
sg49
I00
sg50
(dp253
g52
Nsg53
Nsg54
Nssg55
S'elset_wall_2_4_element_prop'
p254
sbsI40
g0
(g39
g2
Ntp255
Rp256
(dp257
g43
Nsg44
g45
sg46
(lp258
I65
aI57
aI60
aI66
asg48
I40
sg49
I00
sg50
(dp259
g52
Nsg53
Nsg54
Nssg55
S'elset_wall_2_5_element_prop'
p260
sbsI41
g0
(g39
g2
Ntp261
Rp262
(dp263
g43
Nsg44
g45
sg46
(lp264
I66
aI60
aI62
aI67
asg48
I41
sg49
I00
sg50
(dp265
g52
Nsg53
Nsg54
Nssg55
S'elset_wall_2_6_element_prop'
p266
sbsI42
g0
(g39
g2
Ntp267
Rp268
(dp269
g43
Nsg44
g45
sg46
(lp270
I68
aI64
aI65
aI69
asg48
I42
sg49
I00
sg50
(dp271
g52
Nsg53
Nsg54
Nssg55
S'elset_wall_2_7_element_prop'
p272
sbsI43
g0
(g39
g2
Ntp273
Rp274
(dp275
g43
Nsg44
g45
sg46
(lp276
I69
aI65
aI66
aI70
asg48
I43
sg49
I00
sg50
(dp277
g52
Nsg53
Nsg54
Nssg55
S'elset_wall_2_8_element_prop'
p278
sbsI44
g0
(g39
g2
Ntp279
Rp280
(dp281
g43
Nsg44
g45
sg46
(lp282
I70
aI66
aI67
aI71
asg48
I44
sg49
I00
sg50
(dp283
g52
Nsg53
Nsg54
Nssg55
S'elset_wall_2_9_element_prop'
p284
sbsI45
g0
(ccompas_fea.structure.element
MPCElement
p285
g2
Ntp286
Rp287
(dp288
g43
Nsg44
S'MPCElement'
p289
sg46
(lp290
I63
aI31
asg48
I45
sg49
I00
sg50
(dp291
g52
Nsg53
(lp292
F-4.5474735088646412e-13
aF0.0
aF715.29289245104201
asg54
Nssg55
S'elset_mpc_element_prop'
p293
sbsI46
g0
(g285
g2
Ntp294
Rp295
(dp296
g43
Nsg44
g289
sg46
(lp297
I61
aI23
asg48
I46
sg49
I00
sg50
(dp298
g52
Nsg53
(lp299
F4.0927261579781771e-12
aF0.0
aF715.29289245104201
asg54
Nssg55
g293
sbsI47
g0
(g285
g2
Ntp300
Rp301
(dp302
g43
Nsg44
g289
sg46
(lp303
I59
aI15
asg48
I47
sg49
I00
sg50
(dp304
g52
Nsg53
(lp305
F-2.9558577807620168e-12
aF0.0
aF715.29289245104201
asg54
Nssg55
g293
sbsI48
g0
(g285
g2
Ntp306
Rp307
(dp308
g43
Nsg44
g289
sg46
(lp309
I58
aI14
asg48
I48
sg49
I00
sg50
(dp310
g52
Nsg53
(lp311
F0.0
aF0.0
aF715.29289245104201
asg54
Nssg55
g293
sbsI49
g0
(g285
g2
Ntp312
Rp313
(dp314
g43
Nsg44
g289
sg46
(lp315
I47
aI24
asg48
I49
sg49
I00
sg50
(dp316
g52
Nsg53
(lp317
F-4.5474735088646412e-13
aF0.0
aF715.29289245104201
asg54
Nssg55
g293
sbsI50
g0
(g285
g2
Ntp318
Rp319
(dp320
g43
Nsg44
g289
sg46
(lp321
I45
aI16
asg48
I50
sg49
I00
sg50
(dp322
g52
Nsg53
(lp323
F4.0927261579781771e-12
aF0.0
aF715.29289245104201
asg54
Nssg55
g293
sbsI51
g0
(g285
g2
Ntp324
Rp325
(dp326
g43
Nsg44
g289
sg46
(lp327
I43
aI1
asg48
I51
sg49
I00
sg50
(dp328
g52
Nsg53
(lp329
F-2.9558577807620168e-12
aF0.0
aF715.29289245104201
asg54
Nssg55
g293
sbsI52
g0
(g285
g2
Ntp330
Rp331
(dp332
g43
Nsg44
g289
sg46
(lp333
I42
aI0
asg48
I52
sg49
I00
sg50
(dp334
g52
Nsg53
(lp335
F0.0
aF0.0
aF715.29289245104201
asg54
Nssg55
g293
sbssS'element_index'
p336
(dp337
S'0.000,0.000,-357.646'
p338
I52
sS'1891.138,12448.730,0.000'
p339
I10
sS'630.379,0.000,-1110.072'
p340
I27
sS'1260.758,14908.659,-357.646'
p341
I47
sS'1891.138,2459.929,0.000'
p342
I7
sS'3170.999,12448.730,0.000'
p343
I16
sS'0.000,14908.659,-357.646'
p344
I48
sS'3170.999,14908.659,-1110.072'
p345
I38
sS'3170.999,819.976,0.000'
p346
I12
sS'3170.999,5764.681,0.000'
p347
I24
sS'1260.758,0.000,-357.646'
p348
I51
sS'1891.138,0.000,-1110.072'
p349
I28
sS'3170.999,0.000,-2713.114'
p350
I35
sS'3170.999,0.000,-1110.072'
p351
I29
sS'1891.138,819.976,0.000'
p352
I6
sS'3170.999,14088.683,0.000'
p353
I17
sS'630.379,4099.881,0.000'
p354
I2
sS'3170.999,2459.929,0.000'
p355
I13
sS'1891.138,0.000,-2713.114'
p356
I34
sS'1891.138,14908.659,-2713.114'
p357
I43
sS'3170.999,14908.659,-2713.114'
p358
I44
sS'3820.480,0.000,-357.646'
p359
I49
sS'3170.999,9143.978,0.000'
p360
I26
sS'630.379,12448.730,0.000'
p361
I4
sS'630.379,5764.681,0.000'
p362
I18
sS'630.379,0.000,-1911.593'
p363
I30
sS'1891.138,7454.330,0.000'
p364
I22
sS'1891.138,9143.978,0.000'
p365
I23
sS'1891.138,14088.683,0.000'
p366
I11
sS'630.379,0.000,-2713.114'
p367
I33
sS'3170.999,10808.778,0.000'
p368
I15
sS'1891.138,14908.659,-1110.072'
p369
I37
sS'1891.138,0.000,-1911.593'
p370
I31
sS'2521.517,0.000,-357.646'
p371
I50
sS'630.379,10808.778,0.000'
p372
I3
sS'630.379,14908.659,-1110.072'
p373
I36
sS'630.379,819.976,0.000'
p374
I0
sS'1891.138,10808.778,0.000'
p375
I9
sS'1891.138,4099.881,0.000'
p376
I8
sS'3170.999,4099.881,0.000'
p377
I14
sS'630.379,2459.929,0.000'
p378
I1
sS'3170.999,7454.330,0.000'
p379
I25
sS'3820.480,14908.659,-357.646'
p380
I45
sS'1891.138,5764.681,0.000'
p381
I21
sS'3170.999,14908.659,-1911.593'
p382
I41
sS'1891.138,14908.659,-1911.593'
p383
I40
sS'630.379,14088.683,0.000'
p384
I5
sS'2521.517,14908.659,-357.646'
p385
I46
sS'630.379,14908.659,-1911.593'
p386
I39
sS'630.379,14908.659,-2713.114'
p387
I42
sS'3170.999,0.000,-1911.593'
p388
I32
sS'630.379,9143.978,0.000'
p389
I20
sS'630.379,7454.330,0.000'
p390
I19
ssS'element_properties'
p391
(dp392
g254
g0
(ccompas_fea.structure.element_properties
ElementProperties
p393
g2
Ntp394
Rp395
(dp396
g15
I21
sS'__name__'
p397
S'ElementProperties'
p398
sS'name'
p399
g254
sS'material'
p400
S'wall_element_mat'
p401
sS'section'
p402
S'wall2_element_sec'
p403
sS'elset'
p404
S'elset_wall_2_4'
p405
sS'elements'
p406
NsS'rebar'
p407
(dp408
sbsg188
g0
(g393
g2
Ntp409
Rp410
(dp411
g15
I10
sg397
g398
sg399
g188
sg400
g401
sg402
S'wall1_element_sec'
p412
sg404
S'elset_wall_1_2'
p413
sg406
Nsg407
g408
sbsg224
g0
(g393
g2
Ntp414
Rp415
(dp416
g15
I16
sg397
g398
sg399
g224
sg400
g401
sg402
g412
sg404
S'elset_wall_1_8'
p417
sg406
Nsg407
g408
sbsg242
g0
(g393
g2
Ntp418
Rp419
(dp420
g15
I19
sg397
g398
sg399
g242
sg400
g401
sg402
g403
sg404
S'elset_wall_2_2'
p421
sg406
Nsg407
g408
sbsg56
g0
(g393
g2
Ntp422
Rp423
(dp424
g15
I0
sg397
g398
sg399
g56
sg400
S'plate_element_mat'
p425
sg402
S'plate_element_sec'
p426
sg404
S'elset_plate_1'
p427
sg406
Nsg407
g408
sbsg260
g0
(g393
g2
Ntp428
Rp429
(dp430
g15
I22
sg397
g398
sg399
g260
sg400
g401
sg402
g403
sg404
S'elset_wall_2_5'
p431
sg406
Nsg407
g408
sbsg168
g0
(g393
g2
Ntp432
Rp433
(dp434
g15
I8
sg397
g398
sg399
g168
sg400
g425
sg402
g426
sg404
S'elset_plate_9'
p435
sg406
Nsg407
g408
sbsg212
g0
(g393
g2
Ntp436
Rp437
(dp438
g15
I14
sg397
g398
sg399
g212
sg400
g401
sg402
g412
sg404
S'elset_wall_1_6'
p439
sg406
Nsg407
g408
sbsg112
g0
(g393
g2
Ntp440
Rp441
(dp442
g15
I4
sg397
g398
sg399
g112
sg400
g425
sg402
g426
sg404
S'elset_plate_5'
p443
sg406
Nsg407
g408
sbsg194
g0
(g393
g2
Ntp444
Rp445
(dp446
g15
I11
sg397
g398
sg399
g194
sg400
g401
sg402
g412
sg404
S'elset_wall_1_3'
p447
sg406
Nsg407
g408
sbsg84
g0
(g393
g2
Ntp448
Rp449
(dp450
g15
I2
sg397
g398
sg399
g84
sg400
g425
sg402
g426
sg404
S'elset_plate_3'
p451
sg406
Nsg407
g408
sbsg248
g0
(g393
g2
Ntp452
Rp453
(dp454
g15
I20
sg397
g398
sg399
g248
sg400
g401
sg402
g403
sg404
S'elset_wall_2_3'
p455
sg406
Nsg407
g408
sbsg266
g0
(g393
g2
Ntp456
Rp457
(dp458
g15
I23
sg397
g398
sg399
g266
sg400
g401
sg402
g403
sg404
S'elset_wall_2_6'
p459
sg406
Nsg407
g408
sbsg200
g0
(g393
g2
Ntp460
Rp461
(dp462
g15
I12
sg397
g398
sg399
g200
sg400
g401
sg402
g412
sg404
S'elset_wall_1_4'
p463
sg406
Nsg407
g408
sbsg230
g0
(g393
g2
Ntp464
Rp465
(dp466
g15
I17
sg397
g398
sg399
g230
sg400
g401
sg402
g412
sg404
S'elset_wall_1_9'
p467
sg406
Nsg407
g408
sbsg154
g0
(g393
g2
Ntp468
Rp469
(dp470
g15
I7
sg397
g398
sg399
g154
sg400
g425
sg402
g426
sg404
S'elset_plate_8'
p471
sg406
Nsg407
g408
sbsg182
g0
(g393
g2
Ntp472
Rp473
(dp474
g15
I9
sg397
g398
sg399
g182
sg400
g401
sg402
g412
sg404
S'elset_wall_1_1'
p475
sg406
Nsg407
g408
sbsg140
g0
(g393
g2
Ntp476
Rp477
(dp478
g15
I6
sg397
g398
sg399
g140
sg400
g425
sg402
g426
sg404
S'elset_plate_7'
p479
sg406
Nsg407
g408
sbsg278
g0
(g393
g2
Ntp480
Rp481
(dp482
g15
I25
sg397
g398
sg399
g278
sg400
g401
sg402
g403
sg404
S'elset_wall_2_8'
p483
sg406
Nsg407
g408
sbsg98
g0
(g393
g2
Ntp484
Rp485
(dp486
g15
I3
sg397
g398
sg399
g98
sg400
g425
sg402
g426
sg404
S'elset_plate_4'
p487
sg406
Nsg407
g408
sbsg70
g0
(g393
g2
Ntp488
Rp489
(dp490
g15
I1
sg397
g398
sg399
g70
sg400
g425
sg402
g426
sg404
S'elset_plate_2'
p491
sg406
Nsg407
g408
sbsg293
g0
(g393
g2
Ntp492
Rp493
(dp494
g15
I27
sg397
g398
sg399
g293
sg400
S'elset_mpc_element_mat'
p495
sg402
S'sec_mpc'
p496
sg404
S'elset_mpcs'
p497
sg406
Nsg407
g408
sbsg218
g0
(g393
g2
Ntp498
Rp499
(dp500
g15
I15
sg397
g398
sg399
g218
sg400
g401
sg402
g412
sg404
S'elset_wall_1_7'
p501
sg406
Nsg407
g408
sbsg272
g0
(g393
g2
Ntp502
Rp503
(dp504
g15
I24
sg397
g398
sg399
g272
sg400
g401
sg402
g403
sg404
S'elset_wall_2_7'
p505
sg406
Nsg407
g408
sbsg284
g0
(g393
g2
Ntp506
Rp507
(dp508
g15
I26
sg397
g398
sg399
g284
sg400
g401
sg402
g403
sg404
S'elset_wall_2_9'
p509
sg406
Nsg407
g408
sbsg236
g0
(g393
g2
Ntp510
Rp511
(dp512
g15
I18
sg397
g398
sg399
g236
sg400
g401
sg402
g403
sg404
S'elset_wall_2_1'
p513
sg406
Nsg407
g408
sbsg126
g0
(g393
g2
Ntp514
Rp515
(dp516
g15
I5
sg397
g398
sg399
g126
sg400
g425
sg402
g426
sg404
S'elset_plate_6'
p517
sg406
Nsg407
g408
sbsg206
g0
(g393
g2
Ntp518
Rp519
(dp520
g15
I13
sg397
g398
sg399
g206
sg400
g401
sg402
g412
sg404
S'elset_wall_1_5'
p521
sg406
Nsg407
g408
sbssS'interactions'
p522
(dp523
sS'loads'
p524
(dp525
S'Gleis1_BAHNLASTEN_Lasteinzugsflache_Lastblock_-3'
p526
g0
(ccompas_fea.structure.load
AreaLoad
p527
g2
Ntp528
Rp529
(dp530
g15
I7
sS'__name__'
p531
S'AreaLoad'
p532
sS'name'
p533
g526
sS'axes'
p534
S'global'
p535
sS'components'
p536
(dp537
g23
F0.078096024580269208
sg27
I0
sg28
I0
ssS'nodes'
p538
(lp539
sS'elements'
p540
(lp541
I1
asS'attr_list'
p542
(lp543
S'name'
p544
aS'axes'
p545
aS'components'
p546
aS'nodes'
p547
aS'elements'
p548
asbsS'earthPressure_liveLoad'
p549
g0
(g527
g2
Ntp550
Rp551
(dp552
g15
I8
sg531
g532
sg533
g549
sg534
S'local'
p553
sg536
(dp554
g23
F0.037699999999999997
sg27
I0
sg28
I0
ssg538
g539
sg540
(lp555
I28
aI29
aI30
aI31
aI32
aI33
aI34
aI35
aI36
asg542
(lp556
g544
ag545
ag546
ag547
ag548
asbsS'Gleis1_BAHNLASTEN_Lasteinzugsflache_Lastblock_-2'
p557
g0
(g527
g2
Ntp558
Rp559
(dp560
g15
I6
sg531
g532
sg533
g557
sg534
g535
sg536
(dp561
g23
F0.078096024580269208
sg27
I0
sg28
I0
ssg538
g539
sg540
(lp562
I2
aI7
aI8
aI13
asg542
(lp563
g544
ag545
ag546
ag547
ag548
asbsS'Gleis1_EIGENGEWICHTE_SCHIENE_Lasteinzugsflache'
p564
g0
(g527
g2
Ntp565
Rp566
(dp567
g15
I3
sg531
g532
sg533
g564
sg534
g535
sg536
(dp568
g23
F0.002361859550246921
sg27
I0
sg28
I0
ssg538
g539
sg540
(lp569
I1
aI2
aI7
aI8
aI9
aI13
aI14
aI15
aI25
aI26
asg542
(lp570
g544
ag545
ag546
ag547
ag548
asbsS'earthPressure_backfill'
p571
g0
(g527
g2
Ntp572
Rp573
(dp574
g15
I2
sg531
g532
sg533
g571
sg534
g553
sg536
(dp575
g23
F0.044785922861301418
sg27
I0
sg28
I0
ssg538
g539
sg540
(lp576
g475
ag413
ag447
ag463
ag521
ag439
ag501
ag417
ag467
ag513
ag421
ag455
ag405
ag431
ag459
ag505
ag483
ag509
asg542
(lp577
g544
ag545
ag546
ag547
ag548
asbsS'earthPressure_gravel'
p578
g0
(g527
g2
Ntp579
Rp580
(dp581
g15
I1
sg531
g532
sg533
g578
sg534
g535
sg536
(dp582
g23
F0.013500000000000002
sg27
I0
sg28
I0
ssg538
g539
sg540
(lp583
g427
ag491
ag451
ag487
ag443
ag517
ag479
ag471
ag435
asg542
(lp584
g544
ag545
ag546
ag547
ag548
asbsS'Gleis1_BAHNLASTEN_Lasteinzugsflache_Lastblock_-1'
p585
g0
(g527
g2
Ntp586
Rp587
(dp588
g15
I5
sg531
g532
sg533
g585
sg534
g535
sg536
(dp589
g23
F0.078096024580269208
sg27
I0
sg28
I0
ssg538
g539
sg540
(lp590
I25
asg542
(lp591
g544
ag545
ag546
ag547
ag548
asbsS'Gleis1_BAHNLASTEN_Lasteinzugsflache_Lastblock_1'
p592
g0
(g527
g2
Ntp593
Rp594
(dp595
g15
I4
sg531
g532
sg533
g592
sg534
g535
sg536
(dp596
g23
F0.078096024580269208
sg27
I0
sg28
I0
ssg538
g539
sg540
(lp597
I26
asg542
(lp598
g544
ag545
ag546
ag547
ag548
asbsS'load_gravity'
p599
g0
(ccompas_fea.structure.load
GravityLoad
p600
g2
Ntp601
Rp602
(dp603
g15
I0
sg531
S'GravityLoad'
p604
sg533
g599
sg534
g535
sg536
(dp605
g23
F1.3500000000000001
sg27
F0.0
sg28
F0.0
ssg538
g539
sg540
(lp606
g427
ag491
ag451
ag487
ag443
ag517
ag479
ag471
ag435
ag475
ag413
ag447
ag463
ag521
ag439
ag501
ag417
ag467
ag513
ag421
ag455
ag405
ag431
ag459
ag505
ag483
ag509
asg542
(lp607
g544
ag545
ag546
ag547
ag548
aS'g'
p608
asS'g'
p609
F-9.8100000000000005
sbssS'materials'
p610
(dp611
g495
g0
(ccompas_fea.structure.material
MPCStiff
p612
g2
Ntp613
Rp614
(dp615
g15
I2
sS'__name__'
p616
S'MPCStiff'
p617
sS'name'
p618
g495
sS'attr_list'
p619
(lp620
g544
aS'E'
p621
aS'v'
p622
aS'G'
p623
aS'p'
p624
aS'tension'
p625
aS'compression'
p626
asS'E'
p627
(dp628
g621
L10000000000000L
ssS'v'
p629
(dp630
g622
F0.29999999999999999
ssS'G'
p631
(dp632
g623
F3846153846153.8462
ssS'p'
p633
F0.10000000000000001
sS'tension'
p634
I01
sS'compression'
p635
I01
sbsg401
g0
(ccompas_fea.structure.material
CMMUsermat
p636
g2
Ntp637
Rp638
(dp639
g15
I1
sg616
S'CMMUsermat'
p640
sg618
g401
sg619
(lp641
g544
ag621
ag622
ag623
ag624
aS'R_Rohr'
p642
aS'rho'
p643
aS'oo'
p644
aS'uu'
p645
aS'beton'
p646
aS'fcc'
p647
aS'vc'
p648
aS'ecu'
p649
aS'k_E'
p650
aS'theta_b0'
p651
aS'theta_b1'
p652
aS'k_riss'
p653
aS'Entfestigung'
p654
aS'lambdaTS'
p655
aS'srmx'
p656
aS'srmy'
p657
aS'Begrenzung'
p658
aS'KritQ'
p659
aS'winkelD'
p660
aS'k_vr'
p661
aS'fswy'
p662
aS'stahl1'
p663
aS'zm1'
p664
aS'fsy1'
p665
aS'fsu1'
p666
aS'esu1'
p667
aS'esv1'
p668
aS'Es1'
p669
aS'ka1'
p670
aS'kb1'
p671
aS'kc1'
p672
aS'as1'
p673
aS'dm1'
p674
aS'psi1'
p675
aS'stahl2'
p676
aS'zm2'
p677
aS'fsy2'
p678
aS'fsu2'
p679
aS'esu2'
p680
aS'esv2'
p681
aS'Es2'
p682
aS'ka2'
p683
aS'kb2'
p684
aS'kc2'
p685
aS'as2'
p686
aS'dm2'
p687
aS'psi2'
p688
aS'stahl3'
p689
aS'zm3'
p690
aS'fsy3'
p691
aS'fsu3'
p692
aS'esu3'
p693
aS'esv3'
p694
aS'Es3'
p695
aS'ka3'
p696
aS'kb3'
p697
aS'kc3'
p698
aS'as3'
p699
aS'dm3'
p700
aS'psi3'
p701
aS'stahl4'
p702
aS'zm4'
p703
aS'fsy4'
p704
aS'fsu4'
p705
aS'esu4'
p706
aS'esv4'
p707
aS'Es4'
p708
aS'ka4'
p709
aS'kb4'
p710
aS'kc4'
p711
aS'as4'
p712
aS'dm4'
p713
aS'psi4'
p714
asS'E'
p715
(dp716
S'E'
p717
I200000
ssS'v'
p718
(dp719
S'v'
p720
F0.10000000000000001
ssS'G'
p721
(dp722
g623
F90909.090909090897
ssS'p'
p723
F2.5000000000000002e-06
sS'R_Rohr'
p724
(dp725
g642
I-1
ssS'rho'
p726
(dp727
g643
F2.5000000000000002e-06
ssS'oo'
p728
(dp729
g644
I30
ssS'uu'
p730
(dp731
g645
I30
ssS'beton'
p732
(dp733
g646
I2
ssS'fcc'
p734
(dp735
g647
I49
ssS'vc'
p736
(dp737
g648
I0
ssS'ecu'
p738
(dp739
g649
F-0.002
ssS'k_E'
p740
(dp741
g650
I10000
ssS'theta_b0'
p742
(dp743
g651
I2
ssS'theta_b1'
p744
(dp745
g652
I1
ssS'k_riss'
p746
(dp747
g653
I0
ssS'Entfestigung'
p748
(dp749
g654
I0
ssS'lambdaTS'
p750
(dp751
g655
F0.67000000000000004
ssS'srmx'
p752
(dp753
g656
I1
ssS'srmy'
p754
(dp755
g657
I1
ssS'Begrenzung'
p756
(dp757
g658
I2
ssS'KritQ'
p758
(dp759
g659
I0
ssS'winkelD'
p760
(dp761
g660
I45
ssS'k_vr'
p762
(dp763
g661
I1
ssS'fswy'
p764
(dp765
g662
I500
ssS'stahl1'
p766
(dp767
g663
I1
ssS'zm1'
p768
(dp769
g664
I2
ssS'fsy1'
p770
(dp771
g665
I405
ssS'fsu1'
p772
(dp773
g666
I438
ssS'esu1'
p774
(dp775
g667
F0.044999999999999998
ssS'esv1'
p776
(dp777
g668
F0.02
ssS'Es1'
p778
(dp779
g669
I200000
ssS'ka1'
p780
(dp781
g670
I-1
ssS'kb1'
p782
(dp783
g671
I-1
ssS'kc1'
p784
(dp785
g672
I-1
ssS'as1'
p786
(dp787
g673
F0.6069717573141048
ssS'dm1'
p788
(dp789
g674
F17.200253265337015
ssS'psi1'
p790
(dp791
g675
I90
ssS'stahl2'
p792
(dp793
g676
I1
ssS'zm2'
p794
(dp795
g677
I2
ssS'fsy2'
p796
(dp797
g678
I405
ssS'fsu2'
p798
(dp799
g679
I438
ssS'esu2'
p800
(dp801
g680
F0.044999999999999998
ssS'esv2'
p802
(dp803
g681
F0.02
ssS'Es2'
p804
(dp805
g682
I200000
ssS'ka2'
p806
(dp807
g683
I-1
ssS'kb2'
p808
(dp809
g684
I-1
ssS'kc2'
p810
(dp811
g685
I-1
ssS'as2'
p812
(dp813
g686
F0.29543455621837744
ssS'dm2'
p814
(dp815
g687
F12.0
ssS'psi2'
p816
(dp817
g688
I0
ssS'stahl3'
p818
(dp819
g689
I1
ssS'zm3'
p820
(dp821
g690
I2
ssS'fsy3'
p822
(dp823
g691
I405
ssS'fsu3'
p824
(dp825
g692
I438
ssS'esu3'
p826
(dp827
g693
F0.044999999999999998
ssS'esv3'
p828
(dp829
g694
F0.02
ssS'Es3'
p830
(dp831
g695
I200000
ssS'ka3'
p832
(dp833
g696
I-1
ssS'kb3'
p834
(dp835
g697
I-1
ssS'kc3'
p836
(dp837
g698
I-1
ssS'as3'
p838
(dp839
g699
F0.29543455621837744
ssS'dm3'
p840
(dp841
g700
F12.0
ssS'psi3'
p842
(dp843
g701
I0
ssS'stahl4'
p844
(dp845
g702
I1
ssS'zm4'
p846
(dp847
g703
I2
ssS'fsy4'
p848
(dp849
g704
I405
ssS'fsu4'
p850
(dp851
g705
I438
ssS'esu4'
p852
(dp853
g706
F0.044999999999999998
ssS'esv4'
p854
(dp855
g707
F0.02
ssS'Es4'
p856
(dp857
g708
I200000
ssS'ka4'
p858
(dp859
g709
I-1
ssS'kb4'
p860
(dp861
g710
I-1
ssS'kc4'
p862
(dp863
g711
I-1
ssS'as4'
p864
(dp865
g712
F1.4799686012884694
ssS'dm4'
p866
(dp867
g713
F26.858196736713722
ssS'psi4'
p868
(dp869
g714
I90
ssbsg425
g0
(g636
g2
Ntp870
Rp871
(dp872
g15
I0
sg616
g640
sg618
g425
sg619
(lp873
g544
ag621
ag622
ag623
ag624
ag642
ag643
ag644
ag645
ag646
ag647
ag648
ag649
ag650
ag651
ag652
ag653
ag654
ag655
ag656
ag657
ag658
ag659
ag660
ag661
ag662
ag663
ag664
ag665
ag666
ag667
ag668
ag669
ag670
ag671
ag672
ag673
ag674
ag675
ag676
ag677
ag678
ag679
ag680
ag681
ag682
ag683
ag684
ag685
ag686
ag687
ag688
ag689
ag690
ag691
ag692
ag693
ag694
ag695
ag696
ag697
ag698
ag699
ag700
ag701
ag702
ag703
ag704
ag705
ag706
ag707
ag708
ag709
ag710
ag711
ag712
ag713
ag714
asg715
(dp874
g717
I200000
ssg718
(dp875
g720
F0.10000000000000001
ssg721
(dp876
g623
F90909.090909090897
ssg723
F2.5000000000000002e-06
sg724
(dp877
g642
I-1
ssg726
(dp878
g643
F2.5000000000000002e-06
ssg728
(dp879
g644
I30
ssg730
(dp880
g645
I30
ssg732
(dp881
g646
I2
ssg734
(dp882
g647
I49
ssg736
(dp883
g648
I0
ssg738
(dp884
g649
F-0.002
ssg740
(dp885
g650
I10000
ssg742
(dp886
g651
I2
ssg744
(dp887
g652
I1
ssg746
(dp888
g653
I0
ssg748
(dp889
g654
I0
ssg750
(dp890
g655
F0.67000000000000004
ssg752
(dp891
g656
I1
ssg754
(dp892
g657
I1
ssg756
(dp893
g658
I2
ssg758
(dp894
g659
I0
ssg760
(dp895
g660
I45
ssg762
(dp896
g661
I1
ssg764
(dp897
g662
I500
ssg766
(dp898
g663
I1
ssg768
(dp899
g664
I2
ssg770
(dp900
g665
I405
ssg772
(dp901
g666
I438
ssg774
(dp902
g667
F0.044999999999999998
ssg776
(dp903
g668
F0.02
ssg778
(dp904
g669
I200000
ssg780
(dp905
g670
I-1
ssg782
(dp906
g671
I-1
ssg784
(dp907
g672
I-1
ssg786
(dp908
g673
F1.6683823947238599
ssg788
(dp909
g674
F29.619014214787192
ssg790
(dp910
g675
I90
ssg792
(dp911
g676
I1
ssg794
(dp912
g677
I2
ssg796
(dp913
g678
I405
ssg798
(dp914
g679
I438
ssg800
(dp915
g680
F0.044999999999999998
ssg802
(dp916
g681
F0.02
ssg804
(dp917
g682
I200000
ssg806
(dp918
g683
I-1
ssg808
(dp919
g684
I-1
ssg810
(dp920
g685
I-1
ssg812
(dp921
g686
F1.0842714436998293
ssg814
(dp922
g687
F23.877662588151431
ssg816
(dp923
g688
I0
ssg818
(dp924
g689
I1
ssg820
(dp925
g690
I2
ssg822
(dp926
g691
I405
ssg824
(dp927
g692
I438
ssg826
(dp928
g693
F0.044999999999999998
ssg828
(dp929
g694
F0.02
ssg830
(dp930
g695
I200000
ssg832
(dp931
g696
I-1
ssg834
(dp932
g697
I-1
ssg836
(dp933
g698
I-1
ssg838
(dp934
g699
F0.27385261363273367
ssg840
(dp935
g700
F12.0
ssg842
(dp936
g701
I0
ssg844
(dp937
g702
I1
ssg846
(dp938
g703
I2
ssg848
(dp939
g704
I405
ssg850
(dp940
g705
I438
ssg852
(dp941
g706
F0.044999999999999998
ssg854
(dp942
g707
F0.02
ssg856
(dp943
g708
I200000
ssg858
(dp944
g709
I-1
ssg860
(dp945
g710
I-1
ssg862
(dp946
g711
I-1
ssg864
(dp947
g712
F0.19493901454206233
ssg866
(dp948
g713
F10.124467348324519
ssg868
(dp949
g714
I90
ssbssS'misc'
p950
(dp951
sS'name'
p952
S'NLFE_CFB8'
p953
sS'nodes'
p954
(dp955
I0
g0
(ccompas_fea.structure.node
Node
p956
g2
Ntp957
Rp958
(dp959
S'__name__'
p960
S'Node'
p961
sS'key'
p962
I0
sS'x'
p963
F0.0
sS'y'
p964
F0.0
sS'z'
p965
F0.0
sS'ex'
p966
(lp967
I1
aI0
aI0
asS'ey'
p968
(lp969
I0
aI1
aI0
asS'ez'
p970
(lp971
I0
aI0
aI1
asS'mass'
p972
NsbsI1
g0
(g956
g2
Ntp973
Rp974
(dp975
g960
g961
sg962
I1
sg963
F1260.758483887287
sg964
F0.0
sg965
F0.0
sg966
g967
sg968
g969
sg970
g971
sg972
NsbsI2
g0
(g956
g2
Ntp976
Rp977
(dp978
g960
g961
sg962
I2
sg963
F0.0
sg964
F1639.9524931725991
sg965
F0.0
sg966
g967
sg968
g969
sg970
g971
sg972
NsbsI3
g0
(g956
g2
Ntp979
Rp980
(dp981
g960
g961
sg962
I3
sg963
F1260.758483887287
sg964
F1639.9524931725991
sg965
F0.0
sg966
g967
sg968
g969
sg970
g971
sg972
NsbsI4
g0
(g956
g2
Ntp982
Rp983
(dp984
g960
g961
sg962
I4
sg963
F0.0
sg964
F3279.9049863451983
sg965
F0.0
sg966
g967
sg968
g969
sg970
g971
sg972
NsbsI5
g0
(g956
g2
Ntp985
Rp986
(dp987
g960
g961
sg962
I5
sg963
F1260.758483887287
sg964
F3279.9049863451983
sg965
F0.0
sg966
g967
sg968
g969
sg970
g971
sg972
NsbsI6
g0
(g956
g2
Ntp988
Rp989
(dp990
g960
g961
sg962
I6
sg963
F0.0
sg964
F4919.8574795177974
sg965
F0.0
sg966
g967
sg968
g969
sg970
g971
sg972
NsbsI7
g0
(g956
g2
Ntp991
Rp992
(dp993
g960
g961
sg962
I7
sg963
F1260.758483887287
sg964
F4919.8574795177974
sg965
F0.0
sg966
g967
sg968
g969
sg970
g971
sg972
NsbsI8
g0
(g956
g2
Ntp994
Rp995
(dp996
g960
g961
sg962
I8
sg963
F0.0
sg964
F9988.8015493240127
sg965
F0.0
sg966
g967
sg968
g969
sg970
g971
sg972
NsbsI9
g0
(g956
g2
Ntp997
Rp998
(dp999
g960
g961
sg962
I9
sg963
F1260.758483887287
sg964
F9988.8015493240127
sg965
F0.0
sg966
g967
sg968
g969
sg970
g971
sg972
NsbsI10
g0
(g956
g2
Ntp1000
Rp1001
(dp1002
g960
g961
sg962
I10
sg963
F0.0
sg964
F11628.75404249661
sg965
F0.0
sg966
g967
sg968
g969
sg970
g971
sg972
NsbsI11
g0
(g956
g2
Ntp1003
Rp1004
(dp1005
g960
g961
sg962
I11
sg963
F1260.758483887287
sg964
F11628.75404249661
sg965
F0.0
sg966
g967
sg968
g969
sg970
g971
sg972
NsbsI12
g0
(g956
g2
Ntp1006
Rp1007
(dp1008
g960
g961
sg962
I12
sg963
F0.0
sg964
F13268.706535669211
sg965
F0.0
sg966
g967
sg968
g969
sg970
g971
sg972
NsbsI13
g0
(g956
g2
Ntp1009
Rp1010
(dp1011
g960
g961
sg962
I13
sg963
F1260.758483887287
sg964
F13268.706535669211
sg965
F0.0
sg966
g967
sg968
g969
sg970
g971
sg972
NsbsI14
g0
(g956
g2
Ntp1012
Rp1013
(dp1014
g960
g961
sg962
I14
sg963
F0.0
sg964
F14908.65902884181
sg965
F0.0
sg966
g967
sg968
g969
sg970
g971
sg972
NsbsI15
g0
(g956
g2
Ntp1015
Rp1016
(dp1017
g960
g961
sg962
I15
sg963
F1260.758483887287
sg964
F14908.65902884181
sg965
F0.0
sg966
g967
sg968
g969
sg970
g971
sg972
NsbsI16
g0
(g956
g2
Ntp1018
Rp1019
(dp1020
g960
g961
sg962
I16
sg963
F2521.5169677745739
sg964
F0.0
sg965
F0.0
sg966
g967
sg968
g969
sg970
g971
sg972
NsbsI17
g0
(g956
g2
Ntp1021
Rp1022
(dp1023
g960
g961
sg962
I17
sg963
F2521.5169677745739
sg964
F1639.9524931725991
sg965
F0.0
sg966
g967
sg968
g969
sg970
g971
sg972
NsbsI18
g0
(g956
g2
Ntp1024
Rp1025
(dp1026
g960
g961
sg962
I18
sg963
F2521.5169677745739
sg964
F3279.9049863451983
sg965
F0.0
sg966
g967
sg968
g969
sg970
g971
sg972
NsbsI19
g0
(g956
g2
Ntp1027
Rp1028
(dp1029
g960
g961
sg962
I19
sg963
F2521.5169677745739
sg964
F4919.8574795177974
sg965
F0.0
sg966
g967
sg968
g969
sg970
g971
sg972
NsbsI20
g0
(g956
g2
Ntp1030
Rp1031
(dp1032
g960
g961
sg962
I20
sg963
F2521.5169677745739
sg964
F9988.8015493240127
sg965
F0.0
sg966
g967
sg968
g969
sg970
g971
sg972
NsbsI21
g0
(g956
g2
Ntp1033
Rp1034
(dp1035
g960
g961
sg962
I21
sg963
F2521.5169677745739
sg964
F11628.75404249661
sg965
F0.0
sg966
g967
sg968
g969
sg970
g971
sg972
NsbsI22
g0
(g956
g2
Ntp1036
Rp1037
(dp1038
g960
g961
sg962
I22
sg963
F2521.5169677745739
sg964
F13268.706535669211
sg965
F0.0
sg966
g967
sg968
g969
sg970
g971
sg972
NsbsI23
g0
(g956
g2
Ntp1039
Rp1040
(dp1041
g960
g961
sg962
I23
sg963
F2521.5169677745739
sg964
F14908.65902884181
sg965
F0.0
sg966
g967
sg968
g969
sg970
g971
sg972
NsbsI24
g0
(g956
g2
Ntp1042
Rp1043
(dp1044
g960
g961
sg962
I24
sg963
F3820.4802542038997
sg964
F0.0
sg965
F0.0
sg966
g967
sg968
g969
sg970
g971
sg972
NsbsI25
g0
(g956
g2
Ntp1045
Rp1046
(dp1047
g960
g961
sg962
I25
sg963
F3820.4802542038997
sg964
F1639.9524931725991
sg965
F0.0
sg966
g967
sg968
g969
sg970
g971
sg972
NsbsI26
g0
(g956
g2
Ntp1048
Rp1049
(dp1050
g960
g961
sg962
I26
sg963
F3820.4802542038997
sg964
F3279.9049863451983
sg965
F0.0
sg966
g967
sg968
g969
sg970
g971
sg972
NsbsI27
g0
(g956
g2
Ntp1051
Rp1052
(dp1053
g960
g961
sg962
I27
sg963
F3820.4802542038997
sg964
F4919.8574795177974
sg965
F0.0
sg966
g967
sg968
g969
sg970
g971
sg972
NsbsI28
g0
(g956
g2
Ntp1054
Rp1055
(dp1056
g960
g961
sg962
I28
sg963
F3820.4802542038997
sg964
F9988.8015493240127
sg965
F0.0
sg966
g967
sg968
g969
sg970
g971
sg972
NsbsI29
g0
(g956
g2
Ntp1057
Rp1058
(dp1059
g960
g961
sg962
I29
sg963
F3820.4802542038997
sg964
F11628.75404249661
sg965
F0.0
sg966
g967
sg968
g969
sg970
g971
sg972
NsbsI30
g0
(g956
g2
Ntp1060
Rp1061
(dp1062
g960
g961
sg962
I30
sg963
F3820.4802542038997
sg964
F13268.706535669211
sg965
F0.0
sg966
g967
sg968
g969
sg970
g971
sg972
NsbsI31
g0
(g956
g2
Ntp1063
Rp1064
(dp1065
g960
g961
sg962
I31
sg963
F3820.4802542038997
sg964
F14908.65902884181
sg965
F0.0
sg966
g967
sg968
g969
sg970
g971
sg972
NsbsI32
g0
(g956
g2
Ntp1066
Rp1067
(dp1068
g960
g961
sg962
I32
sg963
F0.0
sg964
F6609.5055027865365
sg965
F0.0
sg966
g967
sg968
g969
sg970
g971
sg972
NsbsI33
g0
(g956
g2
Ntp1069
Rp1070
(dp1071
g960
g961
sg962
I33
sg963
F1260.758483887287
sg964
F6609.5055027865365
sg965
F0.0
sg966
g967
sg968
g969
sg970
g971
sg972
NsbsI34
g0
(g956
g2
Ntp1072
Rp1073
(dp1074
g960
g961
sg962
I34
sg963
F0.0
sg964
F8299.1535260552737
sg965
F0.0
sg966
g967
sg968
g969
sg970
g971
sg972
NsbsI35
g0
(g956
g2
Ntp1075
Rp1076
(dp1077
g960
g961
sg962
I35
sg963
F1260.758483887287
sg964
F8299.1535260552737
sg965
F0.0
sg966
g967
sg968
g969
sg970
g971
sg972
NsbsI36
g0
(g956
g2
Ntp1078
Rp1079
(dp1080
g960
g961
sg962
I36
sg963
F2521.5169677745739
sg964
F6609.5055027865365
sg965
F0.0
sg966
g967
sg968
g969
sg970
g971
sg972
NsbsI37
g0
(g956
g2
Ntp1081
Rp1082
(dp1083
g960
g961
sg962
I37
sg963
F2521.5169677745739
sg964
F8299.1535260552737
sg965
F0.0
sg966
g967
sg968
g969
sg970
g971
sg972
NsbsI38
g0
(g956
g2
Ntp1084
Rp1085
(dp1086
g960
g961
sg962
I38
sg963
F3820.4802542039001
sg964
F6609.5055027865365
sg965
F0.0
sg966
g967
sg968
g969
sg970
g971
sg972
NsbsI39
g0
(g956
g2
Ntp1087
Rp1088
(dp1089
g960
g961
sg962
I39
sg963
F3820.4802542038997
sg964
F8299.1535260552737
sg965
F0.0
sg966
g967
sg968
g969
sg970
g971
sg972
NsbsI40
g0
(g956
g2
Ntp1090
Rp1091
(dp1092
g960
g961
sg962
I40
sg963
F0.0
sg964
F0.0
sg965
F-1504.8511067979759
sg966
g967
sg968
g969
sg970
g971
sg972
NsbsI41
g0
(g956
g2
Ntp1093
Rp1094
(dp1095
g960
g961
sg962
I41
sg963
F1260.7584838872899
sg964
F0.0
sg965
F-1504.8511067979759
sg966
g967
sg968
g969
sg970
g971
sg972
NsbsI42
g0
(g956
g2
Ntp1096
Rp1097
(dp1098
g960
g961
sg962
I42
sg963
F0.0
sg964
F0.0
sg965
F-715.29289245104201
sg966
g967
sg968
g969
sg970
g971
sg972
NsbsI43
g0
(g956
g2
Ntp1099
Rp1100
(dp1101
g960
g961
sg962
I43
sg963
F1260.7584838872899
sg964
F0.0
sg965
F-715.29289245104201
sg966
g967
sg968
g969
sg970
g971
sg972
NsbsI44
g0
(g956
g2
Ntp1102
Rp1103
(dp1104
g960
g961
sg962
I44
sg963
F2521.5169677745698
sg964
F0.0
sg965
F-1504.8511067979759
sg966
g967
sg968
g969
sg970
g971
sg972
NsbsI45
g0
(g956
g2
Ntp1105
Rp1106
(dp1107
g960
g961
sg962
I45
sg963
F2521.5169677745698
sg964
F0.0
sg965
F-715.29289245104201
sg966
g967
sg968
g969
sg970
g971
sg972
NsbsI46
g0
(g956
g2
Ntp1108
Rp1109
(dp1110
g960
g961
sg962
I46
sg963
F3820.4802542039001
sg964
F0.0
sg965
F-1504.8511067979759
sg966
g967
sg968
g969
sg970
g971
sg972
NsbsI47
g0
(g956
g2
Ntp1111
Rp1112
(dp1113
g960
g961
sg962
I47
sg963
F3820.4802542039001
sg964
F0.0
sg965
F-715.29289245104201
sg966
g967
sg968
g969
sg970
g971
sg972
NsbsI48
g0
(g956
g2
Ntp1114
Rp1115
(dp1116
g960
g961
sg962
I48
sg963
F0.0
sg964
F0.0
sg965
F-2318.3353276402713
sg966
g967
sg968
g969
sg970
g971
sg972
NsbsI49
g0
(g956
g2
Ntp1117
Rp1118
(dp1119
g960
g961
sg962
I49
sg963
F1260.7584838872899
sg964
F0.0
sg965
F-2318.3353276402713
sg966
g967
sg968
g969
sg970
g971
sg972
NsbsI50
g0
(g956
g2
Ntp1120
Rp1121
(dp1122
g960
g961
sg962
I50
sg963
F2521.5169677745698
sg964
F0.0
sg965
F-2318.3353276402713
sg966
g967
sg968
g969
sg970
g971
sg972
NsbsI51
g0
(g956
g2
Ntp1123
Rp1124
(dp1125
g960
g961
sg962
I51
sg963
F3820.4802542039001
sg964
F0.0
sg965
F-2318.3353276402713
sg966
g967
sg968
g969
sg970
g971
sg972
NsbsI52
g0
(g956
g2
Ntp1126
Rp1127
(dp1128
g960
g961
sg962
I52
sg963
F0.0
sg964
F0.0
sg965
F-3107.8935419872055
sg966
g967
sg968
g969
sg970
g971
sg972
NsbsI53
g0
(g956
g2
Ntp1129
Rp1130
(dp1131
g960
g961
sg962
I53
sg963
F1260.7584838872899
sg964
F0.0
sg965
F-3107.8935419872055
sg966
g967
sg968
g969
sg970
g971
sg972
NsbsI54
g0
(g956
g2
Ntp1132
Rp1133
(dp1134
g960
g961
sg962
I54
sg963
F2521.5169677745698
sg964
F0.0
sg965
F-3107.8935419872055
sg966
g967
sg968
g969
sg970
g971
sg972
NsbsI55
g0
(g956
g2
Ntp1135
Rp1136
(dp1137
g960
g961
sg962
I55
sg963
F3820.4802542039001
sg964
F0.0
sg965
F-3107.8935419872055
sg966
g967
sg968
g969
sg970
g971
sg972
NsbsI56
g0
(g956
g2
Ntp1138
Rp1139
(dp1140
g960
g961
sg962
I56
sg963
F0.0
sg964
F14908.65902884181
sg965
F-1504.8511067979759
sg966
g967
sg968
g969
sg970
g971
sg972
NsbsI57
g0
(g956
g2
Ntp1141
Rp1142
(dp1143
g960
g961
sg962
I57
sg963
F1260.7584838872899
sg964
F14908.65902884181
sg965
F-1504.8511067979759
sg966
g967
sg968
g969
sg970
g971
sg972
NsbsI58
g0
(g956
g2
Ntp1144
Rp1145
(dp1146
g960
g961
sg962
I58
sg963
F0.0
sg964
F14908.65902884181
sg965
F-715.29289245104201
sg966
g967
sg968
g969
sg970
g971
sg972
NsbsI59
g0
(g956
g2
Ntp1147
Rp1148
(dp1149
g960
g961
sg962
I59
sg963
F1260.7584838872899
sg964
F14908.65902884181
sg965
F-715.29289245104201
sg966
g967
sg968
g969
sg970
g971
sg972
NsbsI60
g0
(g956
g2
Ntp1150
Rp1151
(dp1152
g960
g961
sg962
I60
sg963
F2521.5169677745698
sg964
F14908.65902884181
sg965
F-1504.8511067979759
sg966
g967
sg968
g969
sg970
g971
sg972
NsbsI61
g0
(g956
g2
Ntp1153
Rp1154
(dp1155
g960
g961
sg962
I61
sg963
F2521.5169677745698
sg964
F14908.65902884181
sg965
F-715.29289245104201
sg966
g967
sg968
g969
sg970
g971
sg972
NsbsI62
g0
(g956
g2
Ntp1156
Rp1157
(dp1158
g960
g961
sg962
I62
sg963
F3820.4802542039001
sg964
F14908.65902884181
sg965
F-1504.8511067979759
sg966
g967
sg968
g969
sg970
g971
sg972
NsbsI63
g0
(g956
g2
Ntp1159
Rp1160
(dp1161
g960
g961
sg962
I63
sg963
F3820.4802542039001
sg964
F14908.65902884181
sg965
F-715.29289245104201
sg966
g967
sg968
g969
sg970
g971
sg972
NsbsI64
g0
(g956
g2
Ntp1162
Rp1163
(dp1164
g960
g961
sg962
I64
sg963
F0.0
sg964
F14908.65902884181
sg965
F-2318.3353276402713
sg966
g967
sg968
g969
sg970
g971
sg972
NsbsI65
g0
(g956
g2
Ntp1165
Rp1166
(dp1167
g960
g961
sg962
I65
sg963
F1260.7584838872899
sg964
F14908.65902884181
sg965
F-2318.3353276402713
sg966
g967
sg968
g969
sg970
g971
sg972
NsbsI66
g0
(g956
g2
Ntp1168
Rp1169
(dp1170
g960
g961
sg962
I66
sg963
F2521.5169677745698
sg964
F14908.65902884181
sg965
F-2318.3353276402713
sg966
g967
sg968
g969
sg970
g971
sg972
NsbsI67
g0
(g956
g2
Ntp1171
Rp1172
(dp1173
g960
g961
sg962
I67
sg963
F3820.4802542039001
sg964
F14908.65902884181
sg965
F-2318.3353276402713
sg966
g967
sg968
g969
sg970
g971
sg972
NsbsI68
g0
(g956
g2
Ntp1174
Rp1175
(dp1176
g960
g961
sg962
I68
sg963
F0.0
sg964
F14908.65902884181
sg965
F-3107.8935419872055
sg966
g967
sg968
g969
sg970
g971
sg972
NsbsI69
g0
(g956
g2
Ntp1177
Rp1178
(dp1179
g960
g961
sg962
I69
sg963
F1260.7584838872899
sg964
F14908.65902884181
sg965
F-3107.8935419872055
sg966
g967
sg968
g969
sg970
g971
sg972
NsbsI70
g0
(g956
g2
Ntp1180
Rp1181
(dp1182
g960
g961
sg962
I70
sg963
F2521.5169677745698
sg964
F14908.65902884181
sg965
F-3107.8935419872055
sg966
g967
sg968
g969
sg970
g971
sg972
NsbsI71
g0
(g956
g2
Ntp1183
Rp1184
(dp1185
g960
g961
sg962
I71
sg963
F3820.4802542039001
sg964
F14908.65902884181
sg965
F-3107.8935419872055
sg966
g967
sg968
g969
sg970
g971
sg972
NsbssS'node_index'
p1186
(dp1187
S'2521.517,1639.952,0.000'
p1188
I17
sS'0.000,0.000,-1504.851'
p1189
I40
sS'3820.480,8299.154,0.000'
p1190
I39
sS'3820.480,1639.952,0.000'
p1191
I25
sS'0.000,14908.659,-3107.894'
p1192
I68
sS'2521.517,14908.659,-2318.335'
p1193
I66
sS'2521.517,0.000,-3107.894'
p1194
I54
sS'2521.517,14908.659,-3107.894'
p1195
I70
sS'3820.480,3279.905,0.000'
p1196
I26
sS'2521.517,11628.754,0.000'
p1197
I21
sS'0.000,1639.952,0.000'
p1198
I2
sS'2521.517,0.000,0.000'
p1199
I16
sS'3820.480,14908.659,-715.293'
p1200
I63
sS'0.000,3279.905,0.000'
p1201
I4
sS'2521.517,0.000,-715.293'
p1202
I45
sS'3820.480,0.000,-1504.851'
p1203
I46
sS'1260.758,11628.754,0.000'
p1204
I11
sS'1260.758,0.000,-1504.851'
p1205
I41
sS'1260.758,14908.659,-1504.851'
p1206
I57
sS'3820.480,4919.857,0.000'
p1207
I27
sS'1260.758,14908.659,-2318.335'
p1208
I65
sS'2521.517,13268.707,0.000'
p1209
I22
sS'0.000,14908.659,-2318.335'
p1210
I64
sS'0.000,4919.857,0.000'
p1211
I6
sS'1260.758,4919.857,0.000'
p1212
I7
sS'0.000,11628.754,0.000'
p1213
I10
sS'1260.758,3279.905,0.000'
p1214
I5
sS'2521.517,9988.802,0.000'
p1215
I20
sS'0.000,8299.154,0.000'
p1216
I34
sS'1260.758,13268.707,0.000'
p1217
I13
sS'0.000,0.000,0.000'
p1218
I0
sS'0.000,9988.802,0.000'
p1219
I8
sS'0.000,0.000,-3107.894'
p1220
I52
sS'3820.480,0.000,-3107.894'
p1221
I55
sS'2521.517,14908.659,-715.293'
p1222
I61
sS'1260.758,0.000,-2318.335'
p1223
I49
sS'0.000,0.000,-715.293'
p1224
I42
sS'1260.758,14908.659,0.000'
p1225
I15
sS'0.000,14908.659,0.000'
p1226
I14
sS'3820.480,14908.659,-3107.894'
p1227
I71
sS'3820.480,11628.754,0.000'
p1228
I29
sS'1260.758,0.000,-715.293'
p1229
I43
sS'2521.517,6609.506,0.000'
p1230
I36
sS'1260.758,9988.802,0.000'
p1231
I9
sS'3820.480,14908.659,0.000'
p1232
I31
sS'2521.517,3279.905,0.000'
p1233
I18
sS'1260.758,14908.659,-715.293'
p1234
I59
sS'2521.517,4919.857,0.000'
p1235
I19
sS'3820.480,9988.802,0.000'
p1236
I28
sS'1260.758,6609.506,0.000'
p1237
I33
sS'1260.758,8299.154,0.000'
p1238
I35
sS'2521.517,0.000,-1504.851'
p1239
I44
sS'3820.480,0.000,-2318.335'
p1240
I51
sS'1260.758,0.000,-3107.894'
p1241
I53
sS'2521.517,8299.154,0.000'
p1242
I37
sS'0.000,14908.659,-715.293'
p1243
I58
sS'2521.517,14908.659,0.000'
p1244
I23
sS'3820.480,0.000,0.000'
p1245
I24
sS'1260.758,14908.659,-3107.894'
p1246
I69
sS'1260.758,1639.952,0.000'
p1247
I3
sS'3820.480,6609.506,0.000'
p1248
I38
sS'0.000,13268.707,0.000'
p1249
I12
sS'3820.480,13268.707,0.000'
p1250
I30
sS'3820.480,14908.659,-2318.335'
p1251
I67
sS'0.000,0.000,-2318.335'
p1252
I48
sS'2521.517,14908.659,-1504.851'
p1253
I60
sS'0.000,6609.506,0.000'
p1254
I32
sS'3820.480,14908.659,-1504.851'
p1255
I62
sS'1260.758,0.000,0.000'
p1256
I1
sS'0.000,14908.659,-1504.851'
p1257
I56
sS'2521.517,0.000,-2318.335'
p1258
I50
sS'3820.480,0.000,-715.293'
p1259
I47
ssS'path'
p1260
S'C:\\Temp\\'
p1261
sS'results'
p1262
(dp1263
S'step_2'
p1264
S'ERROR'
p1265
sS'step_3'
p1266
g1265
sS'step_4'
p1267
g1265
sS'step_1'
p1268
g1265
ssS'sections'
p1269
(dp1270
g412
g0
(ccompas_fea.structure.section
ShellSection
p1271
g2
Ntp1272
Rp1273
(dp1274
g15
I1
sS'__name__'
p1275
S'ShellSection'
p1276
sS'name'
p1277
g412
sS'geometry'
p1278
(dp1279
S't'
p1280
F1029.0584057801395
ssS'loc_coords_OR'
p1281
(dp1282
S'ORxyz'
p1283
(lp1284
I0
aI0
aF-2392.6006495400002
assS'loc_coords_XA'
p1285
(dp1286
S'XAxyz'
p1287
(lp1288
I1
aI0
aF-2392.6006495400002
assS'loc_coords_YA'
p1289
(dp1290
S'YAxyz'
p1291
(lp1292
F2392.6006495400002
aF-2392.6006495400002
aF-2391.6006495400002
assS'loc_coords_EV_XA'
p1293
(dp1294
S'EV_XA'
p1295
(lp1296
F1.0
aF0.0
aF0.0
assS'loc_coords_EV_YA'
p1297
(dp1298
S'EV_YA'
p1299
(lp1300
F0.70710675030603143
aF-0.70710675030603143
aF0.00029553897782397546
assS'loc_coords_EV_ZA'
p1301
(dp1302
S'EV_ZA'
p1303
(lp1304
F0.0
aF-1.0
aF0.0
assS'nr_layers'
p1305
(dp1306
S'nn'
p1307
F60.0
ssS'offset'
p1308
(dp1309
S'mode'
p1310
S'mid'
p1311
ssbsg426
g0
(g1271
g2
Ntp1312
Rp1313
(dp1314
g15
I0
sg1275
g1276
sg1277
g426
sg1278
(dp1315
g1280
F715.29289245104201
ssg1281
(dp1316
g1283
(lp1317
I0
aI0
aI0
assg1285
(dp1318
g1287
(lp1319
I1
aI0
aI0
assg1289
(dp1320
g1291
(lp1321
F0.0
aF1.0
aF0.0
assg1293
(dp1322
g1295
(lp1323
F1.0
aF0.0
aF0.0
assg1297
(dp1324
g1299
(lp1325
F0.0
aF1.0
aF0.0
assg1301
(dp1326
g1303
(lp1327
F0.0
aF0.0
aF1.0
assg1305
(dp1328
g1307
F71.0
ssg1308
(dp1329
g1310
S'top'
p1330
ssbsg403
g0
(g1271
g2
Ntp1331
Rp1332
(dp1333
g15
I2
sg1275
g1276
sg1277
g403
sg1278
(dp1334
g1280
F1029.0584057801395
ssg1281
(dp1335
g1283
(lp1336
I0
aF14908.659028800001
aF-2392.6006495400002
assg1285
(dp1337
g1287
(lp1338
I1
aF14908.659028800001
aF-2392.6006495400002
assg1289
(dp1339
g1291
(lp1340
F-2392.600649535656
aF12516.058379260001
aF-17302.25967834
assg1293
(dp1341
g1295
(lp1342
F1.0
aF0.0
aF0.0
assg1297
(dp1343
g1299
(lp1344
F-0.15649381790174405
aF-0.15649381790202818
aF-0.97520222001233292
assg1301
(dp1345
g1303
(lp1346
F0.0
aF1.0
aF0.0
assg1305
(dp1347
g1307
F60.0
ssg1308
(dp1348
g1310
g1311
ssbsg496
g0
(ccompas_fea.structure.section
MPCSection
p1349
g2
Ntp1350
Rp1351
(dp1352
g15
I3
sg1275
S'MPCSection'
p1353
sg1277
g496
sg1278
NsS'nr_layers'
p1354
NsbssS'sets'
p1355
(dp1356
g521
g0
(ccompas_fea.structure.set
Set
p1357
g2
Ntp1358
Rp1359
(dp1360
S'__name__'
p1361
S'Set'
p1362
sS'name'
p1363
g521
sS'type'
p1364
S'element'
p1365
sS'selection'
p1366
(lp1367
I31
asS'index'
p1368
I13
sbsg497
g0
(g1357
g2
Ntp1369
Rp1370
(dp1371
g1361
g1362
sg1363
g497
sg1364
g1365
sg1366
(lp1372
I48
aI49
aI50
aI51
aI52
aI45
aI46
aI47
asg1368
I27
sbsg405
g0
(g1357
g2
Ntp1373
Rp1374
(dp1375
g1361
g1362
sg1363
g405
sg1364
g1365
sg1366
(lp1376
I39
asg1368
I21
sbsg451
g0
(g1357
g2
Ntp1377
Rp1378
(dp1379
g1361
g1362
sg1363
g451
sg1364
g1365
sg1366
(lp1380
I8
aI6
aI7
asg1368
I2
sbsg417
g0
(g1357
g2
Ntp1381
Rp1382
(dp1383
g1361
g1362
sg1363
g417
sg1364
g1365
sg1366
(lp1384
I34
asg1368
I16
sbsg513
g0
(g1357
g2
Ntp1385
Rp1386
(dp1387
g1361
g1362
sg1363
g513
sg1364
g1365
sg1366
(lp1388
I36
asg1368
I18
sbsg491
g0
(g1357
g2
Ntp1389
Rp1390
(dp1391
g1361
g1362
sg1363
g491
sg1364
g1365
sg1366
(lp1392
I3
aI4
aI5
asg1368
I1
sbsg427
g0
(g1357
g2
Ntp1393
Rp1394
(dp1395
g1361
g1362
sg1363
g427
sg1364
g1365
sg1366
(lp1396
I0
aI1
aI2
asg1368
I0
sbsg479
g0
(g1357
g2
Ntp1397
Rp1398
(dp1399
g1361
g1362
sg1363
g479
sg1364
g1365
sg1366
(lp1400
I18
aI19
aI20
asg1368
I6
sbsg517
g0
(g1357
g2
Ntp1401
Rp1402
(dp1403
g1361
g1362
sg1363
g517
sg1364
g1365
sg1366
(lp1404
I16
aI17
aI15
asg1368
I5
sbsg443
g0
(g1357
g2
Ntp1405
Rp1406
(dp1407
g1361
g1362
sg1363
g443
sg1364
g1365
sg1366
(lp1408
I12
aI13
aI14
asg1368
I4
sbsg487
g0
(g1357
g2
Ntp1409
Rp1410
(dp1411
g1361
g1362
sg1363
g487
sg1364
g1365
sg1366
(lp1412
I9
aI10
aI11
asg1368
I3
sbsg435
g0
(g1357
g2
Ntp1413
Rp1414
(dp1415
g1361
g1362
sg1363
g435
sg1364
g1365
sg1366
(lp1416
I24
aI25
aI26
asg1368
I8
sbsg471
g0
(g1357
g2
Ntp1417
Rp1418
(dp1419
g1361
g1362
sg1363
g471
sg1364
g1365
sg1366
(lp1420
I21
aI22
aI23
asg1368
I7
sbsg447
g0
(g1357
g2
Ntp1421
Rp1422
(dp1423
g1361
g1362
sg1363
g447
sg1364
g1365
sg1366
(lp1424
I29
asg1368
I11
sbsg509
g0
(g1357
g2
Ntp1425
Rp1426
(dp1427
g1361
g1362
sg1363
g509
sg1364
g1365
sg1366
(lp1428
I44
asg1368
I26
sbsg459
g0
(g1357
g2
Ntp1429
Rp1430
(dp1431
g1361
g1362
sg1363
g459
sg1364
g1365
sg1366
(lp1432
I41
asg1368
I23
sbsg439
g0
(g1357
g2
Ntp1433
Rp1434
(dp1435
g1361
g1362
sg1363
g439
sg1364
g1365
sg1366
(lp1436
I32
asg1368
I14
sbsg455
g0
(g1357
g2
Ntp1437
Rp1438
(dp1439
g1361
g1362
sg1363
g455
sg1364
g1365
sg1366
(lp1440
I38
asg1368
I20
sbsg475
g0
(g1357
g2
Ntp1441
Rp1442
(dp1443
g1361
g1362
sg1363
g475
sg1364
g1365
sg1366
(lp1444
I27
asg1368
I9
sbsg467
g0
(g1357
g2
Ntp1445
Rp1446
(dp1447
g1361
g1362
sg1363
g467
sg1364
g1365
sg1366
(lp1448
I35
asg1368
I17
sbsg35
g0
(g1357
g2
Ntp1449
Rp1450
(dp1451
g1361
g1362
sg1363
g35
sg1364
S'node'
p1452
sg1366
(lp1453
I71
aI70
aI69
aI68
asg1368
I29
sbsg463
g0
(g1357
g2
Ntp1454
Rp1455
(dp1456
g1361
g1362
sg1363
g463
sg1364
g1365
sg1366
(lp1457
I30
asg1368
I12
sbsg483
g0
(g1357
g2
Ntp1458
Rp1459
(dp1460
g1361
g1362
sg1363
g483
sg1364
g1365
sg1366
(lp1461
I43
asg1368
I25
sbsg431
g0
(g1357
g2
Ntp1462
Rp1463
(dp1464
g1361
g1362
sg1363
g431
sg1364
g1365
sg1366
(lp1465
I40
asg1368
I22
sbsg20
g0
(g1357
g2
Ntp1466
Rp1467
(dp1468
g1361
g1362
sg1363
g20
sg1364
g1452
sg1366
(lp1469
I55
aI54
aI53
aI52
asg1368
I28
sbsg501
g0
(g1357
g2
Ntp1470
Rp1471
(dp1472
g1361
g1362
sg1363
g501
sg1364
g1365
sg1366
(lp1473
I33
asg1368
I15
sbsg421
g0
(g1357
g2
Ntp1474
Rp1475
(dp1476
g1361
g1362
sg1363
g421
sg1364
g1365
sg1366
(lp1477
I37
asg1368
I19
sbsg413
g0
(g1357
g2
Ntp1478
Rp1479
(dp1480
g1361
g1362
sg1363
g413
sg1364
g1365
sg1366
(lp1481
I28
asg1368
I10
sbsg505
g0
(g1357
g2
Ntp1482
Rp1483
(dp1484
g1361
g1362
sg1363
g505
sg1364
g1365
sg1366
(lp1485
I42
asg1368
I24
sbssS'steps'
p1486
(dp1487
g1264
g0
(ccompas_fea.structure.step
GeneralStep
p1488
g2
Ntp1489
Rp1490
(dp1491
g15
I1
sS'__name__'
p1492
S'GeneralStep'
p1493
sS'name'
p1494
g1264
sS'attr_list'
p1495
(lp1496
g544
aS'increments'
p1497
aS'iterations'
p1498
aS'factor'
p1499
aS'nlgeom'
p1500
aS'nlmat'
p1501
aS'displacements'
p1502
aS'loads'
p1503
aS'type'
p1504
aS'tolerance'
p1505
aS'modify'
p1506
asS'increments'
p1507
I1
sS'iterations'
p1508
I100
sS'tolerance'
p1509
F0.01
sS'factor'
p1510
F1.0
sS'nlgeom'
p1511
I00
sS'nlmat'
p1512
I01
sS'displacements'
p1513
(lp1514
sS'loads'
p1515
(lp1516
g599
asS'modify'
p1517
I01
sS'type'
p1518
S'static'
p1519
sbsg1266
g0
(g1488
g2
Ntp1520
Rp1521
(dp1522
g15
I2
sg1492
g1493
sg1494
g1266
sg1495
(lp1523
g544
ag1497
ag1498
ag1499
ag1500
ag1501
ag1502
ag1503
ag1504
ag1505
ag1506
asg1507
I1
sg1508
I100
sg1509
F0.01
sg1510
F1.0
sg1511
I00
sg1512
I01
sg1513
(lp1524
sg1515
(lp1525
g578
ag571
ag564
asg1517
I01
sg1518
g1519
sbsg1267
g0
(g1488
g2
Ntp1526
Rp1527
(dp1528
g15
I3
sg1492
g1493
sg1494
g1267
sg1495
(lp1529
g544
ag1497
ag1498
ag1499
ag1500
ag1501
ag1502
ag1503
ag1504
ag1505
ag1506
asg1507
I1
sg1508
I100
sg1509
F0.01
sg1510
F1.0
sg1511
I00
sg1512
I01
sg1513
(lp1530
sg1515
(lp1531
g592
ag585
ag557
ag526
ag549
asg1517
I01
sg1518
g1519
sbsg1268
g0
(g1488
g2
Ntp1532
Rp1533
(dp1534
g15
I0
sg1492
g1493
sg1494
g1268
sg1495
(lp1535
g544
ag1497
ag1498
ag1499
ag1500
ag1501
ag1502
ag1503
ag1504
ag1505
ag1506
asg1507
I1
sg1508
I100
sg1509
F0.01
sg1510
F1.0
sg1511
I00
sg1512
I01
sg1513
(lp1536
g10
ag31
asg1515
(lp1537
sg1517
I01
sg1518
g1519
sbssS'loc_coor'
p1538
(dp1539
sS'steps_order'
p1540
(lp1541
g1268
ag1264
ag1266
ag1267
asS'tol'
p1542
S'3'
p1543
sS'virtual_nodes'
p1544
(dp1545
sS'virtual_node_index'
p1546
(dp1547
sS'virtual_elements'
p1548
(dp1549
sS'virtual_element_index'
p1550
(dp1551
sb.