ccopy_reg
_reconstructor
p0
(ccompas_fea.structure.structure
Structure
p1
c__builtin__
object
p2
Ntp3
Rp4
(dp5
S'constraints'
p6
(dp7
sS'displacements'
p8
(dp9
S'nset_pinned_set_disp_1'
p10
g0
(ccompas_fea.structure.displacement
GeneralDisplacement
p11
g2
Ntp12
Rp13
(dp14
S'index'
p15
I0
sS'__name__'
p16
S'GeneralDisplacement'
p17
sS'name'
p18
g10
sS'nodes'
p19
S'nset_support_wall1'
p20
sS'components'
p21
(dp22
S'z'
p23
I0
sS'xx'
p24
I0
sS'zz'
p25
I0
sS'yy'
p26
I0
sS'y'
p27
I0
sS'x'
p28
I0
ssS'axes'
p29
S'global'
p30
sbsS'nset_pinned_set_disp_2'
p31
g0
(g11
g2
Ntp32
Rp33
(dp34
g15
I1
sg16
g17
sg18
g31
sg19
S'nset_support_wall2'
p35
sg21
(dp36
g23
I0
sg24
I0
sg25
I0
sg26
I0
sg27
I0
sg28
I0
ssg29
g30
sbssS'elements'
p37
(dp38
I0
g0
(ccompas_fea.structure.element
ShellElement
p39
g2
Ntp40
Rp41
(dp42
S'mass'
p43
NsS'__name__'
p44
S'ShellElement'
p45
sS'nodes'
p46
(lp47
I0
aI1
aI3
aI2
asS'number'
p48
I0
sS'thermal'
p49
I00
sS'axes'
p50
(dp51
S'ey'
p52
NsS'ez'
p53
NsS'ex'
p54
NssS'element_property'
p55
S'elset_plate_1_element_prop'
p56
sbsI1
g0
(g39
g2
Ntp57
Rp58
(dp59
g43
Nsg44
g45
sg46
(lp60
I2
aI3
aI5
aI4
asg48
I1
sg49
I00
sg50
g51
sg55
g56
sbsI2
g0
(g39
g2
Ntp61
Rp62
(dp63
g43
Nsg44
g45
sg46
(lp64
I4
aI5
aI7
aI6
asg48
I2
sg49
I00
sg50
g51
sg55
g56
sbsI3
g0
(g39
g2
Ntp65
Rp66
(dp67
g43
Nsg44
g45
sg46
(lp68
I6
aI7
aI9
aI8
asg48
I3
sg49
I00
sg50
g51
sg55
g56
sbsI4
g0
(g39
g2
Ntp69
Rp70
(dp71
g43
Nsg44
g45
sg46
(lp72
I10
aI11
aI13
aI12
asg48
I4
sg49
I00
sg50
(dp73
g52
Nsg53
Nsg54
Nssg55
S'elset_plate_2_element_prop'
p74
sbsI5
g0
(g39
g2
Ntp75
Rp76
(dp77
g43
Nsg44
g45
sg46
(lp78
I12
aI13
aI15
aI14
asg48
I5
sg49
I00
sg50
g73
sg55
g74
sbsI6
g0
(g39
g2
Ntp79
Rp80
(dp81
g43
Nsg44
g45
sg46
(lp82
I14
aI15
aI17
aI16
asg48
I6
sg49
I00
sg50
g73
sg55
g74
sbsI7
g0
(g39
g2
Ntp83
Rp84
(dp85
g43
Nsg44
g45
sg46
(lp86
I16
aI17
aI19
aI18
asg48
I7
sg49
I00
sg50
g73
sg55
g74
sbsI8
g0
(g39
g2
Ntp87
Rp88
(dp89
g43
Nsg44
g45
sg46
(lp90
I1
aI20
aI21
aI3
asg48
I8
sg49
I00
sg50
(dp91
g52
Nsg53
Nsg54
Nssg55
S'elset_plate_3_element_prop'
p92
sbsI9
g0
(g39
g2
Ntp93
Rp94
(dp95
g43
Nsg44
g45
sg46
(lp96
I3
aI21
aI22
aI5
asg48
I9
sg49
I00
sg50
g91
sg55
g92
sbsI10
g0
(g39
g2
Ntp97
Rp98
(dp99
g43
Nsg44
g45
sg46
(lp100
I5
aI22
aI23
aI7
asg48
I10
sg49
I00
sg50
g91
sg55
g92
sbsI11
g0
(g39
g2
Ntp101
Rp102
(dp103
g43
Nsg44
g45
sg46
(lp104
I7
aI23
aI24
aI9
asg48
I11
sg49
I00
sg50
g91
sg55
g92
sbsI12
g0
(g39
g2
Ntp105
Rp106
(dp107
g43
Nsg44
g45
sg46
(lp108
I11
aI25
aI26
aI13
asg48
I12
sg49
I00
sg50
(dp109
g52
Nsg53
Nsg54
Nssg55
S'elset_plate_4_element_prop'
p110
sbsI13
g0
(g39
g2
Ntp111
Rp112
(dp113
g43
Nsg44
g45
sg46
(lp114
I13
aI26
aI27
aI15
asg48
I13
sg49
I00
sg50
g109
sg55
g110
sbsI14
g0
(g39
g2
Ntp115
Rp116
(dp117
g43
Nsg44
g45
sg46
(lp118
I15
aI27
aI28
aI17
asg48
I14
sg49
I00
sg50
g109
sg55
g110
sbsI15
g0
(g39
g2
Ntp119
Rp120
(dp121
g43
Nsg44
g45
sg46
(lp122
I17
aI28
aI29
aI19
asg48
I15
sg49
I00
sg50
g109
sg55
g110
sbsI16
g0
(g39
g2
Ntp123
Rp124
(dp125
g43
Nsg44
g45
sg46
(lp126
I20
aI30
aI31
aI21
asg48
I16
sg49
I00
sg50
(dp127
g52
Nsg53
Nsg54
Nssg55
S'elset_plate_5_element_prop'
p128
sbsI17
g0
(g39
g2
Ntp129
Rp130
(dp131
g43
Nsg44
g45
sg46
(lp132
I21
aI31
aI32
aI22
asg48
I17
sg49
I00
sg50
g127
sg55
g128
sbsI18
g0
(g39
g2
Ntp133
Rp134
(dp135
g43
Nsg44
g45
sg46
(lp136
I22
aI32
aI33
aI23
asg48
I18
sg49
I00
sg50
g127
sg55
g128
sbsI19
g0
(g39
g2
Ntp137
Rp138
(dp139
g43
Nsg44
g45
sg46
(lp140
I23
aI33
aI34
aI24
asg48
I19
sg49
I00
sg50
g127
sg55
g128
sbsI20
g0
(g39
g2
Ntp141
Rp142
(dp143
g43
Nsg44
g45
sg46
(lp144
I25
aI35
aI36
aI26
asg48
I20
sg49
I00
sg50
(dp145
g52
Nsg53
Nsg54
Nssg55
S'elset_plate_6_element_prop'
p146
sbsI21
g0
(g39
g2
Ntp147
Rp148
(dp149
g43
Nsg44
g45
sg46
(lp150
I26
aI36
aI37
aI27
asg48
I21
sg49
I00
sg50
g145
sg55
g146
sbsI22
g0
(g39
g2
Ntp151
Rp152
(dp153
g43
Nsg44
g45
sg46
(lp154
I27
aI37
aI38
aI28
asg48
I22
sg49
I00
sg50
g145
sg55
g146
sbsI23
g0
(g39
g2
Ntp155
Rp156
(dp157
g43
Nsg44
g45
sg46
(lp158
I28
aI38
aI39
aI29
asg48
I23
sg49
I00
sg50
g145
sg55
g146
sbsI24
g0
(g39
g2
Ntp159
Rp160
(dp161
g43
Nsg44
g45
sg46
(lp162
I8
aI9
aI41
aI40
asg48
I24
sg49
I00
sg50
(dp163
g52
Nsg53
Nsg54
Nssg55
S'elset_plate_7_element_prop'
p164
sbsI25
g0
(g39
g2
Ntp165
Rp166
(dp167
g43
Nsg44
g45
sg46
(lp168
I40
aI41
aI43
aI42
asg48
I25
sg49
I00
sg50
g163
sg55
g164
sbsI26
g0
(g39
g2
Ntp169
Rp170
(dp171
g43
Nsg44
g45
sg46
(lp172
I42
aI43
aI45
aI44
asg48
I26
sg49
I00
sg50
g163
sg55
g164
sbsI27
g0
(g39
g2
Ntp173
Rp174
(dp175
g43
Nsg44
g45
sg46
(lp176
I44
aI45
aI11
aI10
asg48
I27
sg49
I00
sg50
g163
sg55
g164
sbsI28
g0
(g39
g2
Ntp177
Rp178
(dp179
g43
Nsg44
g45
sg46
(lp180
I9
aI24
aI46
aI41
asg48
I28
sg49
I00
sg50
(dp181
g52
Nsg53
Nsg54
Nssg55
S'elset_plate_8_element_prop'
p182
sbsI29
g0
(g39
g2
Ntp183
Rp184
(dp185
g43
Nsg44
g45
sg46
(lp186
I41
aI46
aI47
aI43
asg48
I29
sg49
I00
sg50
g181
sg55
g182
sbsI30
g0
(g39
g2
Ntp187
Rp188
(dp189
g43
Nsg44
g45
sg46
(lp190
I43
aI47
aI48
aI45
asg48
I30
sg49
I00
sg50
g181
sg55
g182
sbsI31
g0
(g39
g2
Ntp191
Rp192
(dp193
g43
Nsg44
g45
sg46
(lp194
I45
aI48
aI25
aI11
asg48
I31
sg49
I00
sg50
g181
sg55
g182
sbsI32
g0
(g39
g2
Ntp195
Rp196
(dp197
g43
Nsg44
g45
sg46
(lp198
I24
aI34
aI49
aI46
asg48
I32
sg49
I00
sg50
(dp199
g52
Nsg53
Nsg54
Nssg55
S'elset_plate_9_element_prop'
p200
sbsI33
g0
(g39
g2
Ntp201
Rp202
(dp203
g43
Nsg44
g45
sg46
(lp204
I46
aI49
aI50
aI47
asg48
I33
sg49
I00
sg50
g199
sg55
g200
sbsI34
g0
(g39
g2
Ntp205
Rp206
(dp207
g43
Nsg44
g45
sg46
(lp208
I47
aI50
aI51
aI48
asg48
I34
sg49
I00
sg50
g199
sg55
g200
sbsI35
g0
(g39
g2
Ntp209
Rp210
(dp211
g43
Nsg44
g45
sg46
(lp212
I48
aI51
aI35
aI25
asg48
I35
sg49
I00
sg50
g199
sg55
g200
sbsI36
g0
(g39
g2
Ntp213
Rp214
(dp215
g43
Nsg44
g45
sg46
(lp216
I52
aI53
aI55
aI54
asg48
I36
sg49
I00
sg50
(dp217
g52
Nsg53
Nsg54
Nssg55
S'elset_wall_1_1_element_prop'
p218
sbsI37
g0
(g39
g2
Ntp219
Rp220
(dp221
g43
Nsg44
g45
sg46
(lp222
I53
aI56
aI57
aI55
asg48
I37
sg49
I00
sg50
(dp223
g52
Nsg53
Nsg54
Nssg55
S'elset_wall_1_2_element_prop'
p224
sbsI38
g0
(g39
g2
Ntp225
Rp226
(dp227
g43
Nsg44
g45
sg46
(lp228
I56
aI58
aI59
aI57
asg48
I38
sg49
I00
sg50
(dp229
g52
Nsg53
Nsg54
Nssg55
S'elset_wall_1_3_element_prop'
p230
sbsI39
g0
(g39
g2
Ntp231
Rp232
(dp233
g43
Nsg44
g45
sg46
(lp234
I60
aI61
aI53
aI52
asg48
I39
sg49
I00
sg50
(dp235
g52
Nsg53
Nsg54
Nssg55
S'elset_wall_1_4_element_prop'
p236
sbsI40
g0
(g39
g2
Ntp237
Rp238
(dp239
g43
Nsg44
g45
sg46
(lp240
I61
aI62
aI56
aI53
asg48
I40
sg49
I00
sg50
(dp241
g52
Nsg53
Nsg54
Nssg55
S'elset_wall_1_5_element_prop'
p242
sbsI41
g0
(g39
g2
Ntp243
Rp244
(dp245
g43
Nsg44
g45
sg46
(lp246
I62
aI63
aI58
aI56
asg48
I41
sg49
I00
sg50
(dp247
g52
Nsg53
Nsg54
Nssg55
S'elset_wall_1_6_element_prop'
p248
sbsI42
g0
(g39
g2
Ntp249
Rp250
(dp251
g43
Nsg44
g45
sg46
(lp252
I64
aI65
aI61
aI60
asg48
I42
sg49
I00
sg50
(dp253
g52
Nsg53
Nsg54
Nssg55
S'elset_wall_1_7_element_prop'
p254
sbsI43
g0
(g39
g2
Ntp255
Rp256
(dp257
g43
Nsg44
g45
sg46
(lp258
I65
aI66
aI62
aI61
asg48
I43
sg49
I00
sg50
(dp259
g52
Nsg53
Nsg54
Nssg55
S'elset_wall_1_8_element_prop'
p260
sbsI44
g0
(g39
g2
Ntp261
Rp262
(dp263
g43
Nsg44
g45
sg46
(lp264
I66
aI67
aI63
aI62
asg48
I44
sg49
I00
sg50
(dp265
g52
Nsg53
Nsg54
Nssg55
S'elset_wall_1_9_element_prop'
p266
sbsI45
g0
(g39
g2
Ntp267
Rp268
(dp269
g43
Nsg44
g45
sg46
(lp270
I68
aI70
aI71
aI69
asg48
I45
sg49
I00
sg50
(dp271
g52
Nsg53
Nsg54
Nssg55
S'elset_wall_2_1_element_prop'
p272
sbsI46
g0
(g39
g2
Ntp273
Rp274
(dp275
g43
Nsg44
g45
sg46
(lp276
I69
aI71
aI73
aI72
asg48
I46
sg49
I00
sg50
(dp277
g52
Nsg53
Nsg54
Nssg55
S'elset_wall_2_2_element_prop'
p278
sbsI47
g0
(g39
g2
Ntp279
Rp280
(dp281
g43
Nsg44
g45
sg46
(lp282
I72
aI73
aI75
aI74
asg48
I47
sg49
I00
sg50
(dp283
g52
Nsg53
Nsg54
Nssg55
S'elset_wall_2_3_element_prop'
p284
sbsI48
g0
(g39
g2
Ntp285
Rp286
(dp287
g43
Nsg44
g45
sg46
(lp288
I76
aI68
aI69
aI77
asg48
I48
sg49
I00
sg50
(dp289
g52
Nsg53
Nsg54
Nssg55
S'elset_wall_2_4_element_prop'
p290
sbsI49
g0
(g39
g2
Ntp291
Rp292
(dp293
g43
Nsg44
g45
sg46
(lp294
I77
aI69
aI72
aI78
asg48
I49
sg49
I00
sg50
(dp295
g52
Nsg53
Nsg54
Nssg55
S'elset_wall_2_5_element_prop'
p296
sbsI50
g0
(g39
g2
Ntp297
Rp298
(dp299
g43
Nsg44
g45
sg46
(lp300
I78
aI72
aI74
aI79
asg48
I50
sg49
I00
sg50
(dp301
g52
Nsg53
Nsg54
Nssg55
S'elset_wall_2_6_element_prop'
p302
sbsI51
g0
(g39
g2
Ntp303
Rp304
(dp305
g43
Nsg44
g45
sg46
(lp306
I80
aI76
aI77
aI81
asg48
I51
sg49
I00
sg50
(dp307
g52
Nsg53
Nsg54
Nssg55
S'elset_wall_2_7_element_prop'
p308
sbsI52
g0
(g39
g2
Ntp309
Rp310
(dp311
g43
Nsg44
g45
sg46
(lp312
I81
aI77
aI78
aI82
asg48
I52
sg49
I00
sg50
(dp313
g52
Nsg53
Nsg54
Nssg55
S'elset_wall_2_8_element_prop'
p314
sbsI53
g0
(g39
g2
Ntp315
Rp316
(dp317
g43
Nsg44
g45
sg46
(lp318
I82
aI78
aI79
aI83
asg48
I53
sg49
I00
sg50
(dp319
g52
Nsg53
Nsg54
Nssg55
S'elset_wall_2_9_element_prop'
p320
sbsI54
g0
(ccompas_fea.structure.element
MPCElement
p321
g2
Ntp322
Rp323
(dp324
g43
Nsg44
S'MPCElement'
p325
sg46
(lp326
I75
aI39
asg48
I54
sg49
I00
sg50
(dp327
g52
Nsg53
(lp328
F-3.637978807091713e-12
aF0.0
aF809.42439025970259
asg54
Nssg55
S'elset_mpc_element_prop'
p329
sbsI55
g0
(g321
g2
Ntp330
Rp331
(dp332
g43
Nsg44
g325
sg46
(lp333
I73
aI29
asg48
I55
sg49
I00
sg50
(dp334
g52
Nsg53
(lp335
F0.0
aF0.0
aF809.42439025970259
asg54
Nssg55
g329
sbsI56
g0
(g321
g2
Ntp336
Rp337
(dp338
g43
Nsg44
g325
sg46
(lp339
I71
aI19
asg48
I56
sg49
I00
sg50
(dp340
g52
Nsg53
(lp341
F-5.0022208597511053e-12
aF0.0
aF809.42439025970259
asg54
Nssg55
g329
sbsI57
g0
(g321
g2
Ntp342
Rp343
(dp344
g43
Nsg44
g325
sg46
(lp345
I70
aI18
asg48
I57
sg49
I00
sg50
(dp346
g52
Nsg53
(lp347
F0.0
aF0.0
aF809.42439025970259
asg54
Nssg55
g329
sbsI58
g0
(g321
g2
Ntp348
Rp349
(dp350
g43
Nsg44
g325
sg46
(lp351
I59
aI30
asg48
I58
sg49
I00
sg50
(dp352
g52
Nsg53
(lp353
F-3.637978807091713e-12
aF0.0
aF809.42439025970259
asg54
Nssg55
g329
sbsI59
g0
(g321
g2
Ntp354
Rp355
(dp356
g43
Nsg44
g325
sg46
(lp357
I57
aI20
asg48
I59
sg49
I00
sg50
(dp358
g52
Nsg53
(lp359
F0.0
aF0.0
aF809.42439025970259
asg54
Nssg55
g329
sbsI60
g0
(g321
g2
Ntp360
Rp361
(dp362
g43
Nsg44
g325
sg46
(lp363
I55
aI1
asg48
I60
sg49
I00
sg50
(dp364
g52
Nsg53
(lp365
F-5.0022208597511053e-12
aF0.0
aF809.42439025970259
asg54
Nssg55
g329
sbsI61
g0
(g321
g2
Ntp366
Rp367
(dp368
g43
Nsg44
g325
sg46
(lp369
I54
aI0
asg48
I61
sg49
I00
sg50
(dp370
g52
Nsg53
(lp371
F0.0
aF0.0
aF809.42439025970259
asg54
Nssg55
g329
sbssS'element_index'
p372
(dp373
S'3063.324,0.000,-1309.694'
p374
I38
sS'1826.922,13033.601,0.000'
p375
I14
sS'1826.922,14874.295,-1309.694'
p376
I46
sS'608.974,0.000,-1309.694'
p377
I36
sS'608.974,1840.694,0.000'
p378
I1
sS'608.974,14874.295,-1309.694'
p379
I45
sS'3063.324,0.000,-2325.393'
p380
I41
sS'1826.922,10579.342,0.000'
p381
I12
sS'608.974,11806.471,0.000'
p382
I5
sS'3063.324,613.565,0.000'
p383
I16
sS'3063.324,4294.953,0.000'
p384
I19
sS'3063.324,1840.694,0.000'
p385
I17
sS'1826.922,14260.730,0.000'
p386
I15
sS'1826.922,9333.620,0.000'
p387
I31
sS'1826.922,0.000,-1309.694'
p388
I37
sS'1826.922,0.000,-2325.393'
p389
I40
sS'1826.922,3067.823,0.000'
p390
I10
sS'3063.324,5540.675,0.000'
p391
I32
sS'3063.324,6804.990,0.000'
p392
I33
sS'608.974,0.000,-3341.091'
p393
I42
sS'1826.922,14874.295,-3341.091'
p394
I52
sS'3063.324,8069.305,0.000'
p395
I34
sS'1826.922,0.000,-3341.091'
p396
I43
sS'608.974,14874.295,-3341.091'
p397
I51
sS'3690.752,14874.295,-404.712'
p398
I54
sS'1826.922,5540.675,0.000'
p399
I28
sS'2435.896,0.000,-404.712'
p400
I59
sS'608.974,9333.620,0.000'
p401
I27
sS'3063.324,14874.295,-1309.694'
p402
I47
sS'1826.922,14874.295,-2325.393'
p403
I49
sS'1826.922,6804.990,0.000'
p404
I29
sS'608.974,3067.823,0.000'
p405
I2
sS'1826.922,613.565,0.000'
p406
I8
sS'1826.922,11806.471,0.000'
p407
I13
sS'3063.324,14874.295,-2325.393'
p408
I50
sS'0.000,0.000,-404.712'
p409
I61
sS'608.974,613.565,0.000'
p410
I0
sS'3063.324,10579.342,0.000'
p411
I20
sS'1826.922,4294.953,0.000'
p412
I11
sS'3063.324,0.000,-3341.091'
p413
I44
sS'3063.324,13033.601,0.000'
p414
I22
sS'3063.324,14874.295,-3341.091'
p415
I53
sS'3690.752,0.000,-404.712'
p416
I58
sS'608.974,6804.990,0.000'
p417
I25
sS'608.974,13033.601,0.000'
p418
I6
sS'1217.948,14874.295,-404.712'
p419
I56
sS'2435.896,14874.295,-404.712'
p420
I55
sS'0.000,14874.295,-404.712'
p421
I57
sS'608.974,14874.295,-2325.393'
p422
I48
sS'608.974,5540.675,0.000'
p423
I24
sS'1826.922,8069.305,0.000'
p424
I30
sS'3063.324,14260.730,0.000'
p425
I23
sS'3063.324,9333.620,0.000'
p426
I35
sS'3063.324,3067.823,0.000'
p427
I18
sS'608.974,8069.305,0.000'
p428
I26
sS'1826.922,1840.694,0.000'
p429
I9
sS'608.974,4294.953,0.000'
p430
I3
sS'608.974,10579.342,0.000'
p431
I4
sS'608.974,0.000,-2325.393'
p432
I39
sS'3063.324,11806.471,0.000'
p433
I21
sS'608.974,14260.730,0.000'
p434
I7
sS'1217.948,0.000,-404.712'
p435
I60
ssS'element_properties'
p436
(dp437
g290
g0
(ccompas_fea.structure.element_properties
ElementProperties
p438
g2
Ntp439
Rp440
(dp441
g15
I21
sS'__name__'
p442
S'ElementProperties'
p443
sS'name'
p444
g290
sS'material'
p445
S'wall_element_mat'
p446
sS'section'
p447
S'wall2_element_sec'
p448
sS'elset'
p449
S'elset_wall_2_4'
p450
sS'elements'
p451
NsS'rebar'
p452
(dp453
sbsg224
g0
(g438
g2
Ntp454
Rp455
(dp456
g15
I10
sg442
g443
sg444
g224
sg445
g446
sg447
S'wall1_element_sec'
p457
sg449
S'elset_wall_1_2'
p458
sg451
Nsg452
g453
sbsg260
g0
(g438
g2
Ntp459
Rp460
(dp461
g15
I16
sg442
g443
sg444
g260
sg445
g446
sg447
g457
sg449
S'elset_wall_1_8'
p462
sg451
Nsg452
g453
sbsg278
g0
(g438
g2
Ntp463
Rp464
(dp465
g15
I19
sg442
g443
sg444
g278
sg445
g446
sg447
g448
sg449
S'elset_wall_2_2'
p466
sg451
Nsg452
g453
sbsg56
g0
(g438
g2
Ntp467
Rp468
(dp469
g15
I0
sg442
g443
sg444
g56
sg445
S'plate_element_mat'
p470
sg447
S'plate_element_sec'
p471
sg449
S'elset_plate_1'
p472
sg451
Nsg452
g453
sbsg296
g0
(g438
g2
Ntp473
Rp474
(dp475
g15
I22
sg442
g443
sg444
g296
sg445
g446
sg447
g448
sg449
S'elset_wall_2_5'
p476
sg451
Nsg452
g453
sbsg200
g0
(g438
g2
Ntp477
Rp478
(dp479
g15
I8
sg442
g443
sg444
g200
sg445
g470
sg447
g471
sg449
S'elset_plate_9'
p480
sg451
Nsg452
g453
sbsg248
g0
(g438
g2
Ntp481
Rp482
(dp483
g15
I14
sg442
g443
sg444
g248
sg445
g446
sg447
g457
sg449
S'elset_wall_1_6'
p484
sg451
Nsg452
g453
sbsg128
g0
(g438
g2
Ntp485
Rp486
(dp487
g15
I4
sg442
g443
sg444
g128
sg445
g470
sg447
g471
sg449
S'elset_plate_5'
p488
sg451
Nsg452
g453
sbsg230
g0
(g438
g2
Ntp489
Rp490
(dp491
g15
I11
sg442
g443
sg444
g230
sg445
g446
sg447
g457
sg449
S'elset_wall_1_3'
p492
sg451
Nsg452
g453
sbsg92
g0
(g438
g2
Ntp493
Rp494
(dp495
g15
I2
sg442
g443
sg444
g92
sg445
g470
sg447
g471
sg449
S'elset_plate_3'
p496
sg451
Nsg452
g453
sbsg284
g0
(g438
g2
Ntp497
Rp498
(dp499
g15
I20
sg442
g443
sg444
g284
sg445
g446
sg447
g448
sg449
S'elset_wall_2_3'
p500
sg451
Nsg452
g453
sbsg302
g0
(g438
g2
Ntp501
Rp502
(dp503
g15
I23
sg442
g443
sg444
g302
sg445
g446
sg447
g448
sg449
S'elset_wall_2_6'
p504
sg451
Nsg452
g453
sbsg236
g0
(g438
g2
Ntp505
Rp506
(dp507
g15
I12
sg442
g443
sg444
g236
sg445
g446
sg447
g457
sg449
S'elset_wall_1_4'
p508
sg451
Nsg452
g453
sbsg266
g0
(g438
g2
Ntp509
Rp510
(dp511
g15
I17
sg442
g443
sg444
g266
sg445
g446
sg447
g457
sg449
S'elset_wall_1_9'
p512
sg451
Nsg452
g453
sbsg182
g0
(g438
g2
Ntp513
Rp514
(dp515
g15
I7
sg442
g443
sg444
g182
sg445
g470
sg447
g471
sg449
S'elset_plate_8'
p516
sg451
Nsg452
g453
sbsg218
g0
(g438
g2
Ntp517
Rp518
(dp519
g15
I9
sg442
g443
sg444
g218
sg445
g446
sg447
g457
sg449
S'elset_wall_1_1'
p520
sg451
Nsg452
g453
sbsg164
g0
(g438
g2
Ntp521
Rp522
(dp523
g15
I6
sg442
g443
sg444
g164
sg445
g470
sg447
g471
sg449
S'elset_plate_7'
p524
sg451
Nsg452
g453
sbsg314
g0
(g438
g2
Ntp525
Rp526
(dp527
g15
I25
sg442
g443
sg444
g314
sg445
g446
sg447
g448
sg449
S'elset_wall_2_8'
p528
sg451
Nsg452
g453
sbsg110
g0
(g438
g2
Ntp529
Rp530
(dp531
g15
I3
sg442
g443
sg444
g110
sg445
g470
sg447
g471
sg449
S'elset_plate_4'
p532
sg451
Nsg452
g453
sbsg74
g0
(g438
g2
Ntp533
Rp534
(dp535
g15
I1
sg442
g443
sg444
g74
sg445
g470
sg447
g471
sg449
S'elset_plate_2'
p536
sg451
Nsg452
g453
sbsg329
g0
(g438
g2
Ntp537
Rp538
(dp539
g15
I27
sg442
g443
sg444
g329
sg445
S'elset_mpc_element_mat'
p540
sg447
S'sec_mpc'
p541
sg449
S'elset_mpcs'
p542
sg451
Nsg452
g453
sbsg254
g0
(g438
g2
Ntp543
Rp544
(dp545
g15
I15
sg442
g443
sg444
g254
sg445
g446
sg447
g457
sg449
S'elset_wall_1_7'
p546
sg451
Nsg452
g453
sbsg308
g0
(g438
g2
Ntp547
Rp548
(dp549
g15
I24
sg442
g443
sg444
g308
sg445
g446
sg447
g448
sg449
S'elset_wall_2_7'
p550
sg451
Nsg452
g453
sbsg320
g0
(g438
g2
Ntp551
Rp552
(dp553
g15
I26
sg442
g443
sg444
g320
sg445
g446
sg447
g448
sg449
S'elset_wall_2_9'
p554
sg451
Nsg452
g453
sbsg272
g0
(g438
g2
Ntp555
Rp556
(dp557
g15
I18
sg442
g443
sg444
g272
sg445
g446
sg447
g448
sg449
S'elset_wall_2_1'
p558
sg451
Nsg452
g453
sbsg146
g0
(g438
g2
Ntp559
Rp560
(dp561
g15
I5
sg442
g443
sg444
g146
sg445
g470
sg447
g471
sg449
S'elset_plate_6'
p562
sg451
Nsg452
g453
sbsg242
g0
(g438
g2
Ntp563
Rp564
(dp565
g15
I13
sg442
g443
sg444
g242
sg445
g446
sg447
g457
sg449
S'elset_wall_1_5'
p566
sg451
Nsg452
g453
sbssS'interactions'
p567
(dp568
sS'loads'
p569
(dp570
S'earthPressure_liveLoad'
p571
g0
(ccompas_fea.structure.load
AreaLoad
p572
g2
Ntp573
Rp574
(dp575
g15
I9
sS'__name__'
p576
S'AreaLoad'
p577
sS'name'
p578
g571
sS'axes'
p579
S'local'
p580
sS'components'
p581
(dp582
g23
F0.037699999999999997
sg27
I0
sg28
I0
ssS'nodes'
p583
(lp584
sS'elements'
p585
(lp586
I37
aI38
aI40
aI41
aI43
aI44
asS'attr_list'
p587
(lp588
S'name'
p589
aS'axes'
p590
aS'components'
p591
aS'nodes'
p592
aS'elements'
p593
asbsS'Gleis1_BAHNLASTEN_Lasteinzugsflache_Lastblock_-2'
p594
g0
(g572
g2
Ntp595
Rp596
(dp597
g15
I8
sg576
g577
sg578
g594
sg579
S'global'
p598
sg581
(dp599
g23
F0.072488432903877381
sg27
I0
sg28
I0
ssg583
g584
sg585
(lp600
I1
aI2
aI9
aI10
aI17
asg587
(lp601
g589
ag590
ag591
ag592
ag593
asbsS'Gleis1_EIGENGEWICHTE_SCHIENE_Lasteinzugsflache'
p602
g0
(g572
g2
Ntp603
Rp604
(dp605
g15
I3
sg576
g577
sg578
g602
sg579
g598
sg581
(dp606
g23
F0.0023034976156599278
sg27
I0
sg28
I0
ssg583
g584
sg585
(lp607
I1
aI2
aI3
aI4
aI9
aI10
aI11
aI12
aI13
aI14
aI17
aI18
aI19
aI20
aI21
aI22
aI23
aI24
aI25
aI26
aI29
aI30
aI31
aI32
aI33
aI34
aI35
aI36
asg587
(lp608
g589
ag590
ag591
ag592
ag593
asbsS'earthPressure_backfill'
p609
g0
(g572
g2
Ntp610
Rp611
(dp612
g15
I2
sg576
g577
sg578
g609
sg579
g580
sg581
(dp613
g23
F0.049955443367549451
sg27
I0
sg28
I0
ssg583
g584
sg585
(lp614
g520
ag458
ag492
ag508
ag566
ag484
ag546
ag462
ag512
ag558
ag466
ag500
ag450
ag476
ag504
ag550
ag528
ag554
asg587
(lp615
g589
ag590
ag591
ag592
ag593
asbsS'Gleis1_BAHNLASTEN_Lasteinzugsflache_Lastblock_2'
p616
g0
(g572
g2
Ntp617
Rp618
(dp619
g15
I5
sg576
g577
sg578
g616
sg579
g598
sg581
(dp620
g23
F0.072488432903877381
sg27
I0
sg28
I0
ssg583
g584
sg585
(lp621
I13
aI21
asg587
(lp622
g589
ag590
ag591
ag592
ag593
asbsS'earthPressure_gravel'
p623
g0
(g572
g2
Ntp624
Rp625
(dp626
g15
I1
sg576
g577
sg578
g623
sg579
g598
sg581
(dp627
g23
F0.013500000000000002
sg27
I0
sg28
I0
ssg583
g584
sg585
(lp628
g472
ag536
ag496
ag532
ag488
ag562
ag524
ag516
ag480
asg587
(lp629
g589
ag590
ag591
ag592
ag593
asbsS'Gleis1_BAHNLASTEN_Lasteinzugsflache_Lastblock_3'
p630
g0
(g572
g2
Ntp631
Rp632
(dp633
g15
I6
sg576
g577
sg578
g630
sg579
g598
sg581
(dp634
g23
F0.072488432903877381
sg27
I0
sg28
I0
ssg583
g584
sg585
(lp635
I14
aI22
aI23
asg587
(lp636
g589
ag590
ag591
ag592
ag593
asbsS'Gleis1_BAHNLASTEN_Lasteinzugsflache_Lastblock_1'
p637
g0
(g572
g2
Ntp638
Rp639
(dp640
g15
I4
sg576
g577
sg578
g637
sg579
g598
sg581
(dp641
g23
F0.072488432903877381
sg27
I0
sg28
I0
ssg583
g584
sg585
(lp642
I30
aI31
aI34
aI35
asg587
(lp643
g589
ag590
ag591
ag592
ag593
asbsS'load_gravity'
p644
g0
(ccompas_fea.structure.load
GravityLoad
p645
g2
Ntp646
Rp647
(dp648
g15
I0
sg576
S'GravityLoad'
p649
sg578
g644
sg579
g598
sg581
(dp650
g23
F1.3500000000000001
sg27
F0.0
sg28
F0.0
ssg583
g584
sg585
(lp651
g472
ag536
ag496
ag532
ag488
ag562
ag524
ag516
ag480
ag520
ag458
ag492
ag508
ag566
ag484
ag546
ag462
ag512
ag558
ag466
ag500
ag450
ag476
ag504
ag550
ag528
ag554
asg587
(lp652
g589
ag590
ag591
ag592
ag593
aS'g'
p653
asS'g'
p654
F-9.8100000000000005
sbsS'Gleis1_BAHNLASTEN_Lasteinzugsflache_Lastblock_-1'
p655
g0
(g572
g2
Ntp656
Rp657
(dp658
g15
I7
sg576
g577
sg578
g655
sg579
g598
sg581
(dp659
g23
F0.072488432903877381
sg27
I0
sg28
I0
ssg583
g584
sg585
(lp660
I25
aI26
aI29
aI33
asg587
(lp661
g589
ag590
ag591
ag592
ag593
asbssS'materials'
p662
(dp663
g540
g0
(ccompas_fea.structure.material
MPCStiff
p664
g2
Ntp665
Rp666
(dp667
g15
I2
sS'__name__'
p668
S'MPCStiff'
p669
sS'name'
p670
g540
sS'attr_list'
p671
(lp672
g589
aS'E'
p673
aS'v'
p674
aS'G'
p675
aS'p'
p676
aS'tension'
p677
aS'compression'
p678
asS'E'
p679
(dp680
g673
L10000000000000L
ssS'v'
p681
(dp682
g674
F0.29999999999999999
ssS'G'
p683
(dp684
g675
F3846153846153.8462
ssS'p'
p685
F0.10000000000000001
sS'tension'
p686
I01
sS'compression'
p687
I01
sbsg446
g0
(ccompas_fea.structure.material
CMMUsermat
p688
g2
Ntp689
Rp690
(dp691
g15
I1
sg668
S'CMMUsermat'
p692
sg670
g446
sg671
(lp693
g589
ag673
ag674
ag675
ag676
aS'R_Rohr'
p694
aS'rho'
p695
aS'oo'
p696
aS'uu'
p697
aS'beton'
p698
aS'fcc'
p699
aS'vc'
p700
aS'ecu'
p701
aS'k_E'
p702
aS'theta_b0'
p703
aS'theta_b1'
p704
aS'k_riss'
p705
aS'Entfestigung'
p706
aS'lambdaTS'
p707
aS'srmx'
p708
aS'srmy'
p709
aS'Begrenzung'
p710
aS'KritQ'
p711
aS'winkelD'
p712
aS'k_vr'
p713
aS'fswy'
p714
aS'stahl1'
p715
aS'zm1'
p716
aS'fsy1'
p717
aS'fsu1'
p718
aS'esu1'
p719
aS'esv1'
p720
aS'Es1'
p721
aS'ka1'
p722
aS'kb1'
p723
aS'kc1'
p724
aS'as1'
p725
aS'dm1'
p726
aS'psi1'
p727
aS'stahl2'
p728
aS'zm2'
p729
aS'fsy2'
p730
aS'fsu2'
p731
aS'esu2'
p732
aS'esv2'
p733
aS'Es2'
p734
aS'ka2'
p735
aS'kb2'
p736
aS'kc2'
p737
aS'as2'
p738
aS'dm2'
p739
aS'psi2'
p740
aS'stahl3'
p741
aS'zm3'
p742
aS'fsy3'
p743
aS'fsu3'
p744
aS'esu3'
p745
aS'esv3'
p746
aS'Es3'
p747
aS'ka3'
p748
aS'kb3'
p749
aS'kc3'
p750
aS'as3'
p751
aS'dm3'
p752
aS'psi3'
p753
aS'stahl4'
p754
aS'zm4'
p755
aS'fsy4'
p756
aS'fsu4'
p757
aS'esu4'
p758
aS'esv4'
p759
aS'Es4'
p760
aS'ka4'
p761
aS'kb4'
p762
aS'kc4'
p763
aS'as4'
p764
aS'dm4'
p765
aS'psi4'
p766
asS'E'
p767
(dp768
S'E'
p769
I200000
ssS'v'
p770
(dp771
S'v'
p772
F0.10000000000000001
ssS'G'
p773
(dp774
g675
F90909.090909090897
ssS'p'
p775
F2.5000000000000002e-06
sS'R_Rohr'
p776
(dp777
g694
I-1
ssS'rho'
p778
(dp779
g695
F2.5000000000000002e-06
ssS'oo'
p780
(dp781
g696
I30
ssS'uu'
p782
(dp783
g697
I30
ssS'beton'
p784
(dp785
g698
I2
ssS'fcc'
p786
(dp787
g699
I40
ssS'vc'
p788
(dp789
g700
I0
ssS'ecu'
p790
(dp791
g701
F-0.002
ssS'k_E'
p792
(dp793
g702
I10000
ssS'theta_b0'
p794
(dp795
g703
I2
ssS'theta_b1'
p796
(dp797
g704
I1
ssS'k_riss'
p798
(dp799
g705
I0
ssS'Entfestigung'
p800
(dp801
g706
I0
ssS'lambdaTS'
p802
(dp803
g707
F0.67000000000000004
ssS'srmx'
p804
(dp805
g708
I1
ssS'srmy'
p806
(dp807
g709
I1
ssS'Begrenzung'
p808
(dp809
g710
I2
ssS'KritQ'
p810
(dp811
g711
I0
ssS'winkelD'
p812
(dp813
g712
I45
ssS'k_vr'
p814
(dp815
g713
I1
ssS'fswy'
p816
(dp817
g714
I500
ssS'stahl1'
p818
(dp819
g715
I1
ssS'zm1'
p820
(dp821
g716
I2
ssS'fsy1'
p822
(dp823
g717
I317
ssS'fsu1'
p824
(dp825
g718
I342
ssS'esu1'
p826
(dp827
g719
F0.044999999999999998
ssS'esv1'
p828
(dp829
g720
F0.02
ssS'Es1'
p830
(dp831
g721
I200000
ssS'ka1'
p832
(dp833
g722
I-1
ssS'kb1'
p834
(dp835
g723
I-1
ssS'kc1'
p836
(dp837
g724
I-1
ssS'as1'
p838
(dp839
g725
F5.3045649593158961
ssS'dm1'
p840
(dp841
g726
F29.438317272043108
ssS'psi1'
p842
(dp843
g727
I90
ssS'stahl2'
p844
(dp845
g728
I1
ssS'zm2'
p846
(dp847
g729
I2
ssS'fsy2'
p848
(dp849
g730
I317
ssS'fsu2'
p850
(dp851
g731
I342
ssS'esu2'
p852
(dp853
g732
F0.044999999999999998
ssS'esv2'
p854
(dp855
g733
F0.02
ssS'Es2'
p856
(dp857
g734
I200000
ssS'ka2'
p858
(dp859
g735
I-1
ssS'kb2'
p860
(dp861
g736
I-1
ssS'kc2'
p862
(dp863
g737
I-1
ssS'as2'
p864
(dp865
g738
F0.88142690106752242
ssS'dm2'
p866
(dp867
g739
F12.0
ssS'psi2'
p868
(dp869
g740
I0
ssS'stahl3'
p870
(dp871
g741
I1
ssS'zm3'
p872
(dp873
g742
I2
ssS'fsy3'
p874
(dp875
g743
I317
ssS'fsu3'
p876
(dp877
g744
I342
ssS'esu3'
p878
(dp879
g745
F0.044999999999999998
ssS'esv3'
p880
(dp881
g746
F0.02
ssS'Es3'
p882
(dp883
g747
I200000
ssS'ka3'
p884
(dp885
g748
I-1
ssS'kb3'
p886
(dp887
g749
I-1
ssS'kc3'
p888
(dp889
g750
I-1
ssS'as3'
p890
(dp891
g751
F0.88142690106752242
ssS'dm3'
p892
(dp893
g752
F12.0
ssS'psi3'
p894
(dp895
g753
I0
ssS'stahl4'
p896
(dp897
g754
I1
ssS'zm4'
p898
(dp899
g755
I2
ssS'fsy4'
p900
(dp901
g756
I317
ssS'fsu4'
p902
(dp903
g757
I342
ssS'esu4'
p904
(dp905
g758
F0.044999999999999998
ssS'esv4'
p906
(dp907
g759
F0.02
ssS'Es4'
p908
(dp909
g760
I200000
ssS'ka4'
p910
(dp911
g761
I-1
ssS'kb4'
p912
(dp913
g762
I-1
ssS'kc4'
p914
(dp915
g763
I-1
ssS'as4'
p916
(dp917
g764
F1.4947068582314649
ssS'dm4'
p918
(dp919
g765
F15.626658062167879
ssS'psi4'
p920
(dp921
g766
I90
ssbsg470
g0
(g688
g2
Ntp922
Rp923
(dp924
g15
I0
sg668
g692
sg670
g470
sg671
(lp925
g589
ag673
ag674
ag675
ag676
ag694
ag695
ag696
ag697
ag698
ag699
ag700
ag701
ag702
ag703
ag704
ag705
ag706
ag707
ag708
ag709
ag710
ag711
ag712
ag713
ag714
ag715
ag716
ag717
ag718
ag719
ag720
ag721
ag722
ag723
ag724
ag725
ag726
ag727
ag728
ag729
ag730
ag731
ag732
ag733
ag734
ag735
ag736
ag737
ag738
ag739
ag740
ag741
ag742
ag743
ag744
ag745
ag746
ag747
ag748
ag749
ag750
ag751
ag752
ag753
ag754
ag755
ag756
ag757
ag758
ag759
ag760
ag761
ag762
ag763
ag764
ag765
ag766
asg767
(dp926
g769
I200000
ssg770
(dp927
g772
F0.10000000000000001
ssg773
(dp928
g675
F90909.090909090897
ssg775
F2.5000000000000002e-06
sg776
(dp929
g694
I-1
ssg778
(dp930
g695
F2.5000000000000002e-06
ssg780
(dp931
g696
I30
ssg782
(dp932
g697
I30
ssg784
(dp933
g698
I2
ssg786
(dp934
g699
I40
ssg788
(dp935
g700
I0
ssg790
(dp936
g701
F-0.002
ssg792
(dp937
g702
I10000
ssg794
(dp938
g703
I2
ssg796
(dp939
g704
I1
ssg798
(dp940
g705
I0
ssg800
(dp941
g706
I0
ssg802
(dp942
g707
F0.67000000000000004
ssg804
(dp943
g708
I1
ssg806
(dp944
g709
I1
ssg808
(dp945
g710
I2
ssg810
(dp946
g711
I0
ssg812
(dp947
g712
I45
ssg814
(dp948
g713
I1
ssg816
(dp949
g714
I500
ssg818
(dp950
g715
I1
ssg820
(dp951
g716
I2
ssg822
(dp952
g717
I317
ssg824
(dp953
g718
I342
ssg826
(dp954
g719
F0.044999999999999998
ssg828
(dp955
g720
F0.02
ssg830
(dp956
g721
I200000
ssg832
(dp957
g722
I-1
ssg834
(dp958
g723
I-1
ssg836
(dp959
g724
I-1
ssg838
(dp960
g725
F1.1678779594049018
ssg840
(dp961
g726
F20.165803021033469
ssg842
(dp962
g727
I90
ssg844
(dp963
g728
I1
ssg846
(dp964
g729
I2
ssg848
(dp965
g730
I317
ssg850
(dp966
g731
I342
ssg852
(dp967
g732
F0.044999999999999998
ssg854
(dp968
g733
F0.02
ssg856
(dp969
g734
I200000
ssg858
(dp970
g735
I-1
ssg860
(dp971
g736
I-1
ssg862
(dp972
g737
I-1
ssg864
(dp973
g738
F0.95746907256659297
ssg866
(dp974
g739
F18.259091578343959
ssg868
(dp975
g740
I0
ssg870
(dp976
g741
I1
ssg872
(dp977
g742
I2
ssg874
(dp978
g743
I317
ssg876
(dp979
g744
I342
ssg878
(dp980
g745
F0.044999999999999998
ssg880
(dp981
g746
F0.02
ssg882
(dp982
g747
I200000
ssg884
(dp983
g748
I-1
ssg886
(dp984
g749
I-1
ssg888
(dp985
g750
I-1
ssg890
(dp986
g751
F0.41355084548711207
ssg892
(dp987
g752
F12.0
ssg894
(dp988
g753
I0
ssg896
(dp989
g754
I1
ssg898
(dp990
g755
I2
ssg900
(dp991
g756
I317
ssg902
(dp992
g757
I342
ssg904
(dp993
g758
F0.044999999999999998
ssg906
(dp994
g759
F0.02
ssg908
(dp995
g760
I200000
ssg910
(dp996
g761
I-1
ssg912
(dp997
g762
I-1
ssg914
(dp998
g763
I-1
ssg916
(dp999
g764
F0.72171992238068683
ssg918
(dp1000
g765
F15.852623176677142
ssg920
(dp1001
g766
I90
ssbssS'misc'
p1002
(dp1003
sS'name'
p1004
S'NLFE_CFB8'
p1005
sS'nodes'
p1006
(dp1007
I0
g0
(ccompas_fea.structure.node
Node
p1008
g2
Ntp1009
Rp1010
(dp1011
S'__name__'
p1012
S'Node'
p1013
sS'key'
p1014
I0
sS'x'
p1015
F0.0
sS'y'
p1016
F0.0
sS'z'
p1017
F0.0
sS'ex'
p1018
(lp1019
I1
aI0
aI0
asS'ey'
p1020
(lp1021
I0
aI1
aI0
asS'ez'
p1022
(lp1023
I0
aI0
aI1
asS'mass'
p1024
NsbsI1
g0
(g1008
g2
Ntp1025
Rp1026
(dp1027
g1012
g1013
sg1014
I1
sg1015
F1217.948161227305
sg1016
F0.0
sg1017
F0.0
sg1018
g1019
sg1020
g1021
sg1022
g1023
sg1024
NsbsI2
g0
(g1008
g2
Ntp1028
Rp1029
(dp1030
g1012
g1013
sg1014
I2
sg1015
F0.0
sg1016
F1227.1293049647384
sg1017
F0.0
sg1018
g1019
sg1020
g1021
sg1022
g1023
sg1024
NsbsI3
g0
(g1008
g2
Ntp1031
Rp1032
(dp1033
g1012
g1013
sg1014
I3
sg1015
F1217.948161227305
sg1016
F1227.1293049647384
sg1017
F0.0
sg1018
g1019
sg1020
g1021
sg1022
g1023
sg1024
NsbsI4
g0
(g1008
g2
Ntp1034
Rp1035
(dp1036
g1012
g1013
sg1014
I4
sg1015
F0.0
sg1016
F2454.2586099294767
sg1017
F0.0
sg1018
g1019
sg1020
g1021
sg1022
g1023
sg1024
NsbsI5
g0
(g1008
g2
Ntp1037
Rp1038
(dp1039
g1012
g1013
sg1014
I5
sg1015
F1217.948161227305
sg1016
F2454.2586099294767
sg1017
F0.0
sg1018
g1019
sg1020
g1021
sg1022
g1023
sg1024
NsbsI6
g0
(g1008
g2
Ntp1040
Rp1041
(dp1042
g1012
g1013
sg1014
I6
sg1015
F0.0
sg1016
F3681.3879148942151
sg1017
F0.0
sg1018
g1019
sg1020
g1021
sg1022
g1023
sg1024
NsbsI7
g0
(g1008
g2
Ntp1043
Rp1044
(dp1045
g1012
g1013
sg1014
I7
sg1015
F1217.948161227305
sg1016
F3681.3879148942151
sg1017
F0.0
sg1018
g1019
sg1020
g1021
sg1022
g1023
sg1024
NsbsI8
g0
(g1008
g2
Ntp1046
Rp1047
(dp1048
g1012
g1013
sg1014
I8
sg1015
F0.0
sg1016
F4908.5172198589535
sg1017
F0.0
sg1018
g1019
sg1020
g1021
sg1022
g1023
sg1024
NsbsI9
g0
(g1008
g2
Ntp1049
Rp1050
(dp1051
g1012
g1013
sg1014
I9
sg1015
F1217.948161227305
sg1016
F4908.5172198589535
sg1017
F0.0
sg1018
g1019
sg1020
g1021
sg1022
g1023
sg1024
NsbsI10
g0
(g1008
g2
Ntp1052
Rp1053
(dp1054
g1012
g1013
sg1014
I10
sg1015
F0.0
sg1016
F9965.7773857742377
sg1017
F0.0
sg1018
g1019
sg1020
g1021
sg1022
g1023
sg1024
NsbsI11
g0
(g1008
g2
Ntp1055
Rp1056
(dp1057
g1012
g1013
sg1014
I11
sg1015
F1217.948161227305
sg1016
F9965.7773857742377
sg1017
F0.0
sg1018
g1019
sg1020
g1021
sg1022
g1023
sg1024
NsbsI12
g0
(g1008
g2
Ntp1058
Rp1059
(dp1060
g1012
g1013
sg1014
I12
sg1015
F0.0
sg1016
F11192.906690738977
sg1017
F0.0
sg1018
g1019
sg1020
g1021
sg1022
g1023
sg1024
NsbsI13
g0
(g1008
g2
Ntp1061
Rp1062
(dp1063
g1012
g1013
sg1014
I13
sg1015
F1217.948161227305
sg1016
F11192.906690738977
sg1017
F0.0
sg1018
g1019
sg1020
g1021
sg1022
g1023
sg1024
NsbsI14
g0
(g1008
g2
Ntp1064
Rp1065
(dp1066
g1012
g1013
sg1014
I14
sg1015
F0.0
sg1016
F12420.035995703714
sg1017
F0.0
sg1018
g1019
sg1020
g1021
sg1022
g1023
sg1024
NsbsI15
g0
(g1008
g2
Ntp1067
Rp1068
(dp1069
g1012
g1013
sg1014
I15
sg1015
F1217.948161227305
sg1016
F12420.035995703714
sg1017
F0.0
sg1018
g1019
sg1020
g1021
sg1022
g1023
sg1024
NsbsI16
g0
(g1008
g2
Ntp1070
Rp1071
(dp1072
g1012
g1013
sg1014
I16
sg1015
F0.0
sg1016
F13647.165300668452
sg1017
F0.0
sg1018
g1019
sg1020
g1021
sg1022
g1023
sg1024
NsbsI17
g0
(g1008
g2
Ntp1073
Rp1074
(dp1075
g1012
g1013
sg1014
I17
sg1015
F1217.948161227305
sg1016
F13647.165300668452
sg1017
F0.0
sg1018
g1019
sg1020
g1021
sg1022
g1023
sg1024
NsbsI18
g0
(g1008
g2
Ntp1076
Rp1077
(dp1078
g1012
g1013
sg1014
I18
sg1015
F0.0
sg1016
F14874.294605633191
sg1017
F0.0
sg1018
g1019
sg1020
g1021
sg1022
g1023
sg1024
NsbsI19
g0
(g1008
g2
Ntp1079
Rp1080
(dp1081
g1012
g1013
sg1014
I19
sg1015
F1217.948161227305
sg1016
F14874.294605633191
sg1017
F0.0
sg1018
g1019
sg1020
g1021
sg1022
g1023
sg1024
NsbsI20
g0
(g1008
g2
Ntp1082
Rp1083
(dp1084
g1012
g1013
sg1014
I20
sg1015
F2435.8963224546101
sg1016
F0.0
sg1017
F0.0
sg1018
g1019
sg1020
g1021
sg1022
g1023
sg1024
NsbsI21
g0
(g1008
g2
Ntp1085
Rp1086
(dp1087
g1012
g1013
sg1014
I21
sg1015
F2435.8963224546101
sg1016
F1227.1293049647384
sg1017
F0.0
sg1018
g1019
sg1020
g1021
sg1022
g1023
sg1024
NsbsI22
g0
(g1008
g2
Ntp1088
Rp1089
(dp1090
g1012
g1013
sg1014
I22
sg1015
F2435.8963224546101
sg1016
F2454.2586099294767
sg1017
F0.0
sg1018
g1019
sg1020
g1021
sg1022
g1023
sg1024
NsbsI23
g0
(g1008
g2
Ntp1091
Rp1092
(dp1093
g1012
g1013
sg1014
I23
sg1015
F2435.8963224546101
sg1016
F3681.3879148942151
sg1017
F0.0
sg1018
g1019
sg1020
g1021
sg1022
g1023
sg1024
NsbsI24
g0
(g1008
g2
Ntp1094
Rp1095
(dp1096
g1012
g1013
sg1014
I24
sg1015
F2435.8963224546101
sg1016
F4908.5172198589535
sg1017
F0.0
sg1018
g1019
sg1020
g1021
sg1022
g1023
sg1024
NsbsI25
g0
(g1008
g2
Ntp1097
Rp1098
(dp1099
g1012
g1013
sg1014
I25
sg1015
F2435.8963224546101
sg1016
F9965.7773857742377
sg1017
F0.0
sg1018
g1019
sg1020
g1021
sg1022
g1023
sg1024
NsbsI26
g0
(g1008
g2
Ntp1100
Rp1101
(dp1102
g1012
g1013
sg1014
I26
sg1015
F2435.8963224546101
sg1016
F11192.906690738977
sg1017
F0.0
sg1018
g1019
sg1020
g1021
sg1022
g1023
sg1024
NsbsI27
g0
(g1008
g2
Ntp1103
Rp1104
(dp1105
g1012
g1013
sg1014
I27
sg1015
F2435.8963224546101
sg1016
F12420.035995703714
sg1017
F0.0
sg1018
g1019
sg1020
g1021
sg1022
g1023
sg1024
NsbsI28
g0
(g1008
g2
Ntp1106
Rp1107
(dp1108
g1012
g1013
sg1014
I28
sg1015
F2435.8963224546101
sg1016
F13647.165300668452
sg1017
F0.0
sg1018
g1019
sg1020
g1021
sg1022
g1023
sg1024
NsbsI29
g0
(g1008
g2
Ntp1109
Rp1110
(dp1111
g1012
g1013
sg1014
I29
sg1015
F2435.8963224546101
sg1016
F14874.294605633191
sg1017
F0.0
sg1018
g1019
sg1020
g1021
sg1022
g1023
sg1024
NsbsI30
g0
(g1008
g2
Ntp1112
Rp1113
(dp1114
g1012
g1013
sg1014
I30
sg1015
F3690.7520037191061
sg1016
F0.0
sg1017
F0.0
sg1018
g1019
sg1020
g1021
sg1022
g1023
sg1024
NsbsI31
g0
(g1008
g2
Ntp1115
Rp1116
(dp1117
g1012
g1013
sg1014
I31
sg1015
F3690.7520037191061
sg1016
F1227.1293049647384
sg1017
F0.0
sg1018
g1019
sg1020
g1021
sg1022
g1023
sg1024
NsbsI32
g0
(g1008
g2
Ntp1118
Rp1119
(dp1120
g1012
g1013
sg1014
I32
sg1015
F3690.7520037191061
sg1016
F2454.2586099294767
sg1017
F0.0
sg1018
g1019
sg1020
g1021
sg1022
g1023
sg1024
NsbsI33
g0
(g1008
g2
Ntp1121
Rp1122
(dp1123
g1012
g1013
sg1014
I33
sg1015
F3690.7520037191061
sg1016
F3681.3879148942151
sg1017
F0.0
sg1018
g1019
sg1020
g1021
sg1022
g1023
sg1024
NsbsI34
g0
(g1008
g2
Ntp1124
Rp1125
(dp1126
g1012
g1013
sg1014
I34
sg1015
F3690.7520037191061
sg1016
F4908.5172198589535
sg1017
F0.0
sg1018
g1019
sg1020
g1021
sg1022
g1023
sg1024
NsbsI35
g0
(g1008
g2
Ntp1127
Rp1128
(dp1129
g1012
g1013
sg1014
I35
sg1015
F3690.7520037191061
sg1016
F9965.7773857742377
sg1017
F0.0
sg1018
g1019
sg1020
g1021
sg1022
g1023
sg1024
NsbsI36
g0
(g1008
g2
Ntp1130
Rp1131
(dp1132
g1012
g1013
sg1014
I36
sg1015
F3690.7520037191061
sg1016
F11192.906690738977
sg1017
F0.0
sg1018
g1019
sg1020
g1021
sg1022
g1023
sg1024
NsbsI37
g0
(g1008
g2
Ntp1133
Rp1134
(dp1135
g1012
g1013
sg1014
I37
sg1015
F3690.7520037191061
sg1016
F12420.035995703714
sg1017
F0.0
sg1018
g1019
sg1020
g1021
sg1022
g1023
sg1024
NsbsI38
g0
(g1008
g2
Ntp1136
Rp1137
(dp1138
g1012
g1013
sg1014
I38
sg1015
F3690.7520037191061
sg1016
F13647.165300668452
sg1017
F0.0
sg1018
g1019
sg1020
g1021
sg1022
g1023
sg1024
NsbsI39
g0
(g1008
g2
Ntp1139
Rp1140
(dp1141
g1012
g1013
sg1014
I39
sg1015
F3690.7520037191061
sg1016
F14874.294605633191
sg1017
F0.0
sg1018
g1019
sg1020
g1021
sg1022
g1023
sg1024
NsbsI40
g0
(g1008
g2
Ntp1142
Rp1143
(dp1144
g1012
g1013
sg1014
I40
sg1015
F0.0
sg1016
F6172.832261337775
sg1017
F0.0
sg1018
g1019
sg1020
g1021
sg1022
g1023
sg1024
NsbsI41
g0
(g1008
g2
Ntp1145
Rp1146
(dp1147
g1012
g1013
sg1014
I41
sg1015
F1217.948161227305
sg1016
F6172.832261337775
sg1017
F0.0
sg1018
g1019
sg1020
g1021
sg1022
g1023
sg1024
NsbsI42
g0
(g1008
g2
Ntp1148
Rp1149
(dp1150
g1012
g1013
sg1014
I42
sg1015
F0.0
sg1016
F7437.1473028165956
sg1017
F0.0
sg1018
g1019
sg1020
g1021
sg1022
g1023
sg1024
NsbsI43
g0
(g1008
g2
Ntp1151
Rp1152
(dp1153
g1012
g1013
sg1014
I43
sg1015
F1217.948161227305
sg1016
F7437.1473028165956
sg1017
F0.0
sg1018
g1019
sg1020
g1021
sg1022
g1023
sg1024
NsbsI44
g0
(g1008
g2
Ntp1154
Rp1155
(dp1156
g1012
g1013
sg1014
I44
sg1015
F0.0
sg1016
F8701.462344295418
sg1017
F0.0
sg1018
g1019
sg1020
g1021
sg1022
g1023
sg1024
NsbsI45
g0
(g1008
g2
Ntp1157
Rp1158
(dp1159
g1012
g1013
sg1014
I45
sg1015
F1217.948161227305
sg1016
F8701.462344295418
sg1017
F0.0
sg1018
g1019
sg1020
g1021
sg1022
g1023
sg1024
NsbsI46
g0
(g1008
g2
Ntp1160
Rp1161
(dp1162
g1012
g1013
sg1014
I46
sg1015
F2435.8963224546101
sg1016
F6172.832261337775
sg1017
F0.0
sg1018
g1019
sg1020
g1021
sg1022
g1023
sg1024
NsbsI47
g0
(g1008
g2
Ntp1163
Rp1164
(dp1165
g1012
g1013
sg1014
I47
sg1015
F2435.8963224546101
sg1016
F7437.1473028165956
sg1017
F0.0
sg1018
g1019
sg1020
g1021
sg1022
g1023
sg1024
NsbsI48
g0
(g1008
g2
Ntp1166
Rp1167
(dp1168
g1012
g1013
sg1014
I48
sg1015
F2435.8963224546101
sg1016
F8701.462344295418
sg1017
F0.0
sg1018
g1019
sg1020
g1021
sg1022
g1023
sg1024
NsbsI49
g0
(g1008
g2
Ntp1169
Rp1170
(dp1171
g1012
g1013
sg1014
I49
sg1015
F3690.7520037191061
sg1016
F6172.832261337775
sg1017
F0.0
sg1018
g1019
sg1020
g1021
sg1022
g1023
sg1024
NsbsI50
g0
(g1008
g2
Ntp1172
Rp1173
(dp1174
g1012
g1013
sg1014
I50
sg1015
F3690.7520037191061
sg1016
F7437.1473028165956
sg1017
F0.0
sg1018
g1019
sg1020
g1021
sg1022
g1023
sg1024
NsbsI51
g0
(g1008
g2
Ntp1175
Rp1176
(dp1177
g1012
g1013
sg1014
I51
sg1015
F3690.7520037191061
sg1016
F8701.462344295418
sg1017
F0.0
sg1018
g1019
sg1020
g1021
sg1022
g1023
sg1024
NsbsI52
g0
(g1008
g2
Ntp1178
Rp1179
(dp1180
g1012
g1013
sg1014
I52
sg1015
F0.0
sg1016
F0.0
sg1017
F-1809.963414885789
sg1018
g1019
sg1020
g1021
sg1022
g1023
sg1024
NsbsI53
g0
(g1008
g2
Ntp1181
Rp1182
(dp1183
g1012
g1013
sg1014
I53
sg1015
F1217.94816122731
sg1016
F0.0
sg1017
F-1809.963414885789
sg1018
g1019
sg1020
g1021
sg1022
g1023
sg1024
NsbsI54
g0
(g1008
g2
Ntp1184
Rp1185
(dp1186
g1012
g1013
sg1014
I54
sg1015
F0.0
sg1016
F0.0
sg1017
F-809.42439025970259
sg1018
g1019
sg1020
g1021
sg1022
g1023
sg1024
NsbsI55
g0
(g1008
g2
Ntp1187
Rp1188
(dp1189
g1012
g1013
sg1014
I55
sg1015
F1217.94816122731
sg1016
F0.0
sg1017
F-809.42439025970259
sg1018
g1019
sg1020
g1021
sg1022
g1023
sg1024
NsbsI56
g0
(g1008
g2
Ntp1190
Rp1191
(dp1192
g1012
g1013
sg1014
I56
sg1015
F2435.8963224546101
sg1016
F0.0
sg1017
F-1809.963414885789
sg1018
g1019
sg1020
g1021
sg1022
g1023
sg1024
NsbsI57
g0
(g1008
g2
Ntp1193
Rp1194
(dp1195
g1012
g1013
sg1014
I57
sg1015
F2435.8963224546101
sg1016
F0.0
sg1017
F-809.42439025970259
sg1018
g1019
sg1020
g1021
sg1022
g1023
sg1024
NsbsI58
g0
(g1008
g2
Ntp1196
Rp1197
(dp1198
g1012
g1013
sg1014
I58
sg1015
F3690.7520037191098
sg1016
F0.0
sg1017
F-1809.963414885789
sg1018
g1019
sg1020
g1021
sg1022
g1023
sg1024
NsbsI59
g0
(g1008
g2
Ntp1199
Rp1200
(dp1201
g1012
g1013
sg1014
I59
sg1015
F3690.7520037191098
sg1016
F0.0
sg1017
F-809.42439025970259
sg1018
g1019
sg1020
g1021
sg1022
g1023
sg1024
NsbsI60
g0
(g1008
g2
Ntp1202
Rp1203
(dp1204
g1012
g1013
sg1014
I60
sg1015
F0.0
sg1016
F0.0
sg1017
F-2840.8218038944842
sg1018
g1019
sg1020
g1021
sg1022
g1023
sg1024
NsbsI61
g0
(g1008
g2
Ntp1205
Rp1206
(dp1207
g1012
g1013
sg1014
I61
sg1015
F1217.94816122731
sg1016
F0.0
sg1017
F-2840.8218038944842
sg1018
g1019
sg1020
g1021
sg1022
g1023
sg1024
NsbsI62
g0
(g1008
g2
Ntp1208
Rp1209
(dp1210
g1012
g1013
sg1014
I62
sg1015
F2435.8963224546101
sg1016
F0.0
sg1017
F-2840.8218038944842
sg1018
g1019
sg1020
g1021
sg1022
g1023
sg1024
NsbsI63
g0
(g1008
g2
Ntp1211
Rp1212
(dp1213
g1012
g1013
sg1014
I63
sg1015
F3690.7520037191098
sg1016
F0.0
sg1017
F-2840.8218038944842
sg1018
g1019
sg1020
g1021
sg1022
g1023
sg1024
NsbsI64
g0
(g1008
g2
Ntp1214
Rp1215
(dp1216
g1012
g1013
sg1014
I64
sg1015
F0.0
sg1016
F0.0
sg1017
F-3841.360828520571
sg1018
g1019
sg1020
g1021
sg1022
g1023
sg1024
NsbsI65
g0
(g1008
g2
Ntp1217
Rp1218
(dp1219
g1012
g1013
sg1014
I65
sg1015
F1217.94816122731
sg1016
F0.0
sg1017
F-3841.360828520571
sg1018
g1019
sg1020
g1021
sg1022
g1023
sg1024
NsbsI66
g0
(g1008
g2
Ntp1220
Rp1221
(dp1222
g1012
g1013
sg1014
I66
sg1015
F2435.8963224546101
sg1016
F0.0
sg1017
F-3841.360828520571
sg1018
g1019
sg1020
g1021
sg1022
g1023
sg1024
NsbsI67
g0
(g1008
g2
Ntp1223
Rp1224
(dp1225
g1012
g1013
sg1014
I67
sg1015
F3690.7520037191098
sg1016
F0.0
sg1017
F-3841.360828520571
sg1018
g1019
sg1020
g1021
sg1022
g1023
sg1024
NsbsI68
g0
(g1008
g2
Ntp1226
Rp1227
(dp1228
g1012
g1013
sg1014
I68
sg1015
F0.0
sg1016
F14874.294605633191
sg1017
F-1809.963414885789
sg1018
g1019
sg1020
g1021
sg1022
g1023
sg1024
NsbsI69
g0
(g1008
g2
Ntp1229
Rp1230
(dp1231
g1012
g1013
sg1014
I69
sg1015
F1217.94816122731
sg1016
F14874.294605633191
sg1017
F-1809.963414885789
sg1018
g1019
sg1020
g1021
sg1022
g1023
sg1024
NsbsI70
g0
(g1008
g2
Ntp1232
Rp1233
(dp1234
g1012
g1013
sg1014
I70
sg1015
F0.0
sg1016
F14874.294605633191
sg1017
F-809.42439025970259
sg1018
g1019
sg1020
g1021
sg1022
g1023
sg1024
NsbsI71
g0
(g1008
g2
Ntp1235
Rp1236
(dp1237
g1012
g1013
sg1014
I71
sg1015
F1217.94816122731
sg1016
F14874.294605633191
sg1017
F-809.42439025970259
sg1018
g1019
sg1020
g1021
sg1022
g1023
sg1024
NsbsI72
g0
(g1008
g2
Ntp1238
Rp1239
(dp1240
g1012
g1013
sg1014
I72
sg1015
F2435.8963224546101
sg1016
F14874.294605633191
sg1017
F-1809.963414885789
sg1018
g1019
sg1020
g1021
sg1022
g1023
sg1024
NsbsI73
g0
(g1008
g2
Ntp1241
Rp1242
(dp1243
g1012
g1013
sg1014
I73
sg1015
F2435.8963224546101
sg1016
F14874.294605633191
sg1017
F-809.42439025970259
sg1018
g1019
sg1020
g1021
sg1022
g1023
sg1024
NsbsI74
g0
(g1008
g2
Ntp1244
Rp1245
(dp1246
g1012
g1013
sg1014
I74
sg1015
F3690.7520037191098
sg1016
F14874.294605633191
sg1017
F-1809.963414885789
sg1018
g1019
sg1020
g1021
sg1022
g1023
sg1024
NsbsI75
g0
(g1008
g2
Ntp1247
Rp1248
(dp1249
g1012
g1013
sg1014
I75
sg1015
F3690.7520037191098
sg1016
F14874.294605633191
sg1017
F-809.42439025970259
sg1018
g1019
sg1020
g1021
sg1022
g1023
sg1024
NsbsI76
g0
(g1008
g2
Ntp1250
Rp1251
(dp1252
g1012
g1013
sg1014
I76
sg1015
F0.0
sg1016
F14874.294605633191
sg1017
F-2840.8218038944842
sg1018
g1019
sg1020
g1021
sg1022
g1023
sg1024
NsbsI77
g0
(g1008
g2
Ntp1253
Rp1254
(dp1255
g1012
g1013
sg1014
I77
sg1015
F1217.94816122731
sg1016
F14874.294605633191
sg1017
F-2840.8218038944842
sg1018
g1019
sg1020
g1021
sg1022
g1023
sg1024
NsbsI78
g0
(g1008
g2
Ntp1256
Rp1257
(dp1258
g1012
g1013
sg1014
I78
sg1015
F2435.8963224546101
sg1016
F14874.294605633191
sg1017
F-2840.8218038944842
sg1018
g1019
sg1020
g1021
sg1022
g1023
sg1024
NsbsI79
g0
(g1008
g2
Ntp1259
Rp1260
(dp1261
g1012
g1013
sg1014
I79
sg1015
F3690.7520037191098
sg1016
F14874.294605633191
sg1017
F-2840.8218038944842
sg1018
g1019
sg1020
g1021
sg1022
g1023
sg1024
NsbsI80
g0
(g1008
g2
Ntp1262
Rp1263
(dp1264
g1012
g1013
sg1014
I80
sg1015
F0.0
sg1016
F14874.294605633191
sg1017
F-3841.360828520571
sg1018
g1019
sg1020
g1021
sg1022
g1023
sg1024
NsbsI81
g0
(g1008
g2
Ntp1265
Rp1266
(dp1267
g1012
g1013
sg1014
I81
sg1015
F1217.94816122731
sg1016
F14874.294605633191
sg1017
F-3841.360828520571
sg1018
g1019
sg1020
g1021
sg1022
g1023
sg1024
NsbsI82
g0
(g1008
g2
Ntp1268
Rp1269
(dp1270
g1012
g1013
sg1014
I82
sg1015
F2435.8963224546101
sg1016
F14874.294605633191
sg1017
F-3841.360828520571
sg1018
g1019
sg1020
g1021
sg1022
g1023
sg1024
NsbsI83
g0
(g1008
g2
Ntp1271
Rp1272
(dp1273
g1012
g1013
sg1014
I83
sg1015
F3690.7520037191098
sg1016
F14874.294605633191
sg1017
F-3841.360828520571
sg1018
g1019
sg1020
g1021
sg1022
g1023
sg1024
NsbssS'node_index'
p1274
(dp1275
S'0.000,4908.517,0.000'
p1276
I8
sS'2435.896,14874.295,-1809.963'
p1277
I72
sS'3690.752,0.000,-2840.822'
p1278
I63
sS'1217.948,14874.295,-3841.361'
p1279
I81
sS'0.000,11192.907,0.000'
p1280
I12
sS'0.000,0.000,-809.424'
p1281
I54
sS'3690.752,14874.295,-3841.361'
p1282
I83
sS'1217.948,14874.295,0.000'
p1283
I19
sS'2435.896,0.000,-2840.822'
p1284
I62
sS'3690.752,14874.295,-809.424'
p1285
I75
sS'0.000,2454.259,0.000'
p1286
I4
sS'3690.752,0.000,-3841.361'
p1287
I67
sS'3690.752,8701.462,0.000'
p1288
I51
sS'3690.752,3681.388,0.000'
p1289
I33
sS'2435.896,6172.832,0.000'
p1290
I46
sS'3690.752,6172.832,0.000'
p1291
I49
sS'1217.948,0.000,-809.424'
p1292
I55
sS'1217.948,14874.295,-809.424'
p1293
I71
sS'3690.752,14874.295,0.000'
p1294
I39
sS'2435.896,0.000,-3841.361'
p1295
I66
sS'3690.752,14874.295,-2840.822'
p1296
I79
sS'2435.896,4908.517,0.000'
p1297
I24
sS'0.000,12420.036,0.000'
p1298
I14
sS'1217.948,6172.832,0.000'
p1299
I41
sS'2435.896,2454.259,0.000'
p1300
I22
sS'1217.948,14874.295,-1809.963'
p1301
I69
sS'2435.896,14874.295,-809.424'
p1302
I73
sS'2435.896,0.000,-809.424'
p1303
I57
sS'2435.896,3681.388,0.000'
p1304
I23
sS'2435.896,0.000,0.000'
p1305
I20
sS'1217.948,3681.388,0.000'
p1306
I7
sS'1217.948,9965.777,0.000'
p1307
I11
sS'0.000,0.000,0.000'
p1308
I0
sS'1217.948,7437.147,0.000'
p1309
I43
sS'3690.752,0.000,-1809.963'
p1310
I58
sS'1217.948,4908.517,0.000'
p1311
I9
sS'2435.896,14874.295,-3841.361'
p1312
I82
sS'1217.948,0.000,-1809.963'
p1313
I53
sS'0.000,14874.295,-1809.963'
p1314
I68
sS'2435.896,14874.295,-2840.822'
p1315
I78
sS'0.000,7437.147,0.000'
p1316
I42
sS'0.000,14874.295,-2840.822'
p1317
I76
sS'3690.752,7437.147,0.000'
p1318
I50
sS'1217.948,0.000,0.000'
p1319
I1
sS'0.000,13647.165,0.000'
p1320
I16
sS'0.000,1227.129,0.000'
p1321
I2
sS'3690.752,0.000,0.000'
p1322
I30
sS'3690.752,12420.036,0.000'
p1323
I37
sS'3690.752,13647.165,0.000'
p1324
I38
sS'0.000,0.000,-1809.963'
p1325
I52
sS'1217.948,13647.165,0.000'
p1326
I17
sS'0.000,9965.777,0.000'
p1327
I10
sS'3690.752,9965.777,0.000'
p1328
I35
sS'0.000,8701.462,0.000'
p1329
I44
sS'0.000,14874.295,0.000'
p1330
I18
sS'3690.752,4908.517,0.000'
p1331
I34
sS'2435.896,1227.129,0.000'
p1332
I21
sS'1217.948,12420.036,0.000'
p1333
I15
sS'1217.948,8701.462,0.000'
p1334
I45
sS'3690.752,0.000,-809.424'
p1335
I59
sS'0.000,14874.295,-3841.361'
p1336
I80
sS'2435.896,14874.295,0.000'
p1337
I29
sS'3690.752,2454.259,0.000'
p1338
I32
sS'1217.948,1227.129,0.000'
p1339
I3
sS'2435.896,12420.036,0.000'
p1340
I27
sS'3690.752,14874.295,-1809.963'
p1341
I74
sS'2435.896,11192.907,0.000'
p1342
I26
sS'2435.896,8701.462,0.000'
p1343
I48
sS'3690.752,11192.907,0.000'
p1344
I36
sS'2435.896,0.000,-1809.963'
p1345
I56
sS'0.000,3681.388,0.000'
p1346
I6
sS'2435.896,13647.165,0.000'
p1347
I28
sS'1217.948,2454.259,0.000'
p1348
I5
sS'2435.896,7437.147,0.000'
p1349
I47
sS'1217.948,0.000,-3841.361'
p1350
I65
sS'1217.948,11192.907,0.000'
p1351
I13
sS'2435.896,9965.777,0.000'
p1352
I25
sS'1217.948,0.000,-2840.822'
p1353
I61
sS'0.000,0.000,-2840.822'
p1354
I60
sS'3690.752,1227.129,0.000'
p1355
I31
sS'0.000,6172.832,0.000'
p1356
I40
sS'1217.948,14874.295,-2840.822'
p1357
I77
sS'0.000,14874.295,-809.424'
p1358
I70
sS'0.000,0.000,-3841.361'
p1359
I64
ssS'path'
p1360
S'C:\\Temp\\'
p1361
sS'results'
p1362
(dp1363
S'step_2'
p1364
S'ERROR'
p1365
sS'step_3'
p1366
g1365
sS'step_4'
p1367
g1365
sS'step_1'
p1368
g1365
ssS'sections'
p1369
(dp1370
g457
g0
(ccompas_fea.structure.section
ShellSection
p1371
g2
Ntp1372
Rp1373
(dp1374
g15
I1
sS'__name__'
p1375
S'ShellSection'
p1376
sS'name'
p1377
g457
sS'geometry'
p1378
(dp1379
S't'
p1380
F525.95970174063302
ssS'loc_coords_OR'
p1381
(dp1382
S'ORxyz'
p1383
(lp1384
I0
aI0
aF-3031.9364382600002
assS'loc_coords_XA'
p1385
(dp1386
S'XAxyz'
p1387
(lp1388
I1
aI0
aF-3031.9364382600002
assS'loc_coords_YA'
p1389
(dp1390
S'YAxyz'
p1391
(lp1392
F3031.9364382600002
aF-3031.9364382600002
aF-3030.9364382600002
assS'loc_coords_EV_XA'
p1393
(dp1394
S'EV_XA'
p1395
(lp1396
F1.0
aF0.0
aF0.0
assS'loc_coords_EV_YA'
p1397
(dp1398
S'EV_YA'
p1399
(lp1400
F0.70710676195630284
aF-0.70710676195630284
aF0.00023321952038087736
assS'loc_coords_EV_ZA'
p1401
(dp1402
S'EV_ZA'
p1403
(lp1404
F0.0
aF-1.0
aF0.0
assS'nr_layers'
p1405
(dp1406
S'nn'
p1407
F44.0
ssS'offset'
p1408
(dp1409
S'mode'
p1410
S'mid'
p1411
ssbsg471
g0
(g1371
g2
Ntp1412
Rp1413
(dp1414
g15
I0
sg1375
g1376
sg1377
g471
sg1378
(dp1415
g1380
F809.42439025970259
ssg1381
(dp1416
g1383
(lp1417
I0
aI0
aI0
assg1385
(dp1418
g1387
(lp1419
I1
aI0
aI0
assg1389
(dp1420
g1391
(lp1421
F0.0
aF1.0
aF0.0
assg1393
(dp1422
g1395
(lp1423
F1.0
aF0.0
aF0.0
assg1397
(dp1424
g1399
(lp1425
F0.0
aF1.0
aF0.0
assg1401
(dp1426
g1403
(lp1427
F0.0
aF0.0
aF1.0
assg1405
(dp1428
g1407
F44.0
ssg1408
(dp1429
g1410
S'top'
p1430
ssbsg448
g0
(g1371
g2
Ntp1431
Rp1432
(dp1433
g15
I2
sg1375
g1376
sg1377
g448
sg1378
(dp1434
g1380
F525.95970174063302
ssg1381
(dp1435
g1383
(lp1436
I0
aF14874.2946056
aF-3031.9364382600002
assg1385
(dp1437
g1387
(lp1438
I1
aF14874.2946056
aF-3031.9364382600002
assg1389
(dp1439
g1391
(lp1440
F-3031.9364382624626
aF11842.35816734
aF-17907.23104386
assg1393
(dp1441
g1395
(lp1442
F1.0
aF0.0
aF0.0
assg1397
(dp1443
g1399
(lp1444
F-0.19584956755543545
aF-0.19584956755527635
aF-0.96087766847646139
assg1401
(dp1445
g1403
(lp1446
F0.0
aF1.0
aF0.0
assg1405
(dp1447
g1407
F44.0
ssg1408
(dp1448
g1410
g1411
ssbsg541
g0
(ccompas_fea.structure.section
MPCSection
p1449
g2
Ntp1450
Rp1451
(dp1452
g15
I3
sg1375
S'MPCSection'
p1453
sg1377
g541
sg1378
NsS'nr_layers'
p1454
NsbssS'sets'
p1455
(dp1456
g566
g0
(ccompas_fea.structure.set
Set
p1457
g2
Ntp1458
Rp1459
(dp1460
S'__name__'
p1461
S'Set'
p1462
sS'name'
p1463
g566
sS'type'
p1464
S'element'
p1465
sS'selection'
p1466
(lp1467
I40
asS'index'
p1468
I13
sbsg542
g0
(g1457
g2
Ntp1469
Rp1470
(dp1471
g1461
g1462
sg1463
g542
sg1464
g1465
sg1466
(lp1472
I54
aI55
aI56
aI57
aI58
aI59
aI60
aI61
asg1468
I27
sbsg450
g0
(g1457
g2
Ntp1473
Rp1474
(dp1475
g1461
g1462
sg1463
g450
sg1464
g1465
sg1466
(lp1476
I48
asg1468
I21
sbsg496
g0
(g1457
g2
Ntp1477
Rp1478
(dp1479
g1461
g1462
sg1463
g496
sg1464
g1465
sg1466
(lp1480
I8
aI9
aI10
aI11
asg1468
I2
sbsg462
g0
(g1457
g2
Ntp1481
Rp1482
(dp1483
g1461
g1462
sg1463
g462
sg1464
g1465
sg1466
(lp1484
I43
asg1468
I16
sbsg558
g0
(g1457
g2
Ntp1485
Rp1486
(dp1487
g1461
g1462
sg1463
g558
sg1464
g1465
sg1466
(lp1488
I45
asg1468
I18
sbsg536
g0
(g1457
g2
Ntp1489
Rp1490
(dp1491
g1461
g1462
sg1463
g536
sg1464
g1465
sg1466
(lp1492
I4
aI5
aI6
aI7
asg1468
I1
sbsg472
g0
(g1457
g2
Ntp1493
Rp1494
(dp1495
g1461
g1462
sg1463
g472
sg1464
g1465
sg1466
(lp1496
I0
aI1
aI2
aI3
asg1468
I0
sbsg524
g0
(g1457
g2
Ntp1497
Rp1498
(dp1499
g1461
g1462
sg1463
g524
sg1464
g1465
sg1466
(lp1500
I24
aI25
aI26
aI27
asg1468
I6
sbsg562
g0
(g1457
g2
Ntp1501
Rp1502
(dp1503
g1461
g1462
sg1463
g562
sg1464
g1465
sg1466
(lp1504
I20
aI21
aI22
aI23
asg1468
I5
sbsg488
g0
(g1457
g2
Ntp1505
Rp1506
(dp1507
g1461
g1462
sg1463
g488
sg1464
g1465
sg1466
(lp1508
I16
aI17
aI18
aI19
asg1468
I4
sbsg532
g0
(g1457
g2
Ntp1509
Rp1510
(dp1511
g1461
g1462
sg1463
g532
sg1464
g1465
sg1466
(lp1512
I12
aI13
aI14
aI15
asg1468
I3
sbsg480
g0
(g1457
g2
Ntp1513
Rp1514
(dp1515
g1461
g1462
sg1463
g480
sg1464
g1465
sg1466
(lp1516
I32
aI33
aI34
aI35
asg1468
I8
sbsg516
g0
(g1457
g2
Ntp1517
Rp1518
(dp1519
g1461
g1462
sg1463
g516
sg1464
g1465
sg1466
(lp1520
I28
aI29
aI30
aI31
asg1468
I7
sbsg492
g0
(g1457
g2
Ntp1521
Rp1522
(dp1523
g1461
g1462
sg1463
g492
sg1464
g1465
sg1466
(lp1524
I38
asg1468
I11
sbsg554
g0
(g1457
g2
Ntp1525
Rp1526
(dp1527
g1461
g1462
sg1463
g554
sg1464
g1465
sg1466
(lp1528
I53
asg1468
I26
sbsg504
g0
(g1457
g2
Ntp1529
Rp1530
(dp1531
g1461
g1462
sg1463
g504
sg1464
g1465
sg1466
(lp1532
I50
asg1468
I23
sbsg484
g0
(g1457
g2
Ntp1533
Rp1534
(dp1535
g1461
g1462
sg1463
g484
sg1464
g1465
sg1466
(lp1536
I41
asg1468
I14
sbsg500
g0
(g1457
g2
Ntp1537
Rp1538
(dp1539
g1461
g1462
sg1463
g500
sg1464
g1465
sg1466
(lp1540
I47
asg1468
I20
sbsg520
g0
(g1457
g2
Ntp1541
Rp1542
(dp1543
g1461
g1462
sg1463
g520
sg1464
g1465
sg1466
(lp1544
I36
asg1468
I9
sbsg512
g0
(g1457
g2
Ntp1545
Rp1546
(dp1547
g1461
g1462
sg1463
g512
sg1464
g1465
sg1466
(lp1548
I44
asg1468
I17
sbsg35
g0
(g1457
g2
Ntp1549
Rp1550
(dp1551
g1461
g1462
sg1463
g35
sg1464
S'node'
p1552
sg1466
(lp1553
I83
aI82
aI81
aI80
asg1468
I29
sbsg508
g0
(g1457
g2
Ntp1554
Rp1555
(dp1556
g1461
g1462
sg1463
g508
sg1464
g1465
sg1466
(lp1557
I39
asg1468
I12
sbsg528
g0
(g1457
g2
Ntp1558
Rp1559
(dp1560
g1461
g1462
sg1463
g528
sg1464
g1465
sg1466
(lp1561
I52
asg1468
I25
sbsg476
g0
(g1457
g2
Ntp1562
Rp1563
(dp1564
g1461
g1462
sg1463
g476
sg1464
g1465
sg1466
(lp1565
I49
asg1468
I22
sbsg20
g0
(g1457
g2
Ntp1566
Rp1567
(dp1568
g1461
g1462
sg1463
g20
sg1464
g1552
sg1466
(lp1569
I67
aI66
aI65
aI64
asg1468
I28
sbsg546
g0
(g1457
g2
Ntp1570
Rp1571
(dp1572
g1461
g1462
sg1463
g546
sg1464
g1465
sg1466
(lp1573
I42
asg1468
I15
sbsg466
g0
(g1457
g2
Ntp1574
Rp1575
(dp1576
g1461
g1462
sg1463
g466
sg1464
g1465
sg1466
(lp1577
I46
asg1468
I19
sbsg458
g0
(g1457
g2
Ntp1578
Rp1579
(dp1580
g1461
g1462
sg1463
g458
sg1464
g1465
sg1466
(lp1581
I37
asg1468
I10
sbsg550
g0
(g1457
g2
Ntp1582
Rp1583
(dp1584
g1461
g1462
sg1463
g550
sg1464
g1465
sg1466
(lp1585
I51
asg1468
I24
sbssS'steps'
p1586
(dp1587
g1364
g0
(ccompas_fea.structure.step
GeneralStep
p1588
g2
Ntp1589
Rp1590
(dp1591
g15
I1
sS'__name__'
p1592
S'GeneralStep'
p1593
sS'name'
p1594
g1364
sS'attr_list'
p1595
(lp1596
g589
aS'increments'
p1597
aS'iterations'
p1598
aS'factor'
p1599
aS'nlgeom'
p1600
aS'nlmat'
p1601
aS'displacements'
p1602
aS'loads'
p1603
aS'type'
p1604
aS'tolerance'
p1605
aS'modify'
p1606
asS'increments'
p1607
I1
sS'iterations'
p1608
I100
sS'tolerance'
p1609
F0.01
sS'factor'
p1610
F1.0
sS'nlgeom'
p1611
I00
sS'nlmat'
p1612
I01
sS'displacements'
p1613
(lp1614
sS'loads'
p1615
(lp1616
g644
asS'modify'
p1617
I01
sS'type'
p1618
S'static'
p1619
sbsg1366
g0
(g1588
g2
Ntp1620
Rp1621
(dp1622
g15
I2
sg1592
g1593
sg1594
g1366
sg1595
(lp1623
g589
ag1597
ag1598
ag1599
ag1600
ag1601
ag1602
ag1603
ag1604
ag1605
ag1606
asg1607
I1
sg1608
I100
sg1609
F0.01
sg1610
F1.0
sg1611
I00
sg1612
I01
sg1613
(lp1624
sg1615
(lp1625
g623
ag609
ag602
asg1617
I01
sg1618
g1619
sbsg1367
g0
(g1588
g2
Ntp1626
Rp1627
(dp1628
g15
I3
sg1592
g1593
sg1594
g1367
sg1595
(lp1629
g589
ag1597
ag1598
ag1599
ag1600
ag1601
ag1602
ag1603
ag1604
ag1605
ag1606
asg1607
I1
sg1608
I100
sg1609
F0.01
sg1610
F1.0
sg1611
I00
sg1612
I01
sg1613
(lp1630
sg1615
(lp1631
g637
ag616
ag630
ag655
ag594
ag571
asg1617
I01
sg1618
g1619
sbsg1368
g0
(g1588
g2
Ntp1632
Rp1633
(dp1634
g15
I0
sg1592
g1593
sg1594
g1368
sg1595
(lp1635
g589
ag1597
ag1598
ag1599
ag1600
ag1601
ag1602
ag1603
ag1604
ag1605
ag1606
asg1607
I1
sg1608
I100
sg1609
F0.01
sg1610
F1.0
sg1611
I00
sg1612
I01
sg1613
(lp1636
g10
ag31
asg1615
(lp1637
sg1617
I01
sg1618
g1619
sbssS'loc_coor'
p1638
(dp1639
sS'steps_order'
p1640
(lp1641
g1368
ag1364
ag1366
ag1367
asS'tol'
p1642
S'3'
p1643
sS'virtual_nodes'
p1644
(dp1645
sS'virtual_node_index'
p1646
(dp1647
sS'virtual_elements'
p1648
(dp1649
sS'virtual_element_index'
p1650
(dp1651
sb.