ccopy_reg
_reconstructor
p0
(ccompas_fea.structure.structure
Structure
p1
c__builtin__
object
p2
Ntp3
Rp4
(dp5
S'constraints'
p6
(dp7
sS'displacements'
p8
(dp9
S'nset_pinned_set_disp_1'
p10
g0
(ccompas_fea.structure.displacement
GeneralDisplacement
p11
g2
Ntp12
Rp13
(dp14
S'index'
p15
I0
sS'__name__'
p16
S'GeneralDisplacement'
p17
sS'name'
p18
g10
sS'nodes'
p19
S'nset_support_wall1'
p20
sS'components'
p21
(dp22
S'z'
p23
I0
sS'xx'
p24
I0
sS'zz'
p25
I0
sS'yy'
p26
I0
sS'y'
p27
I0
sS'x'
p28
I0
ssS'axes'
p29
S'global'
p30
sbsS'nset_pinned_set_disp_2'
p31
g0
(g11
g2
Ntp32
Rp33
(dp34
g15
I1
sg16
g17
sg18
g31
sg19
S'nset_support_wall2'
p35
sg21
(dp36
g23
I0
sg24
I0
sg25
I0
sg26
I0
sg27
I0
sg28
I0
ssg29
g30
sbssS'elements'
p37
(dp38
I0
g0
(ccompas_fea.structure.element
ShellElement
p39
g2
Ntp40
Rp41
(dp42
S'mass'
p43
NsS'__name__'
p44
S'ShellElement'
p45
sS'nodes'
p46
(lp47
I0
aI1
aI3
aI2
asS'number'
p48
I0
sS'thermal'
p49
I00
sS'axes'
p50
(dp51
S'ey'
p52
NsS'ez'
p53
NsS'ex'
p54
NssS'element_property'
p55
S'elset_plate_1_element_prop'
p56
sbsI1
g0
(g39
g2
Ntp57
Rp58
(dp59
g43
Nsg44
g45
sg46
(lp60
I2
aI3
aI5
aI4
asg48
I1
sg49
I00
sg50
g51
sg55
g56
sbsI2
g0
(g39
g2
Ntp61
Rp62
(dp63
g43
Nsg44
g45
sg46
(lp64
I4
aI5
aI7
aI6
asg48
I2
sg49
I00
sg50
g51
sg55
g56
sbsI3
g0
(g39
g2
Ntp65
Rp66
(dp67
g43
Nsg44
g45
sg46
(lp68
I6
aI7
aI9
aI8
asg48
I3
sg49
I00
sg50
g51
sg55
g56
sbsI4
g0
(g39
g2
Ntp69
Rp70
(dp71
g43
Nsg44
g45
sg46
(lp72
I10
aI11
aI13
aI12
asg48
I4
sg49
I00
sg50
(dp73
g52
Nsg53
Nsg54
Nssg55
S'elset_plate_2_element_prop'
p74
sbsI5
g0
(g39
g2
Ntp75
Rp76
(dp77
g43
Nsg44
g45
sg46
(lp78
I12
aI13
aI15
aI14
asg48
I5
sg49
I00
sg50
g73
sg55
g74
sbsI6
g0
(g39
g2
Ntp79
Rp80
(dp81
g43
Nsg44
g45
sg46
(lp82
I14
aI15
aI17
aI16
asg48
I6
sg49
I00
sg50
g73
sg55
g74
sbsI7
g0
(g39
g2
Ntp83
Rp84
(dp85
g43
Nsg44
g45
sg46
(lp86
I16
aI17
aI19
aI18
asg48
I7
sg49
I00
sg50
g73
sg55
g74
sbsI8
g0
(g39
g2
Ntp87
Rp88
(dp89
g43
Nsg44
g45
sg46
(lp90
I1
aI20
aI21
aI3
asg48
I8
sg49
I00
sg50
(dp91
g52
Nsg53
Nsg54
Nssg55
S'elset_plate_3_element_prop'
p92
sbsI9
g0
(g39
g2
Ntp93
Rp94
(dp95
g43
Nsg44
g45
sg46
(lp96
I3
aI21
aI22
aI5
asg48
I9
sg49
I00
sg50
g91
sg55
g92
sbsI10
g0
(g39
g2
Ntp97
Rp98
(dp99
g43
Nsg44
g45
sg46
(lp100
I5
aI22
aI23
aI7
asg48
I10
sg49
I00
sg50
g91
sg55
g92
sbsI11
g0
(g39
g2
Ntp101
Rp102
(dp103
g43
Nsg44
g45
sg46
(lp104
I7
aI23
aI24
aI9
asg48
I11
sg49
I00
sg50
g91
sg55
g92
sbsI12
g0
(g39
g2
Ntp105
Rp106
(dp107
g43
Nsg44
g45
sg46
(lp108
I11
aI25
aI26
aI13
asg48
I12
sg49
I00
sg50
(dp109
g52
Nsg53
Nsg54
Nssg55
S'elset_plate_4_element_prop'
p110
sbsI13
g0
(g39
g2
Ntp111
Rp112
(dp113
g43
Nsg44
g45
sg46
(lp114
I13
aI26
aI27
aI15
asg48
I13
sg49
I00
sg50
g109
sg55
g110
sbsI14
g0
(g39
g2
Ntp115
Rp116
(dp117
g43
Nsg44
g45
sg46
(lp118
I15
aI27
aI28
aI17
asg48
I14
sg49
I00
sg50
g109
sg55
g110
sbsI15
g0
(g39
g2
Ntp119
Rp120
(dp121
g43
Nsg44
g45
sg46
(lp122
I17
aI28
aI29
aI19
asg48
I15
sg49
I00
sg50
g109
sg55
g110
sbsI16
g0
(g39
g2
Ntp123
Rp124
(dp125
g43
Nsg44
g45
sg46
(lp126
I20
aI30
aI31
aI21
asg48
I16
sg49
I00
sg50
(dp127
g52
Nsg53
Nsg54
Nssg55
S'elset_plate_5_element_prop'
p128
sbsI17
g0
(g39
g2
Ntp129
Rp130
(dp131
g43
Nsg44
g45
sg46
(lp132
I21
aI31
aI32
aI22
asg48
I17
sg49
I00
sg50
g127
sg55
g128
sbsI18
g0
(g39
g2
Ntp133
Rp134
(dp135
g43
Nsg44
g45
sg46
(lp136
I22
aI32
aI33
aI23
asg48
I18
sg49
I00
sg50
g127
sg55
g128
sbsI19
g0
(g39
g2
Ntp137
Rp138
(dp139
g43
Nsg44
g45
sg46
(lp140
I23
aI33
aI34
aI24
asg48
I19
sg49
I00
sg50
g127
sg55
g128
sbsI20
g0
(g39
g2
Ntp141
Rp142
(dp143
g43
Nsg44
g45
sg46
(lp144
I25
aI35
aI36
aI26
asg48
I20
sg49
I00
sg50
(dp145
g52
Nsg53
Nsg54
Nssg55
S'elset_plate_6_element_prop'
p146
sbsI21
g0
(g39
g2
Ntp147
Rp148
(dp149
g43
Nsg44
g45
sg46
(lp150
I26
aI36
aI37
aI27
asg48
I21
sg49
I00
sg50
g145
sg55
g146
sbsI22
g0
(g39
g2
Ntp151
Rp152
(dp153
g43
Nsg44
g45
sg46
(lp154
I27
aI37
aI38
aI28
asg48
I22
sg49
I00
sg50
g145
sg55
g146
sbsI23
g0
(g39
g2
Ntp155
Rp156
(dp157
g43
Nsg44
g45
sg46
(lp158
I28
aI38
aI39
aI29
asg48
I23
sg49
I00
sg50
g145
sg55
g146
sbsI24
g0
(g39
g2
Ntp159
Rp160
(dp161
g43
Nsg44
g45
sg46
(lp162
I8
aI9
aI41
aI40
asg48
I24
sg49
I00
sg50
(dp163
g52
Nsg53
Nsg54
Nssg55
S'elset_plate_7_element_prop'
p164
sbsI25
g0
(g39
g2
Ntp165
Rp166
(dp167
g43
Nsg44
g45
sg46
(lp168
I40
aI41
aI43
aI42
asg48
I25
sg49
I00
sg50
g163
sg55
g164
sbsI26
g0
(g39
g2
Ntp169
Rp170
(dp171
g43
Nsg44
g45
sg46
(lp172
I42
aI43
aI45
aI44
asg48
I26
sg49
I00
sg50
g163
sg55
g164
sbsI27
g0
(g39
g2
Ntp173
Rp174
(dp175
g43
Nsg44
g45
sg46
(lp176
I44
aI45
aI11
aI10
asg48
I27
sg49
I00
sg50
g163
sg55
g164
sbsI28
g0
(g39
g2
Ntp177
Rp178
(dp179
g43
Nsg44
g45
sg46
(lp180
I9
aI24
aI46
aI41
asg48
I28
sg49
I00
sg50
(dp181
g52
Nsg53
Nsg54
Nssg55
S'elset_plate_8_element_prop'
p182
sbsI29
g0
(g39
g2
Ntp183
Rp184
(dp185
g43
Nsg44
g45
sg46
(lp186
I41
aI46
aI47
aI43
asg48
I29
sg49
I00
sg50
g181
sg55
g182
sbsI30
g0
(g39
g2
Ntp187
Rp188
(dp189
g43
Nsg44
g45
sg46
(lp190
I43
aI47
aI48
aI45
asg48
I30
sg49
I00
sg50
g181
sg55
g182
sbsI31
g0
(g39
g2
Ntp191
Rp192
(dp193
g43
Nsg44
g45
sg46
(lp194
I45
aI48
aI25
aI11
asg48
I31
sg49
I00
sg50
g181
sg55
g182
sbsI32
g0
(g39
g2
Ntp195
Rp196
(dp197
g43
Nsg44
g45
sg46
(lp198
I24
aI34
aI49
aI46
asg48
I32
sg49
I00
sg50
(dp199
g52
Nsg53
Nsg54
Nssg55
S'elset_plate_9_element_prop'
p200
sbsI33
g0
(g39
g2
Ntp201
Rp202
(dp203
g43
Nsg44
g45
sg46
(lp204
I46
aI49
aI50
aI47
asg48
I33
sg49
I00
sg50
g199
sg55
g200
sbsI34
g0
(g39
g2
Ntp205
Rp206
(dp207
g43
Nsg44
g45
sg46
(lp208
I47
aI50
aI51
aI48
asg48
I34
sg49
I00
sg50
g199
sg55
g200
sbsI35
g0
(g39
g2
Ntp209
Rp210
(dp211
g43
Nsg44
g45
sg46
(lp212
I48
aI51
aI35
aI25
asg48
I35
sg49
I00
sg50
g199
sg55
g200
sbsI36
g0
(g39
g2
Ntp213
Rp214
(dp215
g43
Nsg44
g45
sg46
(lp216
I52
aI53
aI55
aI54
asg48
I36
sg49
I00
sg50
(dp217
g52
Nsg53
Nsg54
Nssg55
S'elset_wall_1_1_element_prop'
p218
sbsI37
g0
(g39
g2
Ntp219
Rp220
(dp221
g43
Nsg44
g45
sg46
(lp222
I53
aI56
aI57
aI55
asg48
I37
sg49
I00
sg50
(dp223
g52
Nsg53
Nsg54
Nssg55
S'elset_wall_1_2_element_prop'
p224
sbsI38
g0
(g39
g2
Ntp225
Rp226
(dp227
g43
Nsg44
g45
sg46
(lp228
I56
aI58
aI59
aI57
asg48
I38
sg49
I00
sg50
(dp229
g52
Nsg53
Nsg54
Nssg55
S'elset_wall_1_3_element_prop'
p230
sbsI39
g0
(g39
g2
Ntp231
Rp232
(dp233
g43
Nsg44
g45
sg46
(lp234
I60
aI61
aI53
aI52
asg48
I39
sg49
I00
sg50
(dp235
g52
Nsg53
Nsg54
Nssg55
S'elset_wall_1_4_element_prop'
p236
sbsI40
g0
(g39
g2
Ntp237
Rp238
(dp239
g43
Nsg44
g45
sg46
(lp240
I61
aI62
aI56
aI53
asg48
I40
sg49
I00
sg50
(dp241
g52
Nsg53
Nsg54
Nssg55
S'elset_wall_1_5_element_prop'
p242
sbsI41
g0
(g39
g2
Ntp243
Rp244
(dp245
g43
Nsg44
g45
sg46
(lp246
I62
aI63
aI58
aI56
asg48
I41
sg49
I00
sg50
(dp247
g52
Nsg53
Nsg54
Nssg55
S'elset_wall_1_6_element_prop'
p248
sbsI42
g0
(g39
g2
Ntp249
Rp250
(dp251
g43
Nsg44
g45
sg46
(lp252
I64
aI65
aI61
aI60
asg48
I42
sg49
I00
sg50
(dp253
g52
Nsg53
Nsg54
Nssg55
S'elset_wall_1_7_element_prop'
p254
sbsI43
g0
(g39
g2
Ntp255
Rp256
(dp257
g43
Nsg44
g45
sg46
(lp258
I65
aI66
aI62
aI61
asg48
I43
sg49
I00
sg50
(dp259
g52
Nsg53
Nsg54
Nssg55
S'elset_wall_1_8_element_prop'
p260
sbsI44
g0
(g39
g2
Ntp261
Rp262
(dp263
g43
Nsg44
g45
sg46
(lp264
I66
aI67
aI63
aI62
asg48
I44
sg49
I00
sg50
(dp265
g52
Nsg53
Nsg54
Nssg55
S'elset_wall_1_9_element_prop'
p266
sbsI45
g0
(g39
g2
Ntp267
Rp268
(dp269
g43
Nsg44
g45
sg46
(lp270
I68
aI70
aI71
aI69
asg48
I45
sg49
I00
sg50
(dp271
g52
Nsg53
Nsg54
Nssg55
S'elset_wall_2_1_element_prop'
p272
sbsI46
g0
(g39
g2
Ntp273
Rp274
(dp275
g43
Nsg44
g45
sg46
(lp276
I69
aI71
aI73
aI72
asg48
I46
sg49
I00
sg50
(dp277
g52
Nsg53
Nsg54
Nssg55
S'elset_wall_2_2_element_prop'
p278
sbsI47
g0
(g39
g2
Ntp279
Rp280
(dp281
g43
Nsg44
g45
sg46
(lp282
I72
aI73
aI75
aI74
asg48
I47
sg49
I00
sg50
(dp283
g52
Nsg53
Nsg54
Nssg55
S'elset_wall_2_3_element_prop'
p284
sbsI48
g0
(g39
g2
Ntp285
Rp286
(dp287
g43
Nsg44
g45
sg46
(lp288
I76
aI68
aI69
aI77
asg48
I48
sg49
I00
sg50
(dp289
g52
Nsg53
Nsg54
Nssg55
S'elset_wall_2_4_element_prop'
p290
sbsI49
g0
(g39
g2
Ntp291
Rp292
(dp293
g43
Nsg44
g45
sg46
(lp294
I77
aI69
aI72
aI78
asg48
I49
sg49
I00
sg50
(dp295
g52
Nsg53
Nsg54
Nssg55
S'elset_wall_2_5_element_prop'
p296
sbsI50
g0
(g39
g2
Ntp297
Rp298
(dp299
g43
Nsg44
g45
sg46
(lp300
I78
aI72
aI74
aI79
asg48
I50
sg49
I00
sg50
(dp301
g52
Nsg53
Nsg54
Nssg55
S'elset_wall_2_6_element_prop'
p302
sbsI51
g0
(g39
g2
Ntp303
Rp304
(dp305
g43
Nsg44
g45
sg46
(lp306
I80
aI76
aI77
aI81
asg48
I51
sg49
I00
sg50
(dp307
g52
Nsg53
Nsg54
Nssg55
S'elset_wall_2_7_element_prop'
p308
sbsI52
g0
(g39
g2
Ntp309
Rp310
(dp311
g43
Nsg44
g45
sg46
(lp312
I81
aI77
aI78
aI82
asg48
I52
sg49
I00
sg50
(dp313
g52
Nsg53
Nsg54
Nssg55
S'elset_wall_2_8_element_prop'
p314
sbsI53
g0
(g39
g2
Ntp315
Rp316
(dp317
g43
Nsg44
g45
sg46
(lp318
I82
aI78
aI79
aI83
asg48
I53
sg49
I00
sg50
(dp319
g52
Nsg53
Nsg54
Nssg55
S'elset_wall_2_9_element_prop'
p320
sbsI54
g0
(ccompas_fea.structure.element
MPCElement
p321
g2
Ntp322
Rp323
(dp324
g43
Nsg44
S'MPCElement'
p325
sg46
(lp326
I75
aI39
asg48
I54
sg49
I00
sg50
(dp327
g52
Nsg53
(lp328
F-1.8189894035458565e-12
aF0.0
aF918.42884519976144
asg54
Nssg55
S'elset_mpc_element_prop'
p329
sbsI55
g0
(g321
g2
Ntp330
Rp331
(dp332
g43
Nsg44
g325
sg46
(lp333
I73
aI29
asg48
I55
sg49
I00
sg50
(dp334
g52
Nsg53
(lp335
F-3.637978807091713e-12
aF0.0
aF918.42884519976144
asg54
Nssg55
g329
sbsI56
g0
(g321
g2
Ntp336
Rp337
(dp338
g43
Nsg44
g325
sg46
(lp339
I71
aI19
asg48
I56
sg49
I00
sg50
(dp340
g52
Nsg53
(lp341
F-1.8189894035458565e-12
aF0.0
aF918.42884519976144
asg54
Nssg55
g329
sbsI57
g0
(g321
g2
Ntp342
Rp343
(dp344
g43
Nsg44
g325
sg46
(lp345
I70
aI18
asg48
I57
sg49
I00
sg50
(dp346
g52
Nsg53
(lp347
F0.0
aF0.0
aF918.42884519976144
asg54
Nssg55
g329
sbsI58
g0
(g321
g2
Ntp348
Rp349
(dp350
g43
Nsg44
g325
sg46
(lp351
I59
aI30
asg48
I58
sg49
I00
sg50
(dp352
g52
Nsg53
(lp353
F-1.8189894035458565e-12
aF0.0
aF918.42884519976144
asg54
Nssg55
g329
sbsI59
g0
(g321
g2
Ntp354
Rp355
(dp356
g43
Nsg44
g325
sg46
(lp357
I57
aI20
asg48
I59
sg49
I00
sg50
(dp358
g52
Nsg53
(lp359
F-3.637978807091713e-12
aF0.0
aF918.42884519976144
asg54
Nssg55
g329
sbsI60
g0
(g321
g2
Ntp360
Rp361
(dp362
g43
Nsg44
g325
sg46
(lp363
I55
aI1
asg48
I60
sg49
I00
sg50
(dp364
g52
Nsg53
(lp365
F-1.8189894035458565e-12
aF0.0
aF918.42884519976144
asg54
Nssg55
g329
sbsI61
g0
(g321
g2
Ntp366
Rp367
(dp368
g43
Nsg44
g325
sg46
(lp369
I54
aI0
asg48
I61
sg49
I00
sg50
(dp370
g52
Nsg53
(lp371
F0.0
aF0.0
aF918.42884519976144
asg54
Nssg55
g329
sbssS'element_index'
p372
(dp373
S'2669.972,5973.230,0.000'
p374
I32
sS'0.000,16035.516,-459.214'
p375
I57
sS'530.777,1984.395,0.000'
p376
I1
sS'2669.972,0.000,-2494.168'
p377
I41
sS'530.777,661.465,0.000'
p378
I0
sS'530.777,16035.516,-1438.423'
p379
I45
sS'1592.332,16035.516,-1438.423'
p380
I46
sS'1061.555,0.000,-459.214'
p381
I60
sS'530.777,5973.230,0.000'
p382
I24
sS'530.777,16035.516,-3549.913'
p383
I51
sS'1592.332,16035.516,-2494.168'
p384
I49
sS'2669.972,3307.325,0.000'
p385
I18
sS'2669.972,661.465,0.000'
p386
I16
sS'530.777,3307.325,0.000'
p387
I2
sS'1592.332,3307.325,0.000'
p388
I10
sS'2669.972,4630.255,0.000'
p389
I19
sS'3216.833,0.000,-459.214'
p390
I58
sS'530.777,7336.249,0.000'
p391
I25
sS'2669.972,12728.191,0.000'
p392
I21
sS'1592.332,11405.261,0.000'
p393
I12
sS'2669.972,8699.268,0.000'
p394
I34
sS'2669.972,16035.516,-1438.423'
p395
I47
sS'2669.972,1984.395,0.000'
p396
I17
sS'2123.110,16035.516,-459.214'
p397
I55
sS'1592.332,0.000,-2494.168'
p398
I40
sS'0.000,0.000,-459.214'
p399
I61
sS'1592.332,0.000,-1438.423'
p400
I37
sS'1592.332,1984.395,0.000'
p401
I9
sS'530.777,10062.287,0.000'
p402
I27
sS'530.777,0.000,-1438.423'
p403
I36
sS'1592.332,16035.516,-3549.913'
p404
I52
sS'530.777,0.000,-2494.168'
p405
I39
sS'2669.972,10062.287,0.000'
p406
I35
sS'2669.972,14051.121,0.000'
p407
I22
sS'1592.332,0.000,-3549.913'
p408
I43
sS'2669.972,11405.261,0.000'
p409
I20
sS'2669.972,15374.051,0.000'
p410
I23
sS'1592.332,15374.051,0.000'
p411
I15
sS'530.777,16035.516,-2494.168'
p412
I48
sS'1592.332,12728.191,0.000'
p413
I13
sS'1592.332,661.465,0.000'
p414
I8
sS'1592.332,8699.268,0.000'
p415
I30
sS'3216.833,16035.516,-459.214'
p416
I54
sS'2669.972,0.000,-1438.423'
p417
I38
sS'2669.972,16035.516,-3549.913'
p418
I53
sS'2669.972,16035.516,-2494.168'
p419
I50
sS'1592.332,4630.255,0.000'
p420
I11
sS'530.777,12728.191,0.000'
p421
I5
sS'1592.332,5973.230,0.000'
p422
I28
sS'2669.972,0.000,-3549.913'
p423
I44
sS'1061.555,16035.516,-459.214'
p424
I56
sS'530.777,8699.268,0.000'
p425
I26
sS'1592.332,7336.249,0.000'
p426
I29
sS'1592.332,10062.287,0.000'
p427
I31
sS'530.777,0.000,-3549.913'
p428
I42
sS'530.777,4630.255,0.000'
p429
I3
sS'1592.332,14051.121,0.000'
p430
I14
sS'2123.110,0.000,-459.214'
p431
I59
sS'530.777,11405.261,0.000'
p432
I4
sS'530.777,15374.051,0.000'
p433
I7
sS'530.777,14051.121,0.000'
p434
I6
sS'2669.972,7336.249,0.000'
p435
I33
ssS'element_properties'
p436
(dp437
g290
g0
(ccompas_fea.structure.element_properties
ElementProperties
p438
g2
Ntp439
Rp440
(dp441
S'index'
p442
I21
sS'__name__'
p443
S'ElementProperties'
p444
sS'name'
p445
g290
sS'material'
p446
S'wall_element_mat'
p447
sS'section'
p448
S'wall2_element_sec'
p449
sS'elset'
p450
S'elset_wall_2_4'
p451
sS'elements'
p452
NsS'rebar'
p453
(dp454
sbsg224
g0
(g438
g2
Ntp455
Rp456
(dp457
g442
I10
sg443
g444
sg445
g224
sg446
g447
sg448
S'wall1_element_sec'
p458
sg450
S'elset_wall_1_2'
p459
sg452
Nsg453
g454
sbsg260
g0
(g438
g2
Ntp460
Rp461
(dp462
g442
I16
sg443
g444
sg445
g260
sg446
g447
sg448
g458
sg450
S'elset_wall_1_8'
p463
sg452
Nsg453
g454
sbsg278
g0
(g438
g2
Ntp464
Rp465
(dp466
g442
I19
sg443
g444
sg445
g278
sg446
g447
sg448
g449
sg450
S'elset_wall_2_2'
p467
sg452
Nsg453
g454
sbsg56
g0
(g438
g2
Ntp468
Rp469
(dp470
g442
I0
sg443
g444
sg445
g56
sg446
S'plate_element_mat'
p471
sg448
S'plate_element_sec'
p472
sg450
S'elset_plate_1'
p473
sg452
Nsg453
g454
sbsg296
g0
(g438
g2
Ntp474
Rp475
(dp476
g442
I22
sg443
g444
sg445
g296
sg446
g447
sg448
g449
sg450
S'elset_wall_2_5'
p477
sg452
Nsg453
g454
sbsg200
g0
(g438
g2
Ntp478
Rp479
(dp480
g442
I8
sg443
g444
sg445
g200
sg446
g471
sg448
g472
sg450
S'elset_plate_9'
p481
sg452
Nsg453
g454
sbsg248
g0
(g438
g2
Ntp482
Rp483
(dp484
g442
I14
sg443
g444
sg445
g248
sg446
g447
sg448
g458
sg450
S'elset_wall_1_6'
p485
sg452
Nsg453
g454
sbsg128
g0
(g438
g2
Ntp486
Rp487
(dp488
g442
I4
sg443
g444
sg445
g128
sg446
g471
sg448
g472
sg450
S'elset_plate_5'
p489
sg452
Nsg453
g454
sbsg230
g0
(g438
g2
Ntp490
Rp491
(dp492
g442
I11
sg443
g444
sg445
g230
sg446
g447
sg448
g458
sg450
S'elset_wall_1_3'
p493
sg452
Nsg453
g454
sbsg92
g0
(g438
g2
Ntp494
Rp495
(dp496
g442
I2
sg443
g444
sg445
g92
sg446
g471
sg448
g472
sg450
S'elset_plate_3'
p497
sg452
Nsg453
g454
sbsg284
g0
(g438
g2
Ntp498
Rp499
(dp500
g442
I20
sg443
g444
sg445
g284
sg446
g447
sg448
g449
sg450
S'elset_wall_2_3'
p501
sg452
Nsg453
g454
sbsg302
g0
(g438
g2
Ntp502
Rp503
(dp504
g442
I23
sg443
g444
sg445
g302
sg446
g447
sg448
g449
sg450
S'elset_wall_2_6'
p505
sg452
Nsg453
g454
sbsg236
g0
(g438
g2
Ntp506
Rp507
(dp508
g442
I12
sg443
g444
sg445
g236
sg446
g447
sg448
g458
sg450
S'elset_wall_1_4'
p509
sg452
Nsg453
g454
sbsg266
g0
(g438
g2
Ntp510
Rp511
(dp512
g442
I17
sg443
g444
sg445
g266
sg446
g447
sg448
g458
sg450
S'elset_wall_1_9'
p513
sg452
Nsg453
g454
sbsg182
g0
(g438
g2
Ntp514
Rp515
(dp516
g442
I7
sg443
g444
sg445
g182
sg446
g471
sg448
g472
sg450
S'elset_plate_8'
p517
sg452
Nsg453
g454
sbsg218
g0
(g438
g2
Ntp518
Rp519
(dp520
g442
I9
sg443
g444
sg445
g218
sg446
g447
sg448
g458
sg450
S'elset_wall_1_1'
p521
sg452
Nsg453
g454
sbsg164
g0
(g438
g2
Ntp522
Rp523
(dp524
g442
I6
sg443
g444
sg445
g164
sg446
g471
sg448
g472
sg450
S'elset_plate_7'
p525
sg452
Nsg453
g454
sbsg314
g0
(g438
g2
Ntp526
Rp527
(dp528
g442
I25
sg443
g444
sg445
g314
sg446
g447
sg448
g449
sg450
S'elset_wall_2_8'
p529
sg452
Nsg453
g454
sbsg110
g0
(g438
g2
Ntp530
Rp531
(dp532
g442
I3
sg443
g444
sg445
g110
sg446
g471
sg448
g472
sg450
S'elset_plate_4'
p533
sg452
Nsg453
g454
sbsg74
g0
(g438
g2
Ntp534
Rp535
(dp536
g442
I1
sg443
g444
sg445
g74
sg446
g471
sg448
g472
sg450
S'elset_plate_2'
p537
sg452
Nsg453
g454
sbsg329
g0
(g438
g2
Ntp538
Rp539
(dp540
g442
I27
sg443
g444
sg445
g329
sg446
S'elset_mpc_element_mat'
p541
sg448
S'sec_mpc'
p542
sg450
S'elset_mpcs'
p543
sg452
Nsg453
g454
sbsg254
g0
(g438
g2
Ntp544
Rp545
(dp546
g442
I15
sg443
g444
sg445
g254
sg446
g447
sg448
g458
sg450
S'elset_wall_1_7'
p547
sg452
Nsg453
g454
sbsg308
g0
(g438
g2
Ntp548
Rp549
(dp550
g442
I24
sg443
g444
sg445
g308
sg446
g447
sg448
g449
sg450
S'elset_wall_2_7'
p551
sg452
Nsg453
g454
sbsg320
g0
(g438
g2
Ntp552
Rp553
(dp554
g442
I26
sg443
g444
sg445
g320
sg446
g447
sg448
g449
sg450
S'elset_wall_2_9'
p555
sg452
Nsg453
g454
sbsg272
g0
(g438
g2
Ntp556
Rp557
(dp558
g442
I18
sg443
g444
sg445
g272
sg446
g447
sg448
g449
sg450
S'elset_wall_2_1'
p559
sg452
Nsg453
g454
sbsg146
g0
(g438
g2
Ntp560
Rp561
(dp562
g442
I5
sg443
g444
sg445
g146
sg446
g471
sg448
g472
sg450
S'elset_plate_6'
p563
sg452
Nsg453
g454
sbsg242
g0
(g438
g2
Ntp564
Rp565
(dp566
g442
I13
sg443
g444
sg445
g242
sg446
g447
sg448
g458
sg450
S'elset_wall_1_5'
p567
sg452
Nsg453
g454
sbssS'interactions'
p568
(dp569
sS'loads'
p570
(dp571
S'Gleis1_BAHNLASTEN_Lasteinzugsflache_Lastblock_-3'
p572
g0
(ccompas_fea.structure.load
AreaLoad
p573
g2
Ntp574
Rp575
(dp576
g442
I5
sS'__name__'
p577
S'AreaLoad'
p578
sS'name'
p579
g572
sS'axes'
p580
S'global'
p581
sS'components'
p582
(dp583
S'z'
p584
F0.064515398446622255
sS'y'
p585
I0
sS'x'
p586
I0
ssS'nodes'
p587
(lp588
sS'elements'
p589
(lp590
I1
aI2
aI10
aI11
aI18
asS'attr_list'
p591
(lp592
S'name'
p593
aS'axes'
p594
aS'components'
p595
aS'nodes'
p596
aS'elements'
p597
asbsS'earthPressure_liveLoad'
p598
g0
(g573
g2
Ntp599
Rp600
(dp601
g442
I7
sg577
g578
sg579
g598
sg580
S'local'
p602
sg582
(dp603
g584
F0.037699999999999997
sg585
I0
sg586
I0
ssg587
g588
sg589
(lp604
I37
aI38
aI39
aI40
aI41
aI42
aI43
aI44
aI45
asg591
(lp605
g593
ag594
ag595
ag596
ag597
asbsS'Gleis1_BAHNLASTEN_Lasteinzugsflache_Lastblock_-2'
p606
g0
(g573
g2
Ntp607
Rp608
(dp609
g442
I4
sg577
g578
sg579
g606
sg580
g581
sg582
(dp610
g584
F0.064515398446622255
sg585
I0
sg586
I0
ssg587
g588
sg589
(lp611
I3
aI4
asg591
(lp612
g593
ag594
ag595
ag596
ag597
asbsS'Gleis1_EIGENGEWICHTE_SCHIENE_Lasteinzugsflache'
p613
g0
(g573
g2
Ntp614
Rp615
(dp616
g442
I3
sg577
g578
sg579
g613
sg580
S'global'
p617
sg582
(dp618
g584
F0.0022394179776289011
sg585
I0
sg586
I0
ssg587
g588
sg589
(lp619
I1
aI2
aI3
aI4
aI9
aI10
aI11
aI17
aI18
asg591
(lp620
g593
ag594
ag595
ag596
ag597
asbsS'Gleis1_BAHNLASTEN_Lasteinzugsflache_Lastblock_-4'
p621
g0
(g573
g2
Ntp622
Rp623
(dp624
g442
I6
sg577
g578
sg579
g621
sg580
g581
sg582
(dp625
g584
F0.064515398446622255
sg585
I0
sg586
I0
ssg587
g588
sg589
(lp626
I17
asg591
(lp627
g593
ag594
ag595
ag596
ag597
asbsS'earthPressure_backfill'
p628
g0
(g573
g2
Ntp629
Rp630
(dp631
g442
I2
sg577
g578
sg579
g628
sg580
S'local'
p632
sg582
(dp633
g584
F0.052912221632253308
sg585
I0
sg586
I0
ssg587
g588
sg589
(lp634
g521
ag459
ag493
ag509
ag567
ag485
ag547
ag463
ag513
ag559
ag467
ag501
ag451
ag477
ag505
ag551
ag529
ag555
asg591
(lp635
g593
ag594
ag595
ag596
ag597
asbsS'earthPressure_gravel'
p636
g0
(g573
g2
Ntp637
Rp638
(dp639
g442
I1
sg577
g578
sg579
g636
sg580
S'global'
p640
sg582
(dp641
g584
F0.013500000000000002
sg585
I0
sg586
I0
ssg587
g588
sg589
(lp642
g473
ag537
ag497
ag533
ag489
ag563
ag525
ag517
ag481
asg591
(lp643
g593
ag594
ag595
ag596
ag597
asbsS'load_gravity'
p644
g0
(ccompas_fea.structure.load
GravityLoad
p645
g2
Ntp646
Rp647
(dp648
g15
I0
sg577
S'GravityLoad'
p649
sg579
g644
sg580
S'global'
p650
sg582
(dp651
S'z'
p652
F1.3500000000000001
sS'y'
p653
F0.0
sS'x'
p654
F0.0
ssg587
g588
sg589
(lp655
g473
ag537
ag497
ag533
ag489
ag563
ag525
ag517
ag481
ag521
ag459
ag493
ag509
ag567
ag485
ag547
ag463
ag513
ag559
ag467
ag501
ag451
ag477
ag505
ag551
ag529
ag555
asg591
(lp656
g593
ag594
ag595
ag596
ag597
aS'g'
p657
asS'g'
p658
F-9.8100000000000005
sbssS'materials'
p659
(dp660
S'elset_mpc_element_mat'
p661
g0
(ccompas_fea.structure.material
MPCStiff
p662
g2
Ntp663
Rp664
(dp665
g15
I2
sS'__name__'
p666
S'MPCStiff'
p667
sS'name'
p668
g661
sS'attr_list'
p669
(lp670
g593
aS'E'
p671
aS'v'
p672
aS'G'
p673
aS'p'
p674
aS'tension'
p675
aS'compression'
p676
asS'E'
p677
(dp678
S'E'
p679
L10000000000000L
ssS'v'
p680
(dp681
S'v'
p682
F0.29999999999999999
ssS'G'
p683
(dp684
S'G'
p685
F3846153846153.8462
ssS'p'
p686
F0.10000000000000001
sS'tension'
p687
I01
sS'compression'
p688
I01
sbsg447
g0
(ccompas_fea.structure.material
CMMUsermat
p689
g2
Ntp690
Rp691
(dp692
g15
I1
sg666
S'CMMUsermat'
p693
sg668
g447
sg669
(lp694
g593
aS'E'
p695
aS'v'
p696
aS'G'
p697
aS'p'
p698
aS'R_Rohr'
p699
aS'rho'
p700
aS'oo'
p701
aS'uu'
p702
aS'beton'
p703
aS'fcc'
p704
aS'vc'
p705
aS'ecu'
p706
aS'k_E'
p707
aS'theta_b0'
p708
aS'theta_b1'
p709
aS'k_riss'
p710
aS'Entfestigung'
p711
aS'lambdaTS'
p712
aS'srmx'
p713
aS'srmy'
p714
aS'Begrenzung'
p715
aS'KritQ'
p716
aS'winkelD'
p717
aS'k_vr'
p718
aS'fswy'
p719
aS'stahl1'
p720
aS'zm1'
p721
aS'fsy1'
p722
aS'fsu1'
p723
aS'esu1'
p724
aS'esv1'
p725
aS'Es1'
p726
aS'ka1'
p727
aS'kb1'
p728
aS'kc1'
p729
aS'as1'
p730
aS'dm1'
p731
aS'psi1'
p732
aS'stahl2'
p733
aS'zm2'
p734
aS'fsy2'
p735
aS'fsu2'
p736
aS'esu2'
p737
aS'esv2'
p738
aS'Es2'
p739
aS'ka2'
p740
aS'kb2'
p741
aS'kc2'
p742
aS'as2'
p743
aS'dm2'
p744
aS'psi2'
p745
aS'stahl3'
p746
aS'zm3'
p747
aS'fsy3'
p748
aS'fsu3'
p749
aS'esu3'
p750
aS'esv3'
p751
aS'Es3'
p752
aS'ka3'
p753
aS'kb3'
p754
aS'kc3'
p755
aS'as3'
p756
aS'dm3'
p757
aS'psi3'
p758
aS'stahl4'
p759
aS'zm4'
p760
aS'fsy4'
p761
aS'fsu4'
p762
aS'esu4'
p763
aS'esv4'
p764
aS'Es4'
p765
aS'ka4'
p766
aS'kb4'
p767
aS'kc4'
p768
aS'as4'
p769
aS'dm4'
p770
aS'psi4'
p771
asS'E'
p772
(dp773
S'E'
p774
I200000
ssS'v'
p775
(dp776
S'v'
p777
F0.10000000000000001
ssS'G'
p778
(dp779
S'G'
p780
F90909.090909090897
ssS'p'
p781
F2.5000000000000002e-06
sS'R_Rohr'
p782
(dp783
S'R_Rohr'
p784
I-1
ssS'rho'
p785
(dp786
S'rho'
p787
F2.5000000000000002e-06
ssS'oo'
p788
(dp789
S'oo'
p790
I30
ssS'uu'
p791
(dp792
S'uu'
p793
I30
ssS'beton'
p794
(dp795
S'beton'
p796
I2
ssS'fcc'
p797
(dp798
S'fcc'
p799
I36
ssS'vc'
p800
(dp801
S'vc'
p802
I0
ssS'ecu'
p803
(dp804
S'ecu'
p805
F-0.002
ssS'k_E'
p806
(dp807
S'k_E'
p808
I10000
ssS'theta_b0'
p809
(dp810
S'theta_b0'
p811
I2
ssS'theta_b1'
p812
(dp813
S'theta_b1'
p814
I1
ssS'k_riss'
p815
(dp816
S'k_riss'
p817
I0
ssS'Entfestigung'
p818
(dp819
S'Entfestigung'
p820
I0
ssS'lambdaTS'
p821
(dp822
S'lambdaTS'
p823
F0.67000000000000004
ssS'srmx'
p824
(dp825
S'srmx'
p826
I1
ssS'srmy'
p827
(dp828
S'srmy'
p829
I1
ssS'Begrenzung'
p830
(dp831
S'Begrenzung'
p832
I2
ssS'KritQ'
p833
(dp834
S'KritQ'
p835
I0
ssS'winkelD'
p836
(dp837
S'winkelD'
p838
I45
ssS'k_vr'
p839
(dp840
S'k_vr'
p841
I1
ssS'fswy'
p842
(dp843
S'fswy'
p844
I500
ssS'stahl1'
p845
(dp846
S'stahl1'
p847
I1
ssS'zm1'
p848
(dp849
S'zm1'
p850
I2
ssS'fsy1'
p851
(dp852
S'fsy1'
p853
I380
ssS'fsu1'
p854
(dp855
S'fsu1'
p856
I411
ssS'esu1'
p857
(dp858
S'esu1'
p859
F0.044999999999999998
ssS'esv1'
p860
(dp861
S'esv1'
p862
F0.02
ssS'Es1'
p863
(dp864
S'Es1'
p865
I200000
ssS'ka1'
p866
(dp867
S'ka1'
p868
I-1
ssS'kb1'
p869
(dp870
S'kb1'
p871
I-1
ssS'kc1'
p872
(dp873
S'kc1'
p874
I-1
ssS'as1'
p875
(dp876
S'as1'
p877
F0.63855620713483718
ssS'dm1'
p878
(dp879
S'dm1'
p880
F16.612205826902528
ssS'psi1'
p881
(dp882
S'psi1'
p883
I90
ssS'stahl2'
p884
(dp885
S'stahl2'
p886
I1
ssS'zm2'
p887
(dp888
S'zm2'
p889
I2
ssS'fsy2'
p890
(dp891
S'fsy2'
p892
I380
ssS'fsu2'
p893
(dp894
S'fsu2'
p895
I411
ssS'esu2'
p896
(dp897
S'esu2'
p898
F0.044999999999999998
ssS'esv2'
p899
(dp900
S'esv2'
p901
F0.02
ssS'Es2'
p902
(dp903
S'Es2'
p904
I200000
ssS'ka2'
p905
(dp906
S'ka2'
p907
I-1
ssS'kb2'
p908
(dp909
S'kb2'
p910
I-1
ssS'kc2'
p911
(dp912
S'kc2'
p913
I-1
ssS'as2'
p914
(dp915
S'as2'
p916
F0.33320155236843862
ssS'dm2'
p917
(dp918
S'dm2'
p919
F12.0
ssS'psi2'
p920
(dp921
S'psi2'
p922
I0
ssS'stahl3'
p923
(dp924
S'stahl3'
p925
I1
ssS'zm3'
p926
(dp927
S'zm3'
p928
I2
ssS'fsy3'
p929
(dp930
S'fsy3'
p931
I380
ssS'fsu3'
p932
(dp933
S'fsu3'
p934
I411
ssS'esu3'
p935
(dp936
S'esu3'
p937
F0.044999999999999998
ssS'esv3'
p938
(dp939
S'esv3'
p940
F0.02
ssS'Es3'
p941
(dp942
S'Es3'
p943
I200000
ssS'ka3'
p944
(dp945
S'ka3'
p946
I-1
ssS'kb3'
p947
(dp948
S'kb3'
p949
I-1
ssS'kc3'
p950
(dp951
S'kc3'
p952
I-1
ssS'as3'
p953
(dp954
S'as3'
p955
F0.33320155236843862
ssS'dm3'
p956
(dp957
S'dm3'
p958
F12.0
ssS'psi3'
p959
(dp960
S'psi3'
p961
I0
ssS'stahl4'
p962
(dp963
S'stahl4'
p964
I1
ssS'zm4'
p965
(dp966
S'zm4'
p967
I2
ssS'fsy4'
p968
(dp969
S'fsy4'
p970
I380
ssS'fsu4'
p971
(dp972
S'fsu4'
p973
I411
ssS'esu4'
p974
(dp975
S'esu4'
p976
F0.044999999999999998
ssS'esv4'
p977
(dp978
S'esv4'
p979
F0.02
ssS'Es4'
p980
(dp981
S'Es4'
p982
I200000
ssS'ka4'
p983
(dp984
S'ka4'
p985
I-1
ssS'kb4'
p986
(dp987
S'kb4'
p988
I-1
ssS'kc4'
p989
(dp990
S'kc4'
p991
I-1
ssS'as4'
p992
(dp993
S'as4'
p994
F1.6535783867636045
ssS'dm4'
p995
(dp996
S'dm4'
p997
F26.732534229600361
ssS'psi4'
p998
(dp999
S'psi4'
p1000
I90
ssbsg471
g0
(g689
g2
Ntp1001
Rp1002
(dp1003
g15
I0
sg666
g693
sg668
g471
sg669
(lp1004
g593
ag695
ag696
ag697
ag698
ag699
ag700
ag701
ag702
ag703
ag704
ag705
ag706
ag707
ag708
ag709
ag710
ag711
ag712
ag713
ag714
ag715
ag716
ag717
ag718
ag719
ag720
ag721
ag722
ag723
ag724
ag725
ag726
ag727
ag728
ag729
ag730
ag731
ag732
ag733
ag734
ag735
ag736
ag737
ag738
ag739
ag740
ag741
ag742
ag743
ag744
ag745
ag746
ag747
ag748
ag749
ag750
ag751
ag752
ag753
ag754
ag755
ag756
ag757
ag758
ag759
ag760
ag761
ag762
ag763
ag764
ag765
ag766
ag767
ag768
ag769
ag770
ag771
asg772
(dp1005
g774
I200000
ssg775
(dp1006
g777
F0.10000000000000001
ssg778
(dp1007
g780
F90909.090909090897
ssg781
F2.5000000000000002e-06
sg782
(dp1008
g784
I-1
ssg785
(dp1009
g787
F2.5000000000000002e-06
ssg788
(dp1010
g790
I30
ssg791
(dp1011
g793
I30
ssg794
(dp1012
g796
I2
ssg797
(dp1013
g799
I36
ssg800
(dp1014
g802
I0
ssg803
(dp1015
g805
F-0.002
ssg806
(dp1016
g808
I10000
ssg809
(dp1017
g811
I2
ssg812
(dp1018
g814
I1
ssg815
(dp1019
g817
I0
ssg818
(dp1020
g820
I0
ssg821
(dp1021
g823
F0.67000000000000004
ssg824
(dp1022
g826
I1
ssg827
(dp1023
g829
I1
ssg830
(dp1024
g832
I2
ssg833
(dp1025
g835
I0
ssg836
(dp1026
g838
I45
ssg839
(dp1027
g841
I1
ssg842
(dp1028
g844
I500
ssg845
(dp1029
g847
I1
ssg848
(dp1030
g850
I2
ssg851
(dp1031
g853
I380
ssg854
(dp1032
g856
I411
ssg857
(dp1033
g859
F0.044999999999999998
ssg860
(dp1034
g862
F0.02
ssg863
(dp1035
g865
I200000
ssg866
(dp1036
g868
I-1
ssg869
(dp1037
g871
I-1
ssg872
(dp1038
g874
I-1
ssg875
(dp1039
g877
F1.5662396044974045
ssg878
(dp1040
g880
F26.853857623833104
ssg881
(dp1041
g883
I90
ssg884
(dp1042
g886
I1
ssg887
(dp1043
g889
I2
ssg890
(dp1044
g892
I380
ssg893
(dp1045
g895
I411
ssg896
(dp1046
g898
F0.044999999999999998
ssg899
(dp1047
g901
F0.02
ssg902
(dp1048
g904
I200000
ssg905
(dp1049
g907
I-1
ssg908
(dp1050
g910
I-1
ssg911
(dp1051
g913
I-1
ssg914
(dp1052
g916
F0.85993514930717085
ssg917
(dp1053
g919
F19.898046052414728
ssg920
(dp1054
g922
I0
ssg923
(dp1055
g925
I1
ssg926
(dp1056
g928
I2
ssg929
(dp1057
g931
I380
ssg932
(dp1058
g934
I411
ssg935
(dp1059
g937
F0.044999999999999998
ssg938
(dp1060
g940
F0.02
ssg941
(dp1061
g943
I200000
ssg944
(dp1062
g946
I-1
ssg947
(dp1063
g949
I-1
ssg950
(dp1064
g952
I-1
ssg953
(dp1065
g955
F0.31275720949391478
ssg956
(dp1066
g958
F12.0
ssg959
(dp1067
g961
I0
ssg962
(dp1068
g964
I1
ssg965
(dp1069
g967
I2
ssg968
(dp1070
g970
I380
ssg971
(dp1071
g973
I411
ssg974
(dp1072
g976
F0.044999999999999998
ssg977
(dp1073
g979
F0.02
ssg980
(dp1074
g982
I200000
ssg983
(dp1075
g985
I-1
ssg986
(dp1076
g988
I-1
ssg989
(dp1077
g991
I-1
ssg992
(dp1078
g994
F0.2398531277225382
ssg995
(dp1079
g997
F10.508730978189016
ssg998
(dp1080
g1000
I90
ssbssS'misc'
p1081
(dp1082
sS'name'
p1083
S'NLFE_CFB2'
p1084
sS'nodes'
p1085
(dp1086
I0
g0
(ccompas_fea.structure.node
Node
p1087
g2
Ntp1088
Rp1089
(dp1090
S'__name__'
p1091
S'Node'
p1092
sS'key'
p1093
I0
sS'x'
p1094
F0.0
sS'y'
p1095
F0.0
sS'z'
p1096
F0.0
sS'ex'
p1097
(lp1098
I1
aI0
aI0
asS'ey'
p1099
(lp1100
I0
aI1
aI0
asS'ez'
p1101
(lp1102
I0
aI0
aI1
asS'mass'
p1103
NsbsI1
g0
(g1087
g2
Ntp1104
Rp1105
(dp1106
g1091
g1092
sg1093
I1
sg1094
F1061.5549850176981
sg1095
F0.0
sg1096
F0.0
sg1097
g1098
sg1099
g1100
sg1101
g1102
sg1103
NsbsI2
g0
(g1087
g2
Ntp1107
Rp1108
(dp1109
g1091
g1092
sg1093
I2
sg1094
F0.0
sg1095
F1322.9301078715912
sg1096
F0.0
sg1097
g1098
sg1099
g1100
sg1101
g1102
sg1103
NsbsI3
g0
(g1087
g2
Ntp1110
Rp1111
(dp1112
g1091
g1092
sg1093
I3
sg1094
F1061.5549850176981
sg1095
F1322.9301078715912
sg1096
F0.0
sg1097
g1098
sg1099
g1100
sg1101
g1102
sg1103
NsbsI4
g0
(g1087
g2
Ntp1113
Rp1114
(dp1115
g1091
g1092
sg1093
I4
sg1094
F0.0
sg1095
F2645.8602157431824
sg1096
F0.0
sg1097
g1098
sg1099
g1100
sg1101
g1102
sg1103
NsbsI5
g0
(g1087
g2
Ntp1116
Rp1117
(dp1118
g1091
g1092
sg1093
I5
sg1094
F1061.5549850176981
sg1095
F2645.8602157431824
sg1096
F0.0
sg1097
g1098
sg1099
g1100
sg1101
g1102
sg1103
NsbsI6
g0
(g1087
g2
Ntp1119
Rp1120
(dp1121
g1091
g1092
sg1093
I6
sg1094
F0.0
sg1095
F3968.7903236147736
sg1096
F0.0
sg1097
g1098
sg1099
g1100
sg1101
g1102
sg1103
NsbsI7
g0
(g1087
g2
Ntp1122
Rp1123
(dp1124
g1091
g1092
sg1093
I7
sg1094
F1061.5549850176981
sg1095
F3968.7903236147736
sg1096
F0.0
sg1097
g1098
sg1099
g1100
sg1101
g1102
sg1103
NsbsI8
g0
(g1087
g2
Ntp1125
Rp1126
(dp1127
g1091
g1092
sg1093
I8
sg1094
F0.0
sg1095
F5291.7204314863648
sg1096
F0.0
sg1097
g1098
sg1099
g1100
sg1101
g1102
sg1103
NsbsI9
g0
(g1087
g2
Ntp1128
Rp1129
(dp1130
g1091
g1092
sg1093
I9
sg1094
F1061.5549850176981
sg1095
F5291.7204314863648
sg1096
F0.0
sg1097
g1098
sg1099
g1100
sg1101
g1102
sg1103
NsbsI10
g0
(g1087
g2
Ntp1131
Rp1132
(dp1133
g1091
g1092
sg1093
I10
sg1094
F0.0
sg1095
F10743.796027563225
sg1096
F0.0
sg1097
g1098
sg1099
g1100
sg1101
g1102
sg1103
NsbsI11
g0
(g1087
g2
Ntp1134
Rp1135
(dp1136
g1091
g1092
sg1093
I11
sg1094
F1061.5549850176981
sg1095
F10743.796027563225
sg1096
F0.0
sg1097
g1098
sg1099
g1100
sg1101
g1102
sg1103
NsbsI12
g0
(g1087
g2
Ntp1137
Rp1138
(dp1139
g1091
g1092
sg1093
I12
sg1094
F0.0
sg1095
F12066.726135434816
sg1096
F0.0
sg1097
g1098
sg1099
g1100
sg1101
g1102
sg1103
NsbsI13
g0
(g1087
g2
Ntp1140
Rp1141
(dp1142
g1091
g1092
sg1093
I13
sg1094
F1061.5549850176981
sg1095
F12066.726135434816
sg1096
F0.0
sg1097
g1098
sg1099
g1100
sg1101
g1102
sg1103
NsbsI14
g0
(g1087
g2
Ntp1143
Rp1144
(dp1145
g1091
g1092
sg1093
I14
sg1094
F0.0
sg1095
F13389.656243306406
sg1096
F0.0
sg1097
g1098
sg1099
g1100
sg1101
g1102
sg1103
NsbsI15
g0
(g1087
g2
Ntp1146
Rp1147
(dp1148
g1091
g1092
sg1093
I15
sg1094
F1061.5549850176981
sg1095
F13389.656243306406
sg1096
F0.0
sg1097
g1098
sg1099
g1100
sg1101
g1102
sg1103
NsbsI16
g0
(g1087
g2
Ntp1149
Rp1150
(dp1151
g1091
g1092
sg1093
I16
sg1094
F0.0
sg1095
F14712.586351177997
sg1096
F0.0
sg1097
g1098
sg1099
g1100
sg1101
g1102
sg1103
NsbsI17
g0
(g1087
g2
Ntp1152
Rp1153
(dp1154
g1091
g1092
sg1093
I17
sg1094
F1061.5549850176981
sg1095
F14712.586351177997
sg1096
F0.0
sg1097
g1098
sg1099
g1100
sg1101
g1102
sg1103
NsbsI18
g0
(g1087
g2
Ntp1155
Rp1156
(dp1157
g1091
g1092
sg1093
I18
sg1094
F0.0
sg1095
F16035.51645904959
sg1096
F0.0
sg1097
g1098
sg1099
g1100
sg1101
g1102
sg1103
NsbsI19
g0
(g1087
g2
Ntp1158
Rp1159
(dp1160
g1091
g1092
sg1093
I19
sg1094
F1061.5549850176981
sg1095
F16035.51645904959
sg1096
F0.0
sg1097
g1098
sg1099
g1100
sg1101
g1102
sg1103
NsbsI20
g0
(g1087
g2
Ntp1161
Rp1162
(dp1163
g1091
g1092
sg1093
I20
sg1094
F2123.1099700353961
sg1095
F0.0
sg1096
F0.0
sg1097
g1098
sg1099
g1100
sg1101
g1102
sg1103
NsbsI21
g0
(g1087
g2
Ntp1164
Rp1165
(dp1166
g1091
g1092
sg1093
I21
sg1094
F2123.1099700353961
sg1095
F1322.9301078715912
sg1096
F0.0
sg1097
g1098
sg1099
g1100
sg1101
g1102
sg1103
NsbsI22
g0
(g1087
g2
Ntp1167
Rp1168
(dp1169
g1091
g1092
sg1093
I22
sg1094
F2123.1099700353961
sg1095
F2645.8602157431824
sg1096
F0.0
sg1097
g1098
sg1099
g1100
sg1101
g1102
sg1103
NsbsI23
g0
(g1087
g2
Ntp1170
Rp1171
(dp1172
g1091
g1092
sg1093
I23
sg1094
F2123.1099700353961
sg1095
F3968.7903236147736
sg1096
F0.0
sg1097
g1098
sg1099
g1100
sg1101
g1102
sg1103
NsbsI24
g0
(g1087
g2
Ntp1173
Rp1174
(dp1175
g1091
g1092
sg1093
I24
sg1094
F2123.1099700353961
sg1095
F5291.7204314863648
sg1096
F0.0
sg1097
g1098
sg1099
g1100
sg1101
g1102
sg1103
NsbsI25
g0
(g1087
g2
Ntp1176
Rp1177
(dp1178
g1091
g1092
sg1093
I25
sg1094
F2123.1099700353961
sg1095
F10743.796027563225
sg1096
F0.0
sg1097
g1098
sg1099
g1100
sg1101
g1102
sg1103
NsbsI26
g0
(g1087
g2
Ntp1179
Rp1180
(dp1181
g1091
g1092
sg1093
I26
sg1094
F2123.1099700353961
sg1095
F12066.726135434816
sg1096
F0.0
sg1097
g1098
sg1099
g1100
sg1101
g1102
sg1103
NsbsI27
g0
(g1087
g2
Ntp1182
Rp1183
(dp1184
g1091
g1092
sg1093
I27
sg1094
F2123.1099700353961
sg1095
F13389.656243306406
sg1096
F0.0
sg1097
g1098
sg1099
g1100
sg1101
g1102
sg1103
NsbsI28
g0
(g1087
g2
Ntp1185
Rp1186
(dp1187
g1091
g1092
sg1093
I28
sg1094
F2123.1099700353961
sg1095
F14712.586351177997
sg1096
F0.0
sg1097
g1098
sg1099
g1100
sg1101
g1102
sg1103
NsbsI29
g0
(g1087
g2
Ntp1188
Rp1189
(dp1190
g1091
g1092
sg1093
I29
sg1094
F2123.1099700353961
sg1095
F16035.51645904959
sg1096
F0.0
sg1097
g1098
sg1099
g1100
sg1101
g1102
sg1103
NsbsI30
g0
(g1087
g2
Ntp1191
Rp1192
(dp1193
g1091
g1092
sg1093
I30
sg1094
F3216.833287932418
sg1095
F0.0
sg1096
F0.0
sg1097
g1098
sg1099
g1100
sg1101
g1102
sg1103
NsbsI31
g0
(g1087
g2
Ntp1194
Rp1195
(dp1196
g1091
g1092
sg1093
I31
sg1094
F3216.833287932418
sg1095
F1322.9301078715912
sg1096
F0.0
sg1097
g1098
sg1099
g1100
sg1101
g1102
sg1103
NsbsI32
g0
(g1087
g2
Ntp1197
Rp1198
(dp1199
g1091
g1092
sg1093
I32
sg1094
F3216.833287932418
sg1095
F2645.8602157431824
sg1096
F0.0
sg1097
g1098
sg1099
g1100
sg1101
g1102
sg1103
NsbsI33
g0
(g1087
g2
Ntp1200
Rp1201
(dp1202
g1091
g1092
sg1093
I33
sg1094
F3216.833287932418
sg1095
F3968.7903236147736
sg1096
F0.0
sg1097
g1098
sg1099
g1100
sg1101
g1102
sg1103
NsbsI34
g0
(g1087
g2
Ntp1203
Rp1204
(dp1205
g1091
g1092
sg1093
I34
sg1094
F3216.833287932418
sg1095
F5291.7204314863648
sg1096
F0.0
sg1097
g1098
sg1099
g1100
sg1101
g1102
sg1103
NsbsI35
g0
(g1087
g2
Ntp1206
Rp1207
(dp1208
g1091
g1092
sg1093
I35
sg1094
F3216.833287932418
sg1095
F10743.796027563225
sg1096
F0.0
sg1097
g1098
sg1099
g1100
sg1101
g1102
sg1103
NsbsI36
g0
(g1087
g2
Ntp1209
Rp1210
(dp1211
g1091
g1092
sg1093
I36
sg1094
F3216.833287932418
sg1095
F12066.726135434816
sg1096
F0.0
sg1097
g1098
sg1099
g1100
sg1101
g1102
sg1103
NsbsI37
g0
(g1087
g2
Ntp1212
Rp1213
(dp1214
g1091
g1092
sg1093
I37
sg1094
F3216.833287932418
sg1095
F13389.656243306406
sg1096
F0.0
sg1097
g1098
sg1099
g1100
sg1101
g1102
sg1103
NsbsI38
g0
(g1087
g2
Ntp1215
Rp1216
(dp1217
g1091
g1092
sg1093
I38
sg1094
F3216.833287932418
sg1095
F14712.586351177997
sg1096
F0.0
sg1097
g1098
sg1099
g1100
sg1101
g1102
sg1103
NsbsI39
g0
(g1087
g2
Ntp1218
Rp1219
(dp1220
g1091
g1092
sg1093
I39
sg1094
F3216.833287932418
sg1095
F16035.51645904959
sg1096
F0.0
sg1097
g1098
sg1099
g1100
sg1101
g1102
sg1103
NsbsI40
g0
(g1087
g2
Ntp1221
Rp1222
(dp1223
g1091
g1092
sg1093
I40
sg1094
F0.0
sg1095
F6654.7393305055793
sg1096
F0.0
sg1097
g1098
sg1099
g1100
sg1101
g1102
sg1103
NsbsI41
g0
(g1087
g2
Ntp1224
Rp1225
(dp1226
g1091
g1092
sg1093
I41
sg1094
F1061.5549850176981
sg1095
F6654.7393305055793
sg1096
F0.0
sg1097
g1098
sg1099
g1100
sg1101
g1102
sg1103
NsbsI42
g0
(g1087
g2
Ntp1227
Rp1228
(dp1229
g1091
g1092
sg1093
I42
sg1094
F0.0
sg1095
F8017.7582295247948
sg1096
F0.0
sg1097
g1098
sg1099
g1100
sg1101
g1102
sg1103
NsbsI43
g0
(g1087
g2
Ntp1230
Rp1231
(dp1232
g1091
g1092
sg1093
I43
sg1094
F1061.5549850176981
sg1095
F8017.7582295247948
sg1096
F0.0
sg1097
g1098
sg1099
g1100
sg1101
g1102
sg1103
NsbsI44
g0
(g1087
g2
Ntp1233
Rp1234
(dp1235
g1091
g1092
sg1093
I44
sg1094
F0.0
sg1095
F9380.7771285440103
sg1096
F0.0
sg1097
g1098
sg1099
g1100
sg1101
g1102
sg1103
NsbsI45
g0
(g1087
g2
Ntp1236
Rp1237
(dp1238
g1091
g1092
sg1093
I45
sg1094
F1061.5549850176981
sg1095
F9380.7771285440103
sg1096
F0.0
sg1097
g1098
sg1099
g1100
sg1101
g1102
sg1103
NsbsI46
g0
(g1087
g2
Ntp1239
Rp1240
(dp1241
g1091
g1092
sg1093
I46
sg1094
F2123.1099700353961
sg1095
F6654.7393305055793
sg1096
F0.0
sg1097
g1098
sg1099
g1100
sg1101
g1102
sg1103
NsbsI47
g0
(g1087
g2
Ntp1242
Rp1243
(dp1244
g1091
g1092
sg1093
I47
sg1094
F2123.1099700353961
sg1095
F8017.7582295247948
sg1096
F0.0
sg1097
g1098
sg1099
g1100
sg1101
g1102
sg1103
NsbsI48
g0
(g1087
g2
Ntp1245
Rp1246
(dp1247
g1091
g1092
sg1093
I48
sg1094
F2123.1099700353961
sg1095
F9380.7771285440103
sg1096
F0.0
sg1097
g1098
sg1099
g1100
sg1101
g1102
sg1103
NsbsI49
g0
(g1087
g2
Ntp1248
Rp1249
(dp1250
g1091
g1092
sg1093
I49
sg1094
F3216.833287932418
sg1095
F6654.7393305055793
sg1096
F0.0
sg1097
g1098
sg1099
g1100
sg1101
g1102
sg1103
NsbsI50
g0
(g1087
g2
Ntp1251
Rp1252
(dp1253
g1091
g1092
sg1093
I50
sg1094
F3216.833287932418
sg1095
F8017.7582295247948
sg1096
F0.0
sg1097
g1098
sg1099
g1100
sg1101
g1102
sg1103
NsbsI51
g0
(g1087
g2
Ntp1254
Rp1255
(dp1256
g1091
g1092
sg1093
I51
sg1094
F3216.833287932418
sg1095
F9380.7771285440103
sg1096
F0.0
sg1097
g1098
sg1099
g1100
sg1101
g1102
sg1103
NsbsI52
g0
(g1087
g2
Ntp1257
Rp1258
(dp1259
g1091
g1092
sg1093
I52
sg1094
F0.0
sg1095
F0.0
sg1096
F-1958.4166558867259
sg1097
g1098
sg1099
g1100
sg1101
g1102
sg1103
NsbsI53
g0
(g1087
g2
Ntp1260
Rp1261
(dp1262
g1091
g1092
sg1093
I53
sg1094
F1061.5549850176999
sg1095
F0.0
sg1096
F-1958.4166558867259
sg1097
g1098
sg1099
g1100
sg1101
g1102
sg1103
NsbsI54
g0
(g1087
g2
Ntp1263
Rp1264
(dp1265
g1091
g1092
sg1093
I54
sg1094
F0.0
sg1095
F0.0
sg1096
F-918.42884519976144
sg1097
g1098
sg1099
g1100
sg1101
g1102
sg1103
NsbsI55
g0
(g1087
g2
Ntp1266
Rp1267
(dp1268
g1091
g1092
sg1093
I55
sg1094
F1061.5549850176999
sg1095
F0.0
sg1096
F-918.42884519976144
sg1097
g1098
sg1099
g1100
sg1101
g1102
sg1103
NsbsI56
g0
(g1087
g2
Ntp1269
Rp1270
(dp1271
g1091
g1092
sg1093
I56
sg1094
F2123.1099700353998
sg1095
F0.0
sg1096
F-1958.4166558867259
sg1097
g1098
sg1099
g1100
sg1101
g1102
sg1103
NsbsI57
g0
(g1087
g2
Ntp1272
Rp1273
(dp1274
g1091
g1092
sg1093
I57
sg1094
F2123.1099700353998
sg1095
F0.0
sg1096
F-918.42884519976144
sg1097
g1098
sg1099
g1100
sg1101
g1102
sg1103
NsbsI58
g0
(g1087
g2
Ntp1275
Rp1276
(dp1277
g1091
g1092
sg1093
I58
sg1094
F3216.8332879324198
sg1095
F0.0
sg1096
F-1958.4166558867259
sg1097
g1098
sg1099
g1100
sg1101
g1102
sg1103
NsbsI59
g0
(g1087
g2
Ntp1278
Rp1279
(dp1280
g1091
g1092
sg1093
I59
sg1094
F3216.8332879324198
sg1095
F0.0
sg1096
F-918.42884519976144
sg1097
g1098
sg1099
g1100
sg1101
g1102
sg1103
NsbsI60
g0
(g1087
g2
Ntp1281
Rp1282
(dp1283
g1091
g1092
sg1093
I60
sg1094
F0.0
sg1095
F0.0
sg1096
F-3029.9192487157197
sg1097
g1098
sg1099
g1100
sg1101
g1102
sg1103
NsbsI61
g0
(g1087
g2
Ntp1284
Rp1285
(dp1286
g1091
g1092
sg1093
I61
sg1094
F1061.5549850176999
sg1095
F0.0
sg1096
F-3029.9192487157197
sg1097
g1098
sg1099
g1100
sg1101
g1102
sg1103
NsbsI62
g0
(g1087
g2
Ntp1287
Rp1288
(dp1289
g1091
g1092
sg1093
I62
sg1094
F2123.1099700353998
sg1095
F0.0
sg1096
F-3029.9192487157197
sg1097
g1098
sg1099
g1100
sg1101
g1102
sg1103
NsbsI63
g0
(g1087
g2
Ntp1290
Rp1291
(dp1292
g1091
g1092
sg1093
I63
sg1094
F3216.8332879324198
sg1095
F0.0
sg1096
F-3029.9192487157197
sg1097
g1098
sg1099
g1100
sg1101
g1102
sg1103
NsbsI64
g0
(g1087
g2
Ntp1293
Rp1294
(dp1295
g1091
g1092
sg1093
I64
sg1094
F0.0
sg1095
F0.0
sg1096
F-4069.9070594026844
sg1097
g1098
sg1099
g1100
sg1101
g1102
sg1103
NsbsI65
g0
(g1087
g2
Ntp1296
Rp1297
(dp1298
g1091
g1092
sg1093
I65
sg1094
F1061.5549850176999
sg1095
F0.0
sg1096
F-4069.9070594026844
sg1097
g1098
sg1099
g1100
sg1101
g1102
sg1103
NsbsI66
g0
(g1087
g2
Ntp1299
Rp1300
(dp1301
g1091
g1092
sg1093
I66
sg1094
F2123.1099700353998
sg1095
F0.0
sg1096
F-4069.9070594026844
sg1097
g1098
sg1099
g1100
sg1101
g1102
sg1103
NsbsI67
g0
(g1087
g2
Ntp1302
Rp1303
(dp1304
g1091
g1092
sg1093
I67
sg1094
F3216.8332879324198
sg1095
F0.0
sg1096
F-4069.9070594026844
sg1097
g1098
sg1099
g1100
sg1101
g1102
sg1103
NsbsI68
g0
(g1087
g2
Ntp1305
Rp1306
(dp1307
g1091
g1092
sg1093
I68
sg1094
F0.0
sg1095
F16035.51645904959
sg1096
F-1958.4166558867259
sg1097
g1098
sg1099
g1100
sg1101
g1102
sg1103
NsbsI69
g0
(g1087
g2
Ntp1308
Rp1309
(dp1310
g1091
g1092
sg1093
I69
sg1094
F1061.5549850176999
sg1095
F16035.51645904959
sg1096
F-1958.4166558867259
sg1097
g1098
sg1099
g1100
sg1101
g1102
sg1103
NsbsI70
g0
(g1087
g2
Ntp1311
Rp1312
(dp1313
g1091
g1092
sg1093
I70
sg1094
F0.0
sg1095
F16035.51645904959
sg1096
F-918.42884519976144
sg1097
g1098
sg1099
g1100
sg1101
g1102
sg1103
NsbsI71
g0
(g1087
g2
Ntp1314
Rp1315
(dp1316
g1091
g1092
sg1093
I71
sg1094
F1061.5549850176999
sg1095
F16035.51645904959
sg1096
F-918.42884519976144
sg1097
g1098
sg1099
g1100
sg1101
g1102
sg1103
NsbsI72
g0
(g1087
g2
Ntp1317
Rp1318
(dp1319
g1091
g1092
sg1093
I72
sg1094
F2123.1099700353998
sg1095
F16035.51645904959
sg1096
F-1958.4166558867259
sg1097
g1098
sg1099
g1100
sg1101
g1102
sg1103
NsbsI73
g0
(g1087
g2
Ntp1320
Rp1321
(dp1322
g1091
g1092
sg1093
I73
sg1094
F2123.1099700353998
sg1095
F16035.51645904959
sg1096
F-918.42884519976144
sg1097
g1098
sg1099
g1100
sg1101
g1102
sg1103
NsbsI74
g0
(g1087
g2
Ntp1323
Rp1324
(dp1325
g1091
g1092
sg1093
I74
sg1094
F3216.8332879324198
sg1095
F16035.51645904959
sg1096
F-1958.4166558867259
sg1097
g1098
sg1099
g1100
sg1101
g1102
sg1103
NsbsI75
g0
(g1087
g2
Ntp1326
Rp1327
(dp1328
g1091
g1092
sg1093
I75
sg1094
F3216.8332879324198
sg1095
F16035.51645904959
sg1096
F-918.42884519976144
sg1097
g1098
sg1099
g1100
sg1101
g1102
sg1103
NsbsI76
g0
(g1087
g2
Ntp1329
Rp1330
(dp1331
g1091
g1092
sg1093
I76
sg1094
F0.0
sg1095
F16035.51645904959
sg1096
F-3029.9192487157197
sg1097
g1098
sg1099
g1100
sg1101
g1102
sg1103
NsbsI77
g0
(g1087
g2
Ntp1332
Rp1333
(dp1334
g1091
g1092
sg1093
I77
sg1094
F1061.5549850176999
sg1095
F16035.51645904959
sg1096
F-3029.9192487157197
sg1097
g1098
sg1099
g1100
sg1101
g1102
sg1103
NsbsI78
g0
(g1087
g2
Ntp1335
Rp1336
(dp1337
g1091
g1092
sg1093
I78
sg1094
F2123.1099700353998
sg1095
F16035.51645904959
sg1096
F-3029.9192487157197
sg1097
g1098
sg1099
g1100
sg1101
g1102
sg1103
NsbsI79
g0
(g1087
g2
Ntp1338
Rp1339
(dp1340
g1091
g1092
sg1093
I79
sg1094
F3216.8332879324198
sg1095
F16035.51645904959
sg1096
F-3029.9192487157197
sg1097
g1098
sg1099
g1100
sg1101
g1102
sg1103
NsbsI80
g0
(g1087
g2
Ntp1341
Rp1342
(dp1343
g1091
g1092
sg1093
I80
sg1094
F0.0
sg1095
F16035.51645904959
sg1096
F-4069.9070594026844
sg1097
g1098
sg1099
g1100
sg1101
g1102
sg1103
NsbsI81
g0
(g1087
g2
Ntp1344
Rp1345
(dp1346
g1091
g1092
sg1093
I81
sg1094
F1061.5549850176999
sg1095
F16035.51645904959
sg1096
F-4069.9070594026844
sg1097
g1098
sg1099
g1100
sg1101
g1102
sg1103
NsbsI82
g0
(g1087
g2
Ntp1347
Rp1348
(dp1349
g1091
g1092
sg1093
I82
sg1094
F2123.1099700353998
sg1095
F16035.51645904959
sg1096
F-4069.9070594026844
sg1097
g1098
sg1099
g1100
sg1101
g1102
sg1103
NsbsI83
g0
(g1087
g2
Ntp1350
Rp1351
(dp1352
g1091
g1092
sg1093
I83
sg1094
F3216.8332879324198
sg1095
F16035.51645904959
sg1096
F-4069.9070594026844
sg1097
g1098
sg1099
g1100
sg1101
g1102
sg1103
NsbssS'node_index'
p1353
(dp1354
S'2123.110,0.000,-918.429'
p1355
I57
sS'0.000,12066.726,0.000'
p1356
I12
sS'3216.833,6654.739,0.000'
p1357
I49
sS'1061.555,13389.656,0.000'
p1358
I15
sS'0.000,0.000,-3029.919'
p1359
I60
sS'0.000,16035.516,0.000'
p1360
I18
sS'1061.555,0.000,0.000'
p1361
I1
sS'1061.555,6654.739,0.000'
p1362
I41
sS'2123.110,5291.720,0.000'
p1363
I24
sS'3216.833,0.000,-918.429'
p1364
I59
sS'1061.555,2645.860,0.000'
p1365
I5
sS'2123.110,16035.516,-1958.417'
p1366
I72
sS'1061.555,0.000,-1958.417'
p1367
I53
sS'0.000,16035.516,-3029.919'
p1368
I76
sS'3216.833,16035.516,-918.429'
p1369
I75
sS'2123.110,6654.739,0.000'
p1370
I46
sS'0.000,0.000,-4069.907'
p1371
I64
sS'3216.833,16035.516,-3029.919'
p1372
I79
sS'2123.110,13389.656,0.000'
p1373
I27
sS'3216.833,2645.860,0.000'
p1374
I32
sS'1061.555,5291.720,0.000'
p1375
I9
sS'2123.110,2645.860,0.000'
p1376
I22
sS'2123.110,3968.790,0.000'
p1377
I23
sS'3216.833,0.000,0.000'
p1378
I30
sS'2123.110,0.000,-3029.919'
p1379
I62
sS'3216.833,8017.758,0.000'
p1380
I50
sS'2123.110,16035.516,-918.429'
p1381
I73
sS'0.000,0.000,-1958.417'
p1382
I52
sS'0.000,16035.516,-4069.907'
p1383
I80
sS'0.000,3968.790,0.000'
p1384
I6
sS'0.000,14712.586,0.000'
p1385
I16
sS'2123.110,0.000,-4069.907'
p1386
I66
sS'1061.555,8017.758,0.000'
p1387
I43
sS'1061.555,0.000,-3029.919'
p1388
I61
sS'0.000,16035.516,-918.429'
p1389
I70
sS'0.000,2645.860,0.000'
p1390
I4
sS'2123.110,10743.796,0.000'
p1391
I25
sS'0.000,0.000,0.000'
p1392
I0
sS'1061.555,12066.726,0.000'
p1393
I13
sS'3216.833,5291.720,0.000'
p1394
I34
sS'3216.833,16035.516,0.000'
p1395
I39
sS'0.000,8017.758,0.000'
p1396
I42
sS'1061.555,0.000,-918.429'
p1397
I55
sS'1061.555,0.000,-4069.907'
p1398
I65
sS'1061.555,16035.516,-1958.417'
p1399
I69
sS'3216.833,12066.726,0.000'
p1400
I36
sS'2123.110,12066.726,0.000'
p1401
I26
sS'1061.555,16035.516,-3029.919'
p1402
I77
sS'0.000,1322.930,0.000'
p1403
I2
sS'2123.110,0.000,-1958.417'
p1404
I56
sS'0.000,5291.720,0.000'
p1405
I8
sS'1061.555,9380.777,0.000'
p1406
I45
sS'3216.833,0.000,-1958.417'
p1407
I58
sS'2123.110,16035.516,0.000'
p1408
I29
sS'3216.833,0.000,-4069.907'
p1409
I67
sS'1061.555,16035.516,0.000'
p1410
I19
sS'0.000,16035.516,-1958.417'
p1411
I68
sS'3216.833,13389.656,0.000'
p1412
I37
sS'2123.110,0.000,0.000'
p1413
I20
sS'2123.110,1322.930,0.000'
p1414
I21
sS'0.000,13389.656,0.000'
p1415
I14
sS'2123.110,14712.586,0.000'
p1416
I28
sS'0.000,6654.739,0.000'
p1417
I40
sS'1061.555,16035.516,-918.429'
p1418
I71
sS'3216.833,16035.516,-4069.907'
p1419
I83
sS'3216.833,10743.796,0.000'
p1420
I35
sS'2123.110,16035.516,-3029.919'
p1421
I78
sS'1061.555,16035.516,-4069.907'
p1422
I81
sS'1061.555,1322.930,0.000'
p1423
I3
sS'3216.833,9380.777,0.000'
p1424
I51
sS'1061.555,3968.790,0.000'
p1425
I7
sS'3216.833,3968.790,0.000'
p1426
I33
sS'3216.833,16035.516,-1958.417'
p1427
I74
sS'3216.833,1322.930,0.000'
p1428
I31
sS'1061.555,14712.586,0.000'
p1429
I17
sS'0.000,9380.777,0.000'
p1430
I44
sS'0.000,10743.796,0.000'
p1431
I10
sS'1061.555,10743.796,0.000'
p1432
I11
sS'2123.110,8017.758,0.000'
p1433
I47
sS'3216.833,14712.586,0.000'
p1434
I38
sS'2123.110,9380.777,0.000'
p1435
I48
sS'0.000,0.000,-918.429'
p1436
I54
sS'3216.833,0.000,-3029.919'
p1437
I63
sS'2123.110,16035.516,-4069.907'
p1438
I82
ssS'path'
p1439
S'C:\\Temp\\'
p1440
sS'results'
p1441
(dp1442
S'step_2'
p1443
S'ERROR'
p1444
sS'step_3'
p1445
g1444
sS'step_4'
p1446
g1444
sS'step_1'
p1447
g1444
ssS'sections'
p1448
(dp1449
g458
g0
(ccompas_fea.structure.section
ShellSection
p1450
g2
Ntp1451
Rp1452
(dp1453
g15
I1
sS'__name__'
p1454
S'ShellSection'
p1455
sS'name'
p1456
g458
sS'geometry'
p1457
(dp1458
S't'
p1459
F570.32513124242644
ssS'loc_coords_OR'
p1460
(dp1461
S'ORxyz'
p1462
(lp1463
I0
aI0
aF-3151.4782141999999
assS'loc_coords_XA'
p1464
(dp1465
S'XAxyz'
p1466
(lp1467
I1
aI0
aF-3151.4782141999999
assS'loc_coords_YA'
p1468
(dp1469
S'YAxyz'
p1470
(lp1471
F3151.4782141999999
aF-3151.4782141999999
aF-3150.4782141999999
assS'loc_coords_EV_XA'
p1472
(dp1473
S'EV_XA'
p1474
(lp1475
F1.0
aF0.0
aF0.0
assS'loc_coords_EV_YA'
p1476
(dp1477
S'EV_YA'
p1478
(lp1479
F0.70710676338751577
aF-0.70710676338751577
aF0.00022437304506863433
assS'loc_coords_EV_ZA'
p1480
(dp1481
S'EV_ZA'
p1482
(lp1483
F0.0
aF-1.0
aF0.0
assS'nr_layers'
p1484
(dp1485
S'nn'
p1486
F48.0
ssS'offset'
p1487
(dp1488
S'mode'
p1489
S'mid'
p1490
ssbsg472
g0
(g1450
g2
Ntp1491
Rp1492
(dp1493
g15
I0
sg1454
g1455
sg1456
g472
sg1457
(dp1494
g1459
F918.42884519976144
ssg1460
(dp1495
g1462
(lp1496
I0
aI0
aI0
assg1464
(dp1497
g1466
(lp1498
I1
aI0
aI0
assg1468
(dp1499
g1470
(lp1500
F0.0
aF1.0
aF0.0
assg1472
(dp1501
g1474
(lp1502
F1.0
aF0.0
aF0.0
assg1476
(dp1503
g1478
(lp1504
F0.0
aF1.0
aF0.0
assg1480
(dp1505
g1482
(lp1506
F0.0
aF0.0
aF1.0
assg1484
(dp1507
g1486
F55.0
ssg1487
(dp1508
g1489
S'top'
p1509
ssbsg449
g0
(g1450
g2
Ntp1510
Rp1511
(dp1512
g15
I2
sg1454
g1455
sg1456
g449
sg1457
(dp1513
g1459
F570.32513124242644
ssg1460
(dp1514
g1462
(lp1515
I0
aF16035.516459
aF-3151.4782141999999
assg1464
(dp1516
g1466
(lp1517
I1
aF16035.516459
aF-3151.4782141999999
assg1468
(dp1518
g1470
(lp1519
F-3151.4782141968608
aF12884.0382448
aF-19187.994673199999
assg1472
(dp1520
g1474
(lp1521
F1.0
aF0.0
aF0.0
assg1476
(dp1522
g1478
(lp1523
F-0.1893425285906965
aF-0.18934252859088513
aF-0.96348264838225861
assg1480
(dp1524
g1482
(lp1525
F0.0
aF1.0
aF0.0
assg1484
(dp1526
g1486
F48.0
ssg1487
(dp1527
g1489
S'mid'
p1528
ssbsS'sec_mpc'
p1529
g0
(ccompas_fea.structure.section
MPCSection
p1530
g2
Ntp1531
Rp1532
(dp1533
g15
I3
sg1454
S'MPCSection'
p1534
sg1456
g1529
sg1457
NsS'nr_layers'
p1535
NsbssS'sets'
p1536
(dp1537
g567
g0
(ccompas_fea.structure.set
Set
p1538
g2
Ntp1539
Rp1540
(dp1541
S'__name__'
p1542
S'Set'
p1543
sS'name'
p1544
g567
sS'type'
p1545
S'element'
p1546
sS'selection'
p1547
(lp1548
I40
asS'index'
p1549
I13
sbsS'elset_mpcs'
p1550
g0
(g1538
g2
Ntp1551
Rp1552
(dp1553
g1542
g1543
sg1544
g1550
sg1545
g1546
sg1547
(lp1554
I54
aI55
aI56
aI57
aI58
aI59
aI60
aI61
asg1549
I27
sbsg451
g0
(g1538
g2
Ntp1555
Rp1556
(dp1557
g1542
g1543
sg1544
g451
sg1545
g1546
sg1547
(lp1558
I48
asg1549
I21
sbsg497
g0
(g1538
g2
Ntp1559
Rp1560
(dp1561
g1542
g1543
sg1544
g497
sg1545
g1546
sg1547
(lp1562
I8
aI9
aI10
aI11
asg1549
I2
sbsg463
g0
(g1538
g2
Ntp1563
Rp1564
(dp1565
g1542
g1543
sg1544
g463
sg1545
g1546
sg1547
(lp1566
I43
asg1549
I16
sbsg559
g0
(g1538
g2
Ntp1567
Rp1568
(dp1569
g1542
g1543
sg1544
g559
sg1545
g1546
sg1547
(lp1570
I45
asg1549
I18
sbsg537
g0
(g1538
g2
Ntp1571
Rp1572
(dp1573
g1542
g1543
sg1544
g537
sg1545
g1546
sg1547
(lp1574
I4
aI5
aI6
aI7
asg1549
I1
sbsg473
g0
(g1538
g2
Ntp1575
Rp1576
(dp1577
g1542
g1543
sg1544
g473
sg1545
g1546
sg1547
(lp1578
I0
aI1
aI2
aI3
asg1549
I0
sbsg525
g0
(g1538
g2
Ntp1579
Rp1580
(dp1581
g1542
g1543
sg1544
g525
sg1545
g1546
sg1547
(lp1582
I24
aI25
aI26
aI27
asg1549
I6
sbsg563
g0
(g1538
g2
Ntp1583
Rp1584
(dp1585
g1542
g1543
sg1544
g563
sg1545
g1546
sg1547
(lp1586
I20
aI21
aI22
aI23
asg1549
I5
sbsg489
g0
(g1538
g2
Ntp1587
Rp1588
(dp1589
g1542
g1543
sg1544
g489
sg1545
g1546
sg1547
(lp1590
I16
aI17
aI18
aI19
asg1549
I4
sbsg533
g0
(g1538
g2
Ntp1591
Rp1592
(dp1593
g1542
g1543
sg1544
g533
sg1545
g1546
sg1547
(lp1594
I12
aI13
aI14
aI15
asg1549
I3
sbsg481
g0
(g1538
g2
Ntp1595
Rp1596
(dp1597
g1542
g1543
sg1544
g481
sg1545
g1546
sg1547
(lp1598
I32
aI33
aI34
aI35
asg1549
I8
sbsg517
g0
(g1538
g2
Ntp1599
Rp1600
(dp1601
g1542
g1543
sg1544
g517
sg1545
g1546
sg1547
(lp1602
I28
aI29
aI30
aI31
asg1549
I7
sbsg493
g0
(g1538
g2
Ntp1603
Rp1604
(dp1605
g1542
g1543
sg1544
g493
sg1545
g1546
sg1547
(lp1606
I38
asg1549
I11
sbsg555
g0
(g1538
g2
Ntp1607
Rp1608
(dp1609
g1542
g1543
sg1544
g555
sg1545
g1546
sg1547
(lp1610
I53
asg1549
I26
sbsg505
g0
(g1538
g2
Ntp1611
Rp1612
(dp1613
g1542
g1543
sg1544
g505
sg1545
g1546
sg1547
(lp1614
I50
asg1549
I23
sbsg485
g0
(g1538
g2
Ntp1615
Rp1616
(dp1617
g1542
g1543
sg1544
g485
sg1545
g1546
sg1547
(lp1618
I41
asg1549
I14
sbsg501
g0
(g1538
g2
Ntp1619
Rp1620
(dp1621
g1542
g1543
sg1544
g501
sg1545
g1546
sg1547
(lp1622
I47
asg1549
I20
sbsg521
g0
(g1538
g2
Ntp1623
Rp1624
(dp1625
g1542
g1543
sg1544
g521
sg1545
g1546
sg1547
(lp1626
I36
asg1549
I9
sbsg513
g0
(g1538
g2
Ntp1627
Rp1628
(dp1629
g1542
g1543
sg1544
g513
sg1545
g1546
sg1547
(lp1630
I44
asg1549
I17
sbsS'nset_support_wall2'
p1631
g0
(g1538
g2
Ntp1632
Rp1633
(dp1634
g1542
g1543
sg1544
g1631
sg1545
S'node'
p1635
sg1547
(lp1636
I83
aI82
aI81
aI80
asg1549
I29
sbsg509
g0
(g1538
g2
Ntp1637
Rp1638
(dp1639
g1542
g1543
sg1544
g509
sg1545
g1546
sg1547
(lp1640
I39
asg1549
I12
sbsg529
g0
(g1538
g2
Ntp1641
Rp1642
(dp1643
g1542
g1543
sg1544
g529
sg1545
g1546
sg1547
(lp1644
I52
asg1549
I25
sbsg477
g0
(g1538
g2
Ntp1645
Rp1646
(dp1647
g1542
g1543
sg1544
g477
sg1545
g1546
sg1547
(lp1648
I49
asg1549
I22
sbsS'nset_support_wall1'
p1649
g0
(g1538
g2
Ntp1650
Rp1651
(dp1652
g1542
g1543
sg1544
g1649
sg1545
g1635
sg1547
(lp1653
I67
aI66
aI65
aI64
asg1549
I28
sbsg547
g0
(g1538
g2
Ntp1654
Rp1655
(dp1656
g1542
g1543
sg1544
g547
sg1545
g1546
sg1547
(lp1657
I42
asg1549
I15
sbsg467
g0
(g1538
g2
Ntp1658
Rp1659
(dp1660
g1542
g1543
sg1544
g467
sg1545
g1546
sg1547
(lp1661
I46
asg1549
I19
sbsg459
g0
(g1538
g2
Ntp1662
Rp1663
(dp1664
g1542
g1543
sg1544
g459
sg1545
g1546
sg1547
(lp1665
I37
asg1549
I10
sbsg551
g0
(g1538
g2
Ntp1666
Rp1667
(dp1668
g1542
g1543
sg1544
g551
sg1545
g1546
sg1547
(lp1669
I51
asg1549
I24
sbssS'steps'
p1670
(dp1671
g1443
g0
(ccompas_fea.structure.step
GeneralStep
p1672
g2
Ntp1673
Rp1674
(dp1675
g15
I1
sS'__name__'
p1676
S'GeneralStep'
p1677
sS'name'
p1678
g1443
sS'attr_list'
p1679
(lp1680
g593
aS'increments'
p1681
aS'iterations'
p1682
aS'factor'
p1683
aS'nlgeom'
p1684
aS'nlmat'
p1685
aS'displacements'
p1686
aS'loads'
p1687
aS'type'
p1688
aS'tolerance'
p1689
aS'modify'
p1690
asS'increments'
p1691
I1
sS'iterations'
p1692
I100
sS'tolerance'
p1693
F0.01
sS'factor'
p1694
F1.0
sS'nlgeom'
p1695
I00
sS'nlmat'
p1696
I01
sS'displacements'
p1697
(lp1698
sS'loads'
p1699
(lp1700
S'load_gravity'
p1701
asS'modify'
p1702
I01
sS'type'
p1703
S'static'
p1704
sbsg1445
g0
(g1672
g2
Ntp1705
Rp1706
(dp1707
g15
I2
sg1676
g1677
sg1678
g1445
sg1679
(lp1708
g593
ag1681
ag1682
ag1683
ag1684
ag1685
ag1686
ag1687
ag1688
ag1689
ag1690
asg1691
I1
sg1692
I100
sg1693
F0.01
sg1694
F1.0
sg1695
I00
sg1696
I01
sg1697
(lp1709
sg1699
(lp1710
S'earthPressure_gravel'
p1711
aS'earthPressure_backfill'
p1712
ag613
asg1702
I01
sg1703
g1704
sbsg1446
g0
(g1672
g2
Ntp1713
Rp1714
(dp1715
g15
I3
sg1676
g1677
sg1678
g1446
sg1679
(lp1716
g593
ag1681
ag1682
ag1683
ag1684
ag1685
ag1686
ag1687
ag1688
ag1689
ag1690
asg1691
I1
sg1692
I100
sg1693
F0.01
sg1694
F1.0
sg1695
I00
sg1696
I01
sg1697
(lp1717
sg1699
(lp1718
g606
ag572
ag621
ag598
asg1702
I01
sg1703
g1704
sbsg1447
g0
(g1672
g2
Ntp1719
Rp1720
(dp1721
g15
I0
sg1676
g1677
sg1678
g1447
sg1679
(lp1722
g593
ag1681
ag1682
ag1683
ag1684
ag1685
ag1686
ag1687
ag1688
ag1689
ag1690
asg1691
I1
sg1692
I100
sg1693
F0.01
sg1694
F1.0
sg1695
I00
sg1696
I01
sg1697
(lp1723
S'nset_pinned_set_disp_1'
p1724
aS'nset_pinned_set_disp_2'
p1725
asg1699
(lp1726
sg1702
I01
sg1703
g1704
sbssS'loc_coor'
p1727
(dp1728
sS'steps_order'
p1729
(lp1730
S'step_1'
p1731
aS'step_2'
p1732
aS'step_3'
p1733
aS'step_4'
p1734
asS'tol'
p1735
S'3'
p1736
sS'virtual_nodes'
p1737
(dp1738
sS'virtual_node_index'
p1739
(dp1740
sS'virtual_elements'
p1741
(dp1742
sS'virtual_element_index'
p1743
(dp1744
sb.