ccopy_reg
_reconstructor
p0
(ccompas_fea.structure.structure
Structure
p1
c__builtin__
object
p2
Ntp3
Rp4
(dp5
S'constraints'
p6
(dp7
sS'displacements'
p8
(dp9
S'nset_pinned_set_disp_1'
p10
g0
(ccompas_fea.structure.displacement
GeneralDisplacement
p11
g2
Ntp12
Rp13
(dp14
S'index'
p15
I0
sS'__name__'
p16
S'GeneralDisplacement'
p17
sS'name'
p18
g10
sS'nodes'
p19
S'nset_support_wall1'
p20
sS'components'
p21
(dp22
S'z'
p23
I0
sS'xx'
p24
I0
sS'zz'
p25
I0
sS'yy'
p26
I0
sS'y'
p27
I0
sS'x'
p28
I0
ssS'axes'
p29
S'global'
p30
sbsS'nset_pinned_set_disp_2'
p31
g0
(g11
g2
Ntp32
Rp33
(dp34
g15
I1
sg16
g17
sg18
g31
sg19
S'nset_support_wall2'
p35
sg21
(dp36
g23
I0
sg24
I0
sg25
I0
sg26
I0
sg27
I0
sg28
I0
ssg29
g30
sbssS'elements'
p37
(dp38
I0
g0
(ccompas_fea.structure.element
ShellElement
p39
g2
Ntp40
Rp41
(dp42
S'mass'
p43
NsS'__name__'
p44
S'ShellElement'
p45
sS'nodes'
p46
(lp47
I0
aI1
aI3
aI2
asS'number'
p48
I0
sS'thermal'
p49
I00
sS'axes'
p50
(dp51
S'ey'
p52
NsS'ez'
p53
NsS'ex'
p54
NssS'element_property'
p55
S'elset_plate_1_element_prop'
p56
sbsI1
g0
(g39
g2
Ntp57
Rp58
(dp59
g43
Nsg44
g45
sg46
(lp60
I2
aI3
aI5
aI4
asg48
I1
sg49
I00
sg50
g51
sg55
g56
sbsI2
g0
(g39
g2
Ntp61
Rp62
(dp63
g43
Nsg44
g45
sg46
(lp64
I4
aI5
aI7
aI6
asg48
I2
sg49
I00
sg50
g51
sg55
g56
sbsI3
g0
(g39
g2
Ntp65
Rp66
(dp67
g43
Nsg44
g45
sg46
(lp68
I6
aI7
aI9
aI8
asg48
I3
sg49
I00
sg50
g51
sg55
g56
sbsI4
g0
(g39
g2
Ntp69
Rp70
(dp71
g43
Nsg44
g45
sg46
(lp72
I10
aI11
aI13
aI12
asg48
I4
sg49
I00
sg50
(dp73
g52
Nsg53
Nsg54
Nssg55
S'elset_plate_2_element_prop'
p74
sbsI5
g0
(g39
g2
Ntp75
Rp76
(dp77
g43
Nsg44
g45
sg46
(lp78
I12
aI13
aI15
aI14
asg48
I5
sg49
I00
sg50
g73
sg55
g74
sbsI6
g0
(g39
g2
Ntp79
Rp80
(dp81
g43
Nsg44
g45
sg46
(lp82
I14
aI15
aI17
aI16
asg48
I6
sg49
I00
sg50
g73
sg55
g74
sbsI7
g0
(g39
g2
Ntp83
Rp84
(dp85
g43
Nsg44
g45
sg46
(lp86
I16
aI17
aI19
aI18
asg48
I7
sg49
I00
sg50
g73
sg55
g74
sbsI8
g0
(g39
g2
Ntp87
Rp88
(dp89
g43
Nsg44
g45
sg46
(lp90
I1
aI20
aI21
aI3
asg48
I8
sg49
I00
sg50
(dp91
g52
Nsg53
Nsg54
Nssg55
S'elset_plate_3_element_prop'
p92
sbsI9
g0
(g39
g2
Ntp93
Rp94
(dp95
g43
Nsg44
g45
sg46
(lp96
I3
aI21
aI22
aI5
asg48
I9
sg49
I00
sg50
g91
sg55
g92
sbsI10
g0
(g39
g2
Ntp97
Rp98
(dp99
g43
Nsg44
g45
sg46
(lp100
I5
aI22
aI23
aI7
asg48
I10
sg49
I00
sg50
g91
sg55
g92
sbsI11
g0
(g39
g2
Ntp101
Rp102
(dp103
g43
Nsg44
g45
sg46
(lp104
I7
aI23
aI24
aI9
asg48
I11
sg49
I00
sg50
g91
sg55
g92
sbsI12
g0
(g39
g2
Ntp105
Rp106
(dp107
g43
Nsg44
g45
sg46
(lp108
I11
aI25
aI26
aI13
asg48
I12
sg49
I00
sg50
(dp109
g52
Nsg53
Nsg54
Nssg55
S'elset_plate_4_element_prop'
p110
sbsI13
g0
(g39
g2
Ntp111
Rp112
(dp113
g43
Nsg44
g45
sg46
(lp114
I13
aI26
aI27
aI15
asg48
I13
sg49
I00
sg50
g109
sg55
g110
sbsI14
g0
(g39
g2
Ntp115
Rp116
(dp117
g43
Nsg44
g45
sg46
(lp118
I15
aI27
aI28
aI17
asg48
I14
sg49
I00
sg50
g109
sg55
g110
sbsI15
g0
(g39
g2
Ntp119
Rp120
(dp121
g43
Nsg44
g45
sg46
(lp122
I17
aI28
aI29
aI19
asg48
I15
sg49
I00
sg50
g109
sg55
g110
sbsI16
g0
(g39
g2
Ntp123
Rp124
(dp125
g43
Nsg44
g45
sg46
(lp126
I20
aI30
aI31
aI21
asg48
I16
sg49
I00
sg50
(dp127
g52
Nsg53
Nsg54
Nssg55
S'elset_plate_5_element_prop'
p128
sbsI17
g0
(g39
g2
Ntp129
Rp130
(dp131
g43
Nsg44
g45
sg46
(lp132
I21
aI31
aI32
aI22
asg48
I17
sg49
I00
sg50
g127
sg55
g128
sbsI18
g0
(g39
g2
Ntp133
Rp134
(dp135
g43
Nsg44
g45
sg46
(lp136
I22
aI32
aI33
aI23
asg48
I18
sg49
I00
sg50
g127
sg55
g128
sbsI19
g0
(g39
g2
Ntp137
Rp138
(dp139
g43
Nsg44
g45
sg46
(lp140
I23
aI33
aI34
aI24
asg48
I19
sg49
I00
sg50
g127
sg55
g128
sbsI20
g0
(g39
g2
Ntp141
Rp142
(dp143
g43
Nsg44
g45
sg46
(lp144
I25
aI35
aI36
aI26
asg48
I20
sg49
I00
sg50
(dp145
g52
Nsg53
Nsg54
Nssg55
S'elset_plate_6_element_prop'
p146
sbsI21
g0
(g39
g2
Ntp147
Rp148
(dp149
g43
Nsg44
g45
sg46
(lp150
I26
aI36
aI37
aI27
asg48
I21
sg49
I00
sg50
g145
sg55
g146
sbsI22
g0
(g39
g2
Ntp151
Rp152
(dp153
g43
Nsg44
g45
sg46
(lp154
I27
aI37
aI38
aI28
asg48
I22
sg49
I00
sg50
g145
sg55
g146
sbsI23
g0
(g39
g2
Ntp155
Rp156
(dp157
g43
Nsg44
g45
sg46
(lp158
I28
aI38
aI39
aI29
asg48
I23
sg49
I00
sg50
g145
sg55
g146
sbsI24
g0
(g39
g2
Ntp159
Rp160
(dp161
g43
Nsg44
g45
sg46
(lp162
I8
aI9
aI41
aI40
asg48
I24
sg49
I00
sg50
(dp163
g52
Nsg53
Nsg54
Nssg55
S'elset_plate_7_element_prop'
p164
sbsI25
g0
(g39
g2
Ntp165
Rp166
(dp167
g43
Nsg44
g45
sg46
(lp168
I40
aI41
aI43
aI42
asg48
I25
sg49
I00
sg50
g163
sg55
g164
sbsI26
g0
(g39
g2
Ntp169
Rp170
(dp171
g43
Nsg44
g45
sg46
(lp172
I42
aI43
aI45
aI44
asg48
I26
sg49
I00
sg50
g163
sg55
g164
sbsI27
g0
(g39
g2
Ntp173
Rp174
(dp175
g43
Nsg44
g45
sg46
(lp176
I44
aI45
aI11
aI10
asg48
I27
sg49
I00
sg50
g163
sg55
g164
sbsI28
g0
(g39
g2
Ntp177
Rp178
(dp179
g43
Nsg44
g45
sg46
(lp180
I9
aI24
aI46
aI41
asg48
I28
sg49
I00
sg50
(dp181
g52
Nsg53
Nsg54
Nssg55
S'elset_plate_8_element_prop'
p182
sbsI29
g0
(g39
g2
Ntp183
Rp184
(dp185
g43
Nsg44
g45
sg46
(lp186
I41
aI46
aI47
aI43
asg48
I29
sg49
I00
sg50
g181
sg55
g182
sbsI30
g0
(g39
g2
Ntp187
Rp188
(dp189
g43
Nsg44
g45
sg46
(lp190
I43
aI47
aI48
aI45
asg48
I30
sg49
I00
sg50
g181
sg55
g182
sbsI31
g0
(g39
g2
Ntp191
Rp192
(dp193
g43
Nsg44
g45
sg46
(lp194
I45
aI48
aI25
aI11
asg48
I31
sg49
I00
sg50
g181
sg55
g182
sbsI32
g0
(g39
g2
Ntp195
Rp196
(dp197
g43
Nsg44
g45
sg46
(lp198
I24
aI34
aI49
aI46
asg48
I32
sg49
I00
sg50
(dp199
g52
Nsg53
Nsg54
Nssg55
S'elset_plate_9_element_prop'
p200
sbsI33
g0
(g39
g2
Ntp201
Rp202
(dp203
g43
Nsg44
g45
sg46
(lp204
I46
aI49
aI50
aI47
asg48
I33
sg49
I00
sg50
g199
sg55
g200
sbsI34
g0
(g39
g2
Ntp205
Rp206
(dp207
g43
Nsg44
g45
sg46
(lp208
I47
aI50
aI51
aI48
asg48
I34
sg49
I00
sg50
g199
sg55
g200
sbsI35
g0
(g39
g2
Ntp209
Rp210
(dp211
g43
Nsg44
g45
sg46
(lp212
I48
aI51
aI35
aI25
asg48
I35
sg49
I00
sg50
g199
sg55
g200
sbsI36
g0
(g39
g2
Ntp213
Rp214
(dp215
g43
Nsg44
g45
sg46
(lp216
I52
aI53
aI55
aI54
asg48
I36
sg49
I00
sg50
(dp217
g52
Nsg53
Nsg54
Nssg55
S'elset_wall_1_1_element_prop'
p218
sbsI37
g0
(g39
g2
Ntp219
Rp220
(dp221
g43
Nsg44
g45
sg46
(lp222
I53
aI56
aI57
aI55
asg48
I37
sg49
I00
sg50
(dp223
g52
Nsg53
Nsg54
Nssg55
S'elset_wall_1_2_element_prop'
p224
sbsI38
g0
(g39
g2
Ntp225
Rp226
(dp227
g43
Nsg44
g45
sg46
(lp228
I56
aI58
aI59
aI57
asg48
I38
sg49
I00
sg50
(dp229
g52
Nsg53
Nsg54
Nssg55
S'elset_wall_1_3_element_prop'
p230
sbsI39
g0
(g39
g2
Ntp231
Rp232
(dp233
g43
Nsg44
g45
sg46
(lp234
I60
aI61
aI53
aI52
asg48
I39
sg49
I00
sg50
(dp235
g52
Nsg53
Nsg54
Nssg55
S'elset_wall_1_4_element_prop'
p236
sbsI40
g0
(g39
g2
Ntp237
Rp238
(dp239
g43
Nsg44
g45
sg46
(lp240
I61
aI62
aI56
aI53
asg48
I40
sg49
I00
sg50
(dp241
g52
Nsg53
Nsg54
Nssg55
S'elset_wall_1_5_element_prop'
p242
sbsI41
g0
(g39
g2
Ntp243
Rp244
(dp245
g43
Nsg44
g45
sg46
(lp246
I62
aI63
aI58
aI56
asg48
I41
sg49
I00
sg50
(dp247
g52
Nsg53
Nsg54
Nssg55
S'elset_wall_1_6_element_prop'
p248
sbsI42
g0
(g39
g2
Ntp249
Rp250
(dp251
g43
Nsg44
g45
sg46
(lp252
I64
aI65
aI61
aI60
asg48
I42
sg49
I00
sg50
(dp253
g52
Nsg53
Nsg54
Nssg55
S'elset_wall_1_7_element_prop'
p254
sbsI43
g0
(g39
g2
Ntp255
Rp256
(dp257
g43
Nsg44
g45
sg46
(lp258
I65
aI66
aI62
aI61
asg48
I43
sg49
I00
sg50
(dp259
g52
Nsg53
Nsg54
Nssg55
S'elset_wall_1_8_element_prop'
p260
sbsI44
g0
(g39
g2
Ntp261
Rp262
(dp263
g43
Nsg44
g45
sg46
(lp264
I66
aI67
aI63
aI62
asg48
I44
sg49
I00
sg50
(dp265
g52
Nsg53
Nsg54
Nssg55
S'elset_wall_1_9_element_prop'
p266
sbsI45
g0
(g39
g2
Ntp267
Rp268
(dp269
g43
Nsg44
g45
sg46
(lp270
I68
aI70
aI71
aI69
asg48
I45
sg49
I00
sg50
(dp271
g52
Nsg53
Nsg54
Nssg55
S'elset_wall_2_1_element_prop'
p272
sbsI46
g0
(g39
g2
Ntp273
Rp274
(dp275
g43
Nsg44
g45
sg46
(lp276
I69
aI71
aI73
aI72
asg48
I46
sg49
I00
sg50
(dp277
g52
Nsg53
Nsg54
Nssg55
S'elset_wall_2_2_element_prop'
p278
sbsI47
g0
(g39
g2
Ntp279
Rp280
(dp281
g43
Nsg44
g45
sg46
(lp282
I72
aI73
aI75
aI74
asg48
I47
sg49
I00
sg50
(dp283
g52
Nsg53
Nsg54
Nssg55
S'elset_wall_2_3_element_prop'
p284
sbsI48
g0
(g39
g2
Ntp285
Rp286
(dp287
g43
Nsg44
g45
sg46
(lp288
I76
aI68
aI69
aI77
asg48
I48
sg49
I00
sg50
(dp289
g52
Nsg53
Nsg54
Nssg55
S'elset_wall_2_4_element_prop'
p290
sbsI49
g0
(g39
g2
Ntp291
Rp292
(dp293
g43
Nsg44
g45
sg46
(lp294
I77
aI69
aI72
aI78
asg48
I49
sg49
I00
sg50
(dp295
g52
Nsg53
Nsg54
Nssg55
S'elset_wall_2_5_element_prop'
p296
sbsI50
g0
(g39
g2
Ntp297
Rp298
(dp299
g43
Nsg44
g45
sg46
(lp300
I78
aI72
aI74
aI79
asg48
I50
sg49
I00
sg50
(dp301
g52
Nsg53
Nsg54
Nssg55
S'elset_wall_2_6_element_prop'
p302
sbsI51
g0
(g39
g2
Ntp303
Rp304
(dp305
g43
Nsg44
g45
sg46
(lp306
I80
aI76
aI77
aI81
asg48
I51
sg49
I00
sg50
(dp307
g52
Nsg53
Nsg54
Nssg55
S'elset_wall_2_7_element_prop'
p308
sbsI52
g0
(g39
g2
Ntp309
Rp310
(dp311
g43
Nsg44
g45
sg46
(lp312
I81
aI77
aI78
aI82
asg48
I52
sg49
I00
sg50
(dp313
g52
Nsg53
Nsg54
Nssg55
S'elset_wall_2_8_element_prop'
p314
sbsI53
g0
(g39
g2
Ntp315
Rp316
(dp317
g43
Nsg44
g45
sg46
(lp318
I82
aI78
aI79
aI83
asg48
I53
sg49
I00
sg50
(dp319
g52
Nsg53
Nsg54
Nssg55
S'elset_wall_2_9_element_prop'
p320
sbsI54
g0
(ccompas_fea.structure.element
MPCElement
p321
g2
Ntp322
Rp323
(dp324
g43
Nsg44
S'MPCElement'
p325
sg46
(lp326
I75
aI39
asg48
I54
sg49
I00
sg50
(dp327
g52
Nsg53
(lp328
F4.5474735088646412e-12
aF0.0
aF1058.6459701355536
asg54
Nssg55
S'elset_mpc_element_prop'
p329
sbsI55
g0
(g321
g2
Ntp330
Rp331
(dp332
g43
Nsg44
g325
sg46
(lp333
I73
aI29
asg48
I55
sg49
I00
sg50
(dp334
g52
Nsg53
(lp335
F-2.2737367544323206e-12
aF0.0
aF1058.6459701355536
asg54
Nssg55
g329
sbsI56
g0
(g321
g2
Ntp336
Rp337
(dp338
g43
Nsg44
g325
sg46
(lp339
I71
aI19
asg48
I56
sg49
I00
sg50
(dp340
g52
Nsg53
(lp341
F3.865352482534945e-12
aF0.0
aF1058.6459701355536
asg54
Nssg55
g329
sbsI57
g0
(g321
g2
Ntp342
Rp343
(dp344
g43
Nsg44
g325
sg46
(lp345
I70
aI18
asg48
I57
sg49
I00
sg50
(dp346
g52
Nsg53
(lp347
F0.0
aF0.0
aF1058.6459701355536
asg54
Nssg55
g329
sbsI58
g0
(g321
g2
Ntp348
Rp349
(dp350
g43
Nsg44
g325
sg46
(lp351
I59
aI30
asg48
I58
sg49
I00
sg50
(dp352
g52
Nsg53
(lp353
F4.5474735088646412e-12
aF0.0
aF1058.6459701355536
asg54
Nssg55
g329
sbsI59
g0
(g321
g2
Ntp354
Rp355
(dp356
g43
Nsg44
g325
sg46
(lp357
I57
aI20
asg48
I59
sg49
I00
sg50
(dp358
g52
Nsg53
(lp359
F-2.2737367544323206e-12
aF0.0
aF1058.6459701355536
asg54
Nssg55
g329
sbsI60
g0
(g321
g2
Ntp360
Rp361
(dp362
g43
Nsg44
g325
sg46
(lp363
I55
aI1
asg48
I60
sg49
I00
sg50
(dp364
g52
Nsg53
(lp365
F3.865352482534945e-12
aF0.0
aF1058.6459701355536
asg54
Nssg55
g329
sbsI61
g0
(g321
g2
Ntp366
Rp367
(dp368
g43
Nsg44
g325
sg46
(lp369
I54
aI0
asg48
I61
sg49
I00
sg50
(dp370
g52
Nsg53
(lp371
F0.0
aF0.0
aF1058.6459701355536
asg54
Nssg55
g329
sbssS'element_index'
p372
(dp373
S'655.214,4822.895,0.000'
p374
I3
sS'3295.923,6221.744,0.000'
p375
I32
sS'1965.641,13257.743,0.000'
p376
I13
sS'3295.923,16702.668,-3147.530'
p377
I53
sS'655.214,11879.773,0.000'
p378
I4
sS'1310.427,0.000,-529.323'
p379
I60
sS'1965.641,11879.773,0.000'
p380
I12
sS'1965.641,6221.744,0.000'
p381
I28
sS'3295.923,16013.683,0.000'
p382
I23
sS'3295.923,16702.668,-1471.419'
p383
I47
sS'1965.641,3444.925,0.000'
p384
I10
sS'1965.641,2066.955,0.000'
p385
I9
sS'655.214,13257.743,0.000'
p386
I5
sS'655.214,16702.668,-3147.530'
p387
I51
sS'3295.923,9061.198,0.000'
p388
I34
sS'655.214,0.000,-3147.530'
p389
I42
sS'3295.923,16702.668,-2309.475'
p390
I50
sS'3295.923,4822.895,0.000'
p391
I19
sS'655.214,688.985,0.000'
p392
I0
sS'655.214,6221.744,0.000'
p393
I24
sS'3295.923,0.000,-3147.530'
p394
I44
sS'2620.854,0.000,-529.323'
p395
I59
sS'655.214,3444.925,0.000'
p396
I2
sS'2620.854,16702.668,-529.323'
p397
I55
sS'1965.641,0.000,-2309.475'
p398
I40
sS'1965.641,688.985,0.000'
p399
I8
sS'0.000,0.000,-529.323'
p400
I61
sS'1965.641,9061.198,0.000'
p401
I30
sS'1965.641,10480.924,0.000'
p402
I31
sS'3295.923,2066.955,0.000'
p403
I17
sS'3970.991,0.000,-529.323'
p404
I58
sS'1965.641,16702.668,-3147.530'
p405
I52
sS'1965.641,0.000,-1471.419'
p406
I37
sS'1965.641,16702.668,-1471.419'
p407
I46
sS'655.214,7641.471,0.000'
p408
I25
sS'655.214,16702.668,-2309.475'
p409
I48
sS'3295.923,0.000,-1471.419'
p410
I38
sS'655.214,16702.668,-1471.419'
p411
I45
sS'655.214,0.000,-2309.475'
p412
I39
sS'655.214,0.000,-1471.419'
p413
I36
sS'3295.923,0.000,-2309.475'
p414
I41
sS'0.000,16702.668,-529.323'
p415
I57
sS'1965.641,14635.713,0.000'
p416
I14
sS'3295.923,688.985,0.000'
p417
I16
sS'3295.923,10480.924,0.000'
p418
I35
sS'3295.923,7641.471,0.000'
p419
I33
sS'1310.427,16702.668,-529.323'
p420
I56
sS'655.214,2066.955,0.000'
p421
I1
sS'3295.923,11879.773,0.000'
p422
I20
sS'655.214,10480.924,0.000'
p423
I27
sS'655.214,14635.713,0.000'
p424
I6
sS'3970.991,16702.668,-529.323'
p425
I54
sS'3295.923,3444.925,0.000'
p426
I18
sS'655.214,16013.683,0.000'
p427
I7
sS'3295.923,14635.713,0.000'
p428
I22
sS'1965.641,16013.683,0.000'
p429
I15
sS'1965.641,7641.471,0.000'
p430
I29
sS'1965.641,0.000,-3147.530'
p431
I43
sS'1965.641,16702.668,-2309.475'
p432
I49
sS'1965.641,4822.895,0.000'
p433
I11
sS'3295.923,13257.743,0.000'
p434
I21
sS'655.214,9061.198,0.000'
p435
I26
ssS'element_properties'
p436
(dp437
g290
g0
(ccompas_fea.structure.element_properties
ElementProperties
p438
g2
Ntp439
Rp440
(dp441
g15
I21
sS'__name__'
p442
S'ElementProperties'
p443
sS'name'
p444
g290
sS'material'
p445
S'wall_element_mat'
p446
sS'section'
p447
S'wall2_element_sec'
p448
sS'elset'
p449
S'elset_wall_2_4'
p450
sS'elements'
p451
NsS'rebar'
p452
(dp453
sbsg224
g0
(g438
g2
Ntp454
Rp455
(dp456
g15
I10
sg442
g443
sg444
g224
sg445
g446
sg447
S'wall1_element_sec'
p457
sg449
S'elset_wall_1_2'
p458
sg451
Nsg452
g453
sbsg260
g0
(g438
g2
Ntp459
Rp460
(dp461
g15
I16
sg442
g443
sg444
g260
sg445
g446
sg447
g457
sg449
S'elset_wall_1_8'
p462
sg451
Nsg452
g453
sbsg278
g0
(g438
g2
Ntp463
Rp464
(dp465
g15
I19
sg442
g443
sg444
g278
sg445
g446
sg447
g448
sg449
S'elset_wall_2_2'
p466
sg451
Nsg452
g453
sbsg56
g0
(g438
g2
Ntp467
Rp468
(dp469
g15
I0
sg442
g443
sg444
g56
sg445
S'plate_element_mat'
p470
sg447
S'plate_element_sec'
p471
sg449
S'elset_plate_1'
p472
sg451
Nsg452
g453
sbsg296
g0
(g438
g2
Ntp473
Rp474
(dp475
g15
I22
sg442
g443
sg444
g296
sg445
g446
sg447
g448
sg449
S'elset_wall_2_5'
p476
sg451
Nsg452
g453
sbsg200
g0
(g438
g2
Ntp477
Rp478
(dp479
g15
I8
sg442
g443
sg444
g200
sg445
g470
sg447
g471
sg449
S'elset_plate_9'
p480
sg451
Nsg452
g453
sbsg248
g0
(g438
g2
Ntp481
Rp482
(dp483
g15
I14
sg442
g443
sg444
g248
sg445
g446
sg447
g457
sg449
S'elset_wall_1_6'
p484
sg451
Nsg452
g453
sbsg128
g0
(g438
g2
Ntp485
Rp486
(dp487
g15
I4
sg442
g443
sg444
g128
sg445
g470
sg447
g471
sg449
S'elset_plate_5'
p488
sg451
Nsg452
g453
sbsg230
g0
(g438
g2
Ntp489
Rp490
(dp491
g15
I11
sg442
g443
sg444
g230
sg445
g446
sg447
g457
sg449
S'elset_wall_1_3'
p492
sg451
Nsg452
g453
sbsg92
g0
(g438
g2
Ntp493
Rp494
(dp495
g15
I2
sg442
g443
sg444
g92
sg445
g470
sg447
g471
sg449
S'elset_plate_3'
p496
sg451
Nsg452
g453
sbsg284
g0
(g438
g2
Ntp497
Rp498
(dp499
g15
I20
sg442
g443
sg444
g284
sg445
g446
sg447
g448
sg449
S'elset_wall_2_3'
p500
sg451
Nsg452
g453
sbsg302
g0
(g438
g2
Ntp501
Rp502
(dp503
g15
I23
sg442
g443
sg444
g302
sg445
g446
sg447
g448
sg449
S'elset_wall_2_6'
p504
sg451
Nsg452
g453
sbsg236
g0
(g438
g2
Ntp505
Rp506
(dp507
g15
I12
sg442
g443
sg444
g236
sg445
g446
sg447
g457
sg449
S'elset_wall_1_4'
p508
sg451
Nsg452
g453
sbsg266
g0
(g438
g2
Ntp509
Rp510
(dp511
g15
I17
sg442
g443
sg444
g266
sg445
g446
sg447
g457
sg449
S'elset_wall_1_9'
p512
sg451
Nsg452
g453
sbsg182
g0
(g438
g2
Ntp513
Rp514
(dp515
g15
I7
sg442
g443
sg444
g182
sg445
g470
sg447
g471
sg449
S'elset_plate_8'
p516
sg451
Nsg452
g453
sbsg218
g0
(g438
g2
Ntp517
Rp518
(dp519
g15
I9
sg442
g443
sg444
g218
sg445
g446
sg447
g457
sg449
S'elset_wall_1_1'
p520
sg451
Nsg452
g453
sbsg164
g0
(g438
g2
Ntp521
Rp522
(dp523
g15
I6
sg442
g443
sg444
g164
sg445
g470
sg447
g471
sg449
S'elset_plate_7'
p524
sg451
Nsg452
g453
sbsg314
g0
(g438
g2
Ntp525
Rp526
(dp527
g15
I25
sg442
g443
sg444
g314
sg445
g446
sg447
g448
sg449
S'elset_wall_2_8'
p528
sg451
Nsg452
g453
sbsg110
g0
(g438
g2
Ntp529
Rp530
(dp531
g15
I3
sg442
g443
sg444
g110
sg445
g470
sg447
g471
sg449
S'elset_plate_4'
p532
sg451
Nsg452
g453
sbsg74
g0
(g438
g2
Ntp533
Rp534
(dp535
g15
I1
sg442
g443
sg444
g74
sg445
g470
sg447
g471
sg449
S'elset_plate_2'
p536
sg451
Nsg452
g453
sbsg329
g0
(g438
g2
Ntp537
Rp538
(dp539
g15
I27
sg442
g443
sg444
g329
sg445
S'elset_mpc_element_mat'
p540
sg447
S'sec_mpc'
p541
sg449
S'elset_mpcs'
p542
sg451
Nsg452
g453
sbsg254
g0
(g438
g2
Ntp543
Rp544
(dp545
g15
I15
sg442
g443
sg444
g254
sg445
g446
sg447
g457
sg449
S'elset_wall_1_7'
p546
sg451
Nsg452
g453
sbsg308
g0
(g438
g2
Ntp547
Rp548
(dp549
g15
I24
sg442
g443
sg444
g308
sg445
g446
sg447
g448
sg449
S'elset_wall_2_7'
p550
sg451
Nsg452
g453
sbsg320
g0
(g438
g2
Ntp551
Rp552
(dp553
g15
I26
sg442
g443
sg444
g320
sg445
g446
sg447
g448
sg449
S'elset_wall_2_9'
p554
sg451
Nsg452
g453
sbsg272
g0
(g438
g2
Ntp555
Rp556
(dp557
g15
I18
sg442
g443
sg444
g272
sg445
g446
sg447
g448
sg449
S'elset_wall_2_1'
p558
sg451
Nsg452
g453
sbsg146
g0
(g438
g2
Ntp559
Rp560
(dp561
g15
I5
sg442
g443
sg444
g146
sg445
g470
sg447
g471
sg449
S'elset_plate_6'
p562
sg451
Nsg452
g453
sbsg242
g0
(g438
g2
Ntp563
Rp564
(dp565
g15
I13
sg442
g443
sg444
g242
sg445
g446
sg447
g457
sg449
S'elset_wall_1_5'
p566
sg451
Nsg452
g453
sbssS'interactions'
p567
(dp568
sS'loads'
p569
(dp570
S'Gleis1_BAHNLASTEN_Lasteinzugsflache_Lastblock_-3'
p571
g0
(ccompas_fea.structure.load
AreaLoad
p572
g2
Ntp573
Rp574
(dp575
g15
I9
sS'__name__'
p576
S'AreaLoad'
p577
sS'name'
p578
g571
sS'axes'
p579
S'global'
p580
sS'components'
p581
(dp582
g23
F0.060325091644403243
sg27
I0
sg28
I0
ssS'nodes'
p583
(lp584
sS'elements'
p585
(lp586
I1
aI9
asS'attr_list'
p587
(lp588
S'name'
p589
aS'axes'
p590
aS'components'
p591
aS'nodes'
p592
aS'elements'
p593
asbsS'earthPressure_liveLoad'
p594
g0
(g572
g2
Ntp595
Rp596
(dp597
g15
I10
sg576
g577
sg578
g594
sg579
S'local'
p598
sg581
(dp599
g23
F0.037699999999999997
sg27
I0
sg28
I0
ssg583
g584
sg585
(lp600
I37
aI38
aI40
aI41
aI43
aI44
asg587
(lp601
g589
ag590
ag591
ag592
ag593
asbsS'Gleis1_BAHNLASTEN_Lasteinzugsflache_Lastblock_-2'
p602
g0
(g572
g2
Ntp603
Rp604
(dp605
g15
I8
sg576
g577
sg578
g602
sg579
g580
sg581
(dp606
g23
F0.060325091644403243
sg27
I0
sg28
I0
ssg583
g584
sg585
(lp607
I2
aI10
asg587
(lp608
g589
ag590
ag591
ag592
ag593
asbsS'Gleis1_EIGENGEWICHTE_SCHIENE_Lasteinzugsflache'
p609
g0
(g572
g2
Ntp610
Rp611
(dp612
g15
I3
sg576
g577
sg578
g609
sg579
g580
sg581
(dp613
g23
F0.0021620511038825414
sg27
I0
sg28
I0
ssg583
g584
sg585
(lp614
I1
aI2
aI3
aI4
aI9
aI10
aI11
aI12
aI13
aI14
aI19
aI20
aI21
aI22
aI23
aI24
aI25
aI26
aI29
aI30
aI31
aI32
aI33
aI34
aI35
aI36
asg587
(lp615
g589
ag590
ag591
ag592
ag593
asbsS'earthPressure_backfill'
p616
g0
(g572
g2
Ntp617
Rp618
(dp619
g15
I2
sg576
g577
sg578
g616
sg579
g598
sg581
(dp620
g23
F0.053414778414137949
sg27
I0
sg28
I0
ssg583
g584
sg585
(lp621
g520
ag458
ag492
ag508
ag566
ag484
ag546
ag462
ag512
ag558
ag466
ag500
ag450
ag476
ag504
ag550
ag528
ag554
asg587
(lp622
g589
ag590
ag591
ag592
ag593
asbsS'Gleis1_BAHNLASTEN_Lasteinzugsflache_Lastblock_2'
p623
g0
(g572
g2
Ntp624
Rp625
(dp626
g15
I5
sg576
g577
sg578
g623
sg579
g580
sg581
(dp627
g23
F0.060325091644403243
sg27
I0
sg28
I0
ssg583
g584
sg585
(lp628
I13
aI21
aI36
asg587
(lp629
g589
ag590
ag591
ag592
ag593
asbsS'earthPressure_gravel'
p630
g0
(g572
g2
Ntp631
Rp632
(dp633
g15
I1
sg576
g577
sg578
g630
sg579
g580
sg581
(dp634
g23
F0.013500000000000002
sg27
I0
sg28
I0
ssg583
g584
sg585
(lp635
g472
ag536
ag496
ag532
ag488
ag562
ag524
ag516
ag480
asg587
(lp636
g589
ag590
ag591
ag592
ag593
asbsS'Gleis1_BAHNLASTEN_Lasteinzugsflache_Lastblock_3'
p637
g0
(g572
g2
Ntp638
Rp639
(dp640
g15
I6
sg576
g577
sg578
g637
sg579
g580
sg581
(dp641
g23
F0.060325091644403243
sg27
I0
sg28
I0
ssg583
g584
sg585
(lp642
I14
aI22
asg587
(lp643
g589
ag590
ag591
ag592
ag593
asbsS'Gleis1_BAHNLASTEN_Lasteinzugsflache_Lastblock_1'
p644
g0
(g572
g2
Ntp645
Rp646
(dp647
g15
I4
sg576
g577
sg578
g644
sg579
g580
sg581
(dp648
g23
F0.060325091644403243
sg27
I0
sg28
I0
ssg583
g584
sg585
(lp649
I30
aI31
aI34
aI35
asg587
(lp650
g589
ag590
ag591
ag592
ag593
asbsS'load_gravity'
p651
g0
(ccompas_fea.structure.load
GravityLoad
p652
g2
Ntp653
Rp654
(dp655
g15
I0
sg576
S'GravityLoad'
p656
sg578
g651
sg579
g580
sg581
(dp657
g23
F1.3500000000000001
sg27
F0.0
sg28
F0.0
ssg583
g584
sg585
(lp658
g472
ag536
ag496
ag532
ag488
ag562
ag524
ag516
ag480
ag520
ag458
ag492
ag508
ag566
ag484
ag546
ag462
ag512
ag558
ag466
ag500
ag450
ag476
ag504
ag550
ag528
ag554
asg587
(lp659
g589
ag590
ag591
ag592
ag593
aS'g'
p660
asS'g'
p661
F-9.8100000000000005
sbsS'Gleis1_BAHNLASTEN_Lasteinzugsflache_Lastblock_-1'
p662
g0
(g572
g2
Ntp663
Rp664
(dp665
g15
I7
sg576
g577
sg578
g662
sg579
g580
sg581
(dp666
g23
F0.060325091644403243
sg27
I0
sg28
I0
ssg583
g584
sg585
(lp667
I25
aI26
aI29
aI30
aI33
asg587
(lp668
g589
ag590
ag591
ag592
ag593
asbssS'materials'
p669
(dp670
g540
g0
(ccompas_fea.structure.material
MPCStiff
p671
g2
Ntp672
Rp673
(dp674
g15
I2
sS'__name__'
p675
S'MPCStiff'
p676
sS'name'
p677
g540
sS'attr_list'
p678
(lp679
g589
aS'E'
p680
aS'v'
p681
aS'G'
p682
aS'p'
p683
aS'tension'
p684
aS'compression'
p685
asS'E'
p686
(dp687
g680
L10000000000000L
ssS'v'
p688
(dp689
g681
F0.29999999999999999
ssS'G'
p690
(dp691
g682
F3846153846153.8462
ssS'p'
p692
F0.10000000000000001
sS'tension'
p693
I01
sS'compression'
p694
I01
sbsg446
g0
(ccompas_fea.structure.material
CMMUsermat
p695
g2
Ntp696
Rp697
(dp698
g15
I1
sg675
S'CMMUsermat'
p699
sg677
g446
sg678
(lp700
g589
ag680
ag681
ag682
ag683
aS'R_Rohr'
p701
aS'rho'
p702
aS'oo'
p703
aS'uu'
p704
aS'beton'
p705
aS'fcc'
p706
aS'vc'
p707
aS'ecu'
p708
aS'k_E'
p709
aS'theta_b0'
p710
aS'theta_b1'
p711
aS'k_riss'
p712
aS'Entfestigung'
p713
aS'lambdaTS'
p714
aS'srmx'
p715
aS'srmy'
p716
aS'Begrenzung'
p717
aS'KritQ'
p718
aS'winkelD'
p719
aS'k_vr'
p720
aS'fswy'
p721
aS'stahl1'
p722
aS'zm1'
p723
aS'fsy1'
p724
aS'fsu1'
p725
aS'esu1'
p726
aS'esv1'
p727
aS'Es1'
p728
aS'ka1'
p729
aS'kb1'
p730
aS'kc1'
p731
aS'as1'
p732
aS'dm1'
p733
aS'psi1'
p734
aS'stahl2'
p735
aS'zm2'
p736
aS'fsy2'
p737
aS'fsu2'
p738
aS'esu2'
p739
aS'esv2'
p740
aS'Es2'
p741
aS'ka2'
p742
aS'kb2'
p743
aS'kc2'
p744
aS'as2'
p745
aS'dm2'
p746
aS'psi2'
p747
aS'stahl3'
p748
aS'zm3'
p749
aS'fsy3'
p750
aS'fsu3'
p751
aS'esu3'
p752
aS'esv3'
p753
aS'Es3'
p754
aS'ka3'
p755
aS'kb3'
p756
aS'kc3'
p757
aS'as3'
p758
aS'dm3'
p759
aS'psi3'
p760
aS'stahl4'
p761
aS'zm4'
p762
aS'fsy4'
p763
aS'fsu4'
p764
aS'esu4'
p765
aS'esv4'
p766
aS'Es4'
p767
aS'ka4'
p768
aS'kb4'
p769
aS'kc4'
p770
aS'as4'
p771
aS'dm4'
p772
aS'psi4'
p773
asS'E'
p774
(dp775
S'E'
p776
I200000
ssS'v'
p777
(dp778
S'v'
p779
F0.10000000000000001
ssS'G'
p780
(dp781
g682
F90909.090909090897
ssS'p'
p782
F2.5000000000000002e-06
sS'R_Rohr'
p783
(dp784
g701
I-1
ssS'rho'
p785
(dp786
g702
F2.5000000000000002e-06
ssS'oo'
p787
(dp788
g703
I30
ssS'uu'
p789
(dp790
g704
I30
ssS'beton'
p791
(dp792
g705
I2
ssS'fcc'
p793
(dp794
g706
I44
ssS'vc'
p795
(dp796
g707
I0
ssS'ecu'
p797
(dp798
g708
F-0.002
ssS'k_E'
p799
(dp800
g709
I10000
ssS'theta_b0'
p801
(dp802
g710
I2
ssS'theta_b1'
p803
(dp804
g711
I1
ssS'k_riss'
p805
(dp806
g712
I0
ssS'Entfestigung'
p807
(dp808
g713
I0
ssS'lambdaTS'
p809
(dp810
g714
F0.67000000000000004
ssS'srmx'
p811
(dp812
g715
I1
ssS'srmy'
p813
(dp814
g716
I1
ssS'Begrenzung'
p815
(dp816
g717
I2
ssS'KritQ'
p817
(dp818
g718
I0
ssS'winkelD'
p819
(dp820
g719
I45
ssS'k_vr'
p821
(dp822
g720
I1
ssS'fswy'
p823
(dp824
g721
I500
ssS'stahl1'
p825
(dp826
g722
I1
ssS'zm1'
p827
(dp828
g723
I2
ssS'fsy1'
p829
(dp830
g724
I445
ssS'fsu1'
p831
(dp832
g725
I481
ssS'esu1'
p833
(dp834
g726
F0.044999999999999998
ssS'esv1'
p835
(dp836
g727
F0.02
ssS'Es1'
p837
(dp838
g728
I200000
ssS'ka1'
p839
(dp840
g729
I-1
ssS'kb1'
p841
(dp842
g730
I-1
ssS'kc1'
p843
(dp844
g731
I-1
ssS'as1'
p845
(dp846
g732
F1.8319835299754803
ssS'dm1'
p847
(dp848
g733
F25.476379693322002
ssS'psi1'
p849
(dp850
g734
I90
ssS'stahl2'
p851
(dp852
g735
I1
ssS'zm2'
p853
(dp854
g736
I2
ssS'fsy2'
p855
(dp856
g737
I445
ssS'fsu2'
p857
(dp858
g738
I481
ssS'esu2'
p859
(dp860
g739
F0.044999999999999998
ssS'esv2'
p861
(dp862
g740
F0.02
ssS'Es2'
p863
(dp864
g741
I200000
ssS'ka2'
p865
(dp866
g742
I-1
ssS'kb2'
p867
(dp868
g743
I-1
ssS'kc2'
p869
(dp870
g744
I-1
ssS'as2'
p871
(dp872
g745
F0.40645140699820898
ssS'dm2'
p873
(dp874
g746
F12.0
ssS'psi2'
p875
(dp876
g747
I0
ssS'stahl3'
p877
(dp878
g748
I1
ssS'zm3'
p879
(dp880
g749
I2
ssS'fsy3'
p881
(dp882
g750
I445
ssS'fsu3'
p883
(dp884
g751
I481
ssS'esu3'
p885
(dp886
g752
F0.044999999999999998
ssS'esv3'
p887
(dp888
g753
F0.02
ssS'Es3'
p889
(dp890
g754
I200000
ssS'ka3'
p891
(dp892
g755
I-1
ssS'kb3'
p893
(dp894
g756
I-1
ssS'kc3'
p895
(dp896
g757
I-1
ssS'as3'
p897
(dp898
g758
F0.40645140699820898
ssS'dm3'
p899
(dp900
g759
F12.0
ssS'psi3'
p901
(dp902
g760
I0
ssS'stahl4'
p903
(dp904
g761
I1
ssS'zm4'
p905
(dp906
g762
I2
ssS'fsy4'
p907
(dp908
g763
I445
ssS'fsu4'
p909
(dp910
g764
I481
ssS'esu4'
p911
(dp912
g765
F0.044999999999999998
ssS'esv4'
p913
(dp914
g766
F0.02
ssS'Es4'
p915
(dp916
g767
I200000
ssS'ka4'
p917
(dp918
g768
I-1
ssS'kb4'
p919
(dp920
g769
I-1
ssS'kc4'
p921
(dp922
g770
I-1
ssS'as4'
p923
(dp924
g771
F1.7121322959809
ssS'dm4'
p925
(dp926
g772
F24.628932594081707
ssS'psi4'
p927
(dp928
g773
I90
ssbsg470
g0
(g695
g2
Ntp929
Rp930
(dp931
g15
I0
sg675
g699
sg677
g470
sg678
(lp932
g589
ag680
ag681
ag682
ag683
ag701
ag702
ag703
ag704
ag705
ag706
ag707
ag708
ag709
ag710
ag711
ag712
ag713
ag714
ag715
ag716
ag717
ag718
ag719
ag720
ag721
ag722
ag723
ag724
ag725
ag726
ag727
ag728
ag729
ag730
ag731
ag732
ag733
ag734
ag735
ag736
ag737
ag738
ag739
ag740
ag741
ag742
ag743
ag744
ag745
ag746
ag747
ag748
ag749
ag750
ag751
ag752
ag753
ag754
ag755
ag756
ag757
ag758
ag759
ag760
ag761
ag762
ag763
ag764
ag765
ag766
ag767
ag768
ag769
ag770
ag771
ag772
ag773
asg774
(dp933
g776
I200000
ssg777
(dp934
g779
F0.10000000000000001
ssg780
(dp935
g682
F90909.090909090897
ssg782
F2.5000000000000002e-06
sg783
(dp936
g701
I-1
ssg785
(dp937
g702
F2.5000000000000002e-06
ssg787
(dp938
g703
I30
ssg789
(dp939
g704
I30
ssg791
(dp940
g705
I2
ssg793
(dp941
g706
I44
ssg795
(dp942
g707
I0
ssg797
(dp943
g708
F-0.002
ssg799
(dp944
g709
I10000
ssg801
(dp945
g710
I2
ssg803
(dp946
g711
I1
ssg805
(dp947
g712
I0
ssg807
(dp948
g713
I0
ssg809
(dp949
g714
F0.67000000000000004
ssg811
(dp950
g715
I1
ssg813
(dp951
g716
I1
ssg815
(dp952
g717
I2
ssg817
(dp953
g718
I0
ssg819
(dp954
g719
I45
ssg821
(dp955
g720
I1
ssg823
(dp956
g721
I500
ssg825
(dp957
g722
I1
ssg827
(dp958
g723
I2
ssg829
(dp959
g724
I445
ssg831
(dp960
g725
I481
ssg833
(dp961
g726
F0.044999999999999998
ssg835
(dp962
g727
F0.02
ssg837
(dp963
g728
I200000
ssg839
(dp964
g729
I-1
ssg841
(dp965
g730
I-1
ssg843
(dp966
g731
I-1
ssg845
(dp967
g732
F0.40960732481129097
ssg847
(dp968
g733
F14.196150056906824
ssg849
(dp969
g734
I90
ssg851
(dp970
g735
I1
ssg853
(dp971
g736
I2
ssg855
(dp972
g737
I445
ssg857
(dp973
g738
I481
ssg859
(dp974
g739
F0.044999999999999998
ssg861
(dp975
g740
F0.02
ssg863
(dp976
g741
I200000
ssg865
(dp977
g742
I-1
ssg867
(dp978
g743
I-1
ssg869
(dp979
g744
I-1
ssg871
(dp980
g745
F0.36740174849197649
ssg873
(dp981
g746
F13.444892482152284
ssg875
(dp982
g747
I0
ssg877
(dp983
g748
I1
ssg879
(dp984
g749
I2
ssg881
(dp985
g750
I445
ssg883
(dp986
g751
I481
ssg885
(dp987
g752
F0.044999999999999998
ssg887
(dp988
g753
F0.02
ssg889
(dp989
g754
I200000
ssg891
(dp990
g755
I-1
ssg893
(dp991
g756
I-1
ssg895
(dp992
g757
I-1
ssg897
(dp993
g758
F0.29267730260861197
ssg899
(dp994
g759
F12.0
ssg901
(dp995
g760
I0
ssg903
(dp996
g761
I1
ssg905
(dp997
g762
I2
ssg907
(dp998
g763
I445
ssg909
(dp999
g764
I481
ssg911
(dp1000
g765
F0.044999999999999998
ssg913
(dp1001
g766
F0.02
ssg915
(dp1002
g767
I200000
ssg917
(dp1003
g768
I-1
ssg919
(dp1004
g769
I-1
ssg921
(dp1005
g770
I-1
ssg923
(dp1006
g771
F0.83900380342252379
ssg925
(dp1007
g772
F20.317426107715761
ssg927
(dp1008
g773
I90
ssbssS'misc'
p1009
(dp1010
sS'name'
p1011
S'NLFE_CFB7'
p1012
sS'nodes'
p1013
(dp1014
I0
g0
(ccompas_fea.structure.node
Node
p1015
g2
Ntp1016
Rp1017
(dp1018
S'__name__'
p1019
S'Node'
p1020
sS'key'
p1021
I0
sS'x'
p1022
F0.0
sS'y'
p1023
F0.0
sS'z'
p1024
F0.0
sS'ex'
p1025
(lp1026
I1
aI0
aI0
asS'ey'
p1027
(lp1028
I0
aI1
aI0
asS'ez'
p1029
(lp1030
I0
aI0
aI1
asS'mass'
p1031
NsbsI1
g0
(g1015
g2
Ntp1032
Rp1033
(dp1034
g1019
g1020
sg1021
I1
sg1022
F1310.4271085493438
sg1023
F0.0
sg1024
F0.0
sg1025
g1026
sg1027
g1028
sg1029
g1030
sg1031
NsbsI2
g0
(g1015
g2
Ntp1035
Rp1036
(dp1037
g1019
g1020
sg1021
I2
sg1022
F0.0
sg1023
F1377.9701351179626
sg1024
F0.0
sg1025
g1026
sg1027
g1028
sg1029
g1030
sg1031
NsbsI3
g0
(g1015
g2
Ntp1038
Rp1039
(dp1040
g1019
g1020
sg1021
I3
sg1022
F1310.4271085493438
sg1023
F1377.9701351179626
sg1024
F0.0
sg1025
g1026
sg1027
g1028
sg1029
g1030
sg1031
NsbsI4
g0
(g1015
g2
Ntp1041
Rp1042
(dp1043
g1019
g1020
sg1021
I4
sg1022
F0.0
sg1023
F2755.9402702359253
sg1024
F0.0
sg1025
g1026
sg1027
g1028
sg1029
g1030
sg1031
NsbsI5
g0
(g1015
g2
Ntp1044
Rp1045
(dp1046
g1019
g1020
sg1021
I5
sg1022
F1310.4271085493438
sg1023
F2755.9402702359253
sg1024
F0.0
sg1025
g1026
sg1027
g1028
sg1029
g1030
sg1031
NsbsI6
g0
(g1015
g2
Ntp1047
Rp1048
(dp1049
g1019
g1020
sg1021
I6
sg1022
F0.0
sg1023
F4133.9104053538877
sg1024
F0.0
sg1025
g1026
sg1027
g1028
sg1029
g1030
sg1031
NsbsI7
g0
(g1015
g2
Ntp1050
Rp1051
(dp1052
g1019
g1020
sg1021
I7
sg1022
F1310.4271085493438
sg1023
F4133.9104053538877
sg1024
F0.0
sg1025
g1026
sg1027
g1028
sg1029
g1030
sg1031
NsbsI8
g0
(g1015
g2
Ntp1053
Rp1054
(dp1055
g1019
g1020
sg1021
I8
sg1022
F0.0
sg1023
F5511.8805404718505
sg1024
F0.0
sg1025
g1026
sg1027
g1028
sg1029
g1030
sg1031
NsbsI9
g0
(g1015
g2
Ntp1056
Rp1057
(dp1058
g1019
g1020
sg1021
I9
sg1022
F1310.4271085493438
sg1023
F5511.8805404718505
sg1024
F0.0
sg1025
g1026
sg1027
g1028
sg1029
g1030
sg1031
NsbsI10
g0
(g1015
g2
Ntp1059
Rp1060
(dp1061
g1019
g1020
sg1021
I10
sg1022
F0.0
sg1023
F11190.787763988301
sg1024
F0.0
sg1025
g1026
sg1027
g1028
sg1029
g1030
sg1031
NsbsI11
g0
(g1015
g2
Ntp1062
Rp1063
(dp1064
g1019
g1020
sg1021
I11
sg1022
F1310.4271085493438
sg1023
F11190.787763988301
sg1024
F0.0
sg1025
g1026
sg1027
g1028
sg1029
g1030
sg1031
NsbsI12
g0
(g1015
g2
Ntp1065
Rp1066
(dp1067
g1019
g1020
sg1021
I12
sg1022
F0.0
sg1023
F12568.757899106264
sg1024
F0.0
sg1025
g1026
sg1027
g1028
sg1029
g1030
sg1031
NsbsI13
g0
(g1015
g2
Ntp1068
Rp1069
(dp1070
g1019
g1020
sg1021
I13
sg1022
F1310.4271085493438
sg1023
F12568.757899106264
sg1024
F0.0
sg1025
g1026
sg1027
g1028
sg1029
g1030
sg1031
NsbsI14
g0
(g1015
g2
Ntp1071
Rp1072
(dp1073
g1019
g1020
sg1021
I14
sg1022
F0.0
sg1023
F13946.728034224227
sg1024
F0.0
sg1025
g1026
sg1027
g1028
sg1029
g1030
sg1031
NsbsI15
g0
(g1015
g2
Ntp1074
Rp1075
(dp1076
g1019
g1020
sg1021
I15
sg1022
F1310.4271085493438
sg1023
F13946.728034224227
sg1024
F0.0
sg1025
g1026
sg1027
g1028
sg1029
g1030
sg1031
NsbsI16
g0
(g1015
g2
Ntp1077
Rp1078
(dp1079
g1019
g1020
sg1021
I16
sg1022
F0.0
sg1023
F15324.698169342189
sg1024
F0.0
sg1025
g1026
sg1027
g1028
sg1029
g1030
sg1031
NsbsI17
g0
(g1015
g2
Ntp1080
Rp1081
(dp1082
g1019
g1020
sg1021
I17
sg1022
F1310.4271085493438
sg1023
F15324.698169342189
sg1024
F0.0
sg1025
g1026
sg1027
g1028
sg1029
g1030
sg1031
NsbsI18
g0
(g1015
g2
Ntp1083
Rp1084
(dp1085
g1019
g1020
sg1021
I18
sg1022
F0.0
sg1023
F16702.668304460152
sg1024
F0.0
sg1025
g1026
sg1027
g1028
sg1029
g1030
sg1031
NsbsI19
g0
(g1015
g2
Ntp1086
Rp1087
(dp1088
g1019
g1020
sg1021
I19
sg1022
F1310.4271085493438
sg1023
F16702.668304460152
sg1024
F0.0
sg1025
g1026
sg1027
g1028
sg1029
g1030
sg1031
NsbsI20
g0
(g1015
g2
Ntp1089
Rp1090
(dp1091
g1019
g1020
sg1021
I20
sg1022
F2620.8542170986875
sg1023
F0.0
sg1024
F0.0
sg1025
g1026
sg1027
g1028
sg1029
g1030
sg1031
NsbsI21
g0
(g1015
g2
Ntp1092
Rp1093
(dp1094
g1019
g1020
sg1021
I21
sg1022
F2620.8542170986875
sg1023
F1377.9701351179626
sg1024
F0.0
sg1025
g1026
sg1027
g1028
sg1029
g1030
sg1031
NsbsI22
g0
(g1015
g2
Ntp1095
Rp1096
(dp1097
g1019
g1020
sg1021
I22
sg1022
F2620.8542170986875
sg1023
F2755.9402702359253
sg1024
F0.0
sg1025
g1026
sg1027
g1028
sg1029
g1030
sg1031
NsbsI23
g0
(g1015
g2
Ntp1098
Rp1099
(dp1100
g1019
g1020
sg1021
I23
sg1022
F2620.8542170986875
sg1023
F4133.9104053538877
sg1024
F0.0
sg1025
g1026
sg1027
g1028
sg1029
g1030
sg1031
NsbsI24
g0
(g1015
g2
Ntp1101
Rp1102
(dp1103
g1019
g1020
sg1021
I24
sg1022
F2620.8542170986875
sg1023
F5511.8805404718505
sg1024
F0.0
sg1025
g1026
sg1027
g1028
sg1029
g1030
sg1031
NsbsI25
g0
(g1015
g2
Ntp1104
Rp1105
(dp1106
g1019
g1020
sg1021
I25
sg1022
F2620.8542170986875
sg1023
F11190.787763988301
sg1024
F0.0
sg1025
g1026
sg1027
g1028
sg1029
g1030
sg1031
NsbsI26
g0
(g1015
g2
Ntp1107
Rp1108
(dp1109
g1019
g1020
sg1021
I26
sg1022
F2620.8542170986875
sg1023
F12568.757899106264
sg1024
F0.0
sg1025
g1026
sg1027
g1028
sg1029
g1030
sg1031
NsbsI27
g0
(g1015
g2
Ntp1110
Rp1111
(dp1112
g1019
g1020
sg1021
I27
sg1022
F2620.8542170986875
sg1023
F13946.728034224227
sg1024
F0.0
sg1025
g1026
sg1027
g1028
sg1029
g1030
sg1031
NsbsI28
g0
(g1015
g2
Ntp1113
Rp1114
(dp1115
g1019
g1020
sg1021
I28
sg1022
F2620.8542170986875
sg1023
F15324.698169342189
sg1024
F0.0
sg1025
g1026
sg1027
g1028
sg1029
g1030
sg1031
NsbsI29
g0
(g1015
g2
Ntp1116
Rp1117
(dp1118
g1019
g1020
sg1021
I29
sg1022
F2620.8542170986875
sg1023
F16702.668304460152
sg1024
F0.0
sg1025
g1026
sg1027
g1028
sg1029
g1030
sg1031
NsbsI30
g0
(g1015
g2
Ntp1119
Rp1120
(dp1121
g1019
g1020
sg1021
I30
sg1022
F3970.9912380283145
sg1023
F0.0
sg1024
F0.0
sg1025
g1026
sg1027
g1028
sg1029
g1030
sg1031
NsbsI31
g0
(g1015
g2
Ntp1122
Rp1123
(dp1124
g1019
g1020
sg1021
I31
sg1022
F3970.991238028314
sg1023
F1377.9701351179626
sg1024
F0.0
sg1025
g1026
sg1027
g1028
sg1029
g1030
sg1031
NsbsI32
g0
(g1015
g2
Ntp1125
Rp1126
(dp1127
g1019
g1020
sg1021
I32
sg1022
F3970.9912380283145
sg1023
F2755.9402702359253
sg1024
F0.0
sg1025
g1026
sg1027
g1028
sg1029
g1030
sg1031
NsbsI33
g0
(g1015
g2
Ntp1128
Rp1129
(dp1130
g1019
g1020
sg1021
I33
sg1022
F3970.991238028314
sg1023
F4133.9104053538877
sg1024
F0.0
sg1025
g1026
sg1027
g1028
sg1029
g1030
sg1031
NsbsI34
g0
(g1015
g2
Ntp1131
Rp1132
(dp1133
g1019
g1020
sg1021
I34
sg1022
F3970.9912380283145
sg1023
F5511.8805404718505
sg1024
F0.0
sg1025
g1026
sg1027
g1028
sg1029
g1030
sg1031
NsbsI35
g0
(g1015
g2
Ntp1134
Rp1135
(dp1136
g1019
g1020
sg1021
I35
sg1022
F3970.9912380283145
sg1023
F11190.787763988301
sg1024
F0.0
sg1025
g1026
sg1027
g1028
sg1029
g1030
sg1031
NsbsI36
g0
(g1015
g2
Ntp1137
Rp1138
(dp1139
g1019
g1020
sg1021
I36
sg1022
F3970.9912380283145
sg1023
F12568.757899106264
sg1024
F0.0
sg1025
g1026
sg1027
g1028
sg1029
g1030
sg1031
NsbsI37
g0
(g1015
g2
Ntp1140
Rp1141
(dp1142
g1019
g1020
sg1021
I37
sg1022
F3970.9912380283145
sg1023
F13946.728034224227
sg1024
F0.0
sg1025
g1026
sg1027
g1028
sg1029
g1030
sg1031
NsbsI38
g0
(g1015
g2
Ntp1143
Rp1144
(dp1145
g1019
g1020
sg1021
I38
sg1022
F3970.9912380283145
sg1023
F15324.698169342189
sg1024
F0.0
sg1025
g1026
sg1027
g1028
sg1029
g1030
sg1031
NsbsI39
g0
(g1015
g2
Ntp1146
Rp1147
(dp1148
g1019
g1020
sg1021
I39
sg1022
F3970.9912380283145
sg1023
F16702.668304460152
sg1024
F0.0
sg1025
g1026
sg1027
g1028
sg1029
g1030
sg1031
NsbsI40
g0
(g1015
g2
Ntp1149
Rp1150
(dp1151
g1019
g1020
sg1021
I40
sg1022
F0.0
sg1023
F6931.6073463509629
sg1024
F0.0
sg1025
g1026
sg1027
g1028
sg1029
g1030
sg1031
NsbsI41
g0
(g1015
g2
Ntp1152
Rp1153
(dp1154
g1019
g1020
sg1021
I41
sg1022
F1310.4271085493438
sg1023
F6931.6073463509629
sg1024
F0.0
sg1025
g1026
sg1027
g1028
sg1029
g1030
sg1031
NsbsI42
g0
(g1015
g2
Ntp1155
Rp1156
(dp1157
g1019
g1020
sg1021
I42
sg1022
F0.0
sg1023
F8351.3341522300761
sg1024
F0.0
sg1025
g1026
sg1027
g1028
sg1029
g1030
sg1031
NsbsI43
g0
(g1015
g2
Ntp1158
Rp1159
(dp1160
g1019
g1020
sg1021
I43
sg1022
F1310.4271085493438
sg1023
F8351.3341522300761
sg1024
F0.0
sg1025
g1026
sg1027
g1028
sg1029
g1030
sg1031
NsbsI44
g0
(g1015
g2
Ntp1161
Rp1162
(dp1163
g1019
g1020
sg1021
I44
sg1022
F0.0
sg1023
F9771.0609581091885
sg1024
F0.0
sg1025
g1026
sg1027
g1028
sg1029
g1030
sg1031
NsbsI45
g0
(g1015
g2
Ntp1164
Rp1165
(dp1166
g1019
g1020
sg1021
I45
sg1022
F1310.4271085493438
sg1023
F9771.0609581091885
sg1024
F0.0
sg1025
g1026
sg1027
g1028
sg1029
g1030
sg1031
NsbsI46
g0
(g1015
g2
Ntp1167
Rp1168
(dp1169
g1019
g1020
sg1021
I46
sg1022
F2620.8542170986875
sg1023
F6931.6073463509629
sg1024
F0.0
sg1025
g1026
sg1027
g1028
sg1029
g1030
sg1031
NsbsI47
g0
(g1015
g2
Ntp1170
Rp1171
(dp1172
g1019
g1020
sg1021
I47
sg1022
F2620.8542170986875
sg1023
F8351.3341522300761
sg1024
F0.0
sg1025
g1026
sg1027
g1028
sg1029
g1030
sg1031
NsbsI48
g0
(g1015
g2
Ntp1173
Rp1174
(dp1175
g1019
g1020
sg1021
I48
sg1022
F2620.8542170986875
sg1023
F9771.0609581091885
sg1024
F0.0
sg1025
g1026
sg1027
g1028
sg1029
g1030
sg1031
NsbsI49
g0
(g1015
g2
Ntp1176
Rp1177
(dp1178
g1019
g1020
sg1021
I49
sg1022
F3970.9912380283145
sg1023
F6931.6073463509629
sg1024
F0.0
sg1025
g1026
sg1027
g1028
sg1029
g1030
sg1031
NsbsI50
g0
(g1015
g2
Ntp1179
Rp1180
(dp1181
g1019
g1020
sg1021
I50
sg1022
F3970.9912380283145
sg1023
F8351.3341522300761
sg1024
F0.0
sg1025
g1026
sg1027
g1028
sg1029
g1030
sg1031
NsbsI51
g0
(g1015
g2
Ntp1182
Rp1183
(dp1184
g1019
g1020
sg1021
I51
sg1022
F3970.991238028314
sg1023
F9771.0609581091885
sg1024
F0.0
sg1025
g1026
sg1027
g1028
sg1029
g1030
sg1031
NsbsI52
g0
(g1015
g2
Ntp1185
Rp1186
(dp1187
g1019
g1020
sg1021
I52
sg1022
F0.0
sg1023
F0.0
sg1024
F-1884.1928960317446
sg1025
g1026
sg1027
g1028
sg1029
g1030
sg1031
NsbsI53
g0
(g1015
g2
Ntp1188
Rp1189
(dp1190
g1019
g1020
sg1021
I53
sg1022
F1310.4271085493399
sg1023
F0.0
sg1024
F-1884.1928960317446
sg1025
g1026
sg1027
g1028
sg1029
g1030
sg1031
NsbsI54
g0
(g1015
g2
Ntp1191
Rp1192
(dp1193
g1019
g1020
sg1021
I54
sg1022
F0.0
sg1023
F0.0
sg1024
F-1058.6459701355536
sg1025
g1026
sg1027
g1028
sg1029
g1030
sg1031
NsbsI55
g0
(g1015
g2
Ntp1194
Rp1195
(dp1196
g1019
g1020
sg1021
I55
sg1022
F1310.4271085493399
sg1023
F0.0
sg1024
F-1058.6459701355536
sg1025
g1026
sg1027
g1028
sg1029
g1030
sg1031
NsbsI56
g0
(g1015
g2
Ntp1197
Rp1198
(dp1199
g1019
g1020
sg1021
I56
sg1022
F2620.8542170986898
sg1023
F0.0
sg1024
F-1884.1928960317446
sg1025
g1026
sg1027
g1028
sg1029
g1030
sg1031
NsbsI57
g0
(g1015
g2
Ntp1200
Rp1201
(dp1202
g1019
g1020
sg1021
I57
sg1022
F2620.8542170986898
sg1023
F0.0
sg1024
F-1058.6459701355536
sg1025
g1026
sg1027
g1028
sg1029
g1030
sg1031
NsbsI58
g0
(g1015
g2
Ntp1203
Rp1204
(dp1205
g1019
g1020
sg1021
I58
sg1022
F3970.9912380283099
sg1023
F0.0
sg1024
F-1884.1928960317446
sg1025
g1026
sg1027
g1028
sg1029
g1030
sg1031
NsbsI59
g0
(g1015
g2
Ntp1206
Rp1207
(dp1208
g1019
g1020
sg1021
I59
sg1022
F3970.9912380283099
sg1023
F0.0
sg1024
F-1058.6459701355536
sg1025
g1026
sg1027
g1028
sg1029
g1030
sg1031
NsbsI60
g0
(g1015
g2
Ntp1209
Rp1210
(dp1211
g1019
g1020
sg1021
I60
sg1022
F0.0
sg1023
F0.0
sg1024
F-2734.7563954399407
sg1025
g1026
sg1027
g1028
sg1029
g1030
sg1031
NsbsI61
g0
(g1015
g2
Ntp1212
Rp1213
(dp1214
g1019
g1020
sg1021
I61
sg1022
F1310.4271085493399
sg1023
F0.0
sg1024
F-2734.7563954399407
sg1025
g1026
sg1027
g1028
sg1029
g1030
sg1031
NsbsI62
g0
(g1015
g2
Ntp1215
Rp1216
(dp1217
g1019
g1020
sg1021
I62
sg1022
F2620.8542170986898
sg1023
F0.0
sg1024
F-2734.7563954399407
sg1025
g1026
sg1027
g1028
sg1029
g1030
sg1031
NsbsI63
g0
(g1015
g2
Ntp1218
Rp1219
(dp1220
g1019
g1020
sg1021
I63
sg1022
F3970.9912380283099
sg1023
F0.0
sg1024
F-2734.7563954399407
sg1025
g1026
sg1027
g1028
sg1029
g1030
sg1031
NsbsI64
g0
(g1015
g2
Ntp1221
Rp1222
(dp1223
g1019
g1020
sg1021
I64
sg1022
F0.0
sg1023
F0.0
sg1024
F-3560.3033213361314
sg1025
g1026
sg1027
g1028
sg1029
g1030
sg1031
NsbsI65
g0
(g1015
g2
Ntp1224
Rp1225
(dp1226
g1019
g1020
sg1021
I65
sg1022
F1310.4271085493399
sg1023
F0.0
sg1024
F-3560.3033213361314
sg1025
g1026
sg1027
g1028
sg1029
g1030
sg1031
NsbsI66
g0
(g1015
g2
Ntp1227
Rp1228
(dp1229
g1019
g1020
sg1021
I66
sg1022
F2620.8542170986898
sg1023
F0.0
sg1024
F-3560.3033213361314
sg1025
g1026
sg1027
g1028
sg1029
g1030
sg1031
NsbsI67
g0
(g1015
g2
Ntp1230
Rp1231
(dp1232
g1019
g1020
sg1021
I67
sg1022
F3970.9912380283099
sg1023
F0.0
sg1024
F-3560.3033213361314
sg1025
g1026
sg1027
g1028
sg1029
g1030
sg1031
NsbsI68
g0
(g1015
g2
Ntp1233
Rp1234
(dp1235
g1019
g1020
sg1021
I68
sg1022
F0.0
sg1023
F16702.668304460152
sg1024
F-1884.1928960317446
sg1025
g1026
sg1027
g1028
sg1029
g1030
sg1031
NsbsI69
g0
(g1015
g2
Ntp1236
Rp1237
(dp1238
g1019
g1020
sg1021
I69
sg1022
F1310.4271085493399
sg1023
F16702.668304460152
sg1024
F-1884.1928960317446
sg1025
g1026
sg1027
g1028
sg1029
g1030
sg1031
NsbsI70
g0
(g1015
g2
Ntp1239
Rp1240
(dp1241
g1019
g1020
sg1021
I70
sg1022
F0.0
sg1023
F16702.668304460152
sg1024
F-1058.6459701355536
sg1025
g1026
sg1027
g1028
sg1029
g1030
sg1031
NsbsI71
g0
(g1015
g2
Ntp1242
Rp1243
(dp1244
g1019
g1020
sg1021
I71
sg1022
F1310.4271085493399
sg1023
F16702.668304460152
sg1024
F-1058.6459701355536
sg1025
g1026
sg1027
g1028
sg1029
g1030
sg1031
NsbsI72
g0
(g1015
g2
Ntp1245
Rp1246
(dp1247
g1019
g1020
sg1021
I72
sg1022
F2620.8542170986898
sg1023
F16702.668304460152
sg1024
F-1884.1928960317446
sg1025
g1026
sg1027
g1028
sg1029
g1030
sg1031
NsbsI73
g0
(g1015
g2
Ntp1248
Rp1249
(dp1250
g1019
g1020
sg1021
I73
sg1022
F2620.8542170986898
sg1023
F16702.668304460152
sg1024
F-1058.6459701355536
sg1025
g1026
sg1027
g1028
sg1029
g1030
sg1031
NsbsI74
g0
(g1015
g2
Ntp1251
Rp1252
(dp1253
g1019
g1020
sg1021
I74
sg1022
F3970.9912380283099
sg1023
F16702.668304460152
sg1024
F-1884.1928960317446
sg1025
g1026
sg1027
g1028
sg1029
g1030
sg1031
NsbsI75
g0
(g1015
g2
Ntp1254
Rp1255
(dp1256
g1019
g1020
sg1021
I75
sg1022
F3970.9912380283099
sg1023
F16702.668304460152
sg1024
F-1058.6459701355536
sg1025
g1026
sg1027
g1028
sg1029
g1030
sg1031
NsbsI76
g0
(g1015
g2
Ntp1257
Rp1258
(dp1259
g1019
g1020
sg1021
I76
sg1022
F0.0
sg1023
F16702.668304460152
sg1024
F-2734.7563954399407
sg1025
g1026
sg1027
g1028
sg1029
g1030
sg1031
NsbsI77
g0
(g1015
g2
Ntp1260
Rp1261
(dp1262
g1019
g1020
sg1021
I77
sg1022
F1310.4271085493399
sg1023
F16702.668304460152
sg1024
F-2734.7563954399407
sg1025
g1026
sg1027
g1028
sg1029
g1030
sg1031
NsbsI78
g0
(g1015
g2
Ntp1263
Rp1264
(dp1265
g1019
g1020
sg1021
I78
sg1022
F2620.8542170986898
sg1023
F16702.668304460152
sg1024
F-2734.7563954399407
sg1025
g1026
sg1027
g1028
sg1029
g1030
sg1031
NsbsI79
g0
(g1015
g2
Ntp1266
Rp1267
(dp1268
g1019
g1020
sg1021
I79
sg1022
F3970.9912380283099
sg1023
F16702.668304460152
sg1024
F-2734.7563954399407
sg1025
g1026
sg1027
g1028
sg1029
g1030
sg1031
NsbsI80
g0
(g1015
g2
Ntp1269
Rp1270
(dp1271
g1019
g1020
sg1021
I80
sg1022
F0.0
sg1023
F16702.668304460152
sg1024
F-3560.3033213361314
sg1025
g1026
sg1027
g1028
sg1029
g1030
sg1031
NsbsI81
g0
(g1015
g2
Ntp1272
Rp1273
(dp1274
g1019
g1020
sg1021
I81
sg1022
F1310.4271085493399
sg1023
F16702.668304460152
sg1024
F-3560.3033213361314
sg1025
g1026
sg1027
g1028
sg1029
g1030
sg1031
NsbsI82
g0
(g1015
g2
Ntp1275
Rp1276
(dp1277
g1019
g1020
sg1021
I82
sg1022
F2620.8542170986898
sg1023
F16702.668304460152
sg1024
F-3560.3033213361314
sg1025
g1026
sg1027
g1028
sg1029
g1030
sg1031
NsbsI83
g0
(g1015
g2
Ntp1278
Rp1279
(dp1280
g1019
g1020
sg1021
I83
sg1022
F3970.9912380283099
sg1023
F16702.668304460152
sg1024
F-3560.3033213361314
sg1025
g1026
sg1027
g1028
sg1029
g1030
sg1031
NsbssS'node_index'
p1281
(dp1282
S'2620.854,0.000,0.000'
p1283
I20
sS'1310.427,16702.668,0.000'
p1284
I19
sS'1310.427,9771.061,0.000'
p1285
I45
sS'0.000,12568.758,0.000'
p1286
I12
sS'3970.991,0.000,-3560.303'
p1287
I67
sS'1310.427,16702.668,-3560.303'
p1288
I81
sS'1310.427,4133.910,0.000'
p1289
I7
sS'0.000,13946.728,0.000'
p1290
I14
sS'0.000,16702.668,-1058.646'
p1291
I70
sS'1310.427,13946.728,0.000'
p1292
I15
sS'1310.427,0.000,0.000'
p1293
I1
sS'0.000,4133.910,0.000'
p1294
I6
sS'3970.991,0.000,-2734.756'
p1295
I63
sS'2620.854,6931.607,0.000'
p1296
I46
sS'1310.427,15324.698,0.000'
p1297
I17
sS'3970.991,0.000,-1884.193'
p1298
I58
sS'2620.854,0.000,-2734.756'
p1299
I62
sS'3970.991,11190.788,0.000'
p1300
I35
sS'2620.854,4133.910,0.000'
p1301
I23
sS'0.000,5511.881,0.000'
p1302
I8
sS'1310.427,0.000,-1058.646'
p1303
I55
sS'2620.854,16702.668,-1884.193'
p1304
I72
sS'2620.854,16702.668,-1058.646'
p1305
I73
sS'3970.991,16702.668,-2734.756'
p1306
I79
sS'3970.991,16702.668,-3560.303'
p1307
I83
sS'0.000,2755.940,0.000'
p1308
I4
sS'1310.427,12568.758,0.000'
p1309
I13
sS'2620.854,8351.334,0.000'
p1310
I47
sS'1310.427,11190.788,0.000'
p1311
I11
sS'2620.854,15324.698,0.000'
p1312
I28
sS'0.000,16702.668,-1884.193'
p1313
I68
sS'1310.427,16702.668,-2734.756'
p1314
I77
sS'2620.854,0.000,-3560.303'
p1315
I66
sS'0.000,9771.061,0.000'
p1316
I44
sS'1310.427,0.000,-3560.303'
p1317
I65
sS'3970.991,0.000,-1058.646'
p1318
I59
sS'2620.854,1377.970,0.000'
p1319
I21
sS'0.000,0.000,-2734.756'
p1320
I60
sS'1310.427,1377.970,0.000'
p1321
I3
sS'0.000,0.000,0.000'
p1322
I0
sS'3970.991,5511.881,0.000'
p1323
I34
sS'0.000,16702.668,0.000'
p1324
I18
sS'3970.991,16702.668,-1058.646'
p1325
I75
sS'0.000,0.000,-1058.646'
p1326
I54
sS'2620.854,0.000,-1058.646'
p1327
I57
sS'0.000,8351.334,0.000'
p1328
I42
sS'1310.427,8351.334,0.000'
p1329
I43
sS'1310.427,6931.607,0.000'
p1330
I41
sS'2620.854,9771.061,0.000'
p1331
I48
sS'0.000,0.000,-1884.193'
p1332
I52
sS'1310.427,16702.668,-1884.193'
p1333
I69
sS'1310.427,5511.881,0.000'
p1334
I9
sS'0.000,0.000,-3560.303'
p1335
I64
sS'0.000,11190.788,0.000'
p1336
I10
sS'2620.854,16702.668,0.000'
p1337
I29
sS'2620.854,12568.758,0.000'
p1338
I26
sS'1310.427,2755.940,0.000'
p1339
I5
sS'3970.991,8351.334,0.000'
p1340
I50
sS'3970.991,0.000,0.000'
p1341
I30
sS'2620.854,0.000,-1884.193'
p1342
I56
sS'0.000,16702.668,-2734.756'
p1343
I76
sS'0.000,16702.668,-3560.303'
p1344
I80
sS'3970.991,12568.758,0.000'
p1345
I36
sS'3970.991,4133.910,0.000'
p1346
I33
sS'0.000,1377.970,0.000'
p1347
I2
sS'1310.427,16702.668,-1058.646'
p1348
I71
sS'3970.991,1377.970,0.000'
p1349
I31
sS'0.000,6931.607,0.000'
p1350
I40
sS'1310.427,0.000,-2734.756'
p1351
I61
sS'3970.991,2755.940,0.000'
p1352
I32
sS'2620.854,13946.728,0.000'
p1353
I27
sS'3970.991,9771.061,0.000'
p1354
I51
sS'2620.854,16702.668,-3560.303'
p1355
I82
sS'2620.854,16702.668,-2734.756'
p1356
I78
sS'2620.854,2755.940,0.000'
p1357
I22
sS'3970.991,15324.698,0.000'
p1358
I38
sS'3970.991,6931.607,0.000'
p1359
I49
sS'1310.427,0.000,-1884.193'
p1360
I53
sS'3970.991,16702.668,-1884.193'
p1361
I74
sS'3970.991,16702.668,0.000'
p1362
I39
sS'0.000,15324.698,0.000'
p1363
I16
sS'2620.854,5511.881,0.000'
p1364
I24
sS'2620.854,11190.788,0.000'
p1365
I25
sS'3970.991,13946.728,0.000'
p1366
I37
ssS'path'
p1367
S'C:\\Temp\\'
p1368
sS'results'
p1369
(dp1370
S'step_2'
p1371
S'ERROR'
p1372
sS'step_3'
p1373
g1372
sS'step_4'
p1374
g1372
sS'step_1'
p1375
g1372
ssS'sections'
p1376
(dp1377
g457
g0
(ccompas_fea.structure.section
ShellSection
p1378
g2
Ntp1379
Rp1380
(dp1381
g15
I1
sS'__name__'
p1382
S'ShellSection'
p1383
sS'name'
p1384
g457
sS'geometry'
p1385
(dp1386
S't'
p1387
F601.39441550506899
ssS'loc_coords_OR'
p1388
(dp1389
S'ORxyz'
p1390
(lp1391
I0
aI0
aF-2501.6573512
assS'loc_coords_XA'
p1392
(dp1393
S'XAxyz'
p1394
(lp1395
I1
aI0
aF-2501.6573512
assS'loc_coords_YA'
p1396
(dp1397
S'YAxyz'
p1398
(lp1399
F2501.6573512
aF-2501.6573512
aF-2500.6573512
assS'loc_coords_EV_XA'
p1400
(dp1401
S'EV_XA'
p1402
(lp1403
F1.0
aF0.0
aF0.0
assS'loc_coords_EV_YA'
p1404
(dp1405
S'EV_YA'
p1406
(lp1407
F0.70710675293974223
aF-0.70710675293974223
aF0.00028265531752402295
assS'loc_coords_EV_ZA'
p1408
(dp1409
S'EV_ZA'
p1410
(lp1411
F0.0
aF-1.0
aF0.0
assS'nr_layers'
p1412
(dp1413
S'nn'
p1414
F51.0
ssS'offset'
p1415
(dp1416
S'mode'
p1417
S'mid'
p1418
ssbsg471
g0
(g1378
g2
Ntp1419
Rp1420
(dp1421
g15
I0
sg1382
g1383
sg1384
g471
sg1385
(dp1422
g1387
F1058.6459701355536
ssg1388
(dp1423
g1390
(lp1424
I0
aI0
aI0
assg1392
(dp1425
g1394
(lp1426
I1
aI0
aI0
assg1396
(dp1427
g1398
(lp1428
F0.0
aF1.0
aF0.0
assg1400
(dp1429
g1402
(lp1430
F1.0
aF0.0
aF0.0
assg1404
(dp1431
g1406
(lp1432
F0.0
aF1.0
aF0.0
assg1408
(dp1433
g1410
(lp1434
F0.0
aF0.0
aF1.0
assg1412
(dp1435
g1414
F51.0
ssg1415
(dp1436
g1417
S'top'
p1437
ssbsg448
g0
(g1378
g2
Ntp1438
Rp1439
(dp1440
g15
I2
sg1382
g1383
sg1384
g448
sg1385
(dp1441
g1387
F601.39441550506899
ssg1388
(dp1442
g1390
(lp1443
I0
aF16702.668304499999
aF-2501.6573512
assg1392
(dp1444
g1394
(lp1445
I1
aF16702.668304499999
aF-2501.6573512
assg1396
(dp1446
g1398
(lp1447
F-2501.6573512032628
aF14201.0109533
aF-19205.325655699999
assg1400
(dp1448
g1402
(lp1449
F1.0
aF0.0
aF0.0
assg1404
(dp1450
g1406
(lp1451
F-0.1465166088945643
aF-0.14651660889437318
aF-0.97829738149303602
assg1408
(dp1452
g1410
(lp1453
F0.0
aF1.0
aF0.0
assg1412
(dp1454
g1414
F51.0
ssg1415
(dp1455
g1417
g1418
ssbsg541
g0
(ccompas_fea.structure.section
MPCSection
p1456
g2
Ntp1457
Rp1458
(dp1459
g15
I3
sg1382
S'MPCSection'
p1460
sg1384
g541
sg1385
NsS'nr_layers'
p1461
NsbssS'sets'
p1462
(dp1463
g566
g0
(ccompas_fea.structure.set
Set
p1464
g2
Ntp1465
Rp1466
(dp1467
S'__name__'
p1468
S'Set'
p1469
sS'name'
p1470
g566
sS'type'
p1471
S'element'
p1472
sS'selection'
p1473
(lp1474
I40
asS'index'
p1475
I13
sbsg542
g0
(g1464
g2
Ntp1476
Rp1477
(dp1478
g1468
g1469
sg1470
g542
sg1471
g1472
sg1473
(lp1479
I54
aI55
aI56
aI57
aI58
aI59
aI60
aI61
asg1475
I27
sbsg450
g0
(g1464
g2
Ntp1480
Rp1481
(dp1482
g1468
g1469
sg1470
g450
sg1471
g1472
sg1473
(lp1483
I48
asg1475
I21
sbsg496
g0
(g1464
g2
Ntp1484
Rp1485
(dp1486
g1468
g1469
sg1470
g496
sg1471
g1472
sg1473
(lp1487
I8
aI9
aI10
aI11
asg1475
I2
sbsg462
g0
(g1464
g2
Ntp1488
Rp1489
(dp1490
g1468
g1469
sg1470
g462
sg1471
g1472
sg1473
(lp1491
I43
asg1475
I16
sbsg558
g0
(g1464
g2
Ntp1492
Rp1493
(dp1494
g1468
g1469
sg1470
g558
sg1471
g1472
sg1473
(lp1495
I45
asg1475
I18
sbsg536
g0
(g1464
g2
Ntp1496
Rp1497
(dp1498
g1468
g1469
sg1470
g536
sg1471
g1472
sg1473
(lp1499
I4
aI5
aI6
aI7
asg1475
I1
sbsg472
g0
(g1464
g2
Ntp1500
Rp1501
(dp1502
g1468
g1469
sg1470
g472
sg1471
g1472
sg1473
(lp1503
I0
aI1
aI2
aI3
asg1475
I0
sbsg524
g0
(g1464
g2
Ntp1504
Rp1505
(dp1506
g1468
g1469
sg1470
g524
sg1471
g1472
sg1473
(lp1507
I24
aI25
aI26
aI27
asg1475
I6
sbsg562
g0
(g1464
g2
Ntp1508
Rp1509
(dp1510
g1468
g1469
sg1470
g562
sg1471
g1472
sg1473
(lp1511
I20
aI21
aI22
aI23
asg1475
I5
sbsg488
g0
(g1464
g2
Ntp1512
Rp1513
(dp1514
g1468
g1469
sg1470
g488
sg1471
g1472
sg1473
(lp1515
I16
aI17
aI18
aI19
asg1475
I4
sbsg532
g0
(g1464
g2
Ntp1516
Rp1517
(dp1518
g1468
g1469
sg1470
g532
sg1471
g1472
sg1473
(lp1519
I12
aI13
aI14
aI15
asg1475
I3
sbsg480
g0
(g1464
g2
Ntp1520
Rp1521
(dp1522
g1468
g1469
sg1470
g480
sg1471
g1472
sg1473
(lp1523
I32
aI33
aI34
aI35
asg1475
I8
sbsg516
g0
(g1464
g2
Ntp1524
Rp1525
(dp1526
g1468
g1469
sg1470
g516
sg1471
g1472
sg1473
(lp1527
I28
aI29
aI30
aI31
asg1475
I7
sbsg492
g0
(g1464
g2
Ntp1528
Rp1529
(dp1530
g1468
g1469
sg1470
g492
sg1471
g1472
sg1473
(lp1531
I38
asg1475
I11
sbsg554
g0
(g1464
g2
Ntp1532
Rp1533
(dp1534
g1468
g1469
sg1470
g554
sg1471
g1472
sg1473
(lp1535
I53
asg1475
I26
sbsg504
g0
(g1464
g2
Ntp1536
Rp1537
(dp1538
g1468
g1469
sg1470
g504
sg1471
g1472
sg1473
(lp1539
I50
asg1475
I23
sbsg484
g0
(g1464
g2
Ntp1540
Rp1541
(dp1542
g1468
g1469
sg1470
g484
sg1471
g1472
sg1473
(lp1543
I41
asg1475
I14
sbsg500
g0
(g1464
g2
Ntp1544
Rp1545
(dp1546
g1468
g1469
sg1470
g500
sg1471
g1472
sg1473
(lp1547
I47
asg1475
I20
sbsg520
g0
(g1464
g2
Ntp1548
Rp1549
(dp1550
g1468
g1469
sg1470
g520
sg1471
g1472
sg1473
(lp1551
I36
asg1475
I9
sbsg512
g0
(g1464
g2
Ntp1552
Rp1553
(dp1554
g1468
g1469
sg1470
g512
sg1471
g1472
sg1473
(lp1555
I44
asg1475
I17
sbsg35
g0
(g1464
g2
Ntp1556
Rp1557
(dp1558
g1468
g1469
sg1470
g35
sg1471
S'node'
p1559
sg1473
(lp1560
I83
aI82
aI81
aI80
asg1475
I29
sbsg508
g0
(g1464
g2
Ntp1561
Rp1562
(dp1563
g1468
g1469
sg1470
g508
sg1471
g1472
sg1473
(lp1564
I39
asg1475
I12
sbsg528
g0
(g1464
g2
Ntp1565
Rp1566
(dp1567
g1468
g1469
sg1470
g528
sg1471
g1472
sg1473
(lp1568
I52
asg1475
I25
sbsg476
g0
(g1464
g2
Ntp1569
Rp1570
(dp1571
g1468
g1469
sg1470
g476
sg1471
g1472
sg1473
(lp1572
I49
asg1475
I22
sbsg20
g0
(g1464
g2
Ntp1573
Rp1574
(dp1575
g1468
g1469
sg1470
g20
sg1471
g1559
sg1473
(lp1576
I67
aI66
aI65
aI64
asg1475
I28
sbsg546
g0
(g1464
g2
Ntp1577
Rp1578
(dp1579
g1468
g1469
sg1470
g546
sg1471
g1472
sg1473
(lp1580
I42
asg1475
I15
sbsg466
g0
(g1464
g2
Ntp1581
Rp1582
(dp1583
g1468
g1469
sg1470
g466
sg1471
g1472
sg1473
(lp1584
I46
asg1475
I19
sbsg458
g0
(g1464
g2
Ntp1585
Rp1586
(dp1587
g1468
g1469
sg1470
g458
sg1471
g1472
sg1473
(lp1588
I37
asg1475
I10
sbsg550
g0
(g1464
g2
Ntp1589
Rp1590
(dp1591
g1468
g1469
sg1470
g550
sg1471
g1472
sg1473
(lp1592
I51
asg1475
I24
sbssS'steps'
p1593
(dp1594
g1371
g0
(ccompas_fea.structure.step
GeneralStep
p1595
g2
Ntp1596
Rp1597
(dp1598
g15
I1
sS'__name__'
p1599
S'GeneralStep'
p1600
sS'name'
p1601
g1371
sS'attr_list'
p1602
(lp1603
g589
aS'increments'
p1604
aS'iterations'
p1605
aS'factor'
p1606
aS'nlgeom'
p1607
aS'nlmat'
p1608
aS'displacements'
p1609
aS'loads'
p1610
aS'type'
p1611
aS'tolerance'
p1612
aS'modify'
p1613
asS'increments'
p1614
I1
sS'iterations'
p1615
I100
sS'tolerance'
p1616
F0.01
sS'factor'
p1617
F1.0
sS'nlgeom'
p1618
I00
sS'nlmat'
p1619
I01
sS'displacements'
p1620
(lp1621
sS'loads'
p1622
(lp1623
g651
asS'modify'
p1624
I01
sS'type'
p1625
S'static'
p1626
sbsg1373
g0
(g1595
g2
Ntp1627
Rp1628
(dp1629
g15
I2
sg1599
g1600
sg1601
g1373
sg1602
(lp1630
g589
ag1604
ag1605
ag1606
ag1607
ag1608
ag1609
ag1610
ag1611
ag1612
ag1613
asg1614
I1
sg1615
I100
sg1616
F0.01
sg1617
F1.0
sg1618
I00
sg1619
I01
sg1620
(lp1631
sg1622
(lp1632
g630
ag616
ag609
asg1624
I01
sg1625
g1626
sbsg1374
g0
(g1595
g2
Ntp1633
Rp1634
(dp1635
g15
I3
sg1599
g1600
sg1601
g1374
sg1602
(lp1636
g589
ag1604
ag1605
ag1606
ag1607
ag1608
ag1609
ag1610
ag1611
ag1612
ag1613
asg1614
I1
sg1615
I100
sg1616
F0.01
sg1617
F1.0
sg1618
I00
sg1619
I01
sg1620
(lp1637
sg1622
(lp1638
g644
ag623
ag637
ag662
ag602
ag571
ag594
asg1624
I01
sg1625
g1626
sbsg1375
g0
(g1595
g2
Ntp1639
Rp1640
(dp1641
g15
I0
sg1599
g1600
sg1601
g1375
sg1602
(lp1642
g589
ag1604
ag1605
ag1606
ag1607
ag1608
ag1609
ag1610
ag1611
ag1612
ag1613
asg1614
I1
sg1615
I100
sg1616
F0.01
sg1617
F1.0
sg1618
I00
sg1619
I01
sg1620
(lp1643
g10
ag31
asg1622
(lp1644
sg1624
I01
sg1625
g1626
sbssS'loc_coor'
p1645
(dp1646
sS'steps_order'
p1647
(lp1648
g1375
ag1371
ag1373
ag1374
asS'tol'
p1649
S'3'
p1650
sS'virtual_nodes'
p1651
(dp1652
sS'virtual_node_index'
p1653
(dp1654
sS'virtual_elements'
p1655
(dp1656
sS'virtual_element_index'
p1657
(dp1658
sb.