ccopy_reg
_reconstructor
p0
(ccompas_fea.structure.structure
Structure
p1
c__builtin__
object
p2
Ntp3
Rp4
(dp5
S'constraints'
p6
(dp7
sS'displacements'
p8
(dp9
S'nset_pinned_set_disp_1'
p10
g0
(ccompas_fea.structure.displacement
GeneralDisplacement
p11
g2
Ntp12
Rp13
(dp14
S'index'
p15
I0
sS'__name__'
p16
S'GeneralDisplacement'
p17
sS'name'
p18
g10
sS'nodes'
p19
S'nset_support_wall1'
p20
sS'components'
p21
(dp22
S'z'
p23
I0
sS'xx'
p24
I0
sS'zz'
p25
I0
sS'yy'
p26
I0
sS'y'
p27
I0
sS'x'
p28
I0
ssS'axes'
p29
S'global'
p30
sbsS'nset_pinned_set_disp_2'
p31
g0
(g11
g2
Ntp32
Rp33
(dp34
g15
I1
sg16
g17
sg18
g31
sg19
S'nset_support_wall2'
p35
sg21
(dp36
g23
I0
sg24
I0
sg25
I0
sg26
I0
sg27
I0
sg28
I0
ssg29
g30
sbssS'elements'
p37
(dp38
I0
g0
(ccompas_fea.structure.element
ShellElement
p39
g2
Ntp40
Rp41
(dp42
S'mass'
p43
NsS'__name__'
p44
S'ShellElement'
p45
sS'nodes'
p46
(lp47
I0
aI1
aI3
aI2
asS'number'
p48
I0
sS'thermal'
p49
I00
sS'axes'
p50
(dp51
S'ey'
p52
NsS'ez'
p53
NsS'ex'
p54
NssS'element_property'
p55
S'elset_plate_1_element_prop'
p56
sbsI1
g0
(g39
g2
Ntp57
Rp58
(dp59
g43
Nsg44
g45
sg46
(lp60
I2
aI3
aI5
aI4
asg48
I1
sg49
I00
sg50
g51
sg55
g56
sbsI2
g0
(g39
g2
Ntp61
Rp62
(dp63
g43
Nsg44
g45
sg46
(lp64
I4
aI5
aI7
aI6
asg48
I2
sg49
I00
sg50
g51
sg55
g56
sbsI3
g0
(g39
g2
Ntp65
Rp66
(dp67
g43
Nsg44
g45
sg46
(lp68
I8
aI9
aI11
aI10
asg48
I3
sg49
I00
sg50
(dp69
g52
Nsg53
Nsg54
Nssg55
S'elset_plate_2_element_prop'
p70
sbsI4
g0
(g39
g2
Ntp71
Rp72
(dp73
g43
Nsg44
g45
sg46
(lp74
I10
aI11
aI13
aI12
asg48
I4
sg49
I00
sg50
g69
sg55
g70
sbsI5
g0
(g39
g2
Ntp75
Rp76
(dp77
g43
Nsg44
g45
sg46
(lp78
I12
aI13
aI15
aI14
asg48
I5
sg49
I00
sg50
g69
sg55
g70
sbsI6
g0
(g39
g2
Ntp79
Rp80
(dp81
g43
Nsg44
g45
sg46
(lp82
I1
aI16
aI17
aI3
asg48
I6
sg49
I00
sg50
(dp83
g52
Nsg53
Nsg54
Nssg55
S'elset_plate_3_element_prop'
p84
sbsI7
g0
(g39
g2
Ntp85
Rp86
(dp87
g43
Nsg44
g45
sg46
(lp88
I3
aI17
aI18
aI5
asg48
I7
sg49
I00
sg50
g83
sg55
g84
sbsI8
g0
(g39
g2
Ntp89
Rp90
(dp91
g43
Nsg44
g45
sg46
(lp92
I5
aI18
aI19
aI7
asg48
I8
sg49
I00
sg50
g83
sg55
g84
sbsI9
g0
(g39
g2
Ntp93
Rp94
(dp95
g43
Nsg44
g45
sg46
(lp96
I9
aI20
aI21
aI11
asg48
I9
sg49
I00
sg50
(dp97
g52
Nsg53
Nsg54
Nssg55
S'elset_plate_4_element_prop'
p98
sbsI10
g0
(g39
g2
Ntp99
Rp100
(dp101
g43
Nsg44
g45
sg46
(lp102
I11
aI21
aI22
aI13
asg48
I10
sg49
I00
sg50
g97
sg55
g98
sbsI11
g0
(g39
g2
Ntp103
Rp104
(dp105
g43
Nsg44
g45
sg46
(lp106
I13
aI22
aI23
aI15
asg48
I11
sg49
I00
sg50
g97
sg55
g98
sbsI12
g0
(g39
g2
Ntp107
Rp108
(dp109
g43
Nsg44
g45
sg46
(lp110
I16
aI24
aI25
aI17
asg48
I12
sg49
I00
sg50
(dp111
g52
Nsg53
Nsg54
Nssg55
S'elset_plate_5_element_prop'
p112
sbsI13
g0
(g39
g2
Ntp113
Rp114
(dp115
g43
Nsg44
g45
sg46
(lp116
I17
aI25
aI26
aI18
asg48
I13
sg49
I00
sg50
g111
sg55
g112
sbsI14
g0
(g39
g2
Ntp117
Rp118
(dp119
g43
Nsg44
g45
sg46
(lp120
I18
aI26
aI27
aI19
asg48
I14
sg49
I00
sg50
g111
sg55
g112
sbsI15
g0
(g39
g2
Ntp121
Rp122
(dp123
g43
Nsg44
g45
sg46
(lp124
I20
aI28
aI29
aI21
asg48
I15
sg49
I00
sg50
(dp125
g52
Nsg53
Nsg54
Nssg55
S'elset_plate_6_element_prop'
p126
sbsI16
g0
(g39
g2
Ntp127
Rp128
(dp129
g43
Nsg44
g45
sg46
(lp130
I21
aI29
aI30
aI22
asg48
I16
sg49
I00
sg50
g125
sg55
g126
sbsI17
g0
(g39
g2
Ntp131
Rp132
(dp133
g43
Nsg44
g45
sg46
(lp134
I22
aI30
aI31
aI23
asg48
I17
sg49
I00
sg50
g125
sg55
g126
sbsI18
g0
(g39
g2
Ntp135
Rp136
(dp137
g43
Nsg44
g45
sg46
(lp138
I6
aI7
aI33
aI32
asg48
I18
sg49
I00
sg50
(dp139
g52
Nsg53
Nsg54
Nssg55
S'elset_plate_7_element_prop'
p140
sbsI19
g0
(g39
g2
Ntp141
Rp142
(dp143
g43
Nsg44
g45
sg46
(lp144
I32
aI33
aI35
aI34
asg48
I19
sg49
I00
sg50
g139
sg55
g140
sbsI20
g0
(g39
g2
Ntp145
Rp146
(dp147
g43
Nsg44
g45
sg46
(lp148
I34
aI35
aI9
aI8
asg48
I20
sg49
I00
sg50
g139
sg55
g140
sbsI21
g0
(g39
g2
Ntp149
Rp150
(dp151
g43
Nsg44
g45
sg46
(lp152
I7
aI19
aI36
aI33
asg48
I21
sg49
I00
sg50
(dp153
g52
Nsg53
Nsg54
Nssg55
S'elset_plate_8_element_prop'
p154
sbsI22
g0
(g39
g2
Ntp155
Rp156
(dp157
g43
Nsg44
g45
sg46
(lp158
I33
aI36
aI37
aI35
asg48
I22
sg49
I00
sg50
g153
sg55
g154
sbsI23
g0
(g39
g2
Ntp159
Rp160
(dp161
g43
Nsg44
g45
sg46
(lp162
I35
aI37
aI20
aI9
asg48
I23
sg49
I00
sg50
g153
sg55
g154
sbsI24
g0
(g39
g2
Ntp163
Rp164
(dp165
g43
Nsg44
g45
sg46
(lp166
I19
aI27
aI38
aI36
asg48
I24
sg49
I00
sg50
(dp167
g52
Nsg53
Nsg54
Nssg55
S'elset_plate_9_element_prop'
p168
sbsI25
g0
(g39
g2
Ntp169
Rp170
(dp171
g43
Nsg44
g45
sg46
(lp172
I36
aI38
aI39
aI37
asg48
I25
sg49
I00
sg50
g167
sg55
g168
sbsI26
g0
(g39
g2
Ntp173
Rp174
(dp175
g43
Nsg44
g45
sg46
(lp176
I37
aI39
aI28
aI20
asg48
I26
sg49
I00
sg50
g167
sg55
g168
sbsI27
g0
(g39
g2
Ntp177
Rp178
(dp179
g43
Nsg44
g45
sg46
(lp180
I40
aI41
aI43
aI42
asg48
I27
sg49
I00
sg50
(dp181
g52
Nsg53
Nsg54
Nssg55
S'elset_wall_1_1_element_prop'
p182
sbsI28
g0
(g39
g2
Ntp183
Rp184
(dp185
g43
Nsg44
g45
sg46
(lp186
I41
aI44
aI45
aI43
asg48
I28
sg49
I00
sg50
(dp187
g52
Nsg53
Nsg54
Nssg55
S'elset_wall_1_2_element_prop'
p188
sbsI29
g0
(g39
g2
Ntp189
Rp190
(dp191
g43
Nsg44
g45
sg46
(lp192
I44
aI46
aI47
aI45
asg48
I29
sg49
I00
sg50
(dp193
g52
Nsg53
Nsg54
Nssg55
S'elset_wall_1_3_element_prop'
p194
sbsI30
g0
(g39
g2
Ntp195
Rp196
(dp197
g43
Nsg44
g45
sg46
(lp198
I48
aI49
aI41
aI40
asg48
I30
sg49
I00
sg50
(dp199
g52
Nsg53
Nsg54
Nssg55
S'elset_wall_1_4_element_prop'
p200
sbsI31
g0
(g39
g2
Ntp201
Rp202
(dp203
g43
Nsg44
g45
sg46
(lp204
I49
aI50
aI44
aI41
asg48
I31
sg49
I00
sg50
(dp205
g52
Nsg53
Nsg54
Nssg55
S'elset_wall_1_5_element_prop'
p206
sbsI32
g0
(g39
g2
Ntp207
Rp208
(dp209
g43
Nsg44
g45
sg46
(lp210
I50
aI51
aI46
aI44
asg48
I32
sg49
I00
sg50
(dp211
g52
Nsg53
Nsg54
Nssg55
S'elset_wall_1_6_element_prop'
p212
sbsI33
g0
(g39
g2
Ntp213
Rp214
(dp215
g43
Nsg44
g45
sg46
(lp216
I52
aI53
aI49
aI48
asg48
I33
sg49
I00
sg50
(dp217
g52
Nsg53
Nsg54
Nssg55
S'elset_wall_1_7_element_prop'
p218
sbsI34
g0
(g39
g2
Ntp219
Rp220
(dp221
g43
Nsg44
g45
sg46
(lp222
I53
aI54
aI50
aI49
asg48
I34
sg49
I00
sg50
(dp223
g52
Nsg53
Nsg54
Nssg55
S'elset_wall_1_8_element_prop'
p224
sbsI35
g0
(g39
g2
Ntp225
Rp226
(dp227
g43
Nsg44
g45
sg46
(lp228
I54
aI55
aI51
aI50
asg48
I35
sg49
I00
sg50
(dp229
g52
Nsg53
Nsg54
Nssg55
S'elset_wall_1_9_element_prop'
p230
sbsI36
g0
(g39
g2
Ntp231
Rp232
(dp233
g43
Nsg44
g45
sg46
(lp234
I56
aI58
aI59
aI57
asg48
I36
sg49
I00
sg50
(dp235
g52
Nsg53
Nsg54
Nssg55
S'elset_wall_2_1_element_prop'
p236
sbsI37
g0
(g39
g2
Ntp237
Rp238
(dp239
g43
Nsg44
g45
sg46
(lp240
I57
aI59
aI61
aI60
asg48
I37
sg49
I00
sg50
(dp241
g52
Nsg53
Nsg54
Nssg55
S'elset_wall_2_2_element_prop'
p242
sbsI38
g0
(g39
g2
Ntp243
Rp244
(dp245
g43
Nsg44
g45
sg46
(lp246
I60
aI61
aI63
aI62
asg48
I38
sg49
I00
sg50
(dp247
g52
Nsg53
Nsg54
Nssg55
S'elset_wall_2_3_element_prop'
p248
sbsI39
g0
(g39
g2
Ntp249
Rp250
(dp251
g43
Nsg44
g45
sg46
(lp252
I64
aI56
aI57
aI65
asg48
I39
sg49
I00
sg50
(dp253
g52
Nsg53
Nsg54
Nssg55
S'elset_wall_2_4_element_prop'
p254
sbsI40
g0
(g39
g2
Ntp255
Rp256
(dp257
g43
Nsg44
g45
sg46
(lp258
I65
aI57
aI60
aI66
asg48
I40
sg49
I00
sg50
(dp259
g52
Nsg53
Nsg54
Nssg55
S'elset_wall_2_5_element_prop'
p260
sbsI41
g0
(g39
g2
Ntp261
Rp262
(dp263
g43
Nsg44
g45
sg46
(lp264
I66
aI60
aI62
aI67
asg48
I41
sg49
I00
sg50
(dp265
g52
Nsg53
Nsg54
Nssg55
S'elset_wall_2_6_element_prop'
p266
sbsI42
g0
(g39
g2
Ntp267
Rp268
(dp269
g43
Nsg44
g45
sg46
(lp270
I68
aI64
aI65
aI69
asg48
I42
sg49
I00
sg50
(dp271
g52
Nsg53
Nsg54
Nssg55
S'elset_wall_2_7_element_prop'
p272
sbsI43
g0
(g39
g2
Ntp273
Rp274
(dp275
g43
Nsg44
g45
sg46
(lp276
I69
aI65
aI66
aI70
asg48
I43
sg49
I00
sg50
(dp277
g52
Nsg53
Nsg54
Nssg55
S'elset_wall_2_8_element_prop'
p278
sbsI44
g0
(g39
g2
Ntp279
Rp280
(dp281
g43
Nsg44
g45
sg46
(lp282
I70
aI66
aI67
aI71
asg48
I44
sg49
I00
sg50
(dp283
g52
Nsg53
Nsg54
Nssg55
S'elset_wall_2_9_element_prop'
p284
sbsI45
g0
(ccompas_fea.structure.element
MPCElement
p285
g2
Ntp286
Rp287
(dp288
g43
Nsg44
S'MPCElement'
p289
sg46
(lp290
I63
aI31
asg48
I45
sg49
I00
sg50
(dp291
g52
Nsg53
(lp292
F9.0949470177292824e-13
aF0.0
aF1016.82771999668
asg54
Nssg55
S'elset_mpc_element_prop'
p293
sbsI46
g0
(g285
g2
Ntp294
Rp295
(dp296
g43
Nsg44
g289
sg46
(lp297
I61
aI23
asg48
I46
sg49
I00
sg50
(dp298
g52
Nsg53
(lp299
F3.637978807091713e-12
aF0.0
aF1016.82771999668
asg54
Nssg55
g293
sbsI47
g0
(g285
g2
Ntp300
Rp301
(dp302
g43
Nsg44
g289
sg46
(lp303
I59
aI15
asg48
I47
sg49
I00
sg50
(dp304
g52
Nsg53
(lp305
F1.8189894035458565e-12
aF0.0
aF1016.82771999668
asg54
Nssg55
g293
sbsI48
g0
(g285
g2
Ntp306
Rp307
(dp308
g43
Nsg44
g289
sg46
(lp309
I58
aI14
asg48
I48
sg49
I00
sg50
(dp310
g52
Nsg53
(lp311
F0.0
aF0.0
aF1016.82771999668
asg54
Nssg55
g293
sbsI49
g0
(g285
g2
Ntp312
Rp313
(dp314
g43
Nsg44
g289
sg46
(lp315
I47
aI24
asg48
I49
sg49
I00
sg50
(dp316
g52
Nsg53
(lp317
F9.0949470177292824e-13
aF0.0
aF1016.82771999668
asg54
Nssg55
g293
sbsI50
g0
(g285
g2
Ntp318
Rp319
(dp320
g43
Nsg44
g289
sg46
(lp321
I45
aI16
asg48
I50
sg49
I00
sg50
(dp322
g52
Nsg53
(lp323
F3.637978807091713e-12
aF0.0
aF1016.82771999668
asg54
Nssg55
g293
sbsI51
g0
(g285
g2
Ntp324
Rp325
(dp326
g43
Nsg44
g289
sg46
(lp327
I43
aI1
asg48
I51
sg49
I00
sg50
(dp328
g52
Nsg53
(lp329
F1.8189894035458565e-12
aF0.0
aF1016.82771999668
asg54
Nssg55
g293
sbsI52
g0
(g285
g2
Ntp330
Rp331
(dp332
g43
Nsg44
g289
sg46
(lp333
I42
aI0
asg48
I52
sg49
I00
sg50
(dp334
g52
Nsg53
(lp335
F0.0
aF0.0
aF1016.82771999668
asg54
Nssg55
g293
sbssS'element_index'
p336
(dp337
S'2083.868,684.710,0.000'
p338
I6
sS'694.623,11764.571,0.000'
p339
I5
sS'2083.868,2054.131,0.000'
p340
I7
sS'2083.868,0.000,-2503.480'
p341
I31
sS'694.623,12449.282,-2503.480'
p342
I39
sS'2083.868,4813.722,0.000'
p343
I21
sS'3494.163,2054.131,0.000'
p344
I13
sS'1389.246,0.000,-508.414'
p345
I51
sS'3494.163,4813.722,0.000'
p346
I24
sS'3494.163,12449.282,-3499.537'
p347
I44
sS'694.623,3423.552,0.000'
p348
I2
sS'0.000,12449.282,-508.414'
p349
I48
sS'3494.163,6224.641,0.000'
p350
I25
sS'3494.163,10395.150,0.000'
p351
I16
sS'3494.163,11764.571,0.000'
p352
I17
sS'694.623,6224.641,0.000'
p353
I19
sS'3494.163,684.710,0.000'
p354
I12
sS'2083.868,6224.641,0.000'
p355
I22
sS'2083.868,3423.552,0.000'
p356
I8
sS'2083.868,7635.559,0.000'
p357
I23
sS'694.623,7635.559,0.000'
p358
I20
sS'3494.163,7635.559,0.000'
p359
I26
sS'3494.163,0.000,-2503.480'
p360
I32
sS'2083.868,0.000,-1507.423'
p361
I28
sS'694.623,0.000,-2503.480'
p362
I30
sS'694.623,0.000,-3499.537'
p363
I33
sS'3494.163,12449.282,-1507.423'
p364
I38
sS'694.623,12449.282,-1507.423'
p365
I36
sS'4209.835,12449.282,-508.414'
p366
I45
sS'2083.868,12449.282,-3499.537'
p367
I43
sS'4209.835,0.000,-508.414'
p368
I49
sS'2778.491,12449.282,-508.414'
p369
I46
sS'2083.868,11764.571,0.000'
p370
I11
sS'694.623,10395.150,0.000'
p371
I4
sS'2083.868,12449.282,-1507.423'
p372
I37
sS'694.623,2054.131,0.000'
p373
I1
sS'3494.163,0.000,-1507.423'
p374
I29
sS'1389.246,12449.282,-508.414'
p375
I47
sS'694.623,9025.729,0.000'
p376
I3
sS'694.623,0.000,-1507.423'
p377
I27
sS'694.623,684.710,0.000'
p378
I0
sS'0.000,0.000,-508.414'
p379
I52
sS'694.623,12449.282,-3499.537'
p380
I42
sS'2083.868,9025.729,0.000'
p381
I9
sS'3494.163,0.000,-3499.537'
p382
I35
sS'3494.163,12449.282,-2503.480'
p383
I41
sS'2083.868,0.000,-3499.537'
p384
I34
sS'2778.491,0.000,-508.414'
p385
I50
sS'2083.868,12449.282,-2503.480'
p386
I40
sS'694.623,4813.722,0.000'
p387
I18
sS'2083.868,10395.150,0.000'
p388
I10
sS'3494.163,9025.729,0.000'
p389
I15
sS'3494.163,3423.552,0.000'
p390
I14
ssS'element_properties'
p391
(dp392
g254
g0
(ccompas_fea.structure.element_properties
ElementProperties
p393
g2
Ntp394
Rp395
(dp396
g15
I21
sS'__name__'
p397
S'ElementProperties'
p398
sS'name'
p399
g254
sS'material'
p400
S'wall_element_mat'
p401
sS'section'
p402
S'wall2_element_sec'
p403
sS'elset'
p404
S'elset_wall_2_4'
p405
sS'elements'
p406
NsS'rebar'
p407
(dp408
sbsg188
g0
(g393
g2
Ntp409
Rp410
(dp411
g15
I10
sg397
g398
sg399
g188
sg400
g401
sg402
S'wall1_element_sec'
p412
sg404
S'elset_wall_1_2'
p413
sg406
Nsg407
g408
sbsg224
g0
(g393
g2
Ntp414
Rp415
(dp416
g15
I16
sg397
g398
sg399
g224
sg400
g401
sg402
g412
sg404
S'elset_wall_1_8'
p417
sg406
Nsg407
g408
sbsg242
g0
(g393
g2
Ntp418
Rp419
(dp420
g15
I19
sg397
g398
sg399
g242
sg400
g401
sg402
g403
sg404
S'elset_wall_2_2'
p421
sg406
Nsg407
g408
sbsg56
g0
(g393
g2
Ntp422
Rp423
(dp424
g15
I0
sg397
g398
sg399
g56
sg400
S'plate_element_mat'
p425
sg402
S'plate_element_sec'
p426
sg404
S'elset_plate_1'
p427
sg406
Nsg407
g408
sbsg260
g0
(g393
g2
Ntp428
Rp429
(dp430
g15
I22
sg397
g398
sg399
g260
sg400
g401
sg402
g403
sg404
S'elset_wall_2_5'
p431
sg406
Nsg407
g408
sbsg168
g0
(g393
g2
Ntp432
Rp433
(dp434
g15
I8
sg397
g398
sg399
g168
sg400
g425
sg402
g426
sg404
S'elset_plate_9'
p435
sg406
Nsg407
g408
sbsg212
g0
(g393
g2
Ntp436
Rp437
(dp438
g15
I14
sg397
g398
sg399
g212
sg400
g401
sg402
g412
sg404
S'elset_wall_1_6'
p439
sg406
Nsg407
g408
sbsg112
g0
(g393
g2
Ntp440
Rp441
(dp442
g15
I4
sg397
g398
sg399
g112
sg400
g425
sg402
g426
sg404
S'elset_plate_5'
p443
sg406
Nsg407
g408
sbsg194
g0
(g393
g2
Ntp444
Rp445
(dp446
g15
I11
sg397
g398
sg399
g194
sg400
g401
sg402
g412
sg404
S'elset_wall_1_3'
p447
sg406
Nsg407
g408
sbsg84
g0
(g393
g2
Ntp448
Rp449
(dp450
g15
I2
sg397
g398
sg399
g84
sg400
g425
sg402
g426
sg404
S'elset_plate_3'
p451
sg406
Nsg407
g408
sbsg248
g0
(g393
g2
Ntp452
Rp453
(dp454
g15
I20
sg397
g398
sg399
g248
sg400
g401
sg402
g403
sg404
S'elset_wall_2_3'
p455
sg406
Nsg407
g408
sbsg266
g0
(g393
g2
Ntp456
Rp457
(dp458
g15
I23
sg397
g398
sg399
g266
sg400
g401
sg402
g403
sg404
S'elset_wall_2_6'
p459
sg406
Nsg407
g408
sbsg200
g0
(g393
g2
Ntp460
Rp461
(dp462
g15
I12
sg397
g398
sg399
g200
sg400
g401
sg402
g412
sg404
S'elset_wall_1_4'
p463
sg406
Nsg407
g408
sbsg230
g0
(g393
g2
Ntp464
Rp465
(dp466
g15
I17
sg397
g398
sg399
g230
sg400
g401
sg402
g412
sg404
S'elset_wall_1_9'
p467
sg406
Nsg407
g408
sbsg154
g0
(g393
g2
Ntp468
Rp469
(dp470
g15
I7
sg397
g398
sg399
g154
sg400
g425
sg402
g426
sg404
S'elset_plate_8'
p471
sg406
Nsg407
g408
sbsg182
g0
(g393
g2
Ntp472
Rp473
(dp474
g15
I9
sg397
g398
sg399
g182
sg400
g401
sg402
g412
sg404
S'elset_wall_1_1'
p475
sg406
Nsg407
g408
sbsg140
g0
(g393
g2
Ntp476
Rp477
(dp478
g15
I6
sg397
g398
sg399
g140
sg400
g425
sg402
g426
sg404
S'elset_plate_7'
p479
sg406
Nsg407
g408
sbsg278
g0
(g393
g2
Ntp480
Rp481
(dp482
g15
I25
sg397
g398
sg399
g278
sg400
g401
sg402
g403
sg404
S'elset_wall_2_8'
p483
sg406
Nsg407
g408
sbsg98
g0
(g393
g2
Ntp484
Rp485
(dp486
g15
I3
sg397
g398
sg399
g98
sg400
g425
sg402
g426
sg404
S'elset_plate_4'
p487
sg406
Nsg407
g408
sbsg70
g0
(g393
g2
Ntp488
Rp489
(dp490
g15
I1
sg397
g398
sg399
g70
sg400
g425
sg402
g426
sg404
S'elset_plate_2'
p491
sg406
Nsg407
g408
sbsg293
g0
(g393
g2
Ntp492
Rp493
(dp494
g15
I27
sg397
g398
sg399
g293
sg400
S'elset_mpc_element_mat'
p495
sg402
S'sec_mpc'
p496
sg404
S'elset_mpcs'
p497
sg406
Nsg407
g408
sbsg218
g0
(g393
g2
Ntp498
Rp499
(dp500
g15
I15
sg397
g398
sg399
g218
sg400
g401
sg402
g412
sg404
S'elset_wall_1_7'
p501
sg406
Nsg407
g408
sbsg272
g0
(g393
g2
Ntp502
Rp503
(dp504
g15
I24
sg397
g398
sg399
g272
sg400
g401
sg402
g403
sg404
S'elset_wall_2_7'
p505
sg406
Nsg407
g408
sbsg284
g0
(g393
g2
Ntp506
Rp507
(dp508
g15
I26
sg397
g398
sg399
g284
sg400
g401
sg402
g403
sg404
S'elset_wall_2_9'
p509
sg406
Nsg407
g408
sbsg236
g0
(g393
g2
Ntp510
Rp511
(dp512
g15
I18
sg397
g398
sg399
g236
sg400
g401
sg402
g403
sg404
S'elset_wall_2_1'
p513
sg406
Nsg407
g408
sbsg126
g0
(g393
g2
Ntp514
Rp515
(dp516
g15
I5
sg397
g398
sg399
g126
sg400
g425
sg402
g426
sg404
S'elset_plate_6'
p517
sg406
Nsg407
g408
sbsg206
g0
(g393
g2
Ntp518
Rp519
(dp520
g15
I13
sg397
g398
sg399
g206
sg400
g401
sg402
g412
sg404
S'elset_wall_1_5'
p521
sg406
Nsg407
g408
sbssS'interactions'
p522
(dp523
sS'loads'
p524
(dp525
S'Gleis1_BAHNLASTEN_Lasteinzugsflache_Lastblock_-3'
p526
g0
(ccompas_fea.structure.load
AreaLoad
p527
g2
Ntp528
Rp529
(dp530
g15
I4
sS'__name__'
p531
S'AreaLoad'
p532
sS'name'
p533
g526
sS'axes'
p534
S'global'
p535
sS'components'
p536
(dp537
g23
F0.062134928453848694
sg27
I0
sg28
I0
ssS'nodes'
p538
(lp539
sS'elements'
p540
(lp541
I1
aI2
asS'attr_list'
p542
(lp543
S'name'
p544
aS'axes'
p545
aS'components'
p546
aS'nodes'
p547
aS'elements'
p548
asbsS'earthPressure_liveLoad'
p549
g0
(g527
g2
Ntp550
Rp551
(dp552
g15
I5
sg531
g532
sg533
g549
sg534
S'local'
p553
sg536
(dp554
g23
F0.037699999999999997
sg27
I0
sg28
I0
ssg538
g539
sg540
(lp555
I28
aI29
aI31
aI32
aI34
aI35
asg542
(lp556
g544
ag545
ag546
ag547
ag548
asbsS'Gleis1_EIGENGEWICHTE_SCHIENE_Lasteinzugsflache'
p557
g0
(g527
g2
Ntp558
Rp559
(dp560
g15
I3
sg531
g532
sg533
g557
sg534
g535
sg536
(dp561
g23
F0.0021845597102200971
sg27
I0
sg28
I0
ssg538
g539
sg540
(lp562
I1
aI2
aI7
asg542
(lp563
g544
ag545
ag546
ag547
ag548
asbsS'earthPressure_backfill'
p564
g0
(g527
g2
Ntp565
Rp566
(dp567
g15
I2
sg531
g532
sg533
g564
sg534
g553
sg536
(dp568
g23
F0.054261035260880927
sg27
I0
sg28
I0
ssg538
g539
sg540
(lp569
g475
ag413
ag447
ag463
ag521
ag439
ag501
ag417
ag467
ag513
ag421
ag455
ag405
ag431
ag459
ag505
ag483
ag509
asg542
(lp570
g544
ag545
ag546
ag547
ag548
asbsS'earthPressure_gravel'
p571
g0
(g527
g2
Ntp572
Rp573
(dp574
g15
I1
sg531
g532
sg533
g571
sg534
g535
sg536
(dp575
g23
F0.013500000000000002
sg27
I0
sg28
I0
ssg538
g539
sg540
(lp576
g427
ag491
ag451
ag487
ag443
ag517
ag479
ag471
ag435
asg542
(lp577
g544
ag545
ag546
ag547
ag548
asbsS'load_gravity'
p578
g0
(ccompas_fea.structure.load
GravityLoad
p579
g2
Ntp580
Rp581
(dp582
g15
I0
sg531
S'GravityLoad'
p583
sg533
g578
sg534
g535
sg536
(dp584
g23
F1.3500000000000001
sg27
F0.0
sg28
F0.0
ssg538
g539
sg540
(lp585
g427
ag491
ag451
ag487
ag443
ag517
ag479
ag471
ag435
ag475
ag413
ag447
ag463
ag521
ag439
ag501
ag417
ag467
ag513
ag421
ag455
ag405
ag431
ag459
ag505
ag483
ag509
asg542
(lp586
g544
ag545
ag546
ag547
ag548
aS'g'
p587
asS'g'
p588
F-9.8100000000000005
sbssS'materials'
p589
(dp590
g495
g0
(ccompas_fea.structure.material
MPCStiff
p591
g2
Ntp592
Rp593
(dp594
g15
I2
sS'__name__'
p595
S'MPCStiff'
p596
sS'name'
p597
g495
sS'attr_list'
p598
(lp599
g544
aS'E'
p600
aS'v'
p601
aS'G'
p602
aS'p'
p603
aS'tension'
p604
aS'compression'
p605
asS'E'
p606
(dp607
g600
L10000000000000L
ssS'v'
p608
(dp609
g601
F0.29999999999999999
ssS'G'
p610
(dp611
g602
F3846153846153.8462
ssS'p'
p612
F0.10000000000000001
sS'tension'
p613
I01
sS'compression'
p614
I01
sbsg401
g0
(ccompas_fea.structure.material
CMMUsermat
p615
g2
Ntp616
Rp617
(dp618
g15
I1
sg595
S'CMMUsermat'
p619
sg597
g401
sg598
(lp620
g544
ag600
ag601
ag602
ag603
aS'R_Rohr'
p621
aS'rho'
p622
aS'oo'
p623
aS'uu'
p624
aS'beton'
p625
aS'fcc'
p626
aS'vc'
p627
aS'ecu'
p628
aS'k_E'
p629
aS'theta_b0'
p630
aS'theta_b1'
p631
aS'k_riss'
p632
aS'Entfestigung'
p633
aS'lambdaTS'
p634
aS'srmx'
p635
aS'srmy'
p636
aS'Begrenzung'
p637
aS'KritQ'
p638
aS'winkelD'
p639
aS'k_vr'
p640
aS'fswy'
p641
aS'stahl1'
p642
aS'zm1'
p643
aS'fsy1'
p644
aS'fsu1'
p645
aS'esu1'
p646
aS'esv1'
p647
aS'Es1'
p648
aS'ka1'
p649
aS'kb1'
p650
aS'kc1'
p651
aS'as1'
p652
aS'dm1'
p653
aS'psi1'
p654
aS'stahl2'
p655
aS'zm2'
p656
aS'fsy2'
p657
aS'fsu2'
p658
aS'esu2'
p659
aS'esv2'
p660
aS'Es2'
p661
aS'ka2'
p662
aS'kb2'
p663
aS'kc2'
p664
aS'as2'
p665
aS'dm2'
p666
aS'psi2'
p667
aS'stahl3'
p668
aS'zm3'
p669
aS'fsy3'
p670
aS'fsu3'
p671
aS'esu3'
p672
aS'esv3'
p673
aS'Es3'
p674
aS'ka3'
p675
aS'kb3'
p676
aS'kc3'
p677
aS'as3'
p678
aS'dm3'
p679
aS'psi3'
p680
aS'stahl4'
p681
aS'zm4'
p682
aS'fsy4'
p683
aS'fsu4'
p684
aS'esu4'
p685
aS'esv4'
p686
aS'Es4'
p687
aS'ka4'
p688
aS'kb4'
p689
aS'kc4'
p690
aS'as4'
p691
aS'dm4'
p692
aS'psi4'
p693
asS'E'
p694
(dp695
S'E'
p696
I200000
ssS'v'
p697
(dp698
S'v'
p699
F0.10000000000000001
ssS'G'
p700
(dp701
g602
F90909.090909090897
ssS'p'
p702
F2.5000000000000002e-06
sS'R_Rohr'
p703
(dp704
g621
I-1
ssS'rho'
p705
(dp706
g622
F2.5000000000000002e-06
ssS'oo'
p707
(dp708
g623
I30
ssS'uu'
p709
(dp710
g624
I30
ssS'beton'
p711
(dp712
g625
I2
ssS'fcc'
p713
(dp714
g626
I31
ssS'vc'
p715
(dp716
g627
I0
ssS'ecu'
p717
(dp718
g628
F-0.002
ssS'k_E'
p719
(dp720
g629
I10000
ssS'theta_b0'
p721
(dp722
g630
I2
ssS'theta_b1'
p723
(dp724
g631
I1
ssS'k_riss'
p725
(dp726
g632
I0
ssS'Entfestigung'
p727
(dp728
g633
I0
ssS'lambdaTS'
p729
(dp730
g634
F0.67000000000000004
ssS'srmx'
p731
(dp732
g635
I1
ssS'srmy'
p733
(dp734
g636
I1
ssS'Begrenzung'
p735
(dp736
g637
I2
ssS'KritQ'
p737
(dp738
g638
I0
ssS'winkelD'
p739
(dp740
g639
I45
ssS'k_vr'
p741
(dp742
g640
I1
ssS'fswy'
p743
(dp744
g641
I500
ssS'stahl1'
p745
(dp746
g642
I1
ssS'zm1'
p747
(dp748
g643
I2
ssS'fsy1'
p749
(dp750
g644
I344
ssS'fsu1'
p751
(dp752
g645
I371
ssS'esu1'
p753
(dp754
g646
F0.044999999999999998
ssS'esv1'
p755
(dp756
g647
F0.02
ssS'Es1'
p757
(dp758
g648
I200000
ssS'ka1'
p759
(dp760
g649
I-1
ssS'kb1'
p761
(dp762
g650
I-1
ssS'kc1'
p763
(dp764
g651
I-1
ssS'as1'
p765
(dp766
g652
F0.41266318042361061
ssS'dm1'
p767
(dp768
g653
F15.549696840717466
ssS'psi1'
p769
(dp770
g654
I90
ssS'stahl2'
p771
(dp772
g655
I1
ssS'zm2'
p773
(dp774
g656
I2
ssS'fsy2'
p775
(dp776
g657
I344
ssS'fsu2'
p777
(dp778
g658
I371
ssS'esu2'
p779
(dp780
g659
F0.044999999999999998
ssS'esv2'
p781
(dp782
g660
F0.02
ssS'Es2'
p783
(dp784
g661
I200000
ssS'ka2'
p785
(dp786
g662
I-1
ssS'kb2'
p787
(dp788
g663
I-1
ssS'kc2'
p789
(dp790
g664
I-1
ssS'as2'
p791
(dp792
g665
F0.24576178932355669
ssS'dm2'
p793
(dp794
g666
F12.0
ssS'psi2'
p795
(dp796
g667
I0
ssS'stahl3'
p797
(dp798
g668
I1
ssS'zm3'
p799
(dp800
g669
I2
ssS'fsy3'
p801
(dp802
g670
I344
ssS'fsu3'
p803
(dp804
g671
I371
ssS'esu3'
p805
(dp806
g672
F0.044999999999999998
ssS'esv3'
p807
(dp808
g673
F0.02
ssS'Es3'
p809
(dp810
g674
I200000
ssS'ka3'
p811
(dp812
g675
I-1
ssS'kb3'
p813
(dp814
g676
I-1
ssS'kc3'
p815
(dp816
g677
I-1
ssS'as3'
p817
(dp818
g678
F0.24576178932355669
ssS'dm3'
p819
(dp820
g679
F12.0
ssS'psi3'
p821
(dp822
g680
I0
ssS'stahl4'
p823
(dp824
g681
I1
ssS'zm4'
p825
(dp826
g682
I2
ssS'fsy4'
p827
(dp828
g683
I344
ssS'fsu4'
p829
(dp830
g684
I371
ssS'esu4'
p831
(dp832
g685
F0.044999999999999998
ssS'esv4'
p833
(dp834
g686
F0.02
ssS'Es4'
p835
(dp836
g687
I200000
ssS'ka4'
p837
(dp838
g688
I-1
ssS'kb4'
p839
(dp840
g689
I-1
ssS'kc4'
p841
(dp842
g690
I-1
ssS'as4'
p843
(dp844
g691
F0.39316531249740699
ssS'dm4'
p845
(dp846
g692
F15.17789916388509
ssS'psi4'
p847
(dp848
g693
I90
ssbsg425
g0
(g615
g2
Ntp849
Rp850
(dp851
g15
I0
sg595
g619
sg597
g425
sg598
(lp852
g544
ag600
ag601
ag602
ag603
ag621
ag622
ag623
ag624
ag625
ag626
ag627
ag628
ag629
ag630
ag631
ag632
ag633
ag634
ag635
ag636
ag637
ag638
ag639
ag640
ag641
ag642
ag643
ag644
ag645
ag646
ag647
ag648
ag649
ag650
ag651
ag652
ag653
ag654
ag655
ag656
ag657
ag658
ag659
ag660
ag661
ag662
ag663
ag664
ag665
ag666
ag667
ag668
ag669
ag670
ag671
ag672
ag673
ag674
ag675
ag676
ag677
ag678
ag679
ag680
ag681
ag682
ag683
ag684
ag685
ag686
ag687
ag688
ag689
ag690
ag691
ag692
ag693
asg694
(dp853
g696
I200000
ssg697
(dp854
g699
F0.10000000000000001
ssg700
(dp855
g602
F90909.090909090897
ssg702
F2.5000000000000002e-06
sg703
(dp856
g621
I-1
ssg705
(dp857
g622
F2.5000000000000002e-06
ssg707
(dp858
g623
I30
ssg709
(dp859
g624
I30
ssg711
(dp860
g625
I2
ssg713
(dp861
g626
I31
ssg715
(dp862
g627
I0
ssg717
(dp863
g628
F-0.002
ssg719
(dp864
g629
I10000
ssg721
(dp865
g630
I2
ssg723
(dp866
g631
I1
ssg725
(dp867
g632
I0
ssg727
(dp868
g633
I0
ssg729
(dp869
g634
F0.67000000000000004
ssg731
(dp870
g635
I1
ssg733
(dp871
g636
I1
ssg735
(dp872
g637
I2
ssg737
(dp873
g638
I0
ssg739
(dp874
g639
I45
ssg741
(dp875
g640
I1
ssg743
(dp876
g641
I500
ssg745
(dp877
g642
I1
ssg747
(dp878
g643
I2
ssg749
(dp879
g644
I344
ssg751
(dp880
g645
I371
ssg753
(dp881
g646
F0.044999999999999998
ssg755
(dp882
g647
F0.02
ssg757
(dp883
g648
I200000
ssg759
(dp884
g649
I-1
ssg761
(dp885
g650
I-1
ssg763
(dp886
g651
I-1
ssg765
(dp887
g652
F1.6978794591757573
ssg767
(dp888
g653
F28.526920422341519
ssg769
(dp889
g654
I90
ssg771
(dp890
g655
I1
ssg773
(dp891
g656
I2
ssg775
(dp892
g657
I344
ssg777
(dp893
g658
I371
ssg779
(dp894
g659
F0.044999999999999998
ssg781
(dp895
g660
F0.02
ssg783
(dp896
g661
I200000
ssg785
(dp897
g662
I-1
ssg787
(dp898
g663
I-1
ssg789
(dp899
g664
I-1
ssg791
(dp900
g665
F0.51694092585438811
ssg793
(dp901
g666
F15.740623155223577
ssg795
(dp902
g667
I0
ssg797
(dp903
g668
I1
ssg799
(dp904
g669
I2
ssg801
(dp905
g670
I344
ssg803
(dp906
g671
I371
ssg805
(dp907
g672
F0.044999999999999998
ssg807
(dp908
g673
F0.02
ssg809
(dp909
g674
I200000
ssg811
(dp910
g675
I-1
ssg813
(dp911
g676
I-1
ssg815
(dp912
g677
I-1
ssg817
(dp913
g678
F0.30044125340627609
ssg819
(dp914
g679
F12.0
ssg821
(dp915
g680
I0
ssg823
(dp916
g681
I1
ssg825
(dp917
g682
I2
ssg827
(dp918
g683
I344
ssg829
(dp919
g684
I371
ssg831
(dp920
g685
F0.044999999999999998
ssg833
(dp921
g686
F0.02
ssg835
(dp922
g687
I200000
ssg837
(dp923
g688
I-1
ssg839
(dp924
g689
I-1
ssg841
(dp925
g690
I-1
ssg843
(dp926
g691
F1.7196257517250995
ssg845
(dp927
g692
F28.709024343469881
ssg847
(dp928
g693
I90
ssbssS'misc'
p929
(dp930
sS'name'
p931
S'NLFE_CFB4'
p932
sS'nodes'
p933
(dp934
I0
g0
(ccompas_fea.structure.node
Node
p935
g2
Ntp936
Rp937
(dp938
S'__name__'
p939
S'Node'
p940
sS'key'
p941
I0
sS'x'
p942
F0.0
sS'y'
p943
F0.0
sS'z'
p944
F0.0
sS'ex'
p945
(lp946
I1
aI0
aI0
asS'ey'
p947
(lp948
I0
aI1
aI0
asS'ez'
p949
(lp950
I0
aI0
aI1
asS'mass'
p951
NsbsI1
g0
(g935
g2
Ntp952
Rp953
(dp954
g939
g940
sg941
I1
sg942
F1389.2456299486219
sg943
F0.0
sg944
F0.0
sg945
g946
sg947
g948
sg949
g950
sg951
NsbsI2
g0
(g935
g2
Ntp955
Rp956
(dp957
g939
g940
sg941
I2
sg942
F0.0
sg943
F1369.4209688411995
sg944
F0.0
sg945
g946
sg947
g948
sg949
g950
sg951
NsbsI3
g0
(g935
g2
Ntp958
Rp959
(dp960
g939
g940
sg941
I3
sg942
F1389.2456299486221
sg943
F1369.4209688411995
sg944
F0.0
sg945
g946
sg947
g948
sg949
g950
sg951
NsbsI4
g0
(g935
g2
Ntp961
Rp962
(dp963
g939
g940
sg941
I4
sg942
F0.0
sg943
F2738.841937682399
sg944
F0.0
sg945
g946
sg947
g948
sg949
g950
sg951
NsbsI5
g0
(g935
g2
Ntp964
Rp965
(dp966
g939
g940
sg941
I5
sg942
F1389.2456299486219
sg943
F2738.841937682399
sg944
F0.0
sg945
g946
sg947
g948
sg949
g950
sg951
NsbsI6
g0
(g935
g2
Ntp967
Rp968
(dp969
g939
g940
sg941
I6
sg942
F0.0
sg943
F4108.2629065235988
sg944
F0.0
sg945
g946
sg947
g948
sg949
g950
sg951
NsbsI7
g0
(g935
g2
Ntp970
Rp971
(dp972
g939
g940
sg941
I7
sg942
F1389.2456299486219
sg943
F4108.2629065235988
sg944
F0.0
sg945
g946
sg947
g948
sg949
g950
sg951
NsbsI8
g0
(g935
g2
Ntp973
Rp974
(dp975
g939
g940
sg941
I8
sg942
F0.0
sg943
F8341.0186283963958
sg944
F0.0
sg945
g946
sg947
g948
sg949
g950
sg951
NsbsI9
g0
(g935
g2
Ntp976
Rp977
(dp978
g939
g940
sg941
I9
sg942
F1389.2456299486219
sg943
F8341.0186283963958
sg944
F0.0
sg945
g946
sg947
g948
sg949
g950
sg951
NsbsI10
g0
(g935
g2
Ntp979
Rp980
(dp981
g939
g940
sg941
I10
sg942
F0.0
sg943
F9710.4395972375969
sg944
F0.0
sg945
g946
sg947
g948
sg949
g950
sg951
NsbsI11
g0
(g935
g2
Ntp982
Rp983
(dp984
g939
g940
sg941
I11
sg942
F1389.2456299486221
sg943
F9710.4395972375969
sg944
F0.0
sg945
g946
sg947
g948
sg949
g950
sg951
NsbsI12
g0
(g935
g2
Ntp985
Rp986
(dp987
g939
g940
sg941
I12
sg942
F0.0
sg943
F11079.860566078796
sg944
F0.0
sg945
g946
sg947
g948
sg949
g950
sg951
NsbsI13
g0
(g935
g2
Ntp988
Rp989
(dp990
g939
g940
sg941
I13
sg942
F1389.2456299486221
sg943
F11079.860566078796
sg944
F0.0
sg945
g946
sg947
g948
sg949
g950
sg951
NsbsI14
g0
(g935
g2
Ntp991
Rp992
(dp993
g939
g940
sg941
I14
sg942
F0.0
sg943
F12449.281534919995
sg944
F0.0
sg945
g946
sg947
g948
sg949
g950
sg951
NsbsI15
g0
(g935
g2
Ntp994
Rp995
(dp996
g939
g940
sg941
I15
sg942
F1389.2456299486219
sg943
F12449.281534919995
sg944
F0.0
sg945
g946
sg947
g948
sg949
g950
sg951
NsbsI16
g0
(g935
g2
Ntp997
Rp998
(dp999
g939
g940
sg941
I16
sg942
F2778.4912598972437
sg943
F0.0
sg944
F0.0
sg945
g946
sg947
g948
sg949
g950
sg951
NsbsI17
g0
(g935
g2
Ntp1000
Rp1001
(dp1002
g939
g940
sg941
I17
sg942
F2778.4912598972442
sg943
F1369.4209688411995
sg944
F0.0
sg945
g946
sg947
g948
sg949
g950
sg951
NsbsI18
g0
(g935
g2
Ntp1003
Rp1004
(dp1005
g939
g940
sg941
I18
sg942
F2778.4912598972437
sg943
F2738.841937682399
sg944
F0.0
sg945
g946
sg947
g948
sg949
g950
sg951
NsbsI19
g0
(g935
g2
Ntp1006
Rp1007
(dp1008
g939
g940
sg941
I19
sg942
F2778.4912598972437
sg943
F4108.2629065235988
sg944
F0.0
sg945
g946
sg947
g948
sg949
g950
sg951
NsbsI20
g0
(g935
g2
Ntp1009
Rp1010
(dp1011
g939
g940
sg941
I20
sg942
F2778.4912598972437
sg943
F8341.0186283963958
sg944
F0.0
sg945
g946
sg947
g948
sg949
g950
sg951
NsbsI21
g0
(g935
g2
Ntp1012
Rp1013
(dp1014
g939
g940
sg941
I21
sg942
F2778.4912598972442
sg943
F9710.4395972375969
sg944
F0.0
sg945
g946
sg947
g948
sg949
g950
sg951
NsbsI22
g0
(g935
g2
Ntp1015
Rp1016
(dp1017
g939
g940
sg941
I22
sg942
F2778.4912598972442
sg943
F11079.860566078796
sg944
F0.0
sg945
g946
sg947
g948
sg949
g950
sg951
NsbsI23
g0
(g935
g2
Ntp1018
Rp1019
(dp1020
g939
g940
sg941
I23
sg942
F2778.4912598972437
sg943
F12449.281534919995
sg944
F0.0
sg945
g946
sg947
g948
sg949
g950
sg951
NsbsI24
g0
(g935
g2
Ntp1021
Rp1022
(dp1023
g939
g940
sg941
I24
sg942
F4209.8352422685512
sg943
F0.0
sg944
F0.0
sg945
g946
sg947
g948
sg949
g950
sg951
NsbsI25
g0
(g935
g2
Ntp1024
Rp1025
(dp1026
g939
g940
sg941
I25
sg942
F4209.8352422685512
sg943
F1369.4209688411995
sg944
F0.0
sg945
g946
sg947
g948
sg949
g950
sg951
NsbsI26
g0
(g935
g2
Ntp1027
Rp1028
(dp1029
g939
g940
sg941
I26
sg942
F4209.8352422685512
sg943
F2738.841937682399
sg944
F0.0
sg945
g946
sg947
g948
sg949
g950
sg951
NsbsI27
g0
(g935
g2
Ntp1030
Rp1031
(dp1032
g939
g940
sg941
I27
sg942
F4209.8352422685512
sg943
F4108.2629065235988
sg944
F0.0
sg945
g946
sg947
g948
sg949
g950
sg951
NsbsI28
g0
(g935
g2
Ntp1033
Rp1034
(dp1035
g939
g940
sg941
I28
sg942
F4209.8352422685512
sg943
F8341.0186283963958
sg944
F0.0
sg945
g946
sg947
g948
sg949
g950
sg951
NsbsI29
g0
(g935
g2
Ntp1036
Rp1037
(dp1038
g939
g940
sg941
I29
sg942
F4209.8352422685512
sg943
F9710.4395972375969
sg944
F0.0
sg945
g946
sg947
g948
sg949
g950
sg951
NsbsI30
g0
(g935
g2
Ntp1039
Rp1040
(dp1041
g939
g940
sg941
I30
sg942
F4209.8352422685512
sg943
F11079.860566078796
sg944
F0.0
sg945
g946
sg947
g948
sg949
g950
sg951
NsbsI31
g0
(g935
g2
Ntp1042
Rp1043
(dp1044
g939
g940
sg941
I31
sg942
F4209.8352422685512
sg943
F12449.281534919995
sg944
F0.0
sg945
g946
sg947
g948
sg949
g950
sg951
NsbsI32
g0
(g935
g2
Ntp1045
Rp1046
(dp1047
g939
g940
sg941
I32
sg942
F0.0
sg943
F5519.1814804811984
sg944
F0.0
sg945
g946
sg947
g948
sg949
g950
sg951
NsbsI33
g0
(g935
g2
Ntp1048
Rp1049
(dp1050
g939
g940
sg941
I33
sg942
F1389.2456299486221
sg943
F5519.1814804811984
sg944
F0.0
sg945
g946
sg947
g948
sg949
g950
sg951
NsbsI34
g0
(g935
g2
Ntp1051
Rp1052
(dp1053
g939
g940
sg941
I34
sg942
F0.0
sg943
F6930.1000544387971
sg944
F0.0
sg945
g946
sg947
g948
sg949
g950
sg951
NsbsI35
g0
(g935
g2
Ntp1054
Rp1055
(dp1056
g939
g940
sg941
I35
sg942
F1389.2456299486219
sg943
F6930.1000544387971
sg944
F0.0
sg945
g946
sg947
g948
sg949
g950
sg951
NsbsI36
g0
(g935
g2
Ntp1057
Rp1058
(dp1059
g939
g940
sg941
I36
sg942
F2778.4912598972442
sg943
F5519.1814804811984
sg944
F0.0
sg945
g946
sg947
g948
sg949
g950
sg951
NsbsI37
g0
(g935
g2
Ntp1060
Rp1061
(dp1062
g939
g940
sg941
I37
sg942
F2778.4912598972437
sg943
F6930.1000544387971
sg944
F0.0
sg945
g946
sg947
g948
sg949
g950
sg951
NsbsI38
g0
(g935
g2
Ntp1063
Rp1064
(dp1065
g939
g940
sg941
I38
sg942
F4209.8352422685512
sg943
F5519.1814804811984
sg944
F0.0
sg945
g946
sg947
g948
sg949
g950
sg951
NsbsI39
g0
(g935
g2
Ntp1066
Rp1067
(dp1068
g939
g940
sg941
I39
sg942
F4209.8352422685512
sg943
F6930.1000544387971
sg944
F0.0
sg945
g946
sg947
g948
sg949
g950
sg951
NsbsI40
g0
(g935
g2
Ntp1069
Rp1070
(dp1071
g939
g940
sg941
I40
sg942
F0.0
sg943
F0.0
sg944
F-1998.0181596165344
sg945
g946
sg947
g948
sg949
g950
sg951
NsbsI41
g0
(g935
g2
Ntp1072
Rp1073
(dp1074
g939
g940
sg941
I41
sg942
F1389.24562994862
sg943
F0.0
sg944
F-1998.0181596165344
sg945
g946
sg947
g948
sg949
g950
sg951
NsbsI42
g0
(g935
g2
Ntp1075
Rp1076
(dp1077
g939
g940
sg941
I42
sg942
F0.0
sg943
F0.0
sg944
F-1016.82771999668
sg945
g946
sg947
g948
sg949
g950
sg951
NsbsI43
g0
(g935
g2
Ntp1078
Rp1079
(dp1080
g939
g940
sg941
I43
sg942
F1389.24562994862
sg943
F0.0
sg944
F-1016.82771999668
sg945
g946
sg947
g948
sg949
g950
sg951
NsbsI44
g0
(g935
g2
Ntp1081
Rp1082
(dp1083
g939
g940
sg941
I44
sg942
F2778.4912598972401
sg943
F0.0
sg944
F-1998.0181596165344
sg945
g946
sg947
g948
sg949
g950
sg951
NsbsI45
g0
(g935
g2
Ntp1084
Rp1085
(dp1086
g939
g940
sg941
I45
sg942
F2778.4912598972401
sg943
F0.0
sg944
F-1016.82771999668
sg945
g946
sg947
g948
sg949
g950
sg951
NsbsI46
g0
(g935
g2
Ntp1087
Rp1088
(dp1089
g939
g940
sg941
I46
sg942
F4209.8352422685502
sg943
F0.0
sg944
F-1998.0181596165344
sg945
g946
sg947
g948
sg949
g950
sg951
NsbsI47
g0
(g935
g2
Ntp1090
Rp1091
(dp1092
g939
g940
sg941
I47
sg942
F4209.8352422685502
sg943
F0.0
sg944
F-1016.82771999668
sg945
g946
sg947
g948
sg949
g950
sg951
NsbsI48
g0
(g935
g2
Ntp1093
Rp1094
(dp1095
g939
g940
sg941
I48
sg942
F0.0
sg943
F0.0
sg944
F-3008.941642861233
sg945
g946
sg947
g948
sg949
g950
sg951
NsbsI49
g0
(g935
g2
Ntp1096
Rp1097
(dp1098
g939
g940
sg941
I49
sg942
F1389.24562994862
sg943
F0.0
sg944
F-3008.941642861233
sg945
g946
sg947
g948
sg949
g950
sg951
NsbsI50
g0
(g935
g2
Ntp1099
Rp1100
(dp1101
g939
g940
sg941
I50
sg942
F2778.4912598972401
sg943
F0.0
sg944
F-3008.941642861233
sg945
g946
sg947
g948
sg949
g950
sg951
NsbsI51
g0
(g935
g2
Ntp1102
Rp1103
(dp1104
g939
g940
sg941
I51
sg942
F4209.8352422685502
sg943
F0.0
sg944
F-3008.941642861233
sg945
g946
sg947
g948
sg949
g950
sg951
NsbsI52
g0
(g935
g2
Ntp1105
Rp1106
(dp1107
g939
g940
sg941
I52
sg942
F0.0
sg943
F0.0
sg944
F-3990.1320824810873
sg945
g946
sg947
g948
sg949
g950
sg951
NsbsI53
g0
(g935
g2
Ntp1108
Rp1109
(dp1110
g939
g940
sg941
I53
sg942
F1389.24562994862
sg943
F0.0
sg944
F-3990.1320824810873
sg945
g946
sg947
g948
sg949
g950
sg951
NsbsI54
g0
(g935
g2
Ntp1111
Rp1112
(dp1113
g939
g940
sg941
I54
sg942
F2778.4912598972401
sg943
F0.0
sg944
F-3990.1320824810873
sg945
g946
sg947
g948
sg949
g950
sg951
NsbsI55
g0
(g935
g2
Ntp1114
Rp1115
(dp1116
g939
g940
sg941
I55
sg942
F4209.8352422685502
sg943
F0.0
sg944
F-3990.1320824810873
sg945
g946
sg947
g948
sg949
g950
sg951
NsbsI56
g0
(g935
g2
Ntp1117
Rp1118
(dp1119
g939
g940
sg941
I56
sg942
F0.0
sg943
F12449.281534919995
sg944
F-1998.0181596165344
sg945
g946
sg947
g948
sg949
g950
sg951
NsbsI57
g0
(g935
g2
Ntp1120
Rp1121
(dp1122
g939
g940
sg941
I57
sg942
F1389.24562994862
sg943
F12449.281534919995
sg944
F-1998.0181596165344
sg945
g946
sg947
g948
sg949
g950
sg951
NsbsI58
g0
(g935
g2
Ntp1123
Rp1124
(dp1125
g939
g940
sg941
I58
sg942
F0.0
sg943
F12449.281534919995
sg944
F-1016.82771999668
sg945
g946
sg947
g948
sg949
g950
sg951
NsbsI59
g0
(g935
g2
Ntp1126
Rp1127
(dp1128
g939
g940
sg941
I59
sg942
F1389.24562994862
sg943
F12449.281534919995
sg944
F-1016.82771999668
sg945
g946
sg947
g948
sg949
g950
sg951
NsbsI60
g0
(g935
g2
Ntp1129
Rp1130
(dp1131
g939
g940
sg941
I60
sg942
F2778.4912598972401
sg943
F12449.281534919995
sg944
F-1998.0181596165344
sg945
g946
sg947
g948
sg949
g950
sg951
NsbsI61
g0
(g935
g2
Ntp1132
Rp1133
(dp1134
g939
g940
sg941
I61
sg942
F2778.4912598972401
sg943
F12449.281534919995
sg944
F-1016.82771999668
sg945
g946
sg947
g948
sg949
g950
sg951
NsbsI62
g0
(g935
g2
Ntp1135
Rp1136
(dp1137
g939
g940
sg941
I62
sg942
F4209.8352422685502
sg943
F12449.281534919995
sg944
F-1998.0181596165344
sg945
g946
sg947
g948
sg949
g950
sg951
NsbsI63
g0
(g935
g2
Ntp1138
Rp1139
(dp1140
g939
g940
sg941
I63
sg942
F4209.8352422685502
sg943
F12449.281534919995
sg944
F-1016.82771999668
sg945
g946
sg947
g948
sg949
g950
sg951
NsbsI64
g0
(g935
g2
Ntp1141
Rp1142
(dp1143
g939
g940
sg941
I64
sg942
F0.0
sg943
F12449.281534919995
sg944
F-3008.941642861233
sg945
g946
sg947
g948
sg949
g950
sg951
NsbsI65
g0
(g935
g2
Ntp1144
Rp1145
(dp1146
g939
g940
sg941
I65
sg942
F1389.24562994862
sg943
F12449.281534919995
sg944
F-3008.941642861233
sg945
g946
sg947
g948
sg949
g950
sg951
NsbsI66
g0
(g935
g2
Ntp1147
Rp1148
(dp1149
g939
g940
sg941
I66
sg942
F2778.4912598972401
sg943
F12449.281534919995
sg944
F-3008.941642861233
sg945
g946
sg947
g948
sg949
g950
sg951
NsbsI67
g0
(g935
g2
Ntp1150
Rp1151
(dp1152
g939
g940
sg941
I67
sg942
F4209.8352422685502
sg943
F12449.281534919995
sg944
F-3008.941642861233
sg945
g946
sg947
g948
sg949
g950
sg951
NsbsI68
g0
(g935
g2
Ntp1153
Rp1154
(dp1155
g939
g940
sg941
I68
sg942
F0.0
sg943
F12449.281534919995
sg944
F-3990.1320824810873
sg945
g946
sg947
g948
sg949
g950
sg951
NsbsI69
g0
(g935
g2
Ntp1156
Rp1157
(dp1158
g939
g940
sg941
I69
sg942
F1389.24562994862
sg943
F12449.281534919995
sg944
F-3990.1320824810873
sg945
g946
sg947
g948
sg949
g950
sg951
NsbsI70
g0
(g935
g2
Ntp1159
Rp1160
(dp1161
g939
g940
sg941
I70
sg942
F2778.4912598972401
sg943
F12449.281534919995
sg944
F-3990.1320824810873
sg945
g946
sg947
g948
sg949
g950
sg951
NsbsI71
g0
(g935
g2
Ntp1162
Rp1163
(dp1164
g939
g940
sg941
I71
sg942
F4209.8352422685502
sg943
F12449.281534919995
sg944
F-3990.1320824810873
sg945
g946
sg947
g948
sg949
g950
sg951
NsbssS'node_index'
p1165
(dp1166
S'0.000,12449.282,-3008.942'
p1167
I64
sS'1389.246,5519.181,0.000'
p1168
I33
sS'0.000,12449.282,-3990.132'
p1169
I68
sS'2778.491,12449.282,-1016.828'
p1170
I61
sS'1389.246,6930.100,0.000'
p1171
I35
sS'2778.491,0.000,-1016.828'
p1172
I45
sS'0.000,8341.019,0.000'
p1173
I8
sS'1389.246,12449.282,-3990.132'
p1174
I69
sS'1389.246,11079.861,0.000'
p1175
I13
sS'2778.491,8341.019,0.000'
p1176
I20
sS'0.000,2738.842,0.000'
p1177
I4
sS'2778.491,9710.440,0.000'
p1178
I21
sS'2778.491,12449.282,0.000'
p1179
I23
sS'4209.835,8341.019,0.000'
p1180
I28
sS'0.000,6930.100,0.000'
p1181
I34
sS'4209.835,4108.263,0.000'
p1182
I27
sS'0.000,1369.421,0.000'
p1183
I2
sS'4209.835,5519.181,0.000'
p1184
I38
sS'1389.246,9710.440,0.000'
p1185
I11
sS'1389.246,12449.282,-1998.018'
p1186
I57
sS'0.000,12449.282,-1016.828'
p1187
I58
sS'4209.835,0.000,-1016.828'
p1188
I47
sS'2778.491,0.000,-1998.018'
p1189
I44
sS'4209.835,12449.282,-3990.132'
p1190
I71
sS'0.000,4108.263,0.000'
p1191
I6
sS'4209.835,6930.100,0.000'
p1192
I39
sS'4209.835,12449.282,-1998.018'
p1193
I62
sS'4209.835,12449.282,0.000'
p1194
I31
sS'4209.835,12449.282,-1016.828'
p1195
I63
sS'4209.835,0.000,-3008.942'
p1196
I51
sS'4209.835,1369.421,0.000'
p1197
I25
sS'0.000,12449.282,0.000'
p1198
I14
sS'1389.246,12449.282,-3008.942'
p1199
I65
sS'1389.246,0.000,-1016.828'
p1200
I43
sS'4209.835,2738.842,0.000'
p1201
I26
sS'2778.491,4108.263,0.000'
p1202
I19
sS'2778.491,1369.421,0.000'
p1203
I17
sS'0.000,0.000,-1016.828'
p1204
I42
sS'0.000,0.000,0.000'
p1205
I0
sS'2778.491,5519.181,0.000'
p1206
I36
sS'2778.491,0.000,0.000'
p1207
I16
sS'2778.491,6930.100,0.000'
p1208
I37
sS'4209.835,11079.861,0.000'
p1209
I30
sS'1389.246,0.000,0.000'
p1210
I1
sS'0.000,12449.282,-1998.018'
p1211
I56
sS'2778.491,12449.282,-3990.132'
p1212
I70
sS'1389.246,8341.019,0.000'
p1213
I9
sS'2778.491,2738.842,0.000'
p1214
I18
sS'4209.835,0.000,-1998.018'
p1215
I46
sS'2778.491,12449.282,-3008.942'
p1216
I66
sS'4209.835,12449.282,-3008.942'
p1217
I67
sS'2778.491,12449.282,-1998.018'
p1218
I60
sS'1389.246,2738.842,0.000'
p1219
I5
sS'1389.246,0.000,-3990.132'
p1220
I53
sS'2778.491,11079.861,0.000'
p1221
I22
sS'0.000,0.000,-3008.942'
p1222
I48
sS'4209.835,9710.440,0.000'
p1223
I29
sS'1389.246,0.000,-3008.942'
p1224
I49
sS'2778.491,0.000,-3008.942'
p1225
I50
sS'0.000,11079.861,0.000'
p1226
I12
sS'4209.835,0.000,-3990.132'
p1227
I55
sS'1389.246,4108.263,0.000'
p1228
I7
sS'1389.246,12449.282,-1016.828'
p1229
I59
sS'0.000,9710.440,0.000'
p1230
I10
sS'1389.246,0.000,-1998.018'
p1231
I41
sS'1389.246,1369.421,0.000'
p1232
I3
sS'0.000,5519.181,0.000'
p1233
I32
sS'0.000,0.000,-1998.018'
p1234
I40
sS'2778.491,0.000,-3990.132'
p1235
I54
sS'1389.246,12449.282,0.000'
p1236
I15
sS'0.000,0.000,-3990.132'
p1237
I52
sS'4209.835,0.000,0.000'
p1238
I24
ssS'path'
p1239
S'C:\\Temp\\'
p1240
sS'results'
p1241
(dp1242
S'step_2'
p1243
S'ERROR'
p1244
sS'step_3'
p1245
g1244
sS'step_4'
p1246
g1244
sS'step_1'
p1247
g1244
ssS'sections'
p1248
(dp1249
g412
g0
(ccompas_fea.structure.section
ShellSection
p1250
g2
Ntp1251
Rp1252
(dp1253
g15
I1
sS'__name__'
p1254
S'ShellSection'
p1255
sS'name'
p1256
g412
sS'geometry'
p1257
(dp1258
S't'
p1259
F493.8185149873168
ssS'loc_coords_OR'
p1260
(dp1261
S'ORxyz'
p1262
(lp1263
I0
aI0
aF-2973.3043624799998
assS'loc_coords_XA'
p1264
(dp1265
S'XAxyz'
p1266
(lp1267
I1
aI0
aF-2973.3043624799998
assS'loc_coords_YA'
p1268
(dp1269
S'YAxyz'
p1270
(lp1271
F2973.3043624799998
aF-2973.3043624799998
aF-2972.3043624799998
assS'loc_coords_EV_XA'
p1272
(dp1273
S'EV_XA'
p1274
(lp1275
F1.0
aF0.0
aF0.0
assS'loc_coords_EV_YA'
p1276
(dp1277
S'EV_YA'
p1278
(lp1279
F0.7071067611904035
aF-0.7071067611904035
aF0.00023781849248713096
assS'loc_coords_EV_ZA'
p1280
(dp1281
S'EV_ZA'
p1282
(lp1283
F0.0
aF-1.0
aF0.0
assS'nr_layers'
p1284
(dp1285
S'nn'
p1286
F42.0
ssS'offset'
p1287
(dp1288
S'mode'
p1289
S'mid'
p1290
ssbsg426
g0
(g1250
g2
Ntp1291
Rp1292
(dp1293
g15
I0
sg1254
g1255
sg1256
g426
sg1257
(dp1294
g1259
F1016.82771999668
ssg1260
(dp1295
g1262
(lp1296
I0
aI0
aI0
assg1264
(dp1297
g1266
(lp1298
I1
aI0
aI0
assg1268
(dp1299
g1270
(lp1300
F0.0
aF1.0
aF0.0
assg1272
(dp1301
g1274
(lp1302
F1.0
aF0.0
aF0.0
assg1276
(dp1303
g1278
(lp1304
F0.0
aF1.0
aF0.0
assg1280
(dp1305
g1282
(lp1306
F0.0
aF0.0
aF1.0
assg1284
(dp1307
g1286
F42.0
ssg1287
(dp1308
g1289
S'top'
p1309
ssbsg403
g0
(g1250
g2
Ntp1310
Rp1311
(dp1312
g15
I2
sg1254
g1255
sg1256
g403
sg1257
(dp1313
g1259
F493.8185149873168
ssg1260
(dp1314
g1262
(lp1315
I0
aF12449.281534899999
aF-2973.3043624799998
assg1264
(dp1316
g1266
(lp1317
I1
aF12449.281534899999
aF-2973.3043624799998
assg1268
(dp1318
g1270
(lp1319
F-2973.3043624833226
aF9475.97717242
aF-15423.585897379999
assg1272
(dp1320
g1274
(lp1321
F1.0
aF0.0
aF0.0
assg1276
(dp1322
g1278
(lp1323
F-0.22625856792404003
aF-0.22625856792378715
aF-0.94742499485818898
assg1280
(dp1324
g1282
(lp1325
F0.0
aF1.0
aF0.0
assg1284
(dp1326
g1286
F42.0
ssg1287
(dp1327
g1289
g1290
ssbsg496
g0
(ccompas_fea.structure.section
MPCSection
p1328
g2
Ntp1329
Rp1330
(dp1331
g15
I3
sg1254
S'MPCSection'
p1332
sg1256
g496
sg1257
NsS'nr_layers'
p1333
NsbssS'sets'
p1334
(dp1335
g521
g0
(ccompas_fea.structure.set
Set
p1336
g2
Ntp1337
Rp1338
(dp1339
S'__name__'
p1340
S'Set'
p1341
sS'name'
p1342
g521
sS'type'
p1343
S'element'
p1344
sS'selection'
p1345
(lp1346
I31
asS'index'
p1347
I13
sbsg497
g0
(g1336
g2
Ntp1348
Rp1349
(dp1350
g1340
g1341
sg1342
g497
sg1343
g1344
sg1345
(lp1351
I48
aI49
aI50
aI51
aI52
aI45
aI46
aI47
asg1347
I27
sbsg405
g0
(g1336
g2
Ntp1352
Rp1353
(dp1354
g1340
g1341
sg1342
g405
sg1343
g1344
sg1345
(lp1355
I39
asg1347
I21
sbsg451
g0
(g1336
g2
Ntp1356
Rp1357
(dp1358
g1340
g1341
sg1342
g451
sg1343
g1344
sg1345
(lp1359
I8
aI6
aI7
asg1347
I2
sbsg417
g0
(g1336
g2
Ntp1360
Rp1361
(dp1362
g1340
g1341
sg1342
g417
sg1343
g1344
sg1345
(lp1363
I34
asg1347
I16
sbsg513
g0
(g1336
g2
Ntp1364
Rp1365
(dp1366
g1340
g1341
sg1342
g513
sg1343
g1344
sg1345
(lp1367
I36
asg1347
I18
sbsg491
g0
(g1336
g2
Ntp1368
Rp1369
(dp1370
g1340
g1341
sg1342
g491
sg1343
g1344
sg1345
(lp1371
I3
aI4
aI5
asg1347
I1
sbsg427
g0
(g1336
g2
Ntp1372
Rp1373
(dp1374
g1340
g1341
sg1342
g427
sg1343
g1344
sg1345
(lp1375
I0
aI1
aI2
asg1347
I0
sbsg479
g0
(g1336
g2
Ntp1376
Rp1377
(dp1378
g1340
g1341
sg1342
g479
sg1343
g1344
sg1345
(lp1379
I18
aI19
aI20
asg1347
I6
sbsg517
g0
(g1336
g2
Ntp1380
Rp1381
(dp1382
g1340
g1341
sg1342
g517
sg1343
g1344
sg1345
(lp1383
I16
aI17
aI15
asg1347
I5
sbsg443
g0
(g1336
g2
Ntp1384
Rp1385
(dp1386
g1340
g1341
sg1342
g443
sg1343
g1344
sg1345
(lp1387
I12
aI13
aI14
asg1347
I4
sbsg487
g0
(g1336
g2
Ntp1388
Rp1389
(dp1390
g1340
g1341
sg1342
g487
sg1343
g1344
sg1345
(lp1391
I9
aI10
aI11
asg1347
I3
sbsg435
g0
(g1336
g2
Ntp1392
Rp1393
(dp1394
g1340
g1341
sg1342
g435
sg1343
g1344
sg1345
(lp1395
I24
aI25
aI26
asg1347
I8
sbsg471
g0
(g1336
g2
Ntp1396
Rp1397
(dp1398
g1340
g1341
sg1342
g471
sg1343
g1344
sg1345
(lp1399
I21
aI22
aI23
asg1347
I7
sbsg447
g0
(g1336
g2
Ntp1400
Rp1401
(dp1402
g1340
g1341
sg1342
g447
sg1343
g1344
sg1345
(lp1403
I29
asg1347
I11
sbsg509
g0
(g1336
g2
Ntp1404
Rp1405
(dp1406
g1340
g1341
sg1342
g509
sg1343
g1344
sg1345
(lp1407
I44
asg1347
I26
sbsg459
g0
(g1336
g2
Ntp1408
Rp1409
(dp1410
g1340
g1341
sg1342
g459
sg1343
g1344
sg1345
(lp1411
I41
asg1347
I23
sbsg439
g0
(g1336
g2
Ntp1412
Rp1413
(dp1414
g1340
g1341
sg1342
g439
sg1343
g1344
sg1345
(lp1415
I32
asg1347
I14
sbsg455
g0
(g1336
g2
Ntp1416
Rp1417
(dp1418
g1340
g1341
sg1342
g455
sg1343
g1344
sg1345
(lp1419
I38
asg1347
I20
sbsg475
g0
(g1336
g2
Ntp1420
Rp1421
(dp1422
g1340
g1341
sg1342
g475
sg1343
g1344
sg1345
(lp1423
I27
asg1347
I9
sbsg467
g0
(g1336
g2
Ntp1424
Rp1425
(dp1426
g1340
g1341
sg1342
g467
sg1343
g1344
sg1345
(lp1427
I35
asg1347
I17
sbsg35
g0
(g1336
g2
Ntp1428
Rp1429
(dp1430
g1340
g1341
sg1342
g35
sg1343
S'node'
p1431
sg1345
(lp1432
I71
aI70
aI69
aI68
asg1347
I29
sbsg463
g0
(g1336
g2
Ntp1433
Rp1434
(dp1435
g1340
g1341
sg1342
g463
sg1343
g1344
sg1345
(lp1436
I30
asg1347
I12
sbsg483
g0
(g1336
g2
Ntp1437
Rp1438
(dp1439
g1340
g1341
sg1342
g483
sg1343
g1344
sg1345
(lp1440
I43
asg1347
I25
sbsg431
g0
(g1336
g2
Ntp1441
Rp1442
(dp1443
g1340
g1341
sg1342
g431
sg1343
g1344
sg1345
(lp1444
I40
asg1347
I22
sbsg20
g0
(g1336
g2
Ntp1445
Rp1446
(dp1447
g1340
g1341
sg1342
g20
sg1343
g1431
sg1345
(lp1448
I55
aI54
aI53
aI52
asg1347
I28
sbsg501
g0
(g1336
g2
Ntp1449
Rp1450
(dp1451
g1340
g1341
sg1342
g501
sg1343
g1344
sg1345
(lp1452
I33
asg1347
I15
sbsg421
g0
(g1336
g2
Ntp1453
Rp1454
(dp1455
g1340
g1341
sg1342
g421
sg1343
g1344
sg1345
(lp1456
I37
asg1347
I19
sbsg413
g0
(g1336
g2
Ntp1457
Rp1458
(dp1459
g1340
g1341
sg1342
g413
sg1343
g1344
sg1345
(lp1460
I28
asg1347
I10
sbsg505
g0
(g1336
g2
Ntp1461
Rp1462
(dp1463
g1340
g1341
sg1342
g505
sg1343
g1344
sg1345
(lp1464
I42
asg1347
I24
sbssS'steps'
p1465
(dp1466
g1243
g0
(ccompas_fea.structure.step
GeneralStep
p1467
g2
Ntp1468
Rp1469
(dp1470
g15
I1
sS'__name__'
p1471
S'GeneralStep'
p1472
sS'name'
p1473
g1243
sS'attr_list'
p1474
(lp1475
g544
aS'increments'
p1476
aS'iterations'
p1477
aS'factor'
p1478
aS'nlgeom'
p1479
aS'nlmat'
p1480
aS'displacements'
p1481
aS'loads'
p1482
aS'type'
p1483
aS'tolerance'
p1484
aS'modify'
p1485
asS'increments'
p1486
I1
sS'iterations'
p1487
I100
sS'tolerance'
p1488
F0.01
sS'factor'
p1489
F1.0
sS'nlgeom'
p1490
I00
sS'nlmat'
p1491
I01
sS'displacements'
p1492
(lp1493
sS'loads'
p1494
(lp1495
g578
asS'modify'
p1496
I01
sS'type'
p1497
S'static'
p1498
sbsg1245
g0
(g1467
g2
Ntp1499
Rp1500
(dp1501
g15
I2
sg1471
g1472
sg1473
g1245
sg1474
(lp1502
g544
ag1476
ag1477
ag1478
ag1479
ag1480
ag1481
ag1482
ag1483
ag1484
ag1485
asg1486
I1
sg1487
I100
sg1488
F0.01
sg1489
F1.0
sg1490
I00
sg1491
I01
sg1492
(lp1503
sg1494
(lp1504
g571
ag564
ag557
asg1496
I01
sg1497
g1498
sbsg1246
g0
(g1467
g2
Ntp1505
Rp1506
(dp1507
g15
I3
sg1471
g1472
sg1473
g1246
sg1474
(lp1508
g544
ag1476
ag1477
ag1478
ag1479
ag1480
ag1481
ag1482
ag1483
ag1484
ag1485
asg1486
I1
sg1487
I100
sg1488
F0.01
sg1489
F1.0
sg1490
I00
sg1491
I01
sg1492
(lp1509
sg1494
(lp1510
g526
ag549
asg1496
I01
sg1497
g1498
sbsg1247
g0
(g1467
g2
Ntp1511
Rp1512
(dp1513
g15
I0
sg1471
g1472
sg1473
g1247
sg1474
(lp1514
g544
ag1476
ag1477
ag1478
ag1479
ag1480
ag1481
ag1482
ag1483
ag1484
ag1485
asg1486
I1
sg1487
I100
sg1488
F0.01
sg1489
F1.0
sg1490
I00
sg1491
I01
sg1492
(lp1515
g10
ag31
asg1494
(lp1516
sg1496
I01
sg1497
g1498
sbssS'loc_coor'
p1517
(dp1518
sS'steps_order'
p1519
(lp1520
g1247
ag1243
ag1245
ag1246
asS'tol'
p1521
S'3'
p1522
sS'virtual_nodes'
p1523
(dp1524
sS'virtual_node_index'
p1525
(dp1526
sS'virtual_elements'
p1527
(dp1528
sS'virtual_element_index'
p1529
(dp1530
sb.