ccopy_reg
_reconstructor
p0
(ccompas_fea.structure.structure
Structure
p1
c__builtin__
object
p2
Ntp3
Rp4
(dp5
S'constraints'
p6
(dp7
sS'displacements'
p8
(dp9
S'nset_pinned_set_disp_1'
p10
g0
(ccompas_fea.structure.displacement
GeneralDisplacement
p11
g2
Ntp12
Rp13
(dp14
S'index'
p15
I0
sS'__name__'
p16
S'GeneralDisplacement'
p17
sS'name'
p18
g10
sS'nodes'
p19
S'nset_support_wall1'
p20
sS'components'
p21
(dp22
S'z'
p23
I0
sS'xx'
p24
I0
sS'zz'
p25
I0
sS'yy'
p26
I0
sS'y'
p27
I0
sS'x'
p28
I0
ssS'axes'
p29
S'global'
p30
sbsS'nset_pinned_set_disp_2'
p31
g0
(g11
g2
Ntp32
Rp33
(dp34
g15
I1
sg16
g17
sg18
g31
sg19
S'nset_support_wall2'
p35
sg21
(dp36
g23
I0
sg24
I0
sg25
I0
sg26
I0
sg27
I0
sg28
I0
ssg29
g30
sbssS'elements'
p37
(dp38
I0
g0
(ccompas_fea.structure.element
ShellElement
p39
g2
Ntp40
Rp41
(dp42
S'mass'
p43
NsS'__name__'
p44
S'ShellElement'
p45
sS'nodes'
p46
(lp47
I0
aI1
aI3
aI2
asS'number'
p48
I0
sS'thermal'
p49
I00
sS'axes'
p50
(dp51
S'ey'
p52
NsS'ez'
p53
NsS'ex'
p54
NssS'element_property'
p55
S'elset_plate_1_element_prop'
p56
sbsI1
g0
(g39
g2
Ntp57
Rp58
(dp59
g43
Nsg44
g45
sg46
(lp60
I2
aI3
aI5
aI4
asg48
I1
sg49
I00
sg50
g51
sg55
g56
sbsI2
g0
(g39
g2
Ntp61
Rp62
(dp63
g43
Nsg44
g45
sg46
(lp64
I4
aI5
aI7
aI6
asg48
I2
sg49
I00
sg50
g51
sg55
g56
sbsI3
g0
(g39
g2
Ntp65
Rp66
(dp67
g43
Nsg44
g45
sg46
(lp68
I8
aI9
aI11
aI10
asg48
I3
sg49
I00
sg50
(dp69
g52
Nsg53
Nsg54
Nssg55
S'elset_plate_2_element_prop'
p70
sbsI4
g0
(g39
g2
Ntp71
Rp72
(dp73
g43
Nsg44
g45
sg46
(lp74
I10
aI11
aI13
aI12
asg48
I4
sg49
I00
sg50
g69
sg55
g70
sbsI5
g0
(g39
g2
Ntp75
Rp76
(dp77
g43
Nsg44
g45
sg46
(lp78
I12
aI13
aI15
aI14
asg48
I5
sg49
I00
sg50
g69
sg55
g70
sbsI6
g0
(g39
g2
Ntp79
Rp80
(dp81
g43
Nsg44
g45
sg46
(lp82
I1
aI16
aI17
aI3
asg48
I6
sg49
I00
sg50
(dp83
g52
Nsg53
Nsg54
Nssg55
S'elset_plate_3_element_prop'
p84
sbsI7
g0
(g39
g2
Ntp85
Rp86
(dp87
g43
Nsg44
g45
sg46
(lp88
I3
aI17
aI18
aI5
asg48
I7
sg49
I00
sg50
g83
sg55
g84
sbsI8
g0
(g39
g2
Ntp89
Rp90
(dp91
g43
Nsg44
g45
sg46
(lp92
I5
aI18
aI19
aI7
asg48
I8
sg49
I00
sg50
g83
sg55
g84
sbsI9
g0
(g39
g2
Ntp93
Rp94
(dp95
g43
Nsg44
g45
sg46
(lp96
I9
aI20
aI21
aI11
asg48
I9
sg49
I00
sg50
(dp97
g52
Nsg53
Nsg54
Nssg55
S'elset_plate_4_element_prop'
p98
sbsI10
g0
(g39
g2
Ntp99
Rp100
(dp101
g43
Nsg44
g45
sg46
(lp102
I11
aI21
aI22
aI13
asg48
I10
sg49
I00
sg50
g97
sg55
g98
sbsI11
g0
(g39
g2
Ntp103
Rp104
(dp105
g43
Nsg44
g45
sg46
(lp106
I13
aI22
aI23
aI15
asg48
I11
sg49
I00
sg50
g97
sg55
g98
sbsI12
g0
(g39
g2
Ntp107
Rp108
(dp109
g43
Nsg44
g45
sg46
(lp110
I16
aI24
aI25
aI17
asg48
I12
sg49
I00
sg50
(dp111
g52
Nsg53
Nsg54
Nssg55
S'elset_plate_5_element_prop'
p112
sbsI13
g0
(g39
g2
Ntp113
Rp114
(dp115
g43
Nsg44
g45
sg46
(lp116
I17
aI25
aI26
aI18
asg48
I13
sg49
I00
sg50
g111
sg55
g112
sbsI14
g0
(g39
g2
Ntp117
Rp118
(dp119
g43
Nsg44
g45
sg46
(lp120
I18
aI26
aI27
aI19
asg48
I14
sg49
I00
sg50
g111
sg55
g112
sbsI15
g0
(g39
g2
Ntp121
Rp122
(dp123
g43
Nsg44
g45
sg46
(lp124
I20
aI28
aI29
aI21
asg48
I15
sg49
I00
sg50
(dp125
g52
Nsg53
Nsg54
Nssg55
S'elset_plate_6_element_prop'
p126
sbsI16
g0
(g39
g2
Ntp127
Rp128
(dp129
g43
Nsg44
g45
sg46
(lp130
I21
aI29
aI30
aI22
asg48
I16
sg49
I00
sg50
g125
sg55
g126
sbsI17
g0
(g39
g2
Ntp131
Rp132
(dp133
g43
Nsg44
g45
sg46
(lp134
I22
aI30
aI31
aI23
asg48
I17
sg49
I00
sg50
g125
sg55
g126
sbsI18
g0
(g39
g2
Ntp135
Rp136
(dp137
g43
Nsg44
g45
sg46
(lp138
I6
aI7
aI33
aI32
asg48
I18
sg49
I00
sg50
(dp139
g52
Nsg53
Nsg54
Nssg55
S'elset_plate_7_element_prop'
p140
sbsI19
g0
(g39
g2
Ntp141
Rp142
(dp143
g43
Nsg44
g45
sg46
(lp144
I32
aI33
aI35
aI34
asg48
I19
sg49
I00
sg50
g139
sg55
g140
sbsI20
g0
(g39
g2
Ntp145
Rp146
(dp147
g43
Nsg44
g45
sg46
(lp148
I34
aI35
aI9
aI8
asg48
I20
sg49
I00
sg50
g139
sg55
g140
sbsI21
g0
(g39
g2
Ntp149
Rp150
(dp151
g43
Nsg44
g45
sg46
(lp152
I7
aI19
aI36
aI33
asg48
I21
sg49
I00
sg50
(dp153
g52
Nsg53
Nsg54
Nssg55
S'elset_plate_8_element_prop'
p154
sbsI22
g0
(g39
g2
Ntp155
Rp156
(dp157
g43
Nsg44
g45
sg46
(lp158
I33
aI36
aI37
aI35
asg48
I22
sg49
I00
sg50
g153
sg55
g154
sbsI23
g0
(g39
g2
Ntp159
Rp160
(dp161
g43
Nsg44
g45
sg46
(lp162
I35
aI37
aI20
aI9
asg48
I23
sg49
I00
sg50
g153
sg55
g154
sbsI24
g0
(g39
g2
Ntp163
Rp164
(dp165
g43
Nsg44
g45
sg46
(lp166
I19
aI27
aI38
aI36
asg48
I24
sg49
I00
sg50
(dp167
g52
Nsg53
Nsg54
Nssg55
S'elset_plate_9_element_prop'
p168
sbsI25
g0
(g39
g2
Ntp169
Rp170
(dp171
g43
Nsg44
g45
sg46
(lp172
I36
aI38
aI39
aI37
asg48
I25
sg49
I00
sg50
g167
sg55
g168
sbsI26
g0
(g39
g2
Ntp173
Rp174
(dp175
g43
Nsg44
g45
sg46
(lp176
I37
aI39
aI28
aI20
asg48
I26
sg49
I00
sg50
g167
sg55
g168
sbsI27
g0
(g39
g2
Ntp177
Rp178
(dp179
g43
Nsg44
g45
sg46
(lp180
I40
aI41
aI43
aI42
asg48
I27
sg49
I00
sg50
(dp181
g52
Nsg53
Nsg54
Nssg55
S'elset_wall_1_1_element_prop'
p182
sbsI28
g0
(g39
g2
Ntp183
Rp184
(dp185
g43
Nsg44
g45
sg46
(lp186
I41
aI44
aI45
aI43
asg48
I28
sg49
I00
sg50
(dp187
g52
Nsg53
Nsg54
Nssg55
S'elset_wall_1_2_element_prop'
p188
sbsI29
g0
(g39
g2
Ntp189
Rp190
(dp191
g43
Nsg44
g45
sg46
(lp192
I44
aI46
aI47
aI45
asg48
I29
sg49
I00
sg50
(dp193
g52
Nsg53
Nsg54
Nssg55
S'elset_wall_1_3_element_prop'
p194
sbsI30
g0
(g39
g2
Ntp195
Rp196
(dp197
g43
Nsg44
g45
sg46
(lp198
I48
aI49
aI41
aI40
asg48
I30
sg49
I00
sg50
(dp199
g52
Nsg53
Nsg54
Nssg55
S'elset_wall_1_4_element_prop'
p200
sbsI31
g0
(g39
g2
Ntp201
Rp202
(dp203
g43
Nsg44
g45
sg46
(lp204
I49
aI50
aI44
aI41
asg48
I31
sg49
I00
sg50
(dp205
g52
Nsg53
Nsg54
Nssg55
S'elset_wall_1_5_element_prop'
p206
sbsI32
g0
(g39
g2
Ntp207
Rp208
(dp209
g43
Nsg44
g45
sg46
(lp210
I50
aI51
aI46
aI44
asg48
I32
sg49
I00
sg50
(dp211
g52
Nsg53
Nsg54
Nssg55
S'elset_wall_1_6_element_prop'
p212
sbsI33
g0
(g39
g2
Ntp213
Rp214
(dp215
g43
Nsg44
g45
sg46
(lp216
I52
aI53
aI49
aI48
asg48
I33
sg49
I00
sg50
(dp217
g52
Nsg53
Nsg54
Nssg55
S'elset_wall_1_7_element_prop'
p218
sbsI34
g0
(g39
g2
Ntp219
Rp220
(dp221
g43
Nsg44
g45
sg46
(lp222
I53
aI54
aI50
aI49
asg48
I34
sg49
I00
sg50
(dp223
g52
Nsg53
Nsg54
Nssg55
S'elset_wall_1_8_element_prop'
p224
sbsI35
g0
(g39
g2
Ntp225
Rp226
(dp227
g43
Nsg44
g45
sg46
(lp228
I54
aI55
aI51
aI50
asg48
I35
sg49
I00
sg50
(dp229
g52
Nsg53
Nsg54
Nssg55
S'elset_wall_1_9_element_prop'
p230
sbsI36
g0
(g39
g2
Ntp231
Rp232
(dp233
g43
Nsg44
g45
sg46
(lp234
I56
aI58
aI59
aI57
asg48
I36
sg49
I00
sg50
(dp235
g52
Nsg53
Nsg54
Nssg55
S'elset_wall_2_1_element_prop'
p236
sbsI37
g0
(g39
g2
Ntp237
Rp238
(dp239
g43
Nsg44
g45
sg46
(lp240
I57
aI59
aI61
aI60
asg48
I37
sg49
I00
sg50
(dp241
g52
Nsg53
Nsg54
Nssg55
S'elset_wall_2_2_element_prop'
p242
sbsI38
g0
(g39
g2
Ntp243
Rp244
(dp245
g43
Nsg44
g45
sg46
(lp246
I60
aI61
aI63
aI62
asg48
I38
sg49
I00
sg50
(dp247
g52
Nsg53
Nsg54
Nssg55
S'elset_wall_2_3_element_prop'
p248
sbsI39
g0
(g39
g2
Ntp249
Rp250
(dp251
g43
Nsg44
g45
sg46
(lp252
I64
aI56
aI57
aI65
asg48
I39
sg49
I00
sg50
(dp253
g52
Nsg53
Nsg54
Nssg55
S'elset_wall_2_4_element_prop'
p254
sbsI40
g0
(g39
g2
Ntp255
Rp256
(dp257
g43
Nsg44
g45
sg46
(lp258
I65
aI57
aI60
aI66
asg48
I40
sg49
I00
sg50
(dp259
g52
Nsg53
Nsg54
Nssg55
S'elset_wall_2_5_element_prop'
p260
sbsI41
g0
(g39
g2
Ntp261
Rp262
(dp263
g43
Nsg44
g45
sg46
(lp264
I66
aI60
aI62
aI67
asg48
I41
sg49
I00
sg50
(dp265
g52
Nsg53
Nsg54
Nssg55
S'elset_wall_2_6_element_prop'
p266
sbsI42
g0
(g39
g2
Ntp267
Rp268
(dp269
g43
Nsg44
g45
sg46
(lp270
I68
aI64
aI65
aI69
asg48
I42
sg49
I00
sg50
(dp271
g52
Nsg53
Nsg54
Nssg55
S'elset_wall_2_7_element_prop'
p272
sbsI43
g0
(g39
g2
Ntp273
Rp274
(dp275
g43
Nsg44
g45
sg46
(lp276
I69
aI65
aI66
aI70
asg48
I43
sg49
I00
sg50
(dp277
g52
Nsg53
Nsg54
Nssg55
S'elset_wall_2_8_element_prop'
p278
sbsI44
g0
(g39
g2
Ntp279
Rp280
(dp281
g43
Nsg44
g45
sg46
(lp282
I70
aI66
aI67
aI71
asg48
I44
sg49
I00
sg50
(dp283
g52
Nsg53
Nsg54
Nssg55
S'elset_wall_2_9_element_prop'
p284
sbsI45
g0
(ccompas_fea.structure.element
MPCElement
p285
g2
Ntp286
Rp287
(dp288
g43
Nsg44
S'MPCElement'
p289
sg46
(lp290
I63
aI31
asg48
I45
sg49
I00
sg50
(dp291
g52
Nsg53
(lp292
F-1.8189894035458565e-12
aF0.0
aF835.07524164790959
asg54
Nssg55
S'elset_mpc_element_prop'
p293
sbsI46
g0
(g285
g2
Ntp294
Rp295
(dp296
g43
Nsg44
g289
sg46
(lp297
I61
aI23
asg48
I46
sg49
I00
sg50
(dp298
g52
Nsg53
(lp299
F-4.5474735088646412e-12
aF0.0
aF835.07524164790959
asg54
Nssg55
g293
sbsI47
g0
(g285
g2
Ntp300
Rp301
(dp302
g43
Nsg44
g289
sg46
(lp303
I59
aI15
asg48
I47
sg49
I00
sg50
(dp304
g52
Nsg53
(lp305
F-2.2737367544323206e-12
aF0.0
aF835.07524164790959
asg54
Nssg55
g293
sbsI48
g0
(g285
g2
Ntp306
Rp307
(dp308
g43
Nsg44
g289
sg46
(lp309
I58
aI14
asg48
I48
sg49
I00
sg50
(dp310
g52
Nsg53
(lp311
F0.0
aF0.0
aF835.07524164790959
asg54
Nssg55
g293
sbsI49
g0
(g285
g2
Ntp312
Rp313
(dp314
g43
Nsg44
g289
sg46
(lp315
I47
aI24
asg48
I49
sg49
I00
sg50
(dp316
g52
Nsg53
(lp317
F-1.8189894035458565e-12
aF0.0
aF835.07524164790959
asg54
Nssg55
g293
sbsI50
g0
(g285
g2
Ntp318
Rp319
(dp320
g43
Nsg44
g289
sg46
(lp321
I45
aI16
asg48
I50
sg49
I00
sg50
(dp322
g52
Nsg53
(lp323
F-4.5474735088646412e-12
aF0.0
aF835.07524164790959
asg54
Nssg55
g293
sbsI51
g0
(g285
g2
Ntp324
Rp325
(dp326
g43
Nsg44
g289
sg46
(lp327
I43
aI1
asg48
I51
sg49
I00
sg50
(dp328
g52
Nsg53
(lp329
F-2.2737367544323206e-12
aF0.0
aF835.07524164790959
asg54
Nssg55
g293
sbsI52
g0
(g285
g2
Ntp330
Rp331
(dp332
g43
Nsg44
g289
sg46
(lp333
I42
aI0
asg48
I52
sg49
I00
sg50
(dp334
g52
Nsg53
(lp335
F0.0
aF0.0
aF835.07524164790959
asg54
Nssg55
g293
sbssS'element_index'
p336
(dp337
S'4538.159,15970.734,-417.538'
p338
I46
sS'1134.540,7985.367,0.000'
p339
I19
sS'5707.079,13335.563,0.000'
p340
I16
sS'1134.540,4391.952,0.000'
p341
I2
sS'1134.540,0.000,-2627.753'
p342
I30
sS'1134.540,9795.383,0.000'
p343
I20
sS'1134.540,15970.734,-1426.659'
p344
I36
sS'3403.619,878.390,0.000'
p345
I6
sS'3403.619,15970.734,-1426.659'
p346
I37
sS'2269.079,0.000,-417.538'
p347
I51
sS'5707.079,15092.343,0.000'
p348
I17
sS'3403.619,0.000,-1426.659'
p349
I28
sS'1134.540,15092.343,0.000'
p350
I5
sS'3403.619,15092.343,0.000'
p351
I11
sS'3403.619,7985.367,0.000'
p352
I22
sS'5707.079,7985.367,0.000'
p353
I25
sS'3403.619,13335.563,0.000'
p354
I10
sS'5707.079,15970.734,-2627.753'
p355
I41
sS'4538.159,0.000,-417.538'
p356
I50
sS'3403.619,11578.782,0.000'
p357
I9
sS'1134.540,6175.350,0.000'
p358
I18
sS'3403.619,4391.952,0.000'
p359
I8
sS'3403.619,15970.734,-3828.847'
p360
I43
sS'5707.079,878.390,0.000'
p361
I12
sS'1134.540,15970.734,-3828.847'
p362
I42
sS'5707.079,4391.952,0.000'
p363
I14
sS'5707.079,0.000,-1426.659'
p364
I29
sS'1134.540,0.000,-1426.659'
p365
I27
sS'5707.079,15970.734,-1426.659'
p366
I38
sS'3403.619,15970.734,-2627.753'
p367
I40
sS'1134.540,15970.734,-2627.753'
p368
I39
sS'0.000,15970.734,-417.538'
p369
I48
sS'3403.619,9795.383,0.000'
p370
I23
sS'3403.619,2635.171,0.000'
p371
I7
sS'3403.619,0.000,-3828.847'
p372
I34
sS'6875.998,0.000,-417.538'
p373
I49
sS'5707.079,2635.171,0.000'
p374
I13
sS'5707.079,11578.782,0.000'
p375
I15
sS'5707.079,0.000,-2627.753'
p376
I32
sS'6875.998,15970.734,-417.538'
p377
I45
sS'2269.079,15970.734,-417.538'
p378
I47
sS'1134.540,0.000,-3828.847'
p379
I33
sS'3403.619,6175.350,0.000'
p380
I21
sS'5707.079,15970.734,-3828.847'
p381
I44
sS'1134.540,2635.171,0.000'
p382
I1
sS'5707.079,6175.350,0.000'
p383
I24
sS'1134.540,11578.782,0.000'
p384
I3
sS'5707.079,9795.383,0.000'
p385
I26
sS'5707.079,0.000,-3828.847'
p386
I35
sS'0.000,0.000,-417.538'
p387
I52
sS'1134.540,878.390,0.000'
p388
I0
sS'1134.540,13335.563,0.000'
p389
I4
sS'3403.619,0.000,-2627.753'
p390
I31
ssS'element_properties'
p391
(dp392
g254
g0
(ccompas_fea.structure.element_properties
ElementProperties
p393
g2
Ntp394
Rp395
(dp396
S'index'
p397
I21
sS'__name__'
p398
S'ElementProperties'
p399
sS'name'
p400
g254
sS'material'
p401
S'wall_element_mat'
p402
sS'section'
p403
S'wall2_element_sec'
p404
sS'elset'
p405
S'elset_wall_2_4'
p406
sS'elements'
p407
NsS'rebar'
p408
(dp409
sbsg188
g0
(g393
g2
Ntp410
Rp411
(dp412
g397
I10
sg398
g399
sg400
g188
sg401
g402
sg403
S'wall1_element_sec'
p413
sg405
S'elset_wall_1_2'
p414
sg407
Nsg408
g409
sbsg224
g0
(g393
g2
Ntp415
Rp416
(dp417
g397
I16
sg398
g399
sg400
g224
sg401
g402
sg403
g413
sg405
S'elset_wall_1_8'
p418
sg407
Nsg408
g409
sbsg242
g0
(g393
g2
Ntp419
Rp420
(dp421
g397
I19
sg398
g399
sg400
g242
sg401
g402
sg403
g404
sg405
S'elset_wall_2_2'
p422
sg407
Nsg408
g409
sbsg56
g0
(g393
g2
Ntp423
Rp424
(dp425
g397
I0
sg398
g399
sg400
g56
sg401
S'plate_element_mat'
p426
sg403
S'plate_element_sec'
p427
sg405
S'elset_plate_1'
p428
sg407
Nsg408
g409
sbsg260
g0
(g393
g2
Ntp429
Rp430
(dp431
g397
I22
sg398
g399
sg400
g260
sg401
g402
sg403
g404
sg405
S'elset_wall_2_5'
p432
sg407
Nsg408
g409
sbsg168
g0
(g393
g2
Ntp433
Rp434
(dp435
g397
I8
sg398
g399
sg400
g168
sg401
g426
sg403
g427
sg405
S'elset_plate_9'
p436
sg407
Nsg408
g409
sbsg212
g0
(g393
g2
Ntp437
Rp438
(dp439
g397
I14
sg398
g399
sg400
g212
sg401
g402
sg403
g413
sg405
S'elset_wall_1_6'
p440
sg407
Nsg408
g409
sbsg112
g0
(g393
g2
Ntp441
Rp442
(dp443
g397
I4
sg398
g399
sg400
g112
sg401
g426
sg403
g427
sg405
S'elset_plate_5'
p444
sg407
Nsg408
g409
sbsg194
g0
(g393
g2
Ntp445
Rp446
(dp447
g397
I11
sg398
g399
sg400
g194
sg401
g402
sg403
g413
sg405
S'elset_wall_1_3'
p448
sg407
Nsg408
g409
sbsg84
g0
(g393
g2
Ntp449
Rp450
(dp451
g397
I2
sg398
g399
sg400
g84
sg401
g426
sg403
g427
sg405
S'elset_plate_3'
p452
sg407
Nsg408
g409
sbsg248
g0
(g393
g2
Ntp453
Rp454
(dp455
g397
I20
sg398
g399
sg400
g248
sg401
g402
sg403
g404
sg405
S'elset_wall_2_3'
p456
sg407
Nsg408
g409
sbsg266
g0
(g393
g2
Ntp457
Rp458
(dp459
g397
I23
sg398
g399
sg400
g266
sg401
g402
sg403
g404
sg405
S'elset_wall_2_6'
p460
sg407
Nsg408
g409
sbsg200
g0
(g393
g2
Ntp461
Rp462
(dp463
g397
I12
sg398
g399
sg400
g200
sg401
g402
sg403
g413
sg405
S'elset_wall_1_4'
p464
sg407
Nsg408
g409
sbsg230
g0
(g393
g2
Ntp465
Rp466
(dp467
g397
I17
sg398
g399
sg400
g230
sg401
g402
sg403
g413
sg405
S'elset_wall_1_9'
p468
sg407
Nsg408
g409
sbsg154
g0
(g393
g2
Ntp469
Rp470
(dp471
g397
I7
sg398
g399
sg400
g154
sg401
g426
sg403
g427
sg405
S'elset_plate_8'
p472
sg407
Nsg408
g409
sbsg182
g0
(g393
g2
Ntp473
Rp474
(dp475
g397
I9
sg398
g399
sg400
g182
sg401
g402
sg403
g413
sg405
S'elset_wall_1_1'
p476
sg407
Nsg408
g409
sbsg140
g0
(g393
g2
Ntp477
Rp478
(dp479
g397
I6
sg398
g399
sg400
g140
sg401
g426
sg403
g427
sg405
S'elset_plate_7'
p480
sg407
Nsg408
g409
sbsg278
g0
(g393
g2
Ntp481
Rp482
(dp483
g397
I25
sg398
g399
sg400
g278
sg401
g402
sg403
g404
sg405
S'elset_wall_2_8'
p484
sg407
Nsg408
g409
sbsg98
g0
(g393
g2
Ntp485
Rp486
(dp487
g397
I3
sg398
g399
sg400
g98
sg401
g426
sg403
g427
sg405
S'elset_plate_4'
p488
sg407
Nsg408
g409
sbsg70
g0
(g393
g2
Ntp489
Rp490
(dp491
g397
I1
sg398
g399
sg400
g70
sg401
g426
sg403
g427
sg405
S'elset_plate_2'
p492
sg407
Nsg408
g409
sbsg293
g0
(g393
g2
Ntp493
Rp494
(dp495
g397
I27
sg398
g399
sg400
g293
sg401
S'elset_mpc_element_mat'
p496
sg403
S'sec_mpc'
p497
sg405
S'elset_mpcs'
p498
sg407
Nsg408
g409
sbsg218
g0
(g393
g2
Ntp499
Rp500
(dp501
g397
I15
sg398
g399
sg400
g218
sg401
g402
sg403
g413
sg405
S'elset_wall_1_7'
p502
sg407
Nsg408
g409
sbsg272
g0
(g393
g2
Ntp503
Rp504
(dp505
g397
I24
sg398
g399
sg400
g272
sg401
g402
sg403
g404
sg405
S'elset_wall_2_7'
p506
sg407
Nsg408
g409
sbsg284
g0
(g393
g2
Ntp507
Rp508
(dp509
g397
I26
sg398
g399
sg400
g284
sg401
g402
sg403
g404
sg405
S'elset_wall_2_9'
p510
sg407
Nsg408
g409
sbsg236
g0
(g393
g2
Ntp511
Rp512
(dp513
g397
I18
sg398
g399
sg400
g236
sg401
g402
sg403
g404
sg405
S'elset_wall_2_1'
p514
sg407
Nsg408
g409
sbsg126
g0
(g393
g2
Ntp515
Rp516
(dp517
g397
I5
sg398
g399
sg400
g126
sg401
g426
sg403
g427
sg405
S'elset_plate_6'
p518
sg407
Nsg408
g409
sbsg206
g0
(g393
g2
Ntp519
Rp520
(dp521
g397
I13
sg398
g399
sg400
g206
sg401
g402
sg403
g413
sg405
S'elset_wall_1_5'
p522
sg407
Nsg408
g409
sbssS'interactions'
p523
(dp524
sS'loads'
p525
(dp526
S'Gleis1_BAHNLASTEN_Lasteinzugsflache_Lastblock_-3'
p527
g0
(ccompas_fea.structure.load
AreaLoad
p528
g2
Ntp529
Rp530
(dp531
g397
I7
sS'__name__'
p532
S'AreaLoad'
p533
sS'name'
p534
g527
sS'axes'
p535
S'global'
p536
sS'components'
p537
(dp538
g23
F0.068699515435098113
sg27
I0
sg28
I0
ssS'nodes'
p539
(lp540
sS'elements'
p541
(lp542
I7
asS'attr_list'
p543
(lp544
S'name'
p545
aS'axes'
p546
aS'components'
p547
aS'nodes'
p548
aS'elements'
p549
asbsS'earthPressure_liveLoad'
p550
g0
(g528
g2
Ntp551
Rp552
(dp553
g397
I8
sg532
g533
sg534
g550
sg535
S'local'
p554
sg537
(dp555
g23
F0.037699999999999997
sg27
I0
sg28
I0
ssg539
g540
sg541
(lp556
I29
aI30
aI32
aI33
aI35
aI36
asg543
(lp557
g545
ag546
ag547
ag548
ag549
asbsS'Gleis1_BAHNLASTEN_Lasteinzugsflache_Lastblock_-2'
p558
g0
(g528
g2
Ntp559
Rp560
(dp561
g397
I6
sg532
g533
sg534
g558
sg535
g536
sg537
(dp562
g23
F0.068699515435098113
sg27
I0
sg28
I0
ssg539
g540
sg541
(lp563
I13
aI14
asg543
(lp564
g545
ag546
ag547
ag548
ag549
asbsS'Gleis1_EIGENGEWICHTE_SCHIENE_Lasteinzugsflache'
p565
g0
(g528
g2
Ntp566
Rp567
(dp568
g397
I3
sg532
g533
sg534
g565
sg535
S'global'
p569
sg537
(dp570
g23
F0.0022880907015084885
sg27
I0
sg28
I0
ssg539
g540
sg541
(lp571
I7
aI13
aI14
aI15
aI25
aI26
aI27
asg543
(lp572
g545
ag546
ag547
ag548
ag549
asbsS'earthPressure_backfill'
p573
g0
(g528
g2
Ntp574
Rp575
(dp576
g397
I2
sg532
g533
sg534
g573
sg535
S'local'
p577
sg537
(dp578
g23
F0.053431862578895609
sg27
I0
sg28
I0
ssg539
g540
sg541
(lp579
g476
ag414
ag448
ag464
ag522
ag440
ag502
ag418
ag468
ag514
ag422
ag456
ag406
ag432
ag460
ag506
ag484
ag510
asg543
(lp580
g545
ag546
ag547
ag548
ag549
asbsS'earthPressure_gravel'
p581
g0
(g528
g2
Ntp582
Rp583
(dp584
g397
I1
sg532
g533
sg534
g581
sg535
S'global'
p585
sg537
(dp586
g23
F0.013500000000000002
sg27
I0
sg28
I0
ssg539
g540
sg541
(lp587
g428
ag492
ag452
ag488
ag444
ag518
ag480
ag472
ag436
asg543
(lp588
g545
ag546
ag547
ag548
ag549
asbsS'Gleis1_BAHNLASTEN_Lasteinzugsflache_Lastblock_-1'
p589
g0
(g528
g2
Ntp590
Rp591
(dp592
g397
I5
sg532
g533
sg534
g589
sg535
g536
sg537
(dp593
g23
F0.068699515435098113
sg27
I0
sg28
I0
ssg539
g540
sg541
(lp594
I25
asg543
(lp595
g545
ag546
ag547
ag548
ag549
asbsS'Gleis1_BAHNLASTEN_Lasteinzugsflache_Lastblock_1'
p596
g0
(g528
g2
Ntp597
Rp598
(dp599
g397
I4
sg532
g533
sg534
g596
sg535
g536
sg537
(dp600
g23
F0.068699515435098113
sg27
I0
sg28
I0
ssg539
g540
sg541
(lp601
I26
asg543
(lp602
g545
ag546
ag547
ag548
ag549
asbsS'load_gravity'
p603
g0
(ccompas_fea.structure.load
GravityLoad
p604
g2
Ntp605
Rp606
(dp607
g15
I0
sg532
S'GravityLoad'
p608
sg534
g603
sg535
S'global'
p609
sg537
(dp610
S'z'
p611
F1.3500000000000001
sS'y'
p612
F0.0
sS'x'
p613
F0.0
ssg539
g540
sg541
(lp614
g428
ag492
ag452
ag488
ag444
ag518
ag480
ag472
ag436
ag476
ag414
ag448
ag464
ag522
ag440
ag502
ag418
ag468
ag514
ag422
ag456
ag406
ag432
ag460
ag506
ag484
ag510
asg543
(lp615
g545
ag546
ag547
ag548
ag549
aS'g'
p616
asS'g'
p617
F-9.8100000000000005
sbssS'materials'
p618
(dp619
S'elset_mpc_element_mat'
p620
g0
(ccompas_fea.structure.material
MPCStiff
p621
g2
Ntp622
Rp623
(dp624
g15
I2
sS'__name__'
p625
S'MPCStiff'
p626
sS'name'
p627
g620
sS'attr_list'
p628
(lp629
g545
aS'E'
p630
aS'v'
p631
aS'G'
p632
aS'p'
p633
aS'tension'
p634
aS'compression'
p635
asS'E'
p636
(dp637
S'E'
p638
L10000000000000L
ssS'v'
p639
(dp640
S'v'
p641
F0.29999999999999999
ssS'G'
p642
(dp643
S'G'
p644
F3846153846153.8462
ssS'p'
p645
F0.10000000000000001
sS'tension'
p646
I01
sS'compression'
p647
I01
sbsg402
g0
(ccompas_fea.structure.material
CMMUsermat
p648
g2
Ntp649
Rp650
(dp651
g15
I1
sg625
S'CMMUsermat'
p652
sg627
g402
sg628
(lp653
g545
aS'E'
p654
aS'v'
p655
aS'G'
p656
aS'p'
p657
aS'R_Rohr'
p658
aS'rho'
p659
aS'oo'
p660
aS'uu'
p661
aS'beton'
p662
aS'fcc'
p663
aS'vc'
p664
aS'ecu'
p665
aS'k_E'
p666
aS'theta_b0'
p667
aS'theta_b1'
p668
aS'k_riss'
p669
aS'Entfestigung'
p670
aS'lambdaTS'
p671
aS'srmx'
p672
aS'srmy'
p673
aS'Begrenzung'
p674
aS'KritQ'
p675
aS'winkelD'
p676
aS'k_vr'
p677
aS'fswy'
p678
aS'stahl1'
p679
aS'zm1'
p680
aS'fsy1'
p681
aS'fsu1'
p682
aS'esu1'
p683
aS'esv1'
p684
aS'Es1'
p685
aS'ka1'
p686
aS'kb1'
p687
aS'kc1'
p688
aS'as1'
p689
aS'dm1'
p690
aS'psi1'
p691
aS'stahl2'
p692
aS'zm2'
p693
aS'fsy2'
p694
aS'fsu2'
p695
aS'esu2'
p696
aS'esv2'
p697
aS'Es2'
p698
aS'ka2'
p699
aS'kb2'
p700
aS'kc2'
p701
aS'as2'
p702
aS'dm2'
p703
aS'psi2'
p704
aS'stahl3'
p705
aS'zm3'
p706
aS'fsy3'
p707
aS'fsu3'
p708
aS'esu3'
p709
aS'esv3'
p710
aS'Es3'
p711
aS'ka3'
p712
aS'kb3'
p713
aS'kc3'
p714
aS'as3'
p715
aS'dm3'
p716
aS'psi3'
p717
aS'stahl4'
p718
aS'zm4'
p719
aS'fsy4'
p720
aS'fsu4'
p721
aS'esu4'
p722
aS'esv4'
p723
aS'Es4'
p724
aS'ka4'
p725
aS'kb4'
p726
aS'kc4'
p727
aS'as4'
p728
aS'dm4'
p729
aS'psi4'
p730
asS'E'
p731
(dp732
S'E'
p733
I200000
ssS'v'
p734
(dp735
S'v'
p736
F0.10000000000000001
ssS'G'
p737
(dp738
g656
F90909.090909090897
ssS'p'
p739
F2.5000000000000002e-06
sS'R_Rohr'
p740
(dp741
g658
I-1
ssS'rho'
p742
(dp743
g659
F2.5000000000000002e-06
ssS'oo'
p744
(dp745
g660
I30
ssS'uu'
p746
(dp747
g661
I30
ssS'beton'
p748
(dp749
g662
I2
ssS'fcc'
p750
(dp751
g663
I47
ssS'vc'
p752
(dp753
g664
I0
ssS'ecu'
p754
(dp755
g665
F-0.002
ssS'k_E'
p756
(dp757
g666
I10000
ssS'theta_b0'
p758
(dp759
g667
I2
ssS'theta_b1'
p760
(dp761
g668
I1
ssS'k_riss'
p762
(dp763
g669
I0
ssS'Entfestigung'
p764
(dp765
g670
I0
ssS'lambdaTS'
p766
(dp767
g671
F0.67000000000000004
ssS'srmx'
p768
(dp769
g672
I1
ssS'srmy'
p770
(dp771
g673
I1
ssS'Begrenzung'
p772
(dp773
g674
I2
ssS'KritQ'
p774
(dp775
g675
I0
ssS'winkelD'
p776
(dp777
g676
I45
ssS'k_vr'
p778
(dp779
g677
I1
ssS'fswy'
p780
(dp781
g678
I500
ssS'stahl1'
p782
(dp783
g679
I1
ssS'zm1'
p784
(dp785
g680
I2
ssS'fsy1'
p786
(dp787
g681
I361
ssS'fsu1'
p788
(dp789
g682
I390
ssS'esu1'
p790
(dp791
g683
F0.044999999999999998
ssS'esv1'
p792
(dp793
g684
F0.02
ssS'Es1'
p794
(dp795
g685
I200000
ssS'ka1'
p796
(dp797
g686
I-1
ssS'kb1'
p798
(dp799
g687
I-1
ssS'kc1'
p800
(dp801
g688
I-1
ssS'as1'
p802
(dp803
g689
F0.32572036315622804
ssS'dm1'
p804
(dp805
g690
F11.102402080520488
ssS'psi1'
p806
(dp807
g691
I90
ssS'stahl2'
p808
(dp809
g692
I1
ssS'zm2'
p810
(dp811
g693
I2
ssS'fsy2'
p812
(dp813
g694
I361
ssS'fsu2'
p814
(dp815
g695
I390
ssS'esu2'
p816
(dp817
g696
F0.044999999999999998
ssS'esv2'
p818
(dp819
g697
F0.02
ssS'Es2'
p820
(dp821
g698
I200000
ssS'ka2'
p822
(dp823
g699
I-1
ssS'kb2'
p824
(dp825
g700
I-1
ssS'kc2'
p826
(dp827
g701
I-1
ssS'as2'
p828
(dp829
g702
F0.38051650518948665
ssS'dm2'
p830
(dp831
g703
F12.0
ssS'psi2'
p832
(dp833
g704
I0
ssS'stahl3'
p834
(dp835
g705
I1
ssS'zm3'
p836
(dp837
g706
I2
ssS'fsy3'
p838
(dp839
g707
I361
ssS'fsu3'
p840
(dp841
g708
I390
ssS'esu3'
p842
(dp843
g709
F0.044999999999999998
ssS'esv3'
p844
(dp845
g710
F0.02
ssS'Es3'
p846
(dp847
g711
I200000
ssS'ka3'
p848
(dp849
g712
I-1
ssS'kb3'
p850
(dp851
g713
I-1
ssS'kc3'
p852
(dp853
g714
I-1
ssS'as3'
p854
(dp855
g715
F0.38051650518948665
ssS'dm3'
p856
(dp857
g716
F12.0
ssS'psi3'
p858
(dp859
g717
I0
ssS'stahl4'
p860
(dp861
g718
I1
ssS'zm4'
p862
(dp863
g719
I2
ssS'fsy4'
p864
(dp865
g720
I361
ssS'fsu4'
p866
(dp867
g721
I390
ssS'esu4'
p868
(dp869
g722
F0.044999999999999998
ssS'esv4'
p870
(dp871
g723
F0.02
ssS'Es4'
p872
(dp873
g724
I200000
ssS'ka4'
p874
(dp875
g725
I-1
ssS'kb4'
p876
(dp877
g726
I-1
ssS'kc4'
p878
(dp879
g727
I-1
ssS'as4'
p880
(dp881
g728
F2.2864520268078854
ssS'dm4'
p882
(dp883
g729
F29.415453152854305
ssS'psi4'
p884
(dp885
g730
I90
ssbsg426
g0
(g648
g2
Ntp886
Rp887
(dp888
g15
I0
sg625
g652
sg627
g426
sg628
(lp889
g545
ag654
ag655
ag656
ag657
ag658
ag659
ag660
ag661
ag662
ag663
ag664
ag665
ag666
ag667
ag668
ag669
ag670
ag671
ag672
ag673
ag674
ag675
ag676
ag677
ag678
ag679
ag680
ag681
ag682
ag683
ag684
ag685
ag686
ag687
ag688
ag689
ag690
ag691
ag692
ag693
ag694
ag695
ag696
ag697
ag698
ag699
ag700
ag701
ag702
ag703
ag704
ag705
ag706
ag707
ag708
ag709
ag710
ag711
ag712
ag713
ag714
ag715
ag716
ag717
ag718
ag719
ag720
ag721
ag722
ag723
ag724
ag725
ag726
ag727
ag728
ag729
ag730
asg731
(dp890
g733
I200000
ssg734
(dp891
g736
F0.10000000000000001
ssg737
(dp892
g656
F90909.090909090897
ssg739
F2.5000000000000002e-06
sg740
(dp893
g658
I-1
ssg742
(dp894
g659
F2.5000000000000002e-06
ssg744
(dp895
g660
I30
ssg746
(dp896
g661
I30
ssg748
(dp897
g662
I2
ssg750
(dp898
g663
I47
ssg752
(dp899
g664
I0
ssg754
(dp900
g665
F-0.002
ssg756
(dp901
g666
I10000
ssg758
(dp902
g667
I2
ssg760
(dp903
g668
I1
ssg762
(dp904
g669
I0
ssg764
(dp905
g670
I0
ssg766
(dp906
g671
F0.67000000000000004
ssg768
(dp907
g672
I1
ssg770
(dp908
g673
I1
ssg772
(dp909
g674
I2
ssg774
(dp910
g675
I0
ssg776
(dp911
g676
I45
ssg778
(dp912
g677
I1
ssg780
(dp913
g678
I500
ssg782
(dp914
g679
I1
ssg784
(dp915
g680
I2
ssg786
(dp916
g681
I361
ssg788
(dp917
g682
I390
ssg790
(dp918
g683
F0.044999999999999998
ssg792
(dp919
g684
F0.02
ssg794
(dp920
g685
I200000
ssg796
(dp921
g686
I-1
ssg798
(dp922
g687
I-1
ssg800
(dp923
g688
I-1
ssg802
(dp924
g689
F2.10550095696982
ssg804
(dp925
g690
F26.003011937699757
ssg806
(dp926
g691
I90
ssg808
(dp927
g692
I1
ssg810
(dp928
g693
I2
ssg812
(dp929
g694
I361
ssg814
(dp930
g695
I390
ssg816
(dp931
g696
F0.044999999999999998
ssg818
(dp932
g697
F0.02
ssg820
(dp933
g698
I200000
ssg822
(dp934
g699
I-1
ssg824
(dp935
g700
I-1
ssg826
(dp936
g701
I-1
ssg828
(dp937
g702
F0.39138928888392893
ssg830
(dp938
g703
F11.211156159723776
ssg832
(dp939
g704
I0
ssg834
(dp940
g705
I1
ssg836
(dp941
g706
I2
ssg838
(dp942
g707
I361
ssg840
(dp943
g708
I390
ssg842
(dp944
g709
F0.044999999999999998
ssg844
(dp945
g710
F0.02
ssg846
(dp946
g711
I200000
ssg848
(dp947
g712
I-1
ssg850
(dp948
g713
I-1
ssg852
(dp949
g714
I-1
ssg854
(dp950
g715
F0.4484051836908205
ssg856
(dp951
g716
F12.0
ssg858
(dp952
g717
I0
ssg860
(dp953
g718
I1
ssg862
(dp954
g719
I2
ssg864
(dp955
g720
I361
ssg866
(dp956
g721
I390
ssg868
(dp957
g722
F0.044999999999999998
ssg870
(dp958
g723
F0.02
ssg872
(dp959
g724
I200000
ssg874
(dp960
g725
I-1
ssg876
(dp961
g726
I-1
ssg878
(dp962
g727
I-1
ssg880
(dp963
g728
F0.42479733054731844
ssg882
(dp964
g729
F11.679838111145827
ssg884
(dp965
g730
I90
ssbssS'misc'
p966
(dp967
sS'name'
p968
S'NLFE_CFB3'
p969
sS'nodes'
p970
(dp971
I0
g0
(ccompas_fea.structure.node
Node
p972
g2
Ntp973
Rp974
(dp975
S'__name__'
p976
S'Node'
p977
sS'key'
p978
I0
sS'x'
p979
F0.0
sS'y'
p980
F0.0
sS'z'
p981
F0.0
sS'ex'
p982
(lp983
I1
aI0
aI0
asS'ey'
p984
(lp985
I0
aI1
aI0
asS'ez'
p986
(lp987
I0
aI0
aI1
asS'mass'
p988
NsbsI1
g0
(g972
g2
Ntp989
Rp990
(dp991
g976
g977
sg978
I1
sg979
F2269.0794169934779
sg980
F0.0
sg981
F0.0
sg982
g983
sg984
g985
sg986
g987
sg988
NsbsI2
g0
(g972
g2
Ntp992
Rp993
(dp994
g976
g977
sg978
I2
sg979
F0.0
sg980
F1756.7807182836243
sg981
F0.0
sg982
g983
sg984
g985
sg986
g987
sg988
NsbsI3
g0
(g972
g2
Ntp995
Rp996
(dp997
g976
g977
sg978
I3
sg979
F2269.0794169934779
sg980
F1756.7807182836243
sg981
F0.0
sg982
g983
sg984
g985
sg986
g987
sg988
NsbsI4
g0
(g972
g2
Ntp998
Rp999
(dp1000
g976
g977
sg978
I4
sg979
F0.0
sg980
F3513.5614365672486
sg981
F0.0
sg982
g983
sg984
g985
sg986
g987
sg988
NsbsI5
g0
(g972
g2
Ntp1001
Rp1002
(dp1003
g976
g977
sg978
I5
sg979
F2269.0794169934779
sg980
F3513.5614365672486
sg981
F0.0
sg982
g983
sg984
g985
sg986
g987
sg988
NsbsI6
g0
(g972
g2
Ntp1004
Rp1005
(dp1006
g976
g977
sg978
I6
sg979
F0.0
sg980
F5270.3421548508732
sg981
F0.0
sg982
g983
sg984
g985
sg986
g987
sg988
NsbsI7
g0
(g972
g2
Ntp1007
Rp1008
(dp1009
g976
g977
sg978
I7
sg979
F2269.0794169934779
sg980
F5270.3421548508732
sg981
F0.0
sg982
g983
sg984
g985
sg986
g987
sg988
NsbsI8
g0
(g972
g2
Ntp1010
Rp1011
(dp1012
g976
g977
sg978
I8
sg979
F0.0
sg980
F10700.391647727531
sg981
F0.0
sg982
g983
sg984
g985
sg986
g987
sg988
NsbsI9
g0
(g972
g2
Ntp1013
Rp1014
(dp1015
g976
g977
sg978
I9
sg979
F2269.0794169934779
sg980
F10700.391647727531
sg981
F0.0
sg982
g983
sg984
g985
sg986
g987
sg988
NsbsI10
g0
(g972
g2
Ntp1016
Rp1017
(dp1018
g976
g977
sg978
I10
sg979
F0.0
sg980
F12457.172366011155
sg981
F0.0
sg982
g983
sg984
g985
sg986
g987
sg988
NsbsI11
g0
(g972
g2
Ntp1019
Rp1020
(dp1021
g976
g977
sg978
I11
sg979
F2269.0794169934779
sg980
F12457.172366011155
sg981
F0.0
sg982
g983
sg984
g985
sg986
g987
sg988
NsbsI12
g0
(g972
g2
Ntp1022
Rp1023
(dp1024
g976
g977
sg978
I12
sg979
F0.0
sg980
F14213.953084294779
sg981
F0.0
sg982
g983
sg984
g985
sg986
g987
sg988
NsbsI13
g0
(g972
g2
Ntp1025
Rp1026
(dp1027
g976
g977
sg978
I13
sg979
F2269.0794169934779
sg980
F14213.953084294779
sg981
F0.0
sg982
g983
sg984
g985
sg986
g987
sg988
NsbsI14
g0
(g972
g2
Ntp1028
Rp1029
(dp1030
g976
g977
sg978
I14
sg979
F0.0
sg980
F15970.733802578403
sg981
F0.0
sg982
g983
sg984
g985
sg986
g987
sg988
NsbsI15
g0
(g972
g2
Ntp1031
Rp1032
(dp1033
g976
g977
sg978
I15
sg979
F2269.0794169934779
sg980
F15970.733802578403
sg981
F0.0
sg982
g983
sg984
g985
sg986
g987
sg988
NsbsI16
g0
(g972
g2
Ntp1034
Rp1035
(dp1036
g976
g977
sg978
I16
sg979
F4538.1588339869559
sg980
F0.0
sg981
F0.0
sg982
g983
sg984
g985
sg986
g987
sg988
NsbsI17
g0
(g972
g2
Ntp1037
Rp1038
(dp1039
g976
g977
sg978
I17
sg979
F4538.1588339869559
sg980
F1756.7807182836243
sg981
F0.0
sg982
g983
sg984
g985
sg986
g987
sg988
NsbsI18
g0
(g972
g2
Ntp1040
Rp1041
(dp1042
g976
g977
sg978
I18
sg979
F4538.1588339869559
sg980
F3513.5614365672486
sg981
F0.0
sg982
g983
sg984
g985
sg986
g987
sg988
NsbsI19
g0
(g972
g2
Ntp1043
Rp1044
(dp1045
g976
g977
sg978
I19
sg979
F4538.1588339869559
sg980
F5270.3421548508732
sg981
F0.0
sg982
g983
sg984
g985
sg986
g987
sg988
NsbsI20
g0
(g972
g2
Ntp1046
Rp1047
(dp1048
g976
g977
sg978
I20
sg979
F4538.1588339869559
sg980
F10700.391647727531
sg981
F0.0
sg982
g983
sg984
g985
sg986
g987
sg988
NsbsI21
g0
(g972
g2
Ntp1049
Rp1050
(dp1051
g976
g977
sg978
I21
sg979
F4538.1588339869559
sg980
F12457.172366011155
sg981
F0.0
sg982
g983
sg984
g985
sg986
g987
sg988
NsbsI22
g0
(g972
g2
Ntp1052
Rp1053
(dp1054
g976
g977
sg978
I22
sg979
F4538.1588339869559
sg980
F14213.953084294779
sg981
F0.0
sg982
g983
sg984
g985
sg986
g987
sg988
NsbsI23
g0
(g972
g2
Ntp1055
Rp1056
(dp1057
g976
g977
sg978
I23
sg979
F4538.1588339869559
sg980
F15970.733802578403
sg981
F0.0
sg982
g983
sg984
g985
sg986
g987
sg988
NsbsI24
g0
(g972
g2
Ntp1058
Rp1059
(dp1060
g976
g977
sg978
I24
sg979
F6875.9982333135686
sg980
F0.0
sg981
F0.0
sg982
g983
sg984
g985
sg986
g987
sg988
NsbsI25
g0
(g972
g2
Ntp1061
Rp1062
(dp1063
g976
g977
sg978
I25
sg979
F6875.9982333135686
sg980
F1756.7807182836243
sg981
F0.0
sg982
g983
sg984
g985
sg986
g987
sg988
NsbsI26
g0
(g972
g2
Ntp1064
Rp1065
(dp1066
g976
g977
sg978
I26
sg979
F6875.9982333135686
sg980
F3513.5614365672486
sg981
F0.0
sg982
g983
sg984
g985
sg986
g987
sg988
NsbsI27
g0
(g972
g2
Ntp1067
Rp1068
(dp1069
g976
g977
sg978
I27
sg979
F6875.9982333135686
sg980
F5270.3421548508732
sg981
F0.0
sg982
g983
sg984
g985
sg986
g987
sg988
NsbsI28
g0
(g972
g2
Ntp1070
Rp1071
(dp1072
g976
g977
sg978
I28
sg979
F6875.9982333135686
sg980
F10700.391647727531
sg981
F0.0
sg982
g983
sg984
g985
sg986
g987
sg988
NsbsI29
g0
(g972
g2
Ntp1073
Rp1074
(dp1075
g976
g977
sg978
I29
sg979
F6875.9982333135677
sg980
F12457.172366011155
sg981
F0.0
sg982
g983
sg984
g985
sg986
g987
sg988
NsbsI30
g0
(g972
g2
Ntp1076
Rp1077
(dp1078
g976
g977
sg978
I30
sg979
F6875.9982333135677
sg980
F14213.953084294779
sg981
F0.0
sg982
g983
sg984
g985
sg986
g987
sg988
NsbsI31
g0
(g972
g2
Ntp1079
Rp1080
(dp1081
g976
g977
sg978
I31
sg979
F6875.9982333135686
sg980
F15970.733802578403
sg981
F0.0
sg982
g983
sg984
g985
sg986
g987
sg988
NsbsI32
g0
(g972
g2
Ntp1082
Rp1083
(dp1084
g976
g977
sg978
I32
sg979
F0.0
sg980
F7080.358652476426
sg981
F0.0
sg982
g983
sg984
g985
sg986
g987
sg988
NsbsI33
g0
(g972
g2
Ntp1085
Rp1086
(dp1087
g976
g977
sg978
I33
sg979
F2269.0794169934779
sg980
F7080.358652476426
sg981
F0.0
sg982
g983
sg984
g985
sg986
g987
sg988
NsbsI34
g0
(g972
g2
Ntp1088
Rp1089
(dp1090
g976
g977
sg978
I34
sg979
F0.0
sg980
F8890.3751501019779
sg981
F0.0
sg982
g983
sg984
g985
sg986
g987
sg988
NsbsI35
g0
(g972
g2
Ntp1091
Rp1092
(dp1093
g976
g977
sg978
I35
sg979
F2269.0794169934779
sg980
F8890.3751501019779
sg981
F0.0
sg982
g983
sg984
g985
sg986
g987
sg988
NsbsI36
g0
(g972
g2
Ntp1094
Rp1095
(dp1096
g976
g977
sg978
I36
sg979
F4538.1588339869559
sg980
F7080.358652476426
sg981
F0.0
sg982
g983
sg984
g985
sg986
g987
sg988
NsbsI37
g0
(g972
g2
Ntp1097
Rp1098
(dp1099
g976
g977
sg978
I37
sg979
F4538.1588339869559
sg980
F8890.3751501019779
sg981
F0.0
sg982
g983
sg984
g985
sg986
g987
sg988
NsbsI38
g0
(g972
g2
Ntp1100
Rp1101
(dp1102
g976
g977
sg978
I38
sg979
F6875.9982333135686
sg980
F7080.358652476426
sg981
F0.0
sg982
g983
sg984
g985
sg986
g987
sg988
NsbsI39
g0
(g972
g2
Ntp1103
Rp1104
(dp1105
g976
g977
sg978
I39
sg979
F6875.9982333135686
sg980
F8890.3751501019779
sg981
F0.0
sg982
g983
sg984
g985
sg986
g987
sg988
NsbsI40
g0
(g972
g2
Ntp1106
Rp1107
(dp1108
g976
g977
sg978
I40
sg979
F0.0
sg980
F0.0
sg981
F-2018.2426193876013
sg982
g983
sg984
g985
sg986
g987
sg988
NsbsI41
g0
(g972
g2
Ntp1109
Rp1110
(dp1111
g976
g977
sg978
I41
sg979
F2269.0794169934802
sg980
F0.0
sg981
F-2018.2426193876013
sg982
g983
sg984
g985
sg986
g987
sg988
NsbsI42
g0
(g972
g2
Ntp1112
Rp1113
(dp1114
g976
g977
sg978
I42
sg979
F0.0
sg980
F0.0
sg981
F-835.07524164790959
sg982
g983
sg984
g985
sg986
g987
sg988
NsbsI43
g0
(g972
g2
Ntp1115
Rp1116
(dp1117
g976
g977
sg978
I43
sg979
F2269.0794169934802
sg980
F0.0
sg981
F-835.07524164790959
sg982
g983
sg984
g985
sg986
g987
sg988
NsbsI44
g0
(g972
g2
Ntp1118
Rp1119
(dp1120
g976
g977
sg978
I44
sg979
F4538.1588339869604
sg980
F0.0
sg981
F-2018.2426193876013
sg982
g983
sg984
g985
sg986
g987
sg988
NsbsI45
g0
(g972
g2
Ntp1121
Rp1122
(dp1123
g976
g977
sg978
I45
sg979
F4538.1588339869604
sg980
F0.0
sg981
F-835.07524164790959
sg982
g983
sg984
g985
sg986
g987
sg988
NsbsI46
g0
(g972
g2
Ntp1124
Rp1125
(dp1126
g976
g977
sg978
I46
sg979
F6875.9982333135704
sg980
F0.0
sg981
F-2018.2426193876013
sg982
g983
sg984
g985
sg986
g987
sg988
NsbsI47
g0
(g972
g2
Ntp1127
Rp1128
(dp1129
g976
g977
sg978
I47
sg979
F6875.9982333135704
sg980
F0.0
sg981
F-835.07524164790959
sg982
g983
sg984
g985
sg986
g987
sg988
NsbsI48
g0
(g972
g2
Ntp1130
Rp1131
(dp1132
g976
g977
sg978
I48
sg979
F0.0
sg980
F0.0
sg981
F-3237.2635540284964
sg982
g983
sg984
g985
sg986
g987
sg988
NsbsI49
g0
(g972
g2
Ntp1133
Rp1134
(dp1135
g976
g977
sg978
I49
sg979
F2269.0794169934802
sg980
F0.0
sg981
F-3237.2635540284964
sg982
g983
sg984
g985
sg986
g987
sg988
NsbsI50
g0
(g972
g2
Ntp1136
Rp1137
(dp1138
g976
g977
sg978
I50
sg979
F4538.1588339869604
sg980
F0.0
sg981
F-3237.2635540284964
sg982
g983
sg984
g985
sg986
g987
sg988
NsbsI51
g0
(g972
g2
Ntp1139
Rp1140
(dp1141
g976
g977
sg978
I51
sg979
F6875.9982333135704
sg980
F0.0
sg981
F-3237.2635540284964
sg982
g983
sg984
g985
sg986
g987
sg988
NsbsI52
g0
(g972
g2
Ntp1142
Rp1143
(dp1144
g976
g977
sg978
I52
sg979
F0.0
sg980
F0.0
sg981
F-4420.4309317681882
sg982
g983
sg984
g985
sg986
g987
sg988
NsbsI53
g0
(g972
g2
Ntp1145
Rp1146
(dp1147
g976
g977
sg978
I53
sg979
F2269.0794169934802
sg980
F0.0
sg981
F-4420.4309317681882
sg982
g983
sg984
g985
sg986
g987
sg988
NsbsI54
g0
(g972
g2
Ntp1148
Rp1149
(dp1150
g976
g977
sg978
I54
sg979
F4538.1588339869604
sg980
F0.0
sg981
F-4420.4309317681882
sg982
g983
sg984
g985
sg986
g987
sg988
NsbsI55
g0
(g972
g2
Ntp1151
Rp1152
(dp1153
g976
g977
sg978
I55
sg979
F6875.9982333135704
sg980
F0.0
sg981
F-4420.4309317681882
sg982
g983
sg984
g985
sg986
g987
sg988
NsbsI56
g0
(g972
g2
Ntp1154
Rp1155
(dp1156
g976
g977
sg978
I56
sg979
F0.0
sg980
F15970.733802578403
sg981
F-2018.2426193876013
sg982
g983
sg984
g985
sg986
g987
sg988
NsbsI57
g0
(g972
g2
Ntp1157
Rp1158
(dp1159
g976
g977
sg978
I57
sg979
F2269.0794169934802
sg980
F15970.733802578403
sg981
F-2018.2426193876013
sg982
g983
sg984
g985
sg986
g987
sg988
NsbsI58
g0
(g972
g2
Ntp1160
Rp1161
(dp1162
g976
g977
sg978
I58
sg979
F0.0
sg980
F15970.733802578403
sg981
F-835.07524164790959
sg982
g983
sg984
g985
sg986
g987
sg988
NsbsI59
g0
(g972
g2
Ntp1163
Rp1164
(dp1165
g976
g977
sg978
I59
sg979
F2269.0794169934802
sg980
F15970.733802578403
sg981
F-835.07524164790959
sg982
g983
sg984
g985
sg986
g987
sg988
NsbsI60
g0
(g972
g2
Ntp1166
Rp1167
(dp1168
g976
g977
sg978
I60
sg979
F4538.1588339869604
sg980
F15970.733802578403
sg981
F-2018.2426193876013
sg982
g983
sg984
g985
sg986
g987
sg988
NsbsI61
g0
(g972
g2
Ntp1169
Rp1170
(dp1171
g976
g977
sg978
I61
sg979
F4538.1588339869604
sg980
F15970.733802578403
sg981
F-835.07524164790959
sg982
g983
sg984
g985
sg986
g987
sg988
NsbsI62
g0
(g972
g2
Ntp1172
Rp1173
(dp1174
g976
g977
sg978
I62
sg979
F6875.9982333135704
sg980
F15970.733802578403
sg981
F-2018.2426193876013
sg982
g983
sg984
g985
sg986
g987
sg988
NsbsI63
g0
(g972
g2
Ntp1175
Rp1176
(dp1177
g976
g977
sg978
I63
sg979
F6875.9982333135704
sg980
F15970.733802578403
sg981
F-835.07524164790959
sg982
g983
sg984
g985
sg986
g987
sg988
NsbsI64
g0
(g972
g2
Ntp1178
Rp1179
(dp1180
g976
g977
sg978
I64
sg979
F0.0
sg980
F15970.733802578403
sg981
F-3237.2635540284964
sg982
g983
sg984
g985
sg986
g987
sg988
NsbsI65
g0
(g972
g2
Ntp1181
Rp1182
(dp1183
g976
g977
sg978
I65
sg979
F2269.0794169934802
sg980
F15970.733802578403
sg981
F-3237.2635540284964
sg982
g983
sg984
g985
sg986
g987
sg988
NsbsI66
g0
(g972
g2
Ntp1184
Rp1185
(dp1186
g976
g977
sg978
I66
sg979
F4538.1588339869604
sg980
F15970.733802578403
sg981
F-3237.2635540284964
sg982
g983
sg984
g985
sg986
g987
sg988
NsbsI67
g0
(g972
g2
Ntp1187
Rp1188
(dp1189
g976
g977
sg978
I67
sg979
F6875.9982333135704
sg980
F15970.733802578403
sg981
F-3237.2635540284964
sg982
g983
sg984
g985
sg986
g987
sg988
NsbsI68
g0
(g972
g2
Ntp1190
Rp1191
(dp1192
g976
g977
sg978
I68
sg979
F0.0
sg980
F15970.733802578403
sg981
F-4420.4309317681882
sg982
g983
sg984
g985
sg986
g987
sg988
NsbsI69
g0
(g972
g2
Ntp1193
Rp1194
(dp1195
g976
g977
sg978
I69
sg979
F2269.0794169934802
sg980
F15970.733802578403
sg981
F-4420.4309317681882
sg982
g983
sg984
g985
sg986
g987
sg988
NsbsI70
g0
(g972
g2
Ntp1196
Rp1197
(dp1198
g976
g977
sg978
I70
sg979
F4538.1588339869604
sg980
F15970.733802578403
sg981
F-4420.4309317681882
sg982
g983
sg984
g985
sg986
g987
sg988
NsbsI71
g0
(g972
g2
Ntp1199
Rp1200
(dp1201
g976
g977
sg978
I71
sg979
F6875.9982333135704
sg980
F15970.733802578403
sg981
F-4420.4309317681882
sg982
g983
sg984
g985
sg986
g987
sg988
NsbssS'node_index'
p1202
(dp1203
S'0.000,8890.375,0.000'
p1204
I34
sS'4538.159,15970.734,0.000'
p1205
I23
sS'6875.998,15970.734,0.000'
p1206
I31
sS'2269.079,7080.359,0.000'
p1207
I33
sS'0.000,3513.561,0.000'
p1208
I4
sS'6875.998,7080.359,0.000'
p1209
I38
sS'6875.998,3513.561,0.000'
p1210
I26
sS'6875.998,5270.342,0.000'
p1211
I27
sS'4538.159,7080.359,0.000'
p1212
I36
sS'4538.159,3513.561,0.000'
p1213
I18
sS'2269.079,0.000,-4420.431'
p1214
I53
sS'4538.159,0.000,-4420.431'
p1215
I54
sS'6875.998,0.000,-4420.431'
p1216
I55
sS'2269.079,3513.561,0.000'
p1217
I5
sS'0.000,15970.734,-3237.264'
p1218
I64
sS'6875.998,1756.781,0.000'
p1219
I25
sS'0.000,0.000,-4420.431'
p1220
I52
sS'6875.998,15970.734,-835.075'
p1221
I63
sS'0.000,14213.953,0.000'
p1222
I12
sS'0.000,7080.359,0.000'
p1223
I32
sS'0.000,15970.734,-2018.243'
p1224
I56
sS'2269.079,8890.375,0.000'
p1225
I35
sS'6875.998,15970.734,-3237.264'
p1226
I67
sS'4538.159,8890.375,0.000'
p1227
I37
sS'0.000,0.000,-835.075'
p1228
I42
sS'2269.079,12457.172,0.000'
p1229
I11
sS'6875.998,0.000,0.000'
p1230
I24
sS'6875.998,12457.172,0.000'
p1231
I29
sS'6875.998,15970.734,-2018.243'
p1232
I62
sS'2269.079,15970.734,0.000'
p1233
I15
sS'2269.079,15970.734,-4420.431'
p1234
I69
sS'2269.079,0.000,-2018.243'
p1235
I41
sS'6875.998,0.000,-3237.264'
p1236
I51
sS'4538.159,5270.342,0.000'
p1237
I19
sS'2269.079,14213.953,0.000'
p1238
I13
sS'4538.159,15970.734,-835.075'
p1239
I61
sS'0.000,0.000,0.000'
p1240
I0
sS'4538.159,0.000,-2018.243'
p1241
I44
sS'6875.998,10700.392,0.000'
p1242
I28
sS'0.000,1756.781,0.000'
p1243
I2
sS'2269.079,15970.734,-2018.243'
p1244
I57
sS'2269.079,10700.392,0.000'
p1245
I9
sS'4538.159,0.000,-835.075'
p1246
I45
sS'4538.159,0.000,-3237.264'
p1247
I50
sS'6875.998,0.000,-2018.243'
p1248
I46
sS'0.000,12457.172,0.000'
p1249
I10
sS'0.000,15970.734,-4420.431'
p1250
I68
sS'0.000,5270.342,0.000'
p1251
I6
sS'4538.159,14213.953,0.000'
p1252
I22
sS'0.000,0.000,-3237.264'
p1253
I48
sS'0.000,15970.734,0.000'
p1254
I14
sS'4538.159,10700.392,0.000'
p1255
I20
sS'2269.079,15970.734,-3237.264'
p1256
I65
sS'4538.159,15970.734,-3237.264'
p1257
I66
sS'2269.079,5270.342,0.000'
p1258
I7
sS'2269.079,0.000,-835.075'
p1259
I43
sS'4538.159,1756.781,0.000'
p1260
I17
sS'4538.159,0.000,0.000'
p1261
I16
sS'2269.079,0.000,0.000'
p1262
I1
sS'6875.998,14213.953,0.000'
p1263
I30
sS'0.000,15970.734,-835.075'
p1264
I58
sS'6875.998,0.000,-835.075'
p1265
I47
sS'6875.998,8890.375,0.000'
p1266
I39
sS'2269.079,15970.734,-835.075'
p1267
I59
sS'4538.159,15970.734,-4420.431'
p1268
I70
sS'6875.998,15970.734,-4420.431'
p1269
I71
sS'0.000,10700.392,0.000'
p1270
I8
sS'4538.159,12457.172,0.000'
p1271
I21
sS'2269.079,1756.781,0.000'
p1272
I3
sS'0.000,0.000,-2018.243'
p1273
I40
sS'4538.159,15970.734,-2018.243'
p1274
I60
sS'2269.079,0.000,-3237.264'
p1275
I49
ssS'path'
p1276
S'C:\\Temp\\'
p1277
sS'results'
p1278
(dp1279
S'step_2'
p1280
S'ERROR'
p1281
sS'step_3'
p1282
g1281
sS'step_4'
p1283
g1281
sS'step_1'
p1284
g1281
ssS'sections'
p1285
(dp1286
g413
g0
(ccompas_fea.structure.section
ShellSection
p1287
g2
Ntp1288
Rp1289
(dp1290
g15
I1
sS'__name__'
p1291
S'ShellSection'
p1292
sS'name'
p1293
g413
sS'geometry'
p1294
(dp1295
S't'
p1296
F966.37591363510217
ssS'loc_coords_OR'
p1297
(dp1298
S'ORxyz'
p1299
(lp1300
I0
aI0
aF-3585.35569012
assS'loc_coords_XA'
p1301
(dp1302
S'XAxyz'
p1303
(lp1304
I1
aI0
aF-3585.35569012
assS'loc_coords_YA'
p1305
(dp1306
S'YAxyz'
p1307
(lp1308
F3585.35569012
aF-3585.35569012
aF-3584.35569012
assS'loc_coords_EV_XA'
p1309
(dp1310
S'EV_XA'
p1311
(lp1312
F1.0
aF0.0
aF0.0
assS'loc_coords_EV_YA'
p1313
(dp1314
S'EV_YA'
p1315
(lp1316
F0.70710676743471723
aF-0.70710676743471723
aF0.00019722081393019357
assS'loc_coords_EV_ZA'
p1317
(dp1318
S'EV_ZA'
p1319
(lp1320
F0.0
aF-1.0
aF0.0
assS'nr_layers'
p1321
(dp1322
S'nn'
p1323
F76.0
ssS'offset'
p1324
(dp1325
S'mode'
p1326
S'mid'
p1327
ssbsg427
g0
(g1287
g2
Ntp1328
Rp1329
(dp1330
g15
I0
sg1291
g1292
sg1293
g427
sg1294
(dp1331
g1296
F835.07524164790959
ssg1297
(dp1332
g1299
(lp1333
I0
aI0
aI0
assg1301
(dp1334
g1303
(lp1335
I1
aI0
aI0
assg1305
(dp1336
g1307
(lp1337
F0.0
aF1.0
aF0.0
assg1309
(dp1338
g1311
(lp1339
F1.0
aF0.0
aF0.0
assg1313
(dp1340
g1315
(lp1341
F0.0
aF1.0
aF0.0
assg1317
(dp1342
g1319
(lp1343
F0.0
aF0.0
aF1.0
assg1321
(dp1344
g1323
F75.0
ssg1324
(dp1345
g1326
S'top'
p1346
ssbsg404
g0
(g1287
g2
Ntp1347
Rp1348
(dp1349
g15
I2
sg1291
g1292
sg1293
g404
sg1294
(dp1350
g1296
F966.37591363510217
ssg1297
(dp1351
g1299
(lp1352
I0
aF15970.7338026
aF-3585.35569012
assg1301
(dp1353
g1303
(lp1354
I1
aF15970.7338026
aF-3585.35569012
assg1305
(dp1355
g1307
(lp1356
F-3585.3556901216507
aF12385.378112480001
aF-19557.089492719999
assg1309
(dp1357
g1311
(lp1358
F1.0
aF0.0
aF0.0
assg1313
(dp1359
g1315
(lp1360
F-0.21395832319130675
aF-0.21395832319120819
aF-0.95312311475190381
assg1317
(dp1361
g1319
(lp1362
F0.0
aF1.0
aF0.0
assg1321
(dp1363
g1323
F76.0
ssg1324
(dp1364
g1326
S'mid'
p1365
ssbsS'sec_mpc'
p1366
g0
(ccompas_fea.structure.section
MPCSection
p1367
g2
Ntp1368
Rp1369
(dp1370
g15
I3
sg1291
S'MPCSection'
p1371
sg1293
g1366
sg1294
NsS'nr_layers'
p1372
NsbssS'sets'
p1373
(dp1374
g522
g0
(ccompas_fea.structure.set
Set
p1375
g2
Ntp1376
Rp1377
(dp1378
S'__name__'
p1379
S'Set'
p1380
sS'name'
p1381
g522
sS'type'
p1382
S'element'
p1383
sS'selection'
p1384
(lp1385
I31
asS'index'
p1386
I13
sbsS'elset_mpcs'
p1387
g0
(g1375
g2
Ntp1388
Rp1389
(dp1390
g1379
g1380
sg1381
g1387
sg1382
g1383
sg1384
(lp1391
I48
aI49
aI50
aI51
aI52
aI45
aI46
aI47
asg1386
I27
sbsg406
g0
(g1375
g2
Ntp1392
Rp1393
(dp1394
g1379
g1380
sg1381
g406
sg1382
g1383
sg1384
(lp1395
I39
asg1386
I21
sbsg452
g0
(g1375
g2
Ntp1396
Rp1397
(dp1398
g1379
g1380
sg1381
g452
sg1382
g1383
sg1384
(lp1399
I8
aI6
aI7
asg1386
I2
sbsg418
g0
(g1375
g2
Ntp1400
Rp1401
(dp1402
g1379
g1380
sg1381
g418
sg1382
g1383
sg1384
(lp1403
I34
asg1386
I16
sbsg514
g0
(g1375
g2
Ntp1404
Rp1405
(dp1406
g1379
g1380
sg1381
g514
sg1382
g1383
sg1384
(lp1407
I36
asg1386
I18
sbsg492
g0
(g1375
g2
Ntp1408
Rp1409
(dp1410
g1379
g1380
sg1381
g492
sg1382
g1383
sg1384
(lp1411
I3
aI4
aI5
asg1386
I1
sbsg428
g0
(g1375
g2
Ntp1412
Rp1413
(dp1414
g1379
g1380
sg1381
g428
sg1382
g1383
sg1384
(lp1415
I0
aI1
aI2
asg1386
I0
sbsg480
g0
(g1375
g2
Ntp1416
Rp1417
(dp1418
g1379
g1380
sg1381
g480
sg1382
g1383
sg1384
(lp1419
I18
aI19
aI20
asg1386
I6
sbsg518
g0
(g1375
g2
Ntp1420
Rp1421
(dp1422
g1379
g1380
sg1381
g518
sg1382
g1383
sg1384
(lp1423
I16
aI17
aI15
asg1386
I5
sbsg444
g0
(g1375
g2
Ntp1424
Rp1425
(dp1426
g1379
g1380
sg1381
g444
sg1382
g1383
sg1384
(lp1427
I12
aI13
aI14
asg1386
I4
sbsg488
g0
(g1375
g2
Ntp1428
Rp1429
(dp1430
g1379
g1380
sg1381
g488
sg1382
g1383
sg1384
(lp1431
I9
aI10
aI11
asg1386
I3
sbsg436
g0
(g1375
g2
Ntp1432
Rp1433
(dp1434
g1379
g1380
sg1381
g436
sg1382
g1383
sg1384
(lp1435
I24
aI25
aI26
asg1386
I8
sbsg472
g0
(g1375
g2
Ntp1436
Rp1437
(dp1438
g1379
g1380
sg1381
g472
sg1382
g1383
sg1384
(lp1439
I21
aI22
aI23
asg1386
I7
sbsg448
g0
(g1375
g2
Ntp1440
Rp1441
(dp1442
g1379
g1380
sg1381
g448
sg1382
g1383
sg1384
(lp1443
I29
asg1386
I11
sbsg510
g0
(g1375
g2
Ntp1444
Rp1445
(dp1446
g1379
g1380
sg1381
g510
sg1382
g1383
sg1384
(lp1447
I44
asg1386
I26
sbsg460
g0
(g1375
g2
Ntp1448
Rp1449
(dp1450
g1379
g1380
sg1381
g460
sg1382
g1383
sg1384
(lp1451
I41
asg1386
I23
sbsg440
g0
(g1375
g2
Ntp1452
Rp1453
(dp1454
g1379
g1380
sg1381
g440
sg1382
g1383
sg1384
(lp1455
I32
asg1386
I14
sbsg456
g0
(g1375
g2
Ntp1456
Rp1457
(dp1458
g1379
g1380
sg1381
g456
sg1382
g1383
sg1384
(lp1459
I38
asg1386
I20
sbsg476
g0
(g1375
g2
Ntp1460
Rp1461
(dp1462
g1379
g1380
sg1381
g476
sg1382
g1383
sg1384
(lp1463
I27
asg1386
I9
sbsg468
g0
(g1375
g2
Ntp1464
Rp1465
(dp1466
g1379
g1380
sg1381
g468
sg1382
g1383
sg1384
(lp1467
I35
asg1386
I17
sbsS'nset_support_wall2'
p1468
g0
(g1375
g2
Ntp1469
Rp1470
(dp1471
g1379
g1380
sg1381
g1468
sg1382
S'node'
p1472
sg1384
(lp1473
I71
aI70
aI69
aI68
asg1386
I29
sbsg464
g0
(g1375
g2
Ntp1474
Rp1475
(dp1476
g1379
g1380
sg1381
g464
sg1382
g1383
sg1384
(lp1477
I30
asg1386
I12
sbsg484
g0
(g1375
g2
Ntp1478
Rp1479
(dp1480
g1379
g1380
sg1381
g484
sg1382
g1383
sg1384
(lp1481
I43
asg1386
I25
sbsg432
g0
(g1375
g2
Ntp1482
Rp1483
(dp1484
g1379
g1380
sg1381
g432
sg1382
g1383
sg1384
(lp1485
I40
asg1386
I22
sbsS'nset_support_wall1'
p1486
g0
(g1375
g2
Ntp1487
Rp1488
(dp1489
g1379
g1380
sg1381
g1486
sg1382
g1472
sg1384
(lp1490
I55
aI54
aI53
aI52
asg1386
I28
sbsg502
g0
(g1375
g2
Ntp1491
Rp1492
(dp1493
g1379
g1380
sg1381
g502
sg1382
g1383
sg1384
(lp1494
I33
asg1386
I15
sbsg422
g0
(g1375
g2
Ntp1495
Rp1496
(dp1497
g1379
g1380
sg1381
g422
sg1382
g1383
sg1384
(lp1498
I37
asg1386
I19
sbsg414
g0
(g1375
g2
Ntp1499
Rp1500
(dp1501
g1379
g1380
sg1381
g414
sg1382
g1383
sg1384
(lp1502
I28
asg1386
I10
sbsg506
g0
(g1375
g2
Ntp1503
Rp1504
(dp1505
g1379
g1380
sg1381
g506
sg1382
g1383
sg1384
(lp1506
I42
asg1386
I24
sbssS'steps'
p1507
(dp1508
g1280
g0
(ccompas_fea.structure.step
GeneralStep
p1509
g2
Ntp1510
Rp1511
(dp1512
g15
I1
sS'__name__'
p1513
S'GeneralStep'
p1514
sS'name'
p1515
g1280
sS'attr_list'
p1516
(lp1517
g545
aS'increments'
p1518
aS'iterations'
p1519
aS'factor'
p1520
aS'nlgeom'
p1521
aS'nlmat'
p1522
aS'displacements'
p1523
aS'loads'
p1524
aS'type'
p1525
aS'tolerance'
p1526
aS'modify'
p1527
asS'increments'
p1528
I1
sS'iterations'
p1529
I100
sS'tolerance'
p1530
F0.01
sS'factor'
p1531
F1.0
sS'nlgeom'
p1532
I00
sS'nlmat'
p1533
I01
sS'displacements'
p1534
(lp1535
sS'loads'
p1536
(lp1537
S'load_gravity'
p1538
asS'modify'
p1539
I01
sS'type'
p1540
S'static'
p1541
sbsg1282
g0
(g1509
g2
Ntp1542
Rp1543
(dp1544
g15
I2
sg1513
g1514
sg1515
g1282
sg1516
(lp1545
g545
ag1518
ag1519
ag1520
ag1521
ag1522
ag1523
ag1524
ag1525
ag1526
ag1527
asg1528
I1
sg1529
I100
sg1530
F0.01
sg1531
F1.0
sg1532
I00
sg1533
I01
sg1534
(lp1546
sg1536
(lp1547
S'earthPressure_gravel'
p1548
aS'earthPressure_backfill'
p1549
ag565
asg1539
I01
sg1540
g1541
sbsg1283
g0
(g1509
g2
Ntp1550
Rp1551
(dp1552
g15
I3
sg1513
g1514
sg1515
g1283
sg1516
(lp1553
g545
ag1518
ag1519
ag1520
ag1521
ag1522
ag1523
ag1524
ag1525
ag1526
ag1527
asg1528
I1
sg1529
I100
sg1530
F0.01
sg1531
F1.0
sg1532
I00
sg1533
I01
sg1534
(lp1554
sg1536
(lp1555
g596
ag589
ag558
ag527
ag550
asg1539
I01
sg1540
g1541
sbsg1284
g0
(g1509
g2
Ntp1556
Rp1557
(dp1558
g15
I0
sg1513
g1514
sg1515
g1284
sg1516
(lp1559
g545
ag1518
ag1519
ag1520
ag1521
ag1522
ag1523
ag1524
ag1525
ag1526
ag1527
asg1528
I1
sg1529
I100
sg1530
F0.01
sg1531
F1.0
sg1532
I00
sg1533
I01
sg1534
(lp1560
S'nset_pinned_set_disp_1'
p1561
aS'nset_pinned_set_disp_2'
p1562
asg1536
(lp1563
sg1539
I01
sg1540
g1541
sbssS'loc_coor'
p1564
(dp1565
sS'steps_order'
p1566
(lp1567
S'step_1'
p1568
aS'step_2'
p1569
aS'step_3'
p1570
aS'step_4'
p1571
asS'tol'
p1572
S'3'
p1573
sS'virtual_nodes'
p1574
(dp1575
sS'virtual_node_index'
p1576
(dp1577
sS'virtual_elements'
p1578
(dp1579
sS'virtual_element_index'
p1580
(dp1581
sb.