ccopy_reg
_reconstructor
p0
(ccompas_fea.structure.structure
Structure
p1
c__builtin__
object
p2
Ntp3
Rp4
(dp5
S'constraints'
p6
(dp7
sS'displacements'
p8
(dp9
S'nset_pinned_set_disp_1'
p10
g0
(ccompas_fea.structure.displacement
GeneralDisplacement
p11
g2
Ntp12
Rp13
(dp14
S'index'
p15
I0
sS'__name__'
p16
S'GeneralDisplacement'
p17
sS'name'
p18
g10
sS'nodes'
p19
S'nset_support_wall1'
p20
sS'components'
p21
(dp22
S'z'
p23
I0
sS'xx'
p24
I0
sS'zz'
p25
I0
sS'yy'
p26
I0
sS'y'
p27
I0
sS'x'
p28
I0
ssS'axes'
p29
S'global'
p30
sbsS'nset_pinned_set_disp_2'
p31
g0
(g11
g2
Ntp32
Rp33
(dp34
g15
I1
sg16
g17
sg18
g31
sg19
S'nset_support_wall2'
p35
sg21
(dp36
g23
I0
sg24
I0
sg25
I0
sg26
I0
sg27
I0
sg28
I0
ssg29
g30
sbssS'elements'
p37
(dp38
I0
g0
(ccompas_fea.structure.element
ShellElement
p39
g2
Ntp40
Rp41
(dp42
S'mass'
p43
NsS'__name__'
p44
S'ShellElement'
p45
sS'nodes'
p46
(lp47
I0
aI1
aI3
aI2
asS'number'
p48
I0
sS'thermal'
p49
I00
sS'axes'
p50
(dp51
S'ey'
p52
NsS'ez'
p53
NsS'ex'
p54
NssS'element_property'
p55
S'elset_plate_1_element_prop'
p56
sbsI1
g0
(g39
g2
Ntp57
Rp58
(dp59
g43
Nsg44
g45
sg46
(lp60
I2
aI3
aI5
aI4
asg48
I1
sg49
I00
sg50
g51
sg55
g56
sbsI2
g0
(g39
g2
Ntp61
Rp62
(dp63
g43
Nsg44
g45
sg46
(lp64
I6
aI7
aI9
aI8
asg48
I2
sg49
I00
sg50
(dp65
g52
Nsg53
Nsg54
Nssg55
S'elset_plate_2_element_prop'
p66
sbsI3
g0
(g39
g2
Ntp67
Rp68
(dp69
g43
Nsg44
g45
sg46
(lp70
I8
aI9
aI11
aI10
asg48
I3
sg49
I00
sg50
g65
sg55
g66
sbsI4
g0
(g39
g2
Ntp71
Rp72
(dp73
g43
Nsg44
g45
sg46
(lp74
I1
aI12
aI13
aI3
asg48
I4
sg49
I00
sg50
(dp75
g52
Nsg53
Nsg54
Nssg55
S'elset_plate_3_element_prop'
p76
sbsI5
g0
(g39
g2
Ntp77
Rp78
(dp79
g43
Nsg44
g45
sg46
(lp80
I3
aI13
aI14
aI5
asg48
I5
sg49
I00
sg50
g75
sg55
g76
sbsI6
g0
(g39
g2
Ntp81
Rp82
(dp83
g43
Nsg44
g45
sg46
(lp84
I7
aI15
aI16
aI9
asg48
I6
sg49
I00
sg50
(dp85
g52
Nsg53
Nsg54
Nssg55
S'elset_plate_4_element_prop'
p86
sbsI7
g0
(g39
g2
Ntp87
Rp88
(dp89
g43
Nsg44
g45
sg46
(lp90
I9
aI16
aI17
aI11
asg48
I7
sg49
I00
sg50
g85
sg55
g86
sbsI8
g0
(g39
g2
Ntp91
Rp92
(dp93
g43
Nsg44
g45
sg46
(lp94
I12
aI18
aI20
aI13
asg48
I8
sg49
I00
sg50
(dp95
g52
Nsg53
Nsg54
Nssg55
S'elset_plate_5_element_prop'
p96
sbsI9
g0
(g39
g2
Ntp97
Rp98
(dp99
g43
Nsg44
g45
sg46
(lp100
I18
aI19
aI21
aI20
asg48
I9
sg49
I00
sg50
g95
sg55
g96
sbsI10
g0
(g39
g2
Ntp101
Rp102
(dp103
g43
Nsg44
g45
sg46
(lp104
I13
aI20
aI22
aI14
asg48
I10
sg49
I00
sg50
g95
sg55
g96
sbsI11
g0
(g39
g2
Ntp105
Rp106
(dp107
g43
Nsg44
g45
sg46
(lp108
I20
aI21
aI23
aI22
asg48
I11
sg49
I00
sg50
g95
sg55
g96
sbsI12
g0
(g39
g2
Ntp109
Rp110
(dp111
g43
Nsg44
g45
sg46
(lp112
I15
aI24
aI26
aI16
asg48
I12
sg49
I00
sg50
(dp113
g52
Nsg53
Nsg54
Nssg55
S'elset_plate_6_element_prop'
p114
sbsI13
g0
(g39
g2
Ntp115
Rp116
(dp117
g43
Nsg44
g45
sg46
(lp118
I24
aI25
aI27
aI26
asg48
I13
sg49
I00
sg50
g113
sg55
g114
sbsI14
g0
(g39
g2
Ntp119
Rp120
(dp121
g43
Nsg44
g45
sg46
(lp122
I16
aI26
aI28
aI17
asg48
I14
sg49
I00
sg50
g113
sg55
g114
sbsI15
g0
(g39
g2
Ntp123
Rp124
(dp125
g43
Nsg44
g45
sg46
(lp126
I26
aI27
aI29
aI28
asg48
I15
sg49
I00
sg50
g113
sg55
g114
sbsI16
g0
(g39
g2
Ntp127
Rp128
(dp129
g43
Nsg44
g45
sg46
(lp130
I4
aI5
aI31
aI30
asg48
I16
sg49
I00
sg50
(dp131
g52
Nsg53
Nsg54
Nssg55
S'elset_plate_7_element_prop'
p132
sbsI17
g0
(g39
g2
Ntp133
Rp134
(dp135
g43
Nsg44
g45
sg46
(lp136
I30
aI31
aI7
aI6
asg48
I17
sg49
I00
sg50
g131
sg55
g132
sbsI18
g0
(g39
g2
Ntp137
Rp138
(dp139
g43
Nsg44
g45
sg46
(lp140
I5
aI14
aI32
aI31
asg48
I18
sg49
I00
sg50
(dp141
g52
Nsg53
Nsg54
Nssg55
S'elset_plate_8_element_prop'
p142
sbsI19
g0
(g39
g2
Ntp143
Rp144
(dp145
g43
Nsg44
g45
sg46
(lp146
I31
aI32
aI15
aI7
asg48
I19
sg49
I00
sg50
g141
sg55
g142
sbsI20
g0
(g39
g2
Ntp147
Rp148
(dp149
g43
Nsg44
g45
sg46
(lp150
I14
aI22
aI33
aI32
asg48
I20
sg49
I00
sg50
(dp151
g52
Nsg53
Nsg54
Nssg55
S'elset_plate_9_element_prop'
p152
sbsI21
g0
(g39
g2
Ntp153
Rp154
(dp155
g43
Nsg44
g45
sg46
(lp156
I22
aI23
aI34
aI33
asg48
I21
sg49
I00
sg50
g151
sg55
g152
sbsI22
g0
(g39
g2
Ntp157
Rp158
(dp159
g43
Nsg44
g45
sg46
(lp160
I32
aI33
aI24
aI15
asg48
I22
sg49
I00
sg50
g151
sg55
g152
sbsI23
g0
(g39
g2
Ntp161
Rp162
(dp163
g43
Nsg44
g45
sg46
(lp164
I33
aI34
aI25
aI24
asg48
I23
sg49
I00
sg50
g151
sg55
g152
sbsI24
g0
(g39
g2
Ntp165
Rp166
(dp167
g43
Nsg44
g45
sg46
(lp168
I35
aI36
aI38
aI37
asg48
I24
sg49
I00
sg50
(dp169
g52
Nsg53
Nsg54
Nssg55
S'elset_wall_1_1_element_prop'
p170
sbsI25
g0
(g39
g2
Ntp171
Rp172
(dp173
g43
Nsg44
g45
sg46
(lp174
I37
aI38
aI40
aI39
asg48
I25
sg49
I00
sg50
g169
sg55
g170
sbsI26
g0
(g39
g2
Ntp175
Rp176
(dp177
g43
Nsg44
g45
sg46
(lp178
I36
aI41
aI42
aI38
asg48
I26
sg49
I00
sg50
(dp179
g52
Nsg53
Nsg54
Nssg55
S'elset_wall_1_2_element_prop'
p180
sbsI27
g0
(g39
g2
Ntp181
Rp182
(dp183
g43
Nsg44
g45
sg46
(lp184
I38
aI42
aI43
aI40
asg48
I27
sg49
I00
sg50
g179
sg55
g180
sbsI28
g0
(g39
g2
Ntp185
Rp186
(dp187
g43
Nsg44
g45
sg46
(lp188
I41
aI44
aI46
aI42
asg48
I28
sg49
I00
sg50
(dp189
g52
Nsg53
Nsg54
Nssg55
S'elset_wall_1_3_element_prop'
p190
sbsI29
g0
(g39
g2
Ntp191
Rp192
(dp193
g43
Nsg44
g45
sg46
(lp194
I44
aI45
aI47
aI46
asg48
I29
sg49
I00
sg50
g189
sg55
g190
sbsI30
g0
(g39
g2
Ntp195
Rp196
(dp197
g43
Nsg44
g45
sg46
(lp198
I42
aI46
aI48
aI43
asg48
I30
sg49
I00
sg50
g189
sg55
g190
sbsI31
g0
(g39
g2
Ntp199
Rp200
(dp201
g43
Nsg44
g45
sg46
(lp202
I46
aI47
aI49
aI48
asg48
I31
sg49
I00
sg50
g189
sg55
g190
sbsI32
g0
(g39
g2
Ntp203
Rp204
(dp205
g43
Nsg44
g45
sg46
(lp206
I50
aI51
aI53
aI52
asg48
I32
sg49
I00
sg50
(dp207
g52
Nsg53
Nsg54
Nssg55
S'elset_wall_1_4_element_prop'
p208
sbsI33
g0
(g39
g2
Ntp209
Rp210
(dp211
g43
Nsg44
g45
sg46
(lp212
I52
aI53
aI36
aI35
asg48
I33
sg49
I00
sg50
g207
sg55
g208
sbsI34
g0
(g39
g2
Ntp213
Rp214
(dp215
g43
Nsg44
g45
sg46
(lp216
I51
aI54
aI55
aI53
asg48
I34
sg49
I00
sg50
(dp217
g52
Nsg53
Nsg54
Nssg55
S'elset_wall_1_5_element_prop'
p218
sbsI35
g0
(g39
g2
Ntp219
Rp220
(dp221
g43
Nsg44
g45
sg46
(lp222
I53
aI55
aI41
aI36
asg48
I35
sg49
I00
sg50
g217
sg55
g218
sbsI36
g0
(g39
g2
Ntp223
Rp224
(dp225
g43
Nsg44
g45
sg46
(lp226
I54
aI56
aI58
aI55
asg48
I36
sg49
I00
sg50
(dp227
g52
Nsg53
Nsg54
Nssg55
S'elset_wall_1_6_element_prop'
p228
sbsI37
g0
(g39
g2
Ntp229
Rp230
(dp231
g43
Nsg44
g45
sg46
(lp232
I56
aI57
aI59
aI58
asg48
I37
sg49
I00
sg50
g227
sg55
g228
sbsI38
g0
(g39
g2
Ntp233
Rp234
(dp235
g43
Nsg44
g45
sg46
(lp236
I55
aI58
aI44
aI41
asg48
I38
sg49
I00
sg50
g227
sg55
g228
sbsI39
g0
(g39
g2
Ntp237
Rp238
(dp239
g43
Nsg44
g45
sg46
(lp240
I58
aI59
aI45
aI44
asg48
I39
sg49
I00
sg50
g227
sg55
g228
sbsI40
g0
(g39
g2
Ntp241
Rp242
(dp243
g43
Nsg44
g45
sg46
(lp244
I60
aI61
aI63
aI62
asg48
I40
sg49
I00
sg50
(dp245
g52
Nsg53
Nsg54
Nssg55
S'elset_wall_1_7_element_prop'
p246
sbsI41
g0
(g39
g2
Ntp247
Rp248
(dp249
g43
Nsg44
g45
sg46
(lp250
I62
aI63
aI51
aI50
asg48
I41
sg49
I00
sg50
g245
sg55
g246
sbsI42
g0
(g39
g2
Ntp251
Rp252
(dp253
g43
Nsg44
g45
sg46
(lp254
I61
aI64
aI65
aI63
asg48
I42
sg49
I00
sg50
(dp255
g52
Nsg53
Nsg54
Nssg55
S'elset_wall_1_8_element_prop'
p256
sbsI43
g0
(g39
g2
Ntp257
Rp258
(dp259
g43
Nsg44
g45
sg46
(lp260
I63
aI65
aI54
aI51
asg48
I43
sg49
I00
sg50
g255
sg55
g256
sbsI44
g0
(g39
g2
Ntp261
Rp262
(dp263
g43
Nsg44
g45
sg46
(lp264
I64
aI66
aI68
aI65
asg48
I44
sg49
I00
sg50
(dp265
g52
Nsg53
Nsg54
Nssg55
S'elset_wall_1_9_element_prop'
p266
sbsI45
g0
(g39
g2
Ntp267
Rp268
(dp269
g43
Nsg44
g45
sg46
(lp270
I66
aI67
aI69
aI68
asg48
I45
sg49
I00
sg50
g265
sg55
g266
sbsI46
g0
(g39
g2
Ntp271
Rp272
(dp273
g43
Nsg44
g45
sg46
(lp274
I65
aI68
aI56
aI54
asg48
I46
sg49
I00
sg50
g265
sg55
g266
sbsI47
g0
(g39
g2
Ntp275
Rp276
(dp277
g43
Nsg44
g45
sg46
(lp278
I68
aI69
aI57
aI56
asg48
I47
sg49
I00
sg50
g265
sg55
g266
sbsI48
g0
(g39
g2
Ntp279
Rp280
(dp281
g43
Nsg44
g45
sg46
(lp282
I70
aI72
aI73
aI71
asg48
I48
sg49
I00
sg50
(dp283
g52
Nsg53
Nsg54
Nssg55
S'elset_wall_2_1_element_prop'
p284
sbsI49
g0
(g39
g2
Ntp285
Rp286
(dp287
g43
Nsg44
g45
sg46
(lp288
I72
aI74
aI75
aI73
asg48
I49
sg49
I00
sg50
g283
sg55
g284
sbsI50
g0
(g39
g2
Ntp289
Rp290
(dp291
g43
Nsg44
g45
sg46
(lp292
I71
aI73
aI77
aI76
asg48
I50
sg49
I00
sg50
(dp293
g52
Nsg53
Nsg54
Nssg55
S'elset_wall_2_2_element_prop'
p294
sbsI51
g0
(g39
g2
Ntp295
Rp296
(dp297
g43
Nsg44
g45
sg46
(lp298
I73
aI75
aI78
aI77
asg48
I51
sg49
I00
sg50
g293
sg55
g294
sbsI52
g0
(g39
g2
Ntp299
Rp300
(dp301
g43
Nsg44
g45
sg46
(lp302
I76
aI77
aI81
aI79
asg48
I52
sg49
I00
sg50
(dp303
g52
Nsg53
Nsg54
Nssg55
S'elset_wall_2_3_element_prop'
p304
sbsI53
g0
(g39
g2
Ntp305
Rp306
(dp307
g43
Nsg44
g45
sg46
(lp308
I79
aI81
aI82
aI80
asg48
I53
sg49
I00
sg50
g303
sg55
g304
sbsI54
g0
(g39
g2
Ntp309
Rp310
(dp311
g43
Nsg44
g45
sg46
(lp312
I77
aI78
aI83
aI81
asg48
I54
sg49
I00
sg50
g303
sg55
g304
sbsI55
g0
(g39
g2
Ntp313
Rp314
(dp315
g43
Nsg44
g45
sg46
(lp316
I81
aI83
aI84
aI82
asg48
I55
sg49
I00
sg50
g303
sg55
g304
sbsI56
g0
(g39
g2
Ntp317
Rp318
(dp319
g43
Nsg44
g45
sg46
(lp320
I85
aI87
aI88
aI86
asg48
I56
sg49
I00
sg50
(dp321
g52
Nsg53
Nsg54
Nssg55
S'elset_wall_2_4_element_prop'
p322
sbsI57
g0
(g39
g2
Ntp323
Rp324
(dp325
g43
Nsg44
g45
sg46
(lp326
I87
aI70
aI71
aI88
asg48
I57
sg49
I00
sg50
g321
sg55
g322
sbsI58
g0
(g39
g2
Ntp327
Rp328
(dp329
g43
Nsg44
g45
sg46
(lp330
I86
aI88
aI90
aI89
asg48
I58
sg49
I00
sg50
(dp331
g52
Nsg53
Nsg54
Nssg55
S'elset_wall_2_5_element_prop'
p332
sbsI59
g0
(g39
g2
Ntp333
Rp334
(dp335
g43
Nsg44
g45
sg46
(lp336
I88
aI71
aI76
aI90
asg48
I59
sg49
I00
sg50
g331
sg55
g332
sbsI60
g0
(g39
g2
Ntp337
Rp338
(dp339
g43
Nsg44
g45
sg46
(lp340
I89
aI90
aI93
aI91
asg48
I60
sg49
I00
sg50
(dp341
g52
Nsg53
Nsg54
Nssg55
S'elset_wall_2_6_element_prop'
p342
sbsI61
g0
(g39
g2
Ntp343
Rp344
(dp345
g43
Nsg44
g45
sg46
(lp346
I91
aI93
aI94
aI92
asg48
I61
sg49
I00
sg50
g341
sg55
g342
sbsI62
g0
(g39
g2
Ntp347
Rp348
(dp349
g43
Nsg44
g45
sg46
(lp350
I90
aI76
aI79
aI93
asg48
I62
sg49
I00
sg50
g341
sg55
g342
sbsI63
g0
(g39
g2
Ntp351
Rp352
(dp353
g43
Nsg44
g45
sg46
(lp354
I93
aI79
aI80
aI94
asg48
I63
sg49
I00
sg50
g341
sg55
g342
sbsI64
g0
(g39
g2
Ntp355
Rp356
(dp357
g43
Nsg44
g45
sg46
(lp358
I95
aI97
aI98
aI96
asg48
I64
sg49
I00
sg50
(dp359
g52
Nsg53
Nsg54
Nssg55
S'elset_wall_2_7_element_prop'
p360
sbsI65
g0
(g39
g2
Ntp361
Rp362
(dp363
g43
Nsg44
g45
sg46
(lp364
I97
aI85
aI86
aI98
asg48
I65
sg49
I00
sg50
g359
sg55
g360
sbsI66
g0
(g39
g2
Ntp365
Rp366
(dp367
g43
Nsg44
g45
sg46
(lp368
I96
aI98
aI100
aI99
asg48
I66
sg49
I00
sg50
(dp369
g52
Nsg53
Nsg54
Nssg55
S'elset_wall_2_8_element_prop'
p370
sbsI67
g0
(g39
g2
Ntp371
Rp372
(dp373
g43
Nsg44
g45
sg46
(lp374
I98
aI86
aI89
aI100
asg48
I67
sg49
I00
sg50
g369
sg55
g370
sbsI68
g0
(g39
g2
Ntp375
Rp376
(dp377
g43
Nsg44
g45
sg46
(lp378
I99
aI100
aI103
aI101
asg48
I68
sg49
I00
sg50
(dp379
g52
Nsg53
Nsg54
Nssg55
S'elset_wall_2_9_element_prop'
p380
sbsI69
g0
(g39
g2
Ntp381
Rp382
(dp383
g43
Nsg44
g45
sg46
(lp384
I101
aI103
aI104
aI102
asg48
I69
sg49
I00
sg50
g379
sg55
g380
sbsI70
g0
(g39
g2
Ntp385
Rp386
(dp387
g43
Nsg44
g45
sg46
(lp388
I100
aI89
aI91
aI103
asg48
I70
sg49
I00
sg50
g379
sg55
g380
sbsI71
g0
(g39
g2
Ntp389
Rp390
(dp391
g43
Nsg44
g45
sg46
(lp392
I103
aI91
aI92
aI104
asg48
I71
sg49
I00
sg50
g379
sg55
g380
sbsI72
g0
(ccompas_fea.structure.element
MPCElement
p393
g2
Ntp394
Rp395
(dp396
g43
Nsg44
S'MPCElement'
p397
sg46
(lp398
I84
aI29
asg48
I72
sg49
I00
sg50
(dp399
g52
Nsg53
(lp400
F-3.637978807091713e-12
aF0.0
aF777.16178274106687
asg54
Nssg55
S'elset_mpc_element_prop'
p401
sbsI73
g0
(g393
g2
Ntp402
Rp403
(dp404
g43
Nsg44
g397
sg46
(lp405
I83
aI28
asg48
I73
sg49
I00
sg50
(dp406
g52
Nsg53
(lp407
F-1.3642420526593924e-12
aF0.0
aF777.16178274106687
asg54
Nssg55
g401
sbsI74
g0
(g393
g2
Ntp408
Rp409
(dp410
g43
Nsg44
g397
sg46
(lp411
I78
aI17
asg48
I74
sg49
I00
sg50
(dp412
g52
Nsg53
(lp413
F4.5474735088646412e-13
aF0.0
aF777.16178274106687
asg54
Nssg55
g401
sbsI75
g0
(g393
g2
Ntp414
Rp415
(dp416
g43
Nsg44
g397
sg46
(lp417
I75
aI11
asg48
I75
sg49
I00
sg50
(dp418
g52
Nsg53
(lp419
F-4.7748471843078732e-12
aF0.0
aF777.16178274106687
asg54
Nssg55
g401
sbsI76
g0
(g393
g2
Ntp420
Rp421
(dp422
g43
Nsg44
g397
sg46
(lp423
I74
aI10
asg48
I76
sg49
I00
sg50
(dp424
g52
Nsg53
(lp425
F0.0
aF0.0
aF777.16178274106687
asg54
Nssg55
g401
sbsI77
g0
(g393
g2
Ntp426
Rp427
(dp428
g43
Nsg44
g397
sg46
(lp429
I49
aI19
asg48
I77
sg49
I00
sg50
(dp430
g52
Nsg53
(lp431
F-3.637978807091713e-12
aF0.0
aF777.16178274106687
asg54
Nssg55
g401
sbsI78
g0
(g393
g2
Ntp432
Rp433
(dp434
g43
Nsg44
g397
sg46
(lp435
I48
aI18
asg48
I78
sg49
I00
sg50
(dp436
g52
Nsg53
(lp437
F-1.3642420526593924e-12
aF0.0
aF777.16178274106687
asg54
Nssg55
g401
sbsI79
g0
(g393
g2
Ntp438
Rp439
(dp440
g43
Nsg44
g397
sg46
(lp441
I43
aI12
asg48
I79
sg49
I00
sg50
(dp442
g52
Nsg53
(lp443
F4.5474735088646412e-13
aF0.0
aF777.16178274106687
asg54
Nssg55
g401
sbsI80
g0
(g393
g2
Ntp444
Rp445
(dp446
g43
Nsg44
g397
sg46
(lp447
I40
aI1
asg48
I80
sg49
I00
sg50
(dp448
g52
Nsg53
(lp449
F-4.7748471843078732e-12
aF0.0
aF777.16178274106687
asg54
Nssg55
g401
sbsI81
g0
(g393
g2
Ntp450
Rp451
(dp452
g43
Nsg44
g397
sg46
(lp453
I39
aI0
asg48
I81
sg49
I00
sg50
(dp454
g52
Nsg53
(lp455
F0.0
aF0.0
aF777.16178274106687
asg54
Nssg55
g401
sbssS'element_index'
p456
(dp457
S'702.370,5269.881,-2678.776'
p458
I57
sS'702.370,0.000,-4225.270'
p459
I41
sS'2107.111,2187.000,0.000'
p460
I18
sS'2107.111,3965.585,0.000'
p461
I6
sS'3894.962,1304.295,0.000'
p462
I11
sS'2107.111,434.765,0.000'
p463
I4
sS'2107.111,0.000,-1155.194'
p464
I27
sS'3894.962,0.000,-1155.194'
p465
I31
sS'3171.308,0.000,-2678.776'
p466
I38
sS'2107.111,5269.881,-2678.776'
p467
I59
sS'2107.111,0.000,-4981.333'
p468
I42
sS'3171.308,5269.881,-1155.194'
p469
I54
sS'2107.111,5269.881,-1155.194'
p470
I51
sS'3171.308,5269.881,-3457.751'
p471
I60
sS'3894.962,5269.881,-4981.333'
p472
I69
sS'3171.308,434.765,0.000'
p473
I8
sS'702.370,0.000,-1155.194'
p474
I25
sS'702.370,0.000,-4981.333'
p475
I40
sS'2107.111,0.000,-1911.257'
p476
I26
sS'3894.962,0.000,-4225.270'
p477
I47
sS'2107.111,0.000,-3457.751'
p478
I34
sS'1404.740,5269.881,-388.581'
p479
I75
sS'702.370,0.000,-3457.751'
p480
I32
sS'3533.135,0.000,-388.581'
p481
I78
sS'702.370,3965.585,0.000'
p482
I2
sS'2107.111,3082.880,0.000'
p483
I19
sS'3171.308,5269.881,-1911.257'
p484
I52
sS'3894.962,0.000,-4981.333'
p485
I45
sS'2107.111,5269.881,-4981.333'
p486
I66
sS'702.370,5269.881,-4981.333'
p487
I64
sS'3894.962,3082.880,0.000'
p488
I23
sS'2107.111,1304.295,0.000'
p489
I5
sS'3894.962,0.000,-3457.751'
p490
I37
sS'2809.481,5269.881,-388.581'
p491
I74
sS'702.370,4835.116,0.000'
p492
I3
sS'3171.308,0.000,-4981.333'
p493
I44
sS'3894.962,5269.881,-1155.194'
p494
I55
sS'3171.308,5269.881,-4225.270'
p495
I70
sS'3171.308,5269.881,-4981.333'
p496
I68
sS'2107.111,4835.116,0.000'
p497
I7
sS'3171.308,1304.295,0.000'
p498
I10
sS'3894.962,5269.881,-3457.751'
p499
I61
sS'702.370,5269.881,-1155.194'
p500
I49
sS'2107.111,5269.881,-1911.257'
p501
I50
sS'3894.962,434.765,0.000'
p502
I9
sS'3894.962,5269.881,-4225.270'
p503
I71
sS'3894.962,3965.585,0.000'
p504
I13
sS'2107.111,0.000,-2678.776'
p505
I35
sS'0.000,5269.881,-388.581'
p506
I76
sS'2107.111,5269.881,-4225.270'
p507
I67
sS'0.000,0.000,-388.581'
p508
I81
sS'3171.308,0.000,-1911.257'
p509
I28
sS'3894.962,5269.881,-2678.776'
p510
I63
sS'702.370,1304.295,0.000'
p511
I1
sS'702.370,3082.880,0.000'
p512
I17
sS'1404.740,0.000,-388.581'
p513
I80
sS'3171.308,0.000,-1155.194'
p514
I30
sS'702.370,5269.881,-4225.270'
p515
I65
sS'3171.308,2187.000,0.000'
p516
I20
sS'3894.962,0.000,-1911.257'
p517
I29
sS'3171.308,4835.116,0.000'
p518
I14
sS'702.370,0.000,-2678.776'
p519
I33
sS'3894.962,0.000,-2678.776'
p520
I39
sS'3894.962,5269.881,-1911.257'
p521
I53
sS'702.370,2187.000,0.000'
p522
I16
sS'3171.308,5269.881,-2678.776'
p523
I62
sS'3171.308,3082.880,0.000'
p524
I22
sS'702.370,5269.881,-3457.751'
p525
I56
sS'3171.308,3965.585,0.000'
p526
I12
sS'2809.481,0.000,-388.581'
p527
I79
sS'4256.789,5269.881,-388.581'
p528
I72
sS'2107.111,5269.881,-3457.751'
p529
I58
sS'3171.308,0.000,-3457.751'
p530
I36
sS'3894.962,2187.000,0.000'
p531
I21
sS'702.370,0.000,-1911.257'
p532
I24
sS'3171.308,0.000,-4225.270'
p533
I46
sS'4256.789,0.000,-388.581'
p534
I77
sS'702.370,434.765,0.000'
p535
I0
sS'702.370,5269.881,-1911.257'
p536
I48
sS'3533.135,5269.881,-388.581'
p537
I73
sS'3894.962,4835.116,0.000'
p538
I15
sS'2107.111,0.000,-4225.270'
p539
I43
ssS'element_properties'
p540
(dp541
g322
g0
(ccompas_fea.structure.element_properties
ElementProperties
p542
g2
Ntp543
Rp544
(dp545
S'index'
p546
I21
sS'__name__'
p547
S'ElementProperties'
p548
sS'name'
p549
g322
sS'material'
p550
S'wall_element_mat'
p551
sS'section'
p552
S'wall2_element_sec'
p553
sS'elset'
p554
S'elset_wall_2_4'
p555
sS'elements'
p556
NsS'rebar'
p557
(dp558
sbsg180
g0
(g542
g2
Ntp559
Rp560
(dp561
g546
I10
sg547
g548
sg549
g180
sg550
g551
sg552
S'wall1_element_sec'
p562
sg554
S'elset_wall_1_2'
p563
sg556
Nsg557
g558
sbsg256
g0
(g542
g2
Ntp564
Rp565
(dp566
g546
I16
sg547
g548
sg549
g256
sg550
g551
sg552
g562
sg554
S'elset_wall_1_8'
p567
sg556
Nsg557
g558
sbsg294
g0
(g542
g2
Ntp568
Rp569
(dp570
g546
I19
sg547
g548
sg549
g294
sg550
g551
sg552
g553
sg554
S'elset_wall_2_2'
p571
sg556
Nsg557
g558
sbsg56
g0
(g542
g2
Ntp572
Rp573
(dp574
g546
I0
sg547
g548
sg549
g56
sg550
S'plate_element_mat'
p575
sg552
S'plate_element_sec'
p576
sg554
S'elset_plate_1'
p577
sg556
Nsg557
g558
sbsg332
g0
(g542
g2
Ntp578
Rp579
(dp580
g546
I22
sg547
g548
sg549
g332
sg550
g551
sg552
g553
sg554
S'elset_wall_2_5'
p581
sg556
Nsg557
g558
sbsg152
g0
(g542
g2
Ntp582
Rp583
(dp584
g546
I8
sg547
g548
sg549
g152
sg550
g575
sg552
g576
sg554
S'elset_plate_9'
p585
sg556
Nsg557
g558
sbsg228
g0
(g542
g2
Ntp586
Rp587
(dp588
g546
I14
sg547
g548
sg549
g228
sg550
g551
sg552
g562
sg554
S'elset_wall_1_6'
p589
sg556
Nsg557
g558
sbsg96
g0
(g542
g2
Ntp590
Rp591
(dp592
g546
I4
sg547
g548
sg549
g96
sg550
g575
sg552
g576
sg554
S'elset_plate_5'
p593
sg556
Nsg557
g558
sbsg190
g0
(g542
g2
Ntp594
Rp595
(dp596
g546
I11
sg547
g548
sg549
g190
sg550
g551
sg552
g562
sg554
S'elset_wall_1_3'
p597
sg556
Nsg557
g558
sbsg76
g0
(g542
g2
Ntp598
Rp599
(dp600
g546
I2
sg547
g548
sg549
g76
sg550
g575
sg552
g576
sg554
S'elset_plate_3'
p601
sg556
Nsg557
g558
sbsg304
g0
(g542
g2
Ntp602
Rp603
(dp604
g546
I20
sg547
g548
sg549
g304
sg550
g551
sg552
g553
sg554
S'elset_wall_2_3'
p605
sg556
Nsg557
g558
sbsg342
g0
(g542
g2
Ntp606
Rp607
(dp608
g546
I23
sg547
g548
sg549
g342
sg550
g551
sg552
g553
sg554
S'elset_wall_2_6'
p609
sg556
Nsg557
g558
sbsg208
g0
(g542
g2
Ntp610
Rp611
(dp612
g546
I12
sg547
g548
sg549
g208
sg550
g551
sg552
g562
sg554
S'elset_wall_1_4'
p613
sg556
Nsg557
g558
sbsg266
g0
(g542
g2
Ntp614
Rp615
(dp616
g546
I17
sg547
g548
sg549
g266
sg550
g551
sg552
g562
sg554
S'elset_wall_1_9'
p617
sg556
Nsg557
g558
sbsg142
g0
(g542
g2
Ntp618
Rp619
(dp620
g546
I7
sg547
g548
sg549
g142
sg550
g575
sg552
g576
sg554
S'elset_plate_8'
p621
sg556
Nsg557
g558
sbsg170
g0
(g542
g2
Ntp622
Rp623
(dp624
g546
I9
sg547
g548
sg549
g170
sg550
g551
sg552
g562
sg554
S'elset_wall_1_1'
p625
sg556
Nsg557
g558
sbsg132
g0
(g542
g2
Ntp626
Rp627
(dp628
g546
I6
sg547
g548
sg549
g132
sg550
g575
sg552
g576
sg554
S'elset_plate_7'
p629
sg556
Nsg557
g558
sbsg370
g0
(g542
g2
Ntp630
Rp631
(dp632
g546
I25
sg547
g548
sg549
g370
sg550
g551
sg552
g553
sg554
S'elset_wall_2_8'
p633
sg556
Nsg557
g558
sbsg86
g0
(g542
g2
Ntp634
Rp635
(dp636
g546
I3
sg547
g548
sg549
g86
sg550
g575
sg552
g576
sg554
S'elset_plate_4'
p637
sg556
Nsg557
g558
sbsg66
g0
(g542
g2
Ntp638
Rp639
(dp640
g546
I1
sg547
g548
sg549
g66
sg550
g575
sg552
g576
sg554
S'elset_plate_2'
p641
sg556
Nsg557
g558
sbsg401
g0
(g542
g2
Ntp642
Rp643
(dp644
g546
I27
sg547
g548
sg549
g401
sg550
S'elset_mpc_element_mat'
p645
sg552
S'sec_mpc'
p646
sg554
S'elset_mpcs'
p647
sg556
Nsg557
g558
sbsg246
g0
(g542
g2
Ntp648
Rp649
(dp650
g546
I15
sg547
g548
sg549
g246
sg550
g551
sg552
g562
sg554
S'elset_wall_1_7'
p651
sg556
Nsg557
g558
sbsg360
g0
(g542
g2
Ntp652
Rp653
(dp654
g546
I24
sg547
g548
sg549
g360
sg550
g551
sg552
g553
sg554
S'elset_wall_2_7'
p655
sg556
Nsg557
g558
sbsg380
g0
(g542
g2
Ntp656
Rp657
(dp658
g546
I26
sg547
g548
sg549
g380
sg550
g551
sg552
g553
sg554
S'elset_wall_2_9'
p659
sg556
Nsg557
g558
sbsg284
g0
(g542
g2
Ntp660
Rp661
(dp662
g546
I18
sg547
g548
sg549
g284
sg550
g551
sg552
g553
sg554
S'elset_wall_2_1'
p663
sg556
Nsg557
g558
sbsg114
g0
(g542
g2
Ntp664
Rp665
(dp666
g546
I5
sg547
g548
sg549
g114
sg550
g575
sg552
g576
sg554
S'elset_plate_6'
p667
sg556
Nsg557
g558
sbsg218
g0
(g542
g2
Ntp668
Rp669
(dp670
g546
I13
sg547
g548
sg549
g218
sg550
g551
sg552
g562
sg554
S'elset_wall_1_5'
p671
sg556
Nsg557
g558
sbssS'interactions'
p672
(dp673
sS'loads'
p674
(dp675
S'earthPressure_liveLoad'
p676
g0
(ccompas_fea.structure.load
AreaLoad
p677
g2
Ntp678
Rp679
(dp680
g15
I6
sS'__name__'
p681
S'AreaLoad'
p682
sS'name'
p683
g676
sS'axes'
p684
S'local'
p685
sS'components'
p686
(dp687
S'z'
p688
F0.037699999999999997
sS'y'
p689
I0
sS'x'
p690
I0
ssS'nodes'
p691
(lp692
sS'elements'
p693
(lp694
I25
aI26
aI27
aI28
aI29
aI30
aI31
aI32
aI33
aI34
aI35
aI36
aI37
aI38
aI39
aI40
aI41
aI42
aI43
aI44
aI45
aI46
aI47
aI48
asS'attr_list'
p695
(lp696
S'name'
p697
aS'axes'
p698
aS'components'
p699
aS'nodes'
p700
aS'elements'
p701
asbsS'Gleis1_EIGENGEWICHTE_SCHIENE_Lasteinzugsflache'
p702
g0
(g677
g2
Ntp703
Rp704
(dp705
g15
I3
sg681
g682
sg683
g702
sg684
S'global'
p706
sg686
(dp707
g688
F0.0023231729284394135
sg689
I0
sg690
I0
ssg691
g692
sg693
(lp708
I1
aI5
aI6
aI9
aI10
aI11
aI12
aI13
aI14
aI16
aI19
aI21
aI22
aI23
aI24
asg695
(lp709
g697
ag698
ag699
ag700
ag701
asbsS'earthPressure_backfill'
p710
g0
(g677
g2
Ntp711
Rp712
(dp713
g15
I2
sg681
g682
sg683
g710
sg684
S'local'
p714
sg686
(dp715
g688
F0.0581009329420097
sg689
I0
sg690
I0
ssg691
g692
sg693
(lp716
g625
ag563
ag597
ag613
ag671
ag589
ag651
ag567
ag617
ag663
ag571
ag605
ag555
ag581
ag609
ag655
ag633
ag659
asg695
(lp717
g697
ag698
ag699
ag700
ag701
asbsS'earthPressure_gravel'
p718
g0
(g677
g2
Ntp719
Rp720
(dp721
g15
I1
sg681
g682
sg683
g718
sg684
S'global'
p722
sg686
(dp723
g688
F0.013500000000000002
sg689
I0
sg690
I0
ssg691
g692
sg693
(lp724
g577
ag641
ag601
ag637
ag593
ag667
ag629
ag621
ag585
asg695
(lp725
g697
ag698
ag699
ag700
ag701
asbsS'Gleis1_BAHNLASTEN_Lasteinzugsflache_Lastblock_-1'
p726
g0
(g677
g2
Ntp727
Rp728
(dp729
g15
I5
sg681
g682
sg683
g726
sg684
S'global'
p730
sg686
(dp731
g688
F0.076320213470375778
sg689
I0
sg690
I0
ssg691
g692
sg693
(lp732
I6
aI9
aI10
aI11
aI12
aI19
aI21
asg695
(lp733
g697
ag698
ag699
ag700
ag701
asbsS'Gleis1_BAHNLASTEN_Lasteinzugsflache_Lastblock_1'
p734
g0
(g677
g2
Ntp735
Rp736
(dp737
g15
I4
sg681
g682
sg683
g734
sg684
g730
sg686
(dp738
g688
F0.076320213470375778
sg689
I0
sg690
I0
ssg691
g692
sg693
(lp739
I13
aI14
aI21
aI22
aI23
aI24
asg695
(lp740
g697
ag698
ag699
ag700
ag701
asbsS'load_gravity'
p741
g0
(ccompas_fea.structure.load
GravityLoad
p742
g2
Ntp743
Rp744
(dp745
g15
I0
sg681
S'GravityLoad'
p746
sg683
g741
sg684
S'global'
p747
sg686
(dp748
S'z'
p749
F1.3500000000000001
sS'y'
p750
F0.0
sS'x'
p751
F0.0
ssg691
g692
sg693
(lp752
g577
ag641
ag601
ag637
ag593
ag667
ag629
ag621
ag585
ag625
ag563
ag597
ag613
ag671
ag589
ag651
ag567
ag617
ag663
ag571
ag605
ag555
ag581
ag609
ag655
ag633
ag659
asg695
(lp753
g697
ag698
ag699
ag700
ag701
aS'g'
p754
asS'g'
p755
F-9.8100000000000005
sbssS'materials'
p756
(dp757
S'elset_mpc_element_mat'
p758
g0
(ccompas_fea.structure.material
MPCStiff
p759
g2
Ntp760
Rp761
(dp762
g15
I2
sS'__name__'
p763
S'MPCStiff'
p764
sS'name'
p765
g758
sS'attr_list'
p766
(lp767
S'name'
p768
aS'E'
p769
aS'v'
p770
aS'G'
p771
aS'p'
p772
aS'tension'
p773
aS'compression'
p774
asS'E'
p775
(dp776
S'E'
p777
L10000000000000L
ssS'v'
p778
(dp779
S'v'
p780
F0.29999999999999999
ssS'G'
p781
(dp782
S'G'
p783
F3846153846153.8462
ssS'p'
p784
F0.10000000000000001
sS'tension'
p785
I01
sS'compression'
p786
I01
sbsg551
g0
(ccompas_fea.structure.material
CMMUsermat
p787
g2
Ntp788
Rp789
(dp790
g15
I1
sg763
S'CMMUsermat'
p791
sg765
g551
sg766
(lp792
g768
aS'E'
p793
aS'v'
p794
aS'G'
p795
aS'p'
p796
aS'R_Rohr'
p797
aS'rho'
p798
aS'oo'
p799
aS'uu'
p800
aS'beton'
p801
aS'fcc'
p802
aS'vc'
p803
aS'ecu'
p804
aS'k_E'
p805
aS'theta_b0'
p806
aS'theta_b1'
p807
aS'k_riss'
p808
aS'Entfestigung'
p809
aS'lambdaTS'
p810
aS'srmx'
p811
aS'srmy'
p812
aS'Begrenzung'
p813
aS'KritQ'
p814
aS'winkelD'
p815
aS'k_vr'
p816
aS'fswy'
p817
aS'stahl1'
p818
aS'zm1'
p819
aS'fsy1'
p820
aS'fsu1'
p821
aS'esu1'
p822
aS'esv1'
p823
aS'Es1'
p824
aS'ka1'
p825
aS'kb1'
p826
aS'kc1'
p827
aS'as1'
p828
aS'dm1'
p829
aS'psi1'
p830
aS'stahl2'
p831
aS'zm2'
p832
aS'fsy2'
p833
aS'fsu2'
p834
aS'esu2'
p835
aS'esv2'
p836
aS'Es2'
p837
aS'ka2'
p838
aS'kb2'
p839
aS'kc2'
p840
aS'as2'
p841
aS'dm2'
p842
aS'psi2'
p843
aS'stahl3'
p844
aS'zm3'
p845
aS'fsy3'
p846
aS'fsu3'
p847
aS'esu3'
p848
aS'esv3'
p849
aS'Es3'
p850
aS'ka3'
p851
aS'kb3'
p852
aS'kc3'
p853
aS'as3'
p854
aS'dm3'
p855
aS'psi3'
p856
aS'stahl4'
p857
aS'zm4'
p858
aS'fsy4'
p859
aS'fsu4'
p860
aS'esu4'
p861
aS'esv4'
p862
aS'Es4'
p863
aS'ka4'
p864
aS'kb4'
p865
aS'kc4'
p866
aS'as4'
p867
aS'dm4'
p868
aS'psi4'
p869
asS'E'
p870
(dp871
S'E'
p872
I200000
ssS'v'
p873
(dp874
S'v'
p875
F0.10000000000000001
ssS'G'
p876
(dp877
S'G'
p878
F90909.090909090897
ssS'p'
p879
F2.5000000000000002e-06
sS'R_Rohr'
p880
(dp881
S'R_Rohr'
p882
I-1
ssS'rho'
p883
(dp884
S'rho'
p885
F2.5000000000000002e-06
ssS'oo'
p886
(dp887
S'oo'
p888
I30
ssS'uu'
p889
(dp890
S'uu'
p891
I30
ssS'beton'
p892
(dp893
S'beton'
p894
I2
ssS'fcc'
p895
(dp896
S'fcc'
p897
I37
ssS'vc'
p898
(dp899
S'vc'
p900
I0
ssS'ecu'
p901
(dp902
S'ecu'
p903
F-0.002
ssS'k_E'
p904
(dp905
S'k_E'
p906
I10000
ssS'theta_b0'
p907
(dp908
S'theta_b0'
p909
I2
ssS'theta_b1'
p910
(dp911
S'theta_b1'
p912
I1
ssS'k_riss'
p913
(dp914
S'k_riss'
p915
I0
ssS'Entfestigung'
p916
(dp917
S'Entfestigung'
p918
I0
ssS'lambdaTS'
p919
(dp920
S'lambdaTS'
p921
F0.67000000000000004
ssS'srmx'
p922
(dp923
S'srmx'
p924
I1
ssS'srmy'
p925
(dp926
S'srmy'
p927
I1
ssS'Begrenzung'
p928
(dp929
S'Begrenzung'
p930
I2
ssS'KritQ'
p931
(dp932
S'KritQ'
p933
I0
ssS'winkelD'
p934
(dp935
S'winkelD'
p936
I45
ssS'k_vr'
p937
(dp938
S'k_vr'
p939
I1
ssS'fswy'
p940
(dp941
S'fswy'
p942
I500
ssS'stahl1'
p943
(dp944
S'stahl1'
p945
I1
ssS'zm1'
p946
(dp947
S'zm1'
p948
I2
ssS'fsy1'
p949
(dp950
S'fsy1'
p951
I320
ssS'fsu1'
p952
(dp953
S'fsu1'
p954
I345
ssS'esu1'
p955
(dp956
S'esu1'
p957
F0.044999999999999998
ssS'esv1'
p958
(dp959
S'esv1'
p960
F0.02
ssS'Es1'
p961
(dp962
S'Es1'
p963
I200000
ssS'ka1'
p964
(dp965
S'ka1'
p966
I-1
ssS'kb1'
p967
(dp968
S'kb1'
p969
I-1
ssS'kc1'
p970
(dp971
S'kc1'
p972
I-1
ssS'as1'
p973
(dp974
S'as1'
p975
F0.55210214204683816
ssS'dm1'
p976
(dp977
S'dm1'
p978
F17.965417731937055
ssS'psi1'
p979
(dp980
S'psi1'
p981
I90
ssS'stahl2'
p982
(dp983
S'stahl2'
p984
I1
ssS'zm2'
p985
(dp986
S'zm2'
p987
I2
ssS'fsy2'
p988
(dp989
S'fsy2'
p990
I320
ssS'fsu2'
p991
(dp992
S'fsu2'
p993
I345
ssS'esu2'
p994
(dp995
S'esu2'
p996
F0.044999999999999998
ssS'esv2'
p997
(dp998
S'esv2'
p999
F0.02
ssS'Es2'
p1000
(dp1001
S'Es2'
p1002
I200000
ssS'ka2'
p1003
(dp1004
S'ka2'
p1005
I-1
ssS'kb2'
p1006
(dp1007
S'kb2'
p1008
I-1
ssS'kc2'
p1009
(dp1010
S'kc2'
p1011
I-1
ssS'as2'
p1012
(dp1013
S'as2'
p1014
F0.24632431541209307
ssS'dm2'
p1015
(dp1016
S'dm2'
p1017
F12.0
ssS'psi2'
p1018
(dp1019
S'psi2'
p1020
I0
ssS'stahl3'
p1021
(dp1022
S'stahl3'
p1023
I1
ssS'zm3'
p1024
(dp1025
S'zm3'
p1026
I2
ssS'fsy3'
p1027
(dp1028
S'fsy3'
p1029
I320
ssS'fsu3'
p1030
(dp1031
S'fsu3'
p1032
I345
ssS'esu3'
p1033
(dp1034
S'esu3'
p1035
F0.044999999999999998
ssS'esv3'
p1036
(dp1037
S'esv3'
p1038
F0.02
ssS'Es3'
p1039
(dp1040
S'Es3'
p1041
I200000
ssS'ka3'
p1042
(dp1043
S'ka3'
p1044
I-1
ssS'kb3'
p1045
(dp1046
S'kb3'
p1047
I-1
ssS'kc3'
p1048
(dp1049
S'kc3'
p1050
I-1
ssS'as3'
p1051
(dp1052
S'as3'
p1053
F0.24632431541209307
ssS'dm3'
p1054
(dp1055
S'dm3'
p1056
F12.0
ssS'psi3'
p1057
(dp1058
S'psi3'
p1059
I0
ssS'stahl4'
p1060
(dp1061
S'stahl4'
p1062
I1
ssS'zm4'
p1063
(dp1064
S'zm4'
p1065
I2
ssS'fsy4'
p1066
(dp1067
S'fsy4'
p1068
I320
ssS'fsu4'
p1069
(dp1070
S'fsu4'
p1071
I345
ssS'esu4'
p1072
(dp1073
S'esu4'
p1074
F0.044999999999999998
ssS'esv4'
p1075
(dp1076
S'esv4'
p1077
F0.02
ssS'Es4'
p1078
(dp1079
S'Es4'
p1080
I200000
ssS'ka4'
p1081
(dp1082
S'ka4'
p1083
I-1
ssS'kb4'
p1084
(dp1085
S'kb4'
p1086
I-1
ssS'kc4'
p1087
(dp1088
S'kc4'
p1089
I-1
ssS'as4'
p1090
(dp1091
S'as4'
p1092
F1.0443347461272696
ssS'dm4'
p1093
(dp1094
S'dm4'
p1095
F24.708561817040803
ssS'psi4'
p1096
(dp1097
S'psi4'
p1098
I90
ssbsg575
g0
(g787
g2
Ntp1099
Rp1100
(dp1101
g15
I0
sg763
g791
sg765
g575
sg766
(lp1102
g768
ag793
ag794
ag795
ag796
ag797
ag798
ag799
ag800
ag801
ag802
ag803
ag804
ag805
ag806
ag807
ag808
ag809
ag810
ag811
ag812
ag813
ag814
ag815
ag816
ag817
ag818
ag819
ag820
ag821
ag822
ag823
ag824
ag825
ag826
ag827
ag828
ag829
ag830
ag831
ag832
ag833
ag834
ag835
ag836
ag837
ag838
ag839
ag840
ag841
ag842
ag843
ag844
ag845
ag846
ag847
ag848
ag849
ag850
ag851
ag852
ag853
ag854
ag855
ag856
ag857
ag858
ag859
ag860
ag861
ag862
ag863
ag864
ag865
ag866
ag867
ag868
ag869
asg870
(dp1103
g872
I200000
ssg873
(dp1104
g875
F0.10000000000000001
ssg876
(dp1105
g878
F90909.090909090897
ssg879
F2.5000000000000002e-06
sg880
(dp1106
g882
I-1
ssg883
(dp1107
g885
F2.5000000000000002e-06
ssg886
(dp1108
g888
I30
ssg889
(dp1109
g891
I30
ssg892
(dp1110
g894
I2
ssg895
(dp1111
g897
I37
ssg898
(dp1112
g900
I0
ssg901
(dp1113
g903
F-0.002
ssg904
(dp1114
g906
I10000
ssg907
(dp1115
g909
I2
ssg910
(dp1116
g912
I1
ssg913
(dp1117
g915
I0
ssg916
(dp1118
g918
I0
ssg919
(dp1119
g921
F0.67000000000000004
ssg922
(dp1120
g924
I1
ssg925
(dp1121
g927
I1
ssg928
(dp1122
g930
I2
ssg931
(dp1123
g933
I0
ssg934
(dp1124
g936
I45
ssg937
(dp1125
g939
I1
ssg940
(dp1126
g942
I500
ssg943
(dp1127
g945
I1
ssg946
(dp1128
g948
I2
ssg949
(dp1129
g951
I320
ssg952
(dp1130
g954
I345
ssg955
(dp1131
g957
F0.044999999999999998
ssg958
(dp1132
g960
F0.02
ssg961
(dp1133
g963
I200000
ssg964
(dp1134
g966
I-1
ssg967
(dp1135
g969
I-1
ssg970
(dp1136
g972
I-1
ssg973
(dp1137
g975
F0.30061444903939449
ssg976
(dp1138
g978
F11.229588832686158
ssg979
(dp1139
g981
I90
ssg982
(dp1140
g984
I1
ssg985
(dp1141
g987
I2
ssg988
(dp1142
g990
I320
ssg991
(dp1143
g993
I345
ssg994
(dp1144
g996
F0.044999999999999998
ssg997
(dp1145
g999
F0.02
ssg1000
(dp1146
g1002
I200000
ssg1003
(dp1147
g1005
I-1
ssg1006
(dp1148
g1008
I-1
ssg1009
(dp1149
g1011
I-1
ssg1012
(dp1150
g1014
F0.99954621317675751
ssg1015
(dp1151
g1017
F20.476718905019293
ssg1018
(dp1152
g1020
I0
ssg1021
(dp1153
g1023
I1
ssg1024
(dp1154
g1026
I2
ssg1027
(dp1155
g1029
I320
ssg1030
(dp1156
g1032
I345
ssg1033
(dp1157
g1035
F0.044999999999999998
ssg1036
(dp1158
g1038
F0.02
ssg1039
(dp1159
g1041
I200000
ssg1042
(dp1160
g1044
I-1
ssg1045
(dp1161
g1047
I-1
ssg1048
(dp1162
g1050
I-1
ssg1051
(dp1163
g1053
F0.343276942356255
ssg1054
(dp1164
g1056
F12.0
ssg1057
(dp1165
g1059
I0
ssg1060
(dp1166
g1062
I1
ssg1063
(dp1167
g1065
I2
ssg1066
(dp1168
g1068
I320
ssg1069
(dp1169
g1071
I345
ssg1072
(dp1170
g1074
F0.044999999999999998
ssg1075
(dp1171
g1077
F0.02
ssg1078
(dp1172
g1080
I200000
ssg1081
(dp1173
g1083
I-1
ssg1084
(dp1174
g1086
I-1
ssg1087
(dp1175
g1089
I-1
ssg1090
(dp1176
g1092
F0.50058713828912438
ssg1093
(dp1177
g1095
F14.491013897048914
ssg1096
(dp1178
g1098
I90
ssbssS'misc'
p1179
(dp1180
sS'name'
p1181
S'NLFE_CFB5'
p1182
sS'nodes'
p1183
(dp1184
I0
g0
(ccompas_fea.structure.node
Node
p1185
g2
Ntp1186
Rp1187
(dp1188
S'__name__'
p1189
S'Node'
p1190
sS'key'
p1191
I0
sS'x'
p1192
F0.0
sS'y'
p1193
F0.0
sS'z'
p1194
F0.0
sS'ex'
p1195
(lp1196
I1
aI0
aI0
asS'ey'
p1197
(lp1198
I0
aI1
aI0
asS'ez'
p1199
(lp1200
I0
aI0
aI1
asS'mass'
p1201
NsbsI1
g0
(g1185
g2
Ntp1202
Rp1203
(dp1204
g1189
g1190
sg1191
I1
sg1192
F1404.7404543951952
sg1193
F0.0
sg1194
F0.0
sg1195
g1196
sg1197
g1198
sg1199
g1200
sg1201
NsbsI2
g0
(g1185
g2
Ntp1205
Rp1206
(dp1207
g1189
g1190
sg1191
I2
sg1192
F0.0
sg1193
F869.53031898194922
sg1194
F0.0
sg1195
g1196
sg1197
g1198
sg1199
g1200
sg1201
NsbsI3
g0
(g1185
g2
Ntp1208
Rp1209
(dp1210
g1189
g1190
sg1191
I3
sg1192
F1404.740454395195
sg1193
F869.53031898194922
sg1194
F0.0
sg1195
g1196
sg1197
g1198
sg1199
g1200
sg1201
NsbsI4
g0
(g1185
g2
Ntp1211
Rp1212
(dp1213
g1189
g1190
sg1191
I4
sg1192
F0.0
sg1193
F1739.0606379638987
sg1194
F0.0
sg1195
g1196
sg1197
g1198
sg1199
g1200
sg1201
NsbsI5
g0
(g1185
g2
Ntp1214
Rp1215
(dp1216
g1189
g1190
sg1191
I5
sg1192
F1404.7404543951952
sg1193
F1739.0606379638987
sg1194
F0.0
sg1195
g1196
sg1197
g1198
sg1199
g1200
sg1201
NsbsI6
g0
(g1185
g2
Ntp1217
Rp1218
(dp1219
g1189
g1190
sg1191
I6
sg1192
F0.0
sg1193
F3530.8200831388249
sg1194
F0.0
sg1195
g1196
sg1197
g1198
sg1199
g1200
sg1201
NsbsI7
g0
(g1185
g2
Ntp1220
Rp1221
(dp1222
g1189
g1190
sg1191
I7
sg1192
F1404.7404543951952
sg1193
F3530.8200831388249
sg1194
F0.0
sg1195
g1196
sg1197
g1198
sg1199
g1200
sg1201
NsbsI8
g0
(g1185
g2
Ntp1223
Rp1224
(dp1225
g1189
g1190
sg1191
I8
sg1192
F0.0
sg1193
F4400.3504021207737
sg1194
F0.0
sg1195
g1196
sg1197
g1198
sg1199
g1200
sg1201
NsbsI9
g0
(g1185
g2
Ntp1226
Rp1227
(dp1228
g1189
g1190
sg1191
I9
sg1192
F1404.7404543951952
sg1193
F4400.3504021207737
sg1194
F0.0
sg1195
g1196
sg1197
g1198
sg1199
g1200
sg1201
NsbsI10
g0
(g1185
g2
Ntp1229
Rp1230
(dp1231
g1189
g1190
sg1191
I10
sg1192
F0.0
sg1193
F5269.8807211027233
sg1194
F0.0
sg1195
g1196
sg1197
g1198
sg1199
g1200
sg1201
NsbsI11
g0
(g1185
g2
Ntp1232
Rp1233
(dp1234
g1189
g1190
sg1191
I11
sg1192
F1404.7404543951952
sg1193
F5269.8807211027233
sg1194
F0.0
sg1195
g1196
sg1197
g1198
sg1199
g1200
sg1201
NsbsI12
g0
(g1185
g2
Ntp1235
Rp1236
(dp1237
g1189
g1190
sg1191
I12
sg1192
F2809.4809087903905
sg1193
F0.0
sg1194
F0.0
sg1195
g1196
sg1197
g1198
sg1199
g1200
sg1201
NsbsI13
g0
(g1185
g2
Ntp1238
Rp1239
(dp1240
g1189
g1190
sg1191
I13
sg1192
F2809.48090879039
sg1193
F869.53031898194922
sg1194
F0.0
sg1195
g1196
sg1197
g1198
sg1199
g1200
sg1201
NsbsI14
g0
(g1185
g2
Ntp1241
Rp1242
(dp1243
g1189
g1190
sg1191
I14
sg1192
F2809.4809087903905
sg1193
F1739.0606379638987
sg1194
F0.0
sg1195
g1196
sg1197
g1198
sg1199
g1200
sg1201
NsbsI15
g0
(g1185
g2
Ntp1244
Rp1245
(dp1246
g1189
g1190
sg1191
I15
sg1192
F2809.4809087903905
sg1193
F3530.8200831388249
sg1194
F0.0
sg1195
g1196
sg1197
g1198
sg1199
g1200
sg1201
NsbsI16
g0
(g1185
g2
Ntp1247
Rp1248
(dp1249
g1189
g1190
sg1191
I16
sg1192
F2809.4809087903905
sg1193
F4400.3504021207737
sg1194
F0.0
sg1195
g1196
sg1197
g1198
sg1199
g1200
sg1201
NsbsI17
g0
(g1185
g2
Ntp1250
Rp1251
(dp1252
g1189
g1190
sg1191
I17
sg1192
F2809.4809087903905
sg1193
F5269.8807211027233
sg1194
F0.0
sg1195
g1196
sg1197
g1198
sg1199
g1200
sg1201
NsbsI18
g0
(g1185
g2
Ntp1253
Rp1254
(dp1255
g1189
g1190
sg1191
I18
sg1192
F3533.1350822667032
sg1193
F0.0
sg1194
F0.0
sg1195
g1196
sg1197
g1198
sg1199
g1200
sg1201
NsbsI19
g0
(g1185
g2
Ntp1256
Rp1257
(dp1258
g1189
g1190
sg1191
I19
sg1192
F4256.7892557430159
sg1193
F0.0
sg1194
F0.0
sg1195
g1196
sg1197
g1198
sg1199
g1200
sg1201
NsbsI20
g0
(g1185
g2
Ntp1259
Rp1260
(dp1261
g1189
g1190
sg1191
I20
sg1192
F3533.1350822667027
sg1193
F869.53031898194922
sg1194
F0.0
sg1195
g1196
sg1197
g1198
sg1199
g1200
sg1201
NsbsI21
g0
(g1185
g2
Ntp1262
Rp1263
(dp1264
g1189
g1190
sg1191
I21
sg1192
F4256.789255743015
sg1193
F869.53031898194922
sg1194
F0.0
sg1195
g1196
sg1197
g1198
sg1199
g1200
sg1201
NsbsI22
g0
(g1185
g2
Ntp1265
Rp1266
(dp1267
g1189
g1190
sg1191
I22
sg1192
F3533.1350822667032
sg1193
F1739.0606379638987
sg1194
F0.0
sg1195
g1196
sg1197
g1198
sg1199
g1200
sg1201
NsbsI23
g0
(g1185
g2
Ntp1268
Rp1269
(dp1270
g1189
g1190
sg1191
I23
sg1192
F4256.7892557430159
sg1193
F1739.0606379638987
sg1194
F0.0
sg1195
g1196
sg1197
g1198
sg1199
g1200
sg1201
NsbsI24
g0
(g1185
g2
Ntp1271
Rp1272
(dp1273
g1189
g1190
sg1191
I24
sg1192
F3533.1350822667032
sg1193
F3530.8200831388249
sg1194
F0.0
sg1195
g1196
sg1197
g1198
sg1199
g1200
sg1201
NsbsI25
g0
(g1185
g2
Ntp1274
Rp1275
(dp1276
g1189
g1190
sg1191
I25
sg1192
F4256.7892557430159
sg1193
F3530.8200831388249
sg1194
F0.0
sg1195
g1196
sg1197
g1198
sg1199
g1200
sg1201
NsbsI26
g0
(g1185
g2
Ntp1277
Rp1278
(dp1279
g1189
g1190
sg1191
I26
sg1192
F3533.1350822667036
sg1193
F4400.3504021207737
sg1194
F0.0
sg1195
g1196
sg1197
g1198
sg1199
g1200
sg1201
NsbsI27
g0
(g1185
g2
Ntp1280
Rp1281
(dp1282
g1189
g1190
sg1191
I27
sg1192
F4256.7892557430159
sg1193
F4400.3504021207737
sg1194
F0.0
sg1195
g1196
sg1197
g1198
sg1199
g1200
sg1201
NsbsI28
g0
(g1185
g2
Ntp1283
Rp1284
(dp1285
g1189
g1190
sg1191
I28
sg1192
F3533.1350822667032
sg1193
F5269.8807211027233
sg1194
F0.0
sg1195
g1196
sg1197
g1198
sg1199
g1200
sg1201
NsbsI29
g0
(g1185
g2
Ntp1286
Rp1287
(dp1288
g1189
g1190
sg1191
I29
sg1192
F4256.7892557430159
sg1193
F5269.8807211027233
sg1194
F0.0
sg1195
g1196
sg1197
g1198
sg1199
g1200
sg1201
NsbsI30
g0
(g1185
g2
Ntp1289
Rp1290
(dp1291
g1189
g1190
sg1191
I30
sg1192
F0.0
sg1193
F2634.9403605513617
sg1194
F0.0
sg1195
g1196
sg1197
g1198
sg1199
g1200
sg1201
NsbsI31
g0
(g1185
g2
Ntp1292
Rp1293
(dp1294
g1189
g1190
sg1191
I31
sg1192
F1404.7404543951952
sg1193
F2634.9403605513617
sg1194
F0.0
sg1195
g1196
sg1197
g1198
sg1199
g1200
sg1201
NsbsI32
g0
(g1185
g2
Ntp1295
Rp1296
(dp1297
g1189
g1190
sg1191
I32
sg1192
F2809.4809087903905
sg1193
F2634.9403605513617
sg1194
F0.0
sg1195
g1196
sg1197
g1198
sg1199
g1200
sg1201
NsbsI33
g0
(g1185
g2
Ntp1298
Rp1299
(dp1300
g1189
g1190
sg1191
I33
sg1192
F3533.1350822667036
sg1193
F2634.9403605513617
sg1194
F0.0
sg1195
g1196
sg1197
g1198
sg1199
g1200
sg1201
NsbsI34
g0
(g1185
g2
Ntp1301
Rp1302
(dp1303
g1189
g1190
sg1191
I34
sg1192
F4256.7892557430159
sg1193
F2634.9403605513617
sg1194
F0.0
sg1195
g1196
sg1197
g1198
sg1199
g1200
sg1201
NsbsI35
g0
(g1185
g2
Ntp1304
Rp1305
(dp1306
g1189
g1190
sg1191
I35
sg1192
F0.0
sg1193
F0.0
sg1194
F-2289.2888471817514
sg1195
g1196
sg1197
g1198
sg1199
g1200
sg1201
NsbsI36
g0
(g1185
g2
Ntp1307
Rp1308
(dp1309
g1189
g1190
sg1191
I36
sg1192
F1404.7404543952
sg1193
F0.0
sg1194
F-2289.2888471817514
sg1195
g1196
sg1197
g1198
sg1199
g1200
sg1201
NsbsI37
g0
(g1185
g2
Ntp1310
Rp1311
(dp1312
g1189
g1190
sg1191
I37
sg1192
F0.0
sg1193
F0.0
sg1194
F-1533.2253149614089
sg1195
g1196
sg1197
g1198
sg1199
g1200
sg1201
NsbsI38
g0
(g1185
g2
Ntp1313
Rp1314
(dp1315
g1189
g1190
sg1191
I38
sg1192
F1404.7404543951998
sg1193
F0.0
sg1194
F-1533.2253149614089
sg1195
g1196
sg1197
g1198
sg1199
g1200
sg1201
NsbsI39
g0
(g1185
g2
Ntp1316
Rp1317
(dp1318
g1189
g1190
sg1191
I39
sg1192
F0.0
sg1193
F0.0
sg1194
F-777.16178274106687
sg1195
g1196
sg1197
g1198
sg1199
g1200
sg1201
NsbsI40
g0
(g1185
g2
Ntp1319
Rp1320
(dp1321
g1189
g1190
sg1191
I40
sg1192
F1404.7404543952
sg1193
F0.0
sg1194
F-777.16178274106687
sg1195
g1196
sg1197
g1198
sg1199
g1200
sg1201
NsbsI41
g0
(g1185
g2
Ntp1322
Rp1323
(dp1324
g1189
g1190
sg1191
I41
sg1192
F2809.48090879039
sg1193
F0.0
sg1194
F-2289.2888471817514
sg1195
g1196
sg1197
g1198
sg1199
g1200
sg1201
NsbsI42
g0
(g1185
g2
Ntp1325
Rp1326
(dp1327
g1189
g1190
sg1191
I42
sg1192
F2809.4809087903895
sg1193
F0.0
sg1194
F-1533.2253149614089
sg1195
g1196
sg1197
g1198
sg1199
g1200
sg1201
NsbsI43
g0
(g1185
g2
Ntp1328
Rp1329
(dp1330
g1189
g1190
sg1191
I43
sg1192
F2809.48090879039
sg1193
F0.0
sg1194
F-777.16178274106687
sg1195
g1196
sg1197
g1198
sg1199
g1200
sg1201
NsbsI44
g0
(g1185
g2
Ntp1331
Rp1332
(dp1333
g1189
g1190
sg1191
I44
sg1192
F3533.1350822667046
sg1193
F0.0
sg1194
F-2289.2888471817514
sg1195
g1196
sg1197
g1198
sg1199
g1200
sg1201
NsbsI45
g0
(g1185
g2
Ntp1334
Rp1335
(dp1336
g1189
g1190
sg1191
I45
sg1192
F4256.7892557430196
sg1193
F0.0
sg1194
F-2289.2888471817514
sg1195
g1196
sg1197
g1198
sg1199
g1200
sg1201
NsbsI46
g0
(g1185
g2
Ntp1337
Rp1338
(dp1339
g1189
g1190
sg1191
I46
sg1192
F3533.1350822667041
sg1193
F0.0
sg1194
F-1533.2253149614087
sg1195
g1196
sg1197
g1198
sg1199
g1200
sg1201
NsbsI47
g0
(g1185
g2
Ntp1340
Rp1341
(dp1342
g1189
g1190
sg1191
I47
sg1192
F4256.7892557430187
sg1193
F0.0
sg1194
F-1533.2253149614089
sg1195
g1196
sg1197
g1198
sg1199
g1200
sg1201
NsbsI48
g0
(g1185
g2
Ntp1343
Rp1344
(dp1345
g1189
g1190
sg1191
I48
sg1192
F3533.1350822667046
sg1193
F0.0
sg1194
F-777.16178274106687
sg1195
g1196
sg1197
g1198
sg1199
g1200
sg1201
NsbsI49
g0
(g1185
g2
Ntp1346
Rp1347
(dp1348
g1189
g1190
sg1191
I49
sg1192
F4256.7892557430196
sg1193
F0.0
sg1194
F-777.16178274106687
sg1195
g1196
sg1197
g1198
sg1199
g1200
sg1201
NsbsI50
g0
(g1185
g2
Ntp1349
Rp1350
(dp1351
g1189
g1190
sg1191
I50
sg1192
F0.0
sg1193
F0.0
sg1194
F-3847.2379438782145
sg1195
g1196
sg1197
g1198
sg1199
g1200
sg1201
NsbsI51
g0
(g1185
g2
Ntp1352
Rp1353
(dp1354
g1189
g1190
sg1191
I51
sg1192
F1404.7404543952
sg1193
F0.0
sg1194
F-3847.2379438782145
sg1195
g1196
sg1197
g1198
sg1199
g1200
sg1201
NsbsI52
g0
(g1185
g2
Ntp1355
Rp1356
(dp1357
g1189
g1190
sg1191
I52
sg1192
F0.0
sg1193
F0.0
sg1194
F-3068.2633955299825
sg1195
g1196
sg1197
g1198
sg1199
g1200
sg1201
NsbsI53
g0
(g1185
g2
Ntp1358
Rp1359
(dp1360
g1189
g1190
sg1191
I53
sg1192
F1404.7404543951998
sg1193
F0.0
sg1194
F-3068.2633955299825
sg1195
g1196
sg1197
g1198
sg1199
g1200
sg1201
NsbsI54
g0
(g1185
g2
Ntp1361
Rp1362
(dp1363
g1189
g1190
sg1191
I54
sg1192
F2809.48090879039
sg1193
F0.0
sg1194
F-3847.2379438782145
sg1195
g1196
sg1197
g1198
sg1199
g1200
sg1201
NsbsI55
g0
(g1185
g2
Ntp1364
Rp1365
(dp1366
g1189
g1190
sg1191
I55
sg1192
F2809.4809087903895
sg1193
F0.0
sg1194
F-3068.2633955299825
sg1195
g1196
sg1197
g1198
sg1199
g1200
sg1201
NsbsI56
g0
(g1185
g2
Ntp1367
Rp1368
(dp1369
g1189
g1190
sg1191
I56
sg1192
F3533.1350822667046
sg1193
F0.0
sg1194
F-3847.2379438782145
sg1195
g1196
sg1197
g1198
sg1199
g1200
sg1201
NsbsI57
g0
(g1185
g2
Ntp1370
Rp1371
(dp1372
g1189
g1190
sg1191
I57
sg1192
F4256.7892557430196
sg1193
F0.0
sg1194
F-3847.2379438782145
sg1195
g1196
sg1197
g1198
sg1199
g1200
sg1201
NsbsI58
g0
(g1185
g2
Ntp1373
Rp1374
(dp1375
g1189
g1190
sg1191
I58
sg1192
F3533.1350822667041
sg1193
F0.0
sg1194
F-3068.2633955299825
sg1195
g1196
sg1197
g1198
sg1199
g1200
sg1201
NsbsI59
g0
(g1185
g2
Ntp1376
Rp1377
(dp1378
g1189
g1190
sg1191
I59
sg1192
F4256.7892557430187
sg1193
F0.0
sg1194
F-3068.2633955299825
sg1195
g1196
sg1197
g1198
sg1199
g1200
sg1201
NsbsI60
g0
(g1185
g2
Ntp1379
Rp1380
(dp1381
g1189
g1190
sg1191
I60
sg1192
F0.0
sg1193
F0.0
sg1194
F-5359.3650083188986
sg1195
g1196
sg1197
g1198
sg1199
g1200
sg1201
NsbsI61
g0
(g1185
g2
Ntp1382
Rp1383
(dp1384
g1189
g1190
sg1191
I61
sg1192
F1404.7404543952
sg1193
F0.0
sg1194
F-5359.3650083188986
sg1195
g1196
sg1197
g1198
sg1199
g1200
sg1201
NsbsI62
g0
(g1185
g2
Ntp1385
Rp1386
(dp1387
g1189
g1190
sg1191
I62
sg1192
F0.0
sg1193
F0.0
sg1194
F-4603.301476098557
sg1195
g1196
sg1197
g1198
sg1199
g1200
sg1201
NsbsI63
g0
(g1185
g2
Ntp1388
Rp1389
(dp1390
g1189
g1190
sg1191
I63
sg1192
F1404.7404543952
sg1193
F0.0
sg1194
F-4603.301476098557
sg1195
g1196
sg1197
g1198
sg1199
g1200
sg1201
NsbsI64
g0
(g1185
g2
Ntp1391
Rp1392
(dp1393
g1189
g1190
sg1191
I64
sg1192
F2809.48090879039
sg1193
F0.0
sg1194
F-5359.3650083188986
sg1195
g1196
sg1197
g1198
sg1199
g1200
sg1201
NsbsI65
g0
(g1185
g2
Ntp1394
Rp1395
(dp1396
g1189
g1190
sg1191
I65
sg1192
F2809.48090879039
sg1193
F0.0
sg1194
F-4603.301476098557
sg1195
g1196
sg1197
g1198
sg1199
g1200
sg1201
NsbsI66
g0
(g1185
g2
Ntp1397
Rp1398
(dp1399
g1189
g1190
sg1191
I66
sg1192
F3533.1350822667046
sg1193
F0.0
sg1194
F-5359.3650083188986
sg1195
g1196
sg1197
g1198
sg1199
g1200
sg1201
NsbsI67
g0
(g1185
g2
Ntp1400
Rp1401
(dp1402
g1189
g1190
sg1191
I67
sg1192
F4256.7892557430196
sg1193
F0.0
sg1194
F-5359.3650083188986
sg1195
g1196
sg1197
g1198
sg1199
g1200
sg1201
NsbsI68
g0
(g1185
g2
Ntp1403
Rp1404
(dp1405
g1189
g1190
sg1191
I68
sg1192
F3533.1350822667046
sg1193
F0.0
sg1194
F-4603.301476098557
sg1195
g1196
sg1197
g1198
sg1199
g1200
sg1201
NsbsI69
g0
(g1185
g2
Ntp1406
Rp1407
(dp1408
g1189
g1190
sg1191
I69
sg1192
F4256.7892557430196
sg1193
F0.0
sg1194
F-4603.301476098557
sg1195
g1196
sg1197
g1198
sg1199
g1200
sg1201
NsbsI70
g0
(g1185
g2
Ntp1409
Rp1410
(dp1411
g1189
g1190
sg1191
I70
sg1192
F0.0
sg1193
F5269.8807211027233
sg1194
F-2289.2888471817514
sg1195
g1196
sg1197
g1198
sg1199
g1200
sg1201
NsbsI71
g0
(g1185
g2
Ntp1412
Rp1413
(dp1414
g1189
g1190
sg1191
I71
sg1192
F1404.7404543952
sg1193
F5269.8807211027233
sg1194
F-2289.2888471817514
sg1195
g1196
sg1197
g1198
sg1199
g1200
sg1201
NsbsI72
g0
(g1185
g2
Ntp1415
Rp1416
(dp1417
g1189
g1190
sg1191
I72
sg1192
F0.0
sg1193
F5269.8807211027233
sg1194
F-1533.2253149614089
sg1195
g1196
sg1197
g1198
sg1199
g1200
sg1201
NsbsI73
g0
(g1185
g2
Ntp1418
Rp1419
(dp1420
g1189
g1190
sg1191
I73
sg1192
F1404.7404543951998
sg1193
F5269.8807211027233
sg1194
F-1533.2253149614089
sg1195
g1196
sg1197
g1198
sg1199
g1200
sg1201
NsbsI74
g0
(g1185
g2
Ntp1421
Rp1422
(dp1423
g1189
g1190
sg1191
I74
sg1192
F0.0
sg1193
F5269.8807211027233
sg1194
F-777.16178274106687
sg1195
g1196
sg1197
g1198
sg1199
g1200
sg1201
NsbsI75
g0
(g1185
g2
Ntp1424
Rp1425
(dp1426
g1189
g1190
sg1191
I75
sg1192
F1404.7404543952
sg1193
F5269.8807211027233
sg1194
F-777.16178274106687
sg1195
g1196
sg1197
g1198
sg1199
g1200
sg1201
NsbsI76
g0
(g1185
g2
Ntp1427
Rp1428
(dp1429
g1189
g1190
sg1191
I76
sg1192
F2809.48090879039
sg1193
F5269.8807211027233
sg1194
F-2289.2888471817514
sg1195
g1196
sg1197
g1198
sg1199
g1200
sg1201
NsbsI77
g0
(g1185
g2
Ntp1430
Rp1431
(dp1432
g1189
g1190
sg1191
I77
sg1192
F2809.4809087903895
sg1193
F5269.8807211027233
sg1194
F-1533.2253149614089
sg1195
g1196
sg1197
g1198
sg1199
g1200
sg1201
NsbsI78
g0
(g1185
g2
Ntp1433
Rp1434
(dp1435
g1189
g1190
sg1191
I78
sg1192
F2809.48090879039
sg1193
F5269.8807211027233
sg1194
F-777.16178274106687
sg1195
g1196
sg1197
g1198
sg1199
g1200
sg1201
NsbsI79
g0
(g1185
g2
Ntp1436
Rp1437
(dp1438
g1189
g1190
sg1191
I79
sg1192
F3533.1350822667046
sg1193
F5269.8807211027233
sg1194
F-2289.2888471817514
sg1195
g1196
sg1197
g1198
sg1199
g1200
sg1201
NsbsI80
g0
(g1185
g2
Ntp1439
Rp1440
(dp1441
g1189
g1190
sg1191
I80
sg1192
F4256.7892557430196
sg1193
F5269.8807211027233
sg1194
F-2289.2888471817514
sg1195
g1196
sg1197
g1198
sg1199
g1200
sg1201
NsbsI81
g0
(g1185
g2
Ntp1442
Rp1443
(dp1444
g1189
g1190
sg1191
I81
sg1192
F3533.1350822667041
sg1193
F5269.8807211027233
sg1194
F-1533.2253149614087
sg1195
g1196
sg1197
g1198
sg1199
g1200
sg1201
NsbsI82
g0
(g1185
g2
Ntp1445
Rp1446
(dp1447
g1189
g1190
sg1191
I82
sg1192
F4256.7892557430187
sg1193
F5269.8807211027233
sg1194
F-1533.2253149614089
sg1195
g1196
sg1197
g1198
sg1199
g1200
sg1201
NsbsI83
g0
(g1185
g2
Ntp1448
Rp1449
(dp1450
g1189
g1190
sg1191
I83
sg1192
F3533.1350822667046
sg1193
F5269.8807211027233
sg1194
F-777.16178274106687
sg1195
g1196
sg1197
g1198
sg1199
g1200
sg1201
NsbsI84
g0
(g1185
g2
Ntp1451
Rp1452
(dp1453
g1189
g1190
sg1191
I84
sg1192
F4256.7892557430196
sg1193
F5269.8807211027233
sg1194
F-777.16178274106687
sg1195
g1196
sg1197
g1198
sg1199
g1200
sg1201
NsbsI85
g0
(g1185
g2
Ntp1454
Rp1455
(dp1456
g1189
g1190
sg1191
I85
sg1192
F0.0
sg1193
F5269.8807211027233
sg1194
F-3847.2379438782145
sg1195
g1196
sg1197
g1198
sg1199
g1200
sg1201
NsbsI86
g0
(g1185
g2
Ntp1457
Rp1458
(dp1459
g1189
g1190
sg1191
I86
sg1192
F1404.7404543952
sg1193
F5269.8807211027233
sg1194
F-3847.2379438782145
sg1195
g1196
sg1197
g1198
sg1199
g1200
sg1201
NsbsI87
g0
(g1185
g2
Ntp1460
Rp1461
(dp1462
g1189
g1190
sg1191
I87
sg1192
F0.0
sg1193
F5269.8807211027233
sg1194
F-3068.2633955299825
sg1195
g1196
sg1197
g1198
sg1199
g1200
sg1201
NsbsI88
g0
(g1185
g2
Ntp1463
Rp1464
(dp1465
g1189
g1190
sg1191
I88
sg1192
F1404.7404543951998
sg1193
F5269.8807211027233
sg1194
F-3068.2633955299825
sg1195
g1196
sg1197
g1198
sg1199
g1200
sg1201
NsbsI89
g0
(g1185
g2
Ntp1466
Rp1467
(dp1468
g1189
g1190
sg1191
I89
sg1192
F2809.48090879039
sg1193
F5269.8807211027233
sg1194
F-3847.2379438782145
sg1195
g1196
sg1197
g1198
sg1199
g1200
sg1201
NsbsI90
g0
(g1185
g2
Ntp1469
Rp1470
(dp1471
g1189
g1190
sg1191
I90
sg1192
F2809.4809087903895
sg1193
F5269.8807211027233
sg1194
F-3068.2633955299825
sg1195
g1196
sg1197
g1198
sg1199
g1200
sg1201
NsbsI91
g0
(g1185
g2
Ntp1472
Rp1473
(dp1474
g1189
g1190
sg1191
I91
sg1192
F3533.1350822667046
sg1193
F5269.8807211027233
sg1194
F-3847.2379438782145
sg1195
g1196
sg1197
g1198
sg1199
g1200
sg1201
NsbsI92
g0
(g1185
g2
Ntp1475
Rp1476
(dp1477
g1189
g1190
sg1191
I92
sg1192
F4256.7892557430196
sg1193
F5269.8807211027233
sg1194
F-3847.2379438782145
sg1195
g1196
sg1197
g1198
sg1199
g1200
sg1201
NsbsI93
g0
(g1185
g2
Ntp1478
Rp1479
(dp1480
g1189
g1190
sg1191
I93
sg1192
F3533.1350822667041
sg1193
F5269.8807211027233
sg1194
F-3068.2633955299825
sg1195
g1196
sg1197
g1198
sg1199
g1200
sg1201
NsbsI94
g0
(g1185
g2
Ntp1481
Rp1482
(dp1483
g1189
g1190
sg1191
I94
sg1192
F4256.7892557430187
sg1193
F5269.8807211027233
sg1194
F-3068.2633955299825
sg1195
g1196
sg1197
g1198
sg1199
g1200
sg1201
NsbsI95
g0
(g1185
g2
Ntp1484
Rp1485
(dp1486
g1189
g1190
sg1191
I95
sg1192
F0.0
sg1193
F5269.8807211027233
sg1194
F-5359.3650083188986
sg1195
g1196
sg1197
g1198
sg1199
g1200
sg1201
NsbsI96
g0
(g1185
g2
Ntp1487
Rp1488
(dp1489
g1189
g1190
sg1191
I96
sg1192
F1404.7404543952
sg1193
F5269.8807211027233
sg1194
F-5359.3650083188986
sg1195
g1196
sg1197
g1198
sg1199
g1200
sg1201
NsbsI97
g0
(g1185
g2
Ntp1490
Rp1491
(dp1492
g1189
g1190
sg1191
I97
sg1192
F0.0
sg1193
F5269.8807211027233
sg1194
F-4603.301476098557
sg1195
g1196
sg1197
g1198
sg1199
g1200
sg1201
NsbsI98
g0
(g1185
g2
Ntp1493
Rp1494
(dp1495
g1189
g1190
sg1191
I98
sg1192
F1404.7404543952
sg1193
F5269.8807211027233
sg1194
F-4603.301476098557
sg1195
g1196
sg1197
g1198
sg1199
g1200
sg1201
NsbsI99
g0
(g1185
g2
Ntp1496
Rp1497
(dp1498
g1189
g1190
sg1191
I99
sg1192
F2809.48090879039
sg1193
F5269.8807211027233
sg1194
F-5359.3650083188986
sg1195
g1196
sg1197
g1198
sg1199
g1200
sg1201
NsbsI100
g0
(g1185
g2
Ntp1499
Rp1500
(dp1501
g1189
g1190
sg1191
I100
sg1192
F2809.48090879039
sg1193
F5269.8807211027233
sg1194
F-4603.301476098557
sg1195
g1196
sg1197
g1198
sg1199
g1200
sg1201
NsbsI101
g0
(g1185
g2
Ntp1502
Rp1503
(dp1504
g1189
g1190
sg1191
I101
sg1192
F3533.1350822667046
sg1193
F5269.8807211027233
sg1194
F-5359.3650083188986
sg1195
g1196
sg1197
g1198
sg1199
g1200
sg1201
NsbsI102
g0
(g1185
g2
Ntp1505
Rp1506
(dp1507
g1189
g1190
sg1191
I102
sg1192
F4256.7892557430196
sg1193
F5269.8807211027233
sg1194
F-5359.3650083188986
sg1195
g1196
sg1197
g1198
sg1199
g1200
sg1201
NsbsI103
g0
(g1185
g2
Ntp1508
Rp1509
(dp1510
g1189
g1190
sg1191
I103
sg1192
F3533.1350822667046
sg1193
F5269.8807211027233
sg1194
F-4603.301476098557
sg1195
g1196
sg1197
g1198
sg1199
g1200
sg1201
NsbsI104
g0
(g1185
g2
Ntp1511
Rp1512
(dp1513
g1189
g1190
sg1191
I104
sg1192
F4256.7892557430196
sg1193
F5269.8807211027233
sg1194
F-4603.301476098557
sg1195
g1196
sg1197
g1198
sg1199
g1200
sg1201
NsbssS'node_index'
p1514
(dp1515
S'2809.481,0.000,-4603.301'
p1516
I65
sS'2809.481,0.000,-3068.263'
p1517
I55
sS'1404.740,2634.940,0.000'
p1518
I31
sS'2809.481,4400.350,0.000'
p1519
I16
sS'4256.789,1739.061,0.000'
p1520
I23
sS'1404.740,5269.881,-3847.238'
p1521
I86
sS'4256.789,0.000,0.000'
p1522
I19
sS'0.000,5269.881,-5359.365'
p1523
I95
sS'0.000,3530.820,0.000'
p1524
I6
sS'1404.740,5269.881,-2289.289'
p1525
I71
sS'4256.789,0.000,-3847.238'
p1526
I57
sS'0.000,5269.881,-3068.263'
p1527
I87
sS'2809.481,5269.881,-5359.365'
p1528
I99
sS'2809.481,5269.881,-3068.263'
p1529
I90
sS'4256.789,3530.820,0.000'
p1530
I25
sS'0.000,0.000,0.000'
p1531
I0
sS'4256.789,5269.881,-1533.225'
p1532
I82
sS'3533.135,869.530,0.000'
p1533
I20
sS'0.000,0.000,-3847.238'
p1534
I50
sS'2809.481,3530.820,0.000'
p1535
I15
sS'4256.789,2634.940,0.000'
p1536
I34
sS'3533.135,5269.881,0.000'
p1537
I28
sS'2809.481,5269.881,-777.162'
p1538
I78
sS'1404.740,0.000,0.000'
p1539
I1
sS'0.000,5269.881,-1533.225'
p1540
I72
sS'2809.481,2634.940,0.000'
p1541
I32
sS'2809.481,1739.061,0.000'
p1542
I14
sS'1404.740,5269.881,-4603.301'
p1543
I98
sS'4256.789,0.000,-1533.225'
p1544
I47
sS'0.000,0.000,-3068.263'
p1545
I52
sS'3533.135,5269.881,-1533.225'
p1546
I81
sS'2809.481,5269.881,-4603.301'
p1547
I100
sS'3533.135,0.000,-3847.238'
p1548
I56
sS'1404.740,0.000,-5359.365'
p1549
I61
sS'4256.789,0.000,-3068.263'
p1550
I59
sS'3533.135,4400.350,0.000'
p1551
I26
sS'1404.740,3530.820,0.000'
p1552
I7
sS'3533.135,0.000,-2289.289'
p1553
I44
sS'4256.789,0.000,-5359.365'
p1554
I67
sS'1404.740,1739.061,0.000'
p1555
I5
sS'2809.481,5269.881,-3847.238'
p1556
I89
sS'1404.740,869.530,0.000'
p1557
I3
sS'1404.740,5269.881,-777.162'
p1558
I75
sS'4256.789,0.000,-2289.289'
p1559
I45
sS'1404.740,0.000,-3847.238'
p1560
I51
sS'3533.135,2634.940,0.000'
p1561
I33
sS'0.000,1739.061,0.000'
p1562
I4
sS'1404.740,4400.350,0.000'
p1563
I9
sS'3533.135,5269.881,-4603.301'
p1564
I103
sS'0.000,4400.350,0.000'
p1565
I8
sS'0.000,0.000,-5359.365'
p1566
I60
sS'4256.789,5269.881,-5359.365'
p1567
I102
sS'4256.789,0.000,-4603.301'
p1568
I69
sS'0.000,5269.881,-3847.238'
p1569
I85
sS'4256.789,869.530,0.000'
p1570
I21
sS'3533.135,5269.881,-5359.365'
p1571
I101
sS'2809.481,0.000,-2289.289'
p1572
I41
sS'1404.740,5269.881,-1533.225'
p1573
I73
sS'1404.740,0.000,-4603.301'
p1574
I63
sS'3533.135,0.000,-5359.365'
p1575
I66
sS'2809.481,869.530,0.000'
p1576
I13
sS'3533.135,0.000,-777.162'
p1577
I48
sS'0.000,5269.881,-2289.289'
p1578
I70
sS'1404.740,5269.881,-5359.365'
p1579
I96
sS'0.000,869.530,0.000'
p1580
I2
sS'4256.789,5269.881,-3068.263'
p1581
I94
sS'4256.789,5269.881,-3847.238'
p1582
I92
sS'4256.789,5269.881,-4603.301'
p1583
I104
sS'3533.135,0.000,-4603.301'
p1584
I68
sS'0.000,0.000,-1533.225'
p1585
I37
sS'2809.481,0.000,-1533.225'
p1586
I42
sS'1404.740,0.000,-2289.289'
p1587
I36
sS'3533.135,5269.881,-777.162'
p1588
I83
sS'2809.481,0.000,-5359.365'
p1589
I64
sS'3533.135,3530.820,0.000'
p1590
I24
sS'2809.481,5269.881,-2289.289'
p1591
I76
sS'3533.135,0.000,0.000'
p1592
I18
sS'0.000,5269.881,-777.162'
p1593
I74
sS'3533.135,5269.881,-2289.289'
p1594
I79
sS'3533.135,0.000,-3068.263'
p1595
I58
sS'3533.135,5269.881,-3068.263'
p1596
I93
sS'0.000,0.000,-4603.301'
p1597
I62
sS'0.000,0.000,-2289.289'
p1598
I35
sS'1404.740,0.000,-777.162'
p1599
I40
sS'0.000,5269.881,-4603.301'
p1600
I97
sS'1404.740,5269.881,-3068.263'
p1601
I88
sS'4256.789,5269.881,-777.162'
p1602
I84
sS'2809.481,5269.881,-1533.225'
p1603
I77
sS'4256.789,5269.881,-2289.289'
p1604
I80
sS'1404.740,0.000,-3068.263'
p1605
I53
sS'1404.740,0.000,-1533.225'
p1606
I38
sS'2809.481,5269.881,0.000'
p1607
I17
sS'2809.481,0.000,-3847.238'
p1608
I54
sS'2809.481,0.000,0.000'
p1609
I12
sS'0.000,2634.940,0.000'
p1610
I30
sS'4256.789,5269.881,0.000'
p1611
I29
sS'3533.135,5269.881,-3847.238'
p1612
I91
sS'3533.135,1739.061,0.000'
p1613
I22
sS'0.000,5269.881,0.000'
p1614
I10
sS'2809.481,0.000,-777.162'
p1615
I43
sS'4256.789,0.000,-777.162'
p1616
I49
sS'0.000,0.000,-777.162'
p1617
I39
sS'1404.740,5269.881,0.000'
p1618
I11
sS'4256.789,4400.350,0.000'
p1619
I27
sS'3533.135,0.000,-1533.225'
p1620
I46
ssS'path'
p1621
S'C:\\Temp\\'
p1622
sS'results'
p1623
(dp1624
S'step_2'
p1625
S'ERROR'
p1626
sS'step_3'
p1627
g1626
sS'step_4'
p1628
g1626
sS'step_1'
p1629
g1626
ssS'sections'
p1630
(dp1631
g562
g0
(ccompas_fea.structure.section
ShellSection
p1632
g2
Ntp1633
Rp1634
(dp1635
g15
I1
sS'__name__'
p1636
S'ShellSection'
p1637
sS'name'
p1638
g562
sS'geometry'
p1639
(dp1640
S't'
p1641
F472.18572562586326
ssS'loc_coords_OR'
p1642
(dp1643
S'ORxyz'
p1644
(lp1645
I0
aI0
aF-4582.2032255800004
assS'loc_coords_XA'
p1646
(dp1647
S'XAxyz'
p1648
(lp1649
I1
aI0
aF-4582.2032255800004
assS'loc_coords_YA'
p1650
(dp1651
S'YAxyz'
p1652
(lp1653
F4582.2032255800004
aF-4582.2032255800004
aF-4581.2032255800004
assS'loc_coords_EV_XA'
p1654
(dp1655
S'EV_XA'
p1656
(lp1657
F1.0
aF0.0
aF0.0
assS'loc_coords_EV_YA'
p1658
(dp1659
S'EV_YA'
p1660
(lp1661
F0.70710677276724121
aF-0.70710677276724121
aF0.00015431589084042381
assS'loc_coords_EV_ZA'
p1662
(dp1663
S'EV_ZA'
p1664
(lp1665
F0.0
aF-1.0
aF0.0
assS'nr_layers'
p1666
(dp1667
S'nn'
p1668
F40.0
ssS'offset'
p1669
(dp1670
S'mode'
p1671
S'mid'
p1672
ssbsg576
g0
(g1632
g2
Ntp1673
Rp1674
(dp1675
g15
I0
sg1636
g1637
sg1638
g576
sg1639
(dp1676
g1641
F777.16178274106687
ssg1642
(dp1677
g1644
(lp1678
I0
aI0
aI0
assg1646
(dp1679
g1648
(lp1680
I1
aI0
aI0
assg1650
(dp1681
g1652
(lp1682
F0.0
aF1.0
aF0.0
assg1654
(dp1683
g1656
(lp1684
F1.0
aF0.0
aF0.0
assg1658
(dp1685
g1660
(lp1686
F0.0
aF1.0
aF0.0
assg1662
(dp1687
g1664
(lp1688
F0.0
aF0.0
aF1.0
assg1666
(dp1689
g1668
F43.0
ssg1669
(dp1690
g1671
S'top'
p1691
ssbsg553
g0
(g1632
g2
Ntp1692
Rp1693
(dp1694
g15
I2
sg1636
g1637
sg1638
g553
sg1639
(dp1695
g1641
F472.18572562586326
ssg1642
(dp1696
g1644
(lp1697
I0
aF5269.8807211000003
aF-4582.2032255800004
assg1646
(dp1698
g1648
(lp1699
I1
aF5269.8807211000003
aF-4582.2032255800004
assg1650
(dp1700
g1652
(lp1701
F-4582.2032255791128
aF687.67749551999987
aF-9853.0839466800007
assg1654
(dp1702
g1656
(lp1703
F1.0
aF0.0
aF0.0
assg1658
(dp1704
g1660
(lp1705
F-0.54855896246502645
aF-0.54855896246513269
aF-0.63100406448649038
assg1662
(dp1706
g1664
(lp1707
F0.0
aF1.0
aF0.0
assg1666
(dp1708
g1668
F40.0
ssg1669
(dp1709
g1671
S'mid'
p1710
ssbsS'sec_mpc'
p1711
g0
(ccompas_fea.structure.section
MPCSection
p1712
g2
Ntp1713
Rp1714
(dp1715
g15
I3
sg1636
S'MPCSection'
p1716
sg1638
g1711
sg1639
NsS'nr_layers'
p1717
NsbssS'sets'
p1718
(dp1719
g671
g0
(ccompas_fea.structure.set
Set
p1720
g2
Ntp1721
Rp1722
(dp1723
S'__name__'
p1724
S'Set'
p1725
sS'name'
p1726
g671
sS'type'
p1727
S'element'
p1728
sS'selection'
p1729
(lp1730
I34
aI35
asS'index'
p1731
I13
sbsS'elset_mpcs'
p1732
g0
(g1720
g2
Ntp1733
Rp1734
(dp1735
g1724
g1725
sg1726
g1732
sg1727
g1728
sg1729
(lp1736
I80
aI81
aI72
aI73
aI74
aI75
aI76
aI77
aI78
aI79
asg1731
I27
sbsg555
g0
(g1720
g2
Ntp1737
Rp1738
(dp1739
g1724
g1725
sg1726
g555
sg1727
g1728
sg1729
(lp1740
I56
aI57
asg1731
I21
sbsg601
g0
(g1720
g2
Ntp1741
Rp1742
(dp1743
g1724
g1725
sg1726
g601
sg1727
g1728
sg1729
(lp1744
I4
aI5
asg1731
I2
sbsg567
g0
(g1720
g2
Ntp1745
Rp1746
(dp1747
g1724
g1725
sg1726
g567
sg1727
g1728
sg1729
(lp1748
I42
aI43
asg1731
I16
sbsg663
g0
(g1720
g2
Ntp1749
Rp1750
(dp1751
g1724
g1725
sg1726
g663
sg1727
g1728
sg1729
(lp1752
I48
aI49
asg1731
I18
sbsg641
g0
(g1720
g2
Ntp1753
Rp1754
(dp1755
g1724
g1725
sg1726
g641
sg1727
g1728
sg1729
(lp1756
I2
aI3
asg1731
I1
sbsg577
g0
(g1720
g2
Ntp1757
Rp1758
(dp1759
g1724
g1725
sg1726
g577
sg1727
g1728
sg1729
(lp1760
I0
aI1
asg1731
I0
sbsg629
g0
(g1720
g2
Ntp1761
Rp1762
(dp1763
g1724
g1725
sg1726
g629
sg1727
g1728
sg1729
(lp1764
I16
aI17
asg1731
I6
sbsg667
g0
(g1720
g2
Ntp1765
Rp1766
(dp1767
g1724
g1725
sg1726
g667
sg1727
g1728
sg1729
(lp1768
I12
aI13
aI14
aI15
asg1731
I5
sbsg593
g0
(g1720
g2
Ntp1769
Rp1770
(dp1771
g1724
g1725
sg1726
g593
sg1727
g1728
sg1729
(lp1772
I8
aI9
aI10
aI11
asg1731
I4
sbsg637
g0
(g1720
g2
Ntp1773
Rp1774
(dp1775
g1724
g1725
sg1726
g637
sg1727
g1728
sg1729
(lp1776
I6
aI7
asg1731
I3
sbsg585
g0
(g1720
g2
Ntp1777
Rp1778
(dp1779
g1724
g1725
sg1726
g585
sg1727
g1728
sg1729
(lp1780
I20
aI21
aI22
aI23
asg1731
I8
sbsg621
g0
(g1720
g2
Ntp1781
Rp1782
(dp1783
g1724
g1725
sg1726
g621
sg1727
g1728
sg1729
(lp1784
I18
aI19
asg1731
I7
sbsg597
g0
(g1720
g2
Ntp1785
Rp1786
(dp1787
g1724
g1725
sg1726
g597
sg1727
g1728
sg1729
(lp1788
I28
aI29
aI30
aI31
asg1731
I11
sbsg659
g0
(g1720
g2
Ntp1789
Rp1790
(dp1791
g1724
g1725
sg1726
g659
sg1727
g1728
sg1729
(lp1792
I68
aI69
aI70
aI71
asg1731
I26
sbsg609
g0
(g1720
g2
Ntp1793
Rp1794
(dp1795
g1724
g1725
sg1726
g609
sg1727
g1728
sg1729
(lp1796
I60
aI61
aI62
aI63
asg1731
I23
sbsg589
g0
(g1720
g2
Ntp1797
Rp1798
(dp1799
g1724
g1725
sg1726
g589
sg1727
g1728
sg1729
(lp1800
I36
aI37
aI38
aI39
asg1731
I14
sbsg605
g0
(g1720
g2
Ntp1801
Rp1802
(dp1803
g1724
g1725
sg1726
g605
sg1727
g1728
sg1729
(lp1804
I52
aI53
aI54
aI55
asg1731
I20
sbsg625
g0
(g1720
g2
Ntp1805
Rp1806
(dp1807
g1724
g1725
sg1726
g625
sg1727
g1728
sg1729
(lp1808
I24
aI25
asg1731
I9
sbsg617
g0
(g1720
g2
Ntp1809
Rp1810
(dp1811
g1724
g1725
sg1726
g617
sg1727
g1728
sg1729
(lp1812
I44
aI45
aI46
aI47
asg1731
I17
sbsS'nset_support_wall2'
p1813
g0
(g1720
g2
Ntp1814
Rp1815
(dp1816
g1724
g1725
sg1726
g1813
sg1727
S'node'
p1817
sg1729
(lp1818
I102
aI101
aI99
aI96
aI95
asg1731
I29
sbsg613
g0
(g1720
g2
Ntp1819
Rp1820
(dp1821
g1724
g1725
sg1726
g613
sg1727
g1728
sg1729
(lp1822
I32
aI33
asg1731
I12
sbsg633
g0
(g1720
g2
Ntp1823
Rp1824
(dp1825
g1724
g1725
sg1726
g633
sg1727
g1728
sg1729
(lp1826
I66
aI67
asg1731
I25
sbsg581
g0
(g1720
g2
Ntp1827
Rp1828
(dp1829
g1724
g1725
sg1726
g581
sg1727
g1728
sg1729
(lp1830
I58
aI59
asg1731
I22
sbsS'nset_support_wall1'
p1831
g0
(g1720
g2
Ntp1832
Rp1833
(dp1834
g1724
g1725
sg1726
g1831
sg1727
g1817
sg1729
(lp1835
I67
aI66
aI64
aI61
aI60
asg1731
I28
sbsg651
g0
(g1720
g2
Ntp1836
Rp1837
(dp1838
g1724
g1725
sg1726
g651
sg1727
g1728
sg1729
(lp1839
I40
aI41
asg1731
I15
sbsg571
g0
(g1720
g2
Ntp1840
Rp1841
(dp1842
g1724
g1725
sg1726
g571
sg1727
g1728
sg1729
(lp1843
I50
aI51
asg1731
I19
sbsg563
g0
(g1720
g2
Ntp1844
Rp1845
(dp1846
g1724
g1725
sg1726
g563
sg1727
g1728
sg1729
(lp1847
I26
aI27
asg1731
I10
sbsg655
g0
(g1720
g2
Ntp1848
Rp1849
(dp1850
g1724
g1725
sg1726
g655
sg1727
g1728
sg1729
(lp1851
I64
aI65
asg1731
I24
sbssS'steps'
p1852
(dp1853
g1625
g0
(ccompas_fea.structure.step
GeneralStep
p1854
g2
Ntp1855
Rp1856
(dp1857
g15
I1
sS'__name__'
p1858
S'GeneralStep'
p1859
sS'name'
p1860
g1625
sS'attr_list'
p1861
(lp1862
S'name'
p1863
aS'increments'
p1864
aS'iterations'
p1865
aS'factor'
p1866
aS'nlgeom'
p1867
aS'nlmat'
p1868
aS'displacements'
p1869
aS'loads'
p1870
aS'type'
p1871
aS'tolerance'
p1872
aS'modify'
p1873
asS'increments'
p1874
I1
sS'iterations'
p1875
I100
sS'tolerance'
p1876
F0.01
sS'factor'
p1877
F1.0
sS'nlgeom'
p1878
I00
sS'nlmat'
p1879
I01
sS'displacements'
p1880
(lp1881
sS'loads'
p1882
(lp1883
S'load_gravity'
p1884
asS'modify'
p1885
I01
sS'type'
p1886
S'static'
p1887
sbsg1627
g0
(g1854
g2
Ntp1888
Rp1889
(dp1890
g15
I2
sg1858
g1859
sg1860
g1627
sg1861
(lp1891
g1863
ag1864
ag1865
ag1866
ag1867
ag1868
ag1869
ag1870
ag1871
ag1872
ag1873
asg1874
I1
sg1875
I100
sg1876
F0.01
sg1877
F1.0
sg1878
I00
sg1879
I01
sg1880
(lp1892
sg1882
(lp1893
S'earthPressure_gravel'
p1894
aS'earthPressure_backfill'
p1895
ag702
asg1885
I01
sg1886
g1887
sbsg1628
g0
(g1854
g2
Ntp1896
Rp1897
(dp1898
g15
I3
sg1858
g1859
sg1860
g1628
sg1861
(lp1899
g1863
ag1864
ag1865
ag1866
ag1867
ag1868
ag1869
ag1870
ag1871
ag1872
ag1873
asg1874
I1
sg1875
I100
sg1876
F0.01
sg1877
F1.0
sg1878
I00
sg1879
I01
sg1880
(lp1900
sg1882
(lp1901
g734
ag726
ag676
asg1885
I01
sg1886
g1887
sbsg1629
g0
(g1854
g2
Ntp1902
Rp1903
(dp1904
g15
I0
sg1858
g1859
sg1860
g1629
sg1861
(lp1905
g1863
ag1864
ag1865
ag1866
ag1867
ag1868
ag1869
ag1870
ag1871
ag1872
ag1873
asg1874
I1
sg1875
I100
sg1876
F0.01
sg1877
F1.0
sg1878
I00
sg1879
I01
sg1880
(lp1906
S'nset_pinned_set_disp_1'
p1907
aS'nset_pinned_set_disp_2'
p1908
asg1882
(lp1909
sg1885
I01
sg1886
g1887
sbssS'loc_coor'
p1910
(dp1911
sS'steps_order'
p1912
(lp1913
S'step_1'
p1914
aS'step_2'
p1915
aS'step_3'
p1916
aS'step_4'
p1917
asS'tol'
p1918
S'3'
p1919
sS'virtual_nodes'
p1920
(dp1921
sS'virtual_node_index'
p1922
(dp1923
sS'virtual_elements'
p1924
(dp1925
sS'virtual_element_index'
p1926
(dp1927
sb.