ccopy_reg
_reconstructor
p0
(ccompas_fea.structure.structure
Structure
p1
c__builtin__
object
p2
Ntp3
Rp4
(dp5
S'constraints'
p6
(dp7
sS'displacements'
p8
(dp9
S'nset_pinned_set_disp_1'
p10
g0
(ccompas_fea.structure.displacement
GeneralDisplacement
p11
g2
Ntp12
Rp13
(dp14
S'index'
p15
I0
sS'__name__'
p16
S'GeneralDisplacement'
p17
sS'name'
p18
g10
sS'nodes'
p19
S'nset_support_wall1'
p20
sS'components'
p21
(dp22
S'z'
p23
I0
sS'xx'
p24
I0
sS'zz'
p25
I0
sS'yy'
p26
I0
sS'y'
p27
I0
sS'x'
p28
I0
ssS'axes'
p29
S'global'
p30
sbsS'nset_pinned_set_disp_2'
p31
g0
(g11
g2
Ntp32
Rp33
(dp34
g15
I1
sg16
g17
sg18
g31
sg19
S'nset_support_wall2'
p35
sg21
(dp36
g23
I0
sg24
I0
sg25
I0
sg26
I0
sg27
I0
sg28
I0
ssg29
g30
sbssS'elements'
p37
(dp38
I0
g0
(ccompas_fea.structure.element
ShellElement
p39
g2
Ntp40
Rp41
(dp42
S'mass'
p43
NsS'__name__'
p44
S'ShellElement'
p45
sS'nodes'
p46
(lp47
I0
aI1
aI3
aI2
asS'number'
p48
I0
sS'thermal'
p49
I00
sS'axes'
p50
(dp51
S'ey'
p52
NsS'ez'
p53
NsS'ex'
p54
NssS'element_property'
p55
S'elset_plate_1_element_prop'
p56
sbsI1
g0
(g39
g2
Ntp57
Rp58
(dp59
g43
Nsg44
g45
sg46
(lp60
I2
aI3
aI5
aI4
asg48
I1
sg49
I00
sg50
g51
sg55
g56
sbsI2
g0
(g39
g2
Ntp61
Rp62
(dp63
g43
Nsg44
g45
sg46
(lp64
I4
aI5
aI7
aI6
asg48
I2
sg49
I00
sg50
g51
sg55
g56
sbsI3
g0
(g39
g2
Ntp65
Rp66
(dp67
g43
Nsg44
g45
sg46
(lp68
I6
aI7
aI9
aI8
asg48
I3
sg49
I00
sg50
g51
sg55
g56
sbsI4
g0
(g39
g2
Ntp69
Rp70
(dp71
g43
Nsg44
g45
sg46
(lp72
I10
aI11
aI13
aI12
asg48
I4
sg49
I00
sg50
(dp73
g52
Nsg53
Nsg54
Nssg55
S'elset_plate_2_element_prop'
p74
sbsI5
g0
(g39
g2
Ntp75
Rp76
(dp77
g43
Nsg44
g45
sg46
(lp78
I12
aI13
aI15
aI14
asg48
I5
sg49
I00
sg50
g73
sg55
g74
sbsI6
g0
(g39
g2
Ntp79
Rp80
(dp81
g43
Nsg44
g45
sg46
(lp82
I14
aI15
aI17
aI16
asg48
I6
sg49
I00
sg50
g73
sg55
g74
sbsI7
g0
(g39
g2
Ntp83
Rp84
(dp85
g43
Nsg44
g45
sg46
(lp86
I16
aI17
aI19
aI18
asg48
I7
sg49
I00
sg50
g73
sg55
g74
sbsI8
g0
(g39
g2
Ntp87
Rp88
(dp89
g43
Nsg44
g45
sg46
(lp90
I1
aI20
aI21
aI3
asg48
I8
sg49
I00
sg50
(dp91
g52
Nsg53
Nsg54
Nssg55
S'elset_plate_3_element_prop'
p92
sbsI9
g0
(g39
g2
Ntp93
Rp94
(dp95
g43
Nsg44
g45
sg46
(lp96
I3
aI21
aI22
aI5
asg48
I9
sg49
I00
sg50
g91
sg55
g92
sbsI10
g0
(g39
g2
Ntp97
Rp98
(dp99
g43
Nsg44
g45
sg46
(lp100
I5
aI22
aI23
aI7
asg48
I10
sg49
I00
sg50
g91
sg55
g92
sbsI11
g0
(g39
g2
Ntp101
Rp102
(dp103
g43
Nsg44
g45
sg46
(lp104
I7
aI23
aI24
aI9
asg48
I11
sg49
I00
sg50
g91
sg55
g92
sbsI12
g0
(g39
g2
Ntp105
Rp106
(dp107
g43
Nsg44
g45
sg46
(lp108
I11
aI25
aI26
aI13
asg48
I12
sg49
I00
sg50
(dp109
g52
Nsg53
Nsg54
Nssg55
S'elset_plate_4_element_prop'
p110
sbsI13
g0
(g39
g2
Ntp111
Rp112
(dp113
g43
Nsg44
g45
sg46
(lp114
I13
aI26
aI27
aI15
asg48
I13
sg49
I00
sg50
g109
sg55
g110
sbsI14
g0
(g39
g2
Ntp115
Rp116
(dp117
g43
Nsg44
g45
sg46
(lp118
I15
aI27
aI28
aI17
asg48
I14
sg49
I00
sg50
g109
sg55
g110
sbsI15
g0
(g39
g2
Ntp119
Rp120
(dp121
g43
Nsg44
g45
sg46
(lp122
I17
aI28
aI29
aI19
asg48
I15
sg49
I00
sg50
g109
sg55
g110
sbsI16
g0
(g39
g2
Ntp123
Rp124
(dp125
g43
Nsg44
g45
sg46
(lp126
I20
aI30
aI31
aI21
asg48
I16
sg49
I00
sg50
(dp127
g52
Nsg53
Nsg54
Nssg55
S'elset_plate_5_element_prop'
p128
sbsI17
g0
(g39
g2
Ntp129
Rp130
(dp131
g43
Nsg44
g45
sg46
(lp132
I21
aI31
aI32
aI22
asg48
I17
sg49
I00
sg50
g127
sg55
g128
sbsI18
g0
(g39
g2
Ntp133
Rp134
(dp135
g43
Nsg44
g45
sg46
(lp136
I22
aI32
aI33
aI23
asg48
I18
sg49
I00
sg50
g127
sg55
g128
sbsI19
g0
(g39
g2
Ntp137
Rp138
(dp139
g43
Nsg44
g45
sg46
(lp140
I23
aI33
aI34
aI24
asg48
I19
sg49
I00
sg50
g127
sg55
g128
sbsI20
g0
(g39
g2
Ntp141
Rp142
(dp143
g43
Nsg44
g45
sg46
(lp144
I25
aI35
aI36
aI26
asg48
I20
sg49
I00
sg50
(dp145
g52
Nsg53
Nsg54
Nssg55
S'elset_plate_6_element_prop'
p146
sbsI21
g0
(g39
g2
Ntp147
Rp148
(dp149
g43
Nsg44
g45
sg46
(lp150
I26
aI36
aI37
aI27
asg48
I21
sg49
I00
sg50
g145
sg55
g146
sbsI22
g0
(g39
g2
Ntp151
Rp152
(dp153
g43
Nsg44
g45
sg46
(lp154
I27
aI37
aI38
aI28
asg48
I22
sg49
I00
sg50
g145
sg55
g146
sbsI23
g0
(g39
g2
Ntp155
Rp156
(dp157
g43
Nsg44
g45
sg46
(lp158
I28
aI38
aI39
aI29
asg48
I23
sg49
I00
sg50
g145
sg55
g146
sbsI24
g0
(g39
g2
Ntp159
Rp160
(dp161
g43
Nsg44
g45
sg46
(lp162
I8
aI9
aI41
aI40
asg48
I24
sg49
I00
sg50
(dp163
g52
Nsg53
Nsg54
Nssg55
S'elset_plate_7_element_prop'
p164
sbsI25
g0
(g39
g2
Ntp165
Rp166
(dp167
g43
Nsg44
g45
sg46
(lp168
I40
aI41
aI43
aI42
asg48
I25
sg49
I00
sg50
g163
sg55
g164
sbsI26
g0
(g39
g2
Ntp169
Rp170
(dp171
g43
Nsg44
g45
sg46
(lp172
I42
aI43
aI45
aI44
asg48
I26
sg49
I00
sg50
g163
sg55
g164
sbsI27
g0
(g39
g2
Ntp173
Rp174
(dp175
g43
Nsg44
g45
sg46
(lp176
I44
aI45
aI47
aI46
asg48
I27
sg49
I00
sg50
g163
sg55
g164
sbsI28
g0
(g39
g2
Ntp177
Rp178
(dp179
g43
Nsg44
g45
sg46
(lp180
I46
aI47
aI11
aI10
asg48
I28
sg49
I00
sg50
g163
sg55
g164
sbsI29
g0
(g39
g2
Ntp181
Rp182
(dp183
g43
Nsg44
g45
sg46
(lp184
I9
aI24
aI48
aI41
asg48
I29
sg49
I00
sg50
(dp185
g52
Nsg53
Nsg54
Nssg55
S'elset_plate_8_element_prop'
p186
sbsI30
g0
(g39
g2
Ntp187
Rp188
(dp189
g43
Nsg44
g45
sg46
(lp190
I41
aI48
aI49
aI43
asg48
I30
sg49
I00
sg50
g185
sg55
g186
sbsI31
g0
(g39
g2
Ntp191
Rp192
(dp193
g43
Nsg44
g45
sg46
(lp194
I43
aI49
aI50
aI45
asg48
I31
sg49
I00
sg50
g185
sg55
g186
sbsI32
g0
(g39
g2
Ntp195
Rp196
(dp197
g43
Nsg44
g45
sg46
(lp198
I45
aI50
aI51
aI47
asg48
I32
sg49
I00
sg50
g185
sg55
g186
sbsI33
g0
(g39
g2
Ntp199
Rp200
(dp201
g43
Nsg44
g45
sg46
(lp202
I47
aI51
aI25
aI11
asg48
I33
sg49
I00
sg50
g185
sg55
g186
sbsI34
g0
(g39
g2
Ntp203
Rp204
(dp205
g43
Nsg44
g45
sg46
(lp206
I24
aI34
aI52
aI48
asg48
I34
sg49
I00
sg50
(dp207
g52
Nsg53
Nsg54
Nssg55
S'elset_plate_9_element_prop'
p208
sbsI35
g0
(g39
g2
Ntp209
Rp210
(dp211
g43
Nsg44
g45
sg46
(lp212
I48
aI52
aI53
aI49
asg48
I35
sg49
I00
sg50
g207
sg55
g208
sbsI36
g0
(g39
g2
Ntp213
Rp214
(dp215
g43
Nsg44
g45
sg46
(lp216
I49
aI53
aI54
aI50
asg48
I36
sg49
I00
sg50
g207
sg55
g208
sbsI37
g0
(g39
g2
Ntp217
Rp218
(dp219
g43
Nsg44
g45
sg46
(lp220
I50
aI54
aI55
aI51
asg48
I37
sg49
I00
sg50
g207
sg55
g208
sbsI38
g0
(g39
g2
Ntp221
Rp222
(dp223
g43
Nsg44
g45
sg46
(lp224
I51
aI55
aI35
aI25
asg48
I38
sg49
I00
sg50
g207
sg55
g208
sbsI39
g0
(g39
g2
Ntp225
Rp226
(dp227
g43
Nsg44
g45
sg46
(lp228
I56
aI57
aI59
aI58
asg48
I39
sg49
I00
sg50
(dp229
g52
Nsg53
Nsg54
Nssg55
S'elset_wall_1_1_element_prop'
p230
sbsI40
g0
(g39
g2
Ntp231
Rp232
(dp233
g43
Nsg44
g45
sg46
(lp234
I57
aI60
aI61
aI59
asg48
I40
sg49
I00
sg50
(dp235
g52
Nsg53
Nsg54
Nssg55
S'elset_wall_1_2_element_prop'
p236
sbsI41
g0
(g39
g2
Ntp237
Rp238
(dp239
g43
Nsg44
g45
sg46
(lp240
I60
aI62
aI63
aI61
asg48
I41
sg49
I00
sg50
(dp241
g52
Nsg53
Nsg54
Nssg55
S'elset_wall_1_3_element_prop'
p242
sbsI42
g0
(g39
g2
Ntp243
Rp244
(dp245
g43
Nsg44
g45
sg46
(lp246
I64
aI65
aI57
aI56
asg48
I42
sg49
I00
sg50
(dp247
g52
Nsg53
Nsg54
Nssg55
S'elset_wall_1_4_element_prop'
p248
sbsI43
g0
(g39
g2
Ntp249
Rp250
(dp251
g43
Nsg44
g45
sg46
(lp252
I65
aI66
aI60
aI57
asg48
I43
sg49
I00
sg50
(dp253
g52
Nsg53
Nsg54
Nssg55
S'elset_wall_1_5_element_prop'
p254
sbsI44
g0
(g39
g2
Ntp255
Rp256
(dp257
g43
Nsg44
g45
sg46
(lp258
I66
aI67
aI62
aI60
asg48
I44
sg49
I00
sg50
(dp259
g52
Nsg53
Nsg54
Nssg55
S'elset_wall_1_6_element_prop'
p260
sbsI45
g0
(g39
g2
Ntp261
Rp262
(dp263
g43
Nsg44
g45
sg46
(lp264
I68
aI69
aI65
aI64
asg48
I45
sg49
I00
sg50
(dp265
g52
Nsg53
Nsg54
Nssg55
S'elset_wall_1_7_element_prop'
p266
sbsI46
g0
(g39
g2
Ntp267
Rp268
(dp269
g43
Nsg44
g45
sg46
(lp270
I69
aI70
aI66
aI65
asg48
I46
sg49
I00
sg50
(dp271
g52
Nsg53
Nsg54
Nssg55
S'elset_wall_1_8_element_prop'
p272
sbsI47
g0
(g39
g2
Ntp273
Rp274
(dp275
g43
Nsg44
g45
sg46
(lp276
I70
aI71
aI67
aI66
asg48
I47
sg49
I00
sg50
(dp277
g52
Nsg53
Nsg54
Nssg55
S'elset_wall_1_9_element_prop'
p278
sbsI48
g0
(g39
g2
Ntp279
Rp280
(dp281
g43
Nsg44
g45
sg46
(lp282
I72
aI74
aI75
aI73
asg48
I48
sg49
I00
sg50
(dp283
g52
Nsg53
Nsg54
Nssg55
S'elset_wall_2_1_element_prop'
p284
sbsI49
g0
(g39
g2
Ntp285
Rp286
(dp287
g43
Nsg44
g45
sg46
(lp288
I73
aI75
aI77
aI76
asg48
I49
sg49
I00
sg50
(dp289
g52
Nsg53
Nsg54
Nssg55
S'elset_wall_2_2_element_prop'
p290
sbsI50
g0
(g39
g2
Ntp291
Rp292
(dp293
g43
Nsg44
g45
sg46
(lp294
I76
aI77
aI79
aI78
asg48
I50
sg49
I00
sg50
(dp295
g52
Nsg53
Nsg54
Nssg55
S'elset_wall_2_3_element_prop'
p296
sbsI51
g0
(g39
g2
Ntp297
Rp298
(dp299
g43
Nsg44
g45
sg46
(lp300
I80
aI72
aI73
aI81
asg48
I51
sg49
I00
sg50
(dp301
g52
Nsg53
Nsg54
Nssg55
S'elset_wall_2_4_element_prop'
p302
sbsI52
g0
(g39
g2
Ntp303
Rp304
(dp305
g43
Nsg44
g45
sg46
(lp306
I81
aI73
aI76
aI82
asg48
I52
sg49
I00
sg50
(dp307
g52
Nsg53
Nsg54
Nssg55
S'elset_wall_2_5_element_prop'
p308
sbsI53
g0
(g39
g2
Ntp309
Rp310
(dp311
g43
Nsg44
g45
sg46
(lp312
I82
aI76
aI78
aI83
asg48
I53
sg49
I00
sg50
(dp313
g52
Nsg53
Nsg54
Nssg55
S'elset_wall_2_6_element_prop'
p314
sbsI54
g0
(g39
g2
Ntp315
Rp316
(dp317
g43
Nsg44
g45
sg46
(lp318
I84
aI80
aI81
aI85
asg48
I54
sg49
I00
sg50
(dp319
g52
Nsg53
Nsg54
Nssg55
S'elset_wall_2_7_element_prop'
p320
sbsI55
g0
(g39
g2
Ntp321
Rp322
(dp323
g43
Nsg44
g45
sg46
(lp324
I85
aI81
aI82
aI86
asg48
I55
sg49
I00
sg50
(dp325
g52
Nsg53
Nsg54
Nssg55
S'elset_wall_2_8_element_prop'
p326
sbsI56
g0
(g39
g2
Ntp327
Rp328
(dp329
g43
Nsg44
g45
sg46
(lp330
I86
aI82
aI83
aI87
asg48
I56
sg49
I00
sg50
(dp331
g52
Nsg53
Nsg54
Nssg55
S'elset_wall_2_9_element_prop'
p332
sbsI57
g0
(ccompas_fea.structure.element
MPCElement
p333
g2
Ntp334
Rp335
(dp336
g43
Nsg44
S'MPCElement'
p337
sg46
(lp338
I79
aI39
asg48
I57
sg49
I00
sg50
(dp339
g52
Nsg53
(lp340
F4.0927261579781771e-12
aF0.0
aF443.32183209376979
asg54
Nssg55
S'elset_mpc_element_prop'
p341
sbsI58
g0
(g333
g2
Ntp342
Rp343
(dp344
g43
Nsg44
g337
sg46
(lp345
I77
aI29
asg48
I58
sg49
I00
sg50
(dp346
g52
Nsg53
(lp347
F-3.1832314562052488e-12
aF0.0
aF443.32183209376979
asg54
Nssg55
g341
sbsI59
g0
(g333
g2
Ntp348
Rp349
(dp350
g43
Nsg44
g337
sg46
(lp351
I75
aI19
asg48
I59
sg49
I00
sg50
(dp352
g52
Nsg53
(lp353
F-1.5916157281026244e-12
aF0.0
aF443.32183209376979
asg54
Nssg55
g341
sbsI60
g0
(g333
g2
Ntp354
Rp355
(dp356
g43
Nsg44
g337
sg46
(lp357
I74
aI18
asg48
I60
sg49
I00
sg50
(dp358
g52
Nsg53
(lp359
F0.0
aF0.0
aF443.32183209376979
asg54
Nssg55
g341
sbsI61
g0
(g333
g2
Ntp360
Rp361
(dp362
g43
Nsg44
g337
sg46
(lp363
I63
aI30
asg48
I61
sg49
I00
sg50
(dp364
g52
Nsg53
(lp365
F4.0927261579781771e-12
aF0.0
aF443.32183209376979
asg54
Nssg55
g341
sbsI62
g0
(g333
g2
Ntp366
Rp367
(dp368
g43
Nsg44
g337
sg46
(lp369
I61
aI20
asg48
I62
sg49
I00
sg50
(dp370
g52
Nsg53
(lp371
F-3.1832314562052488e-12
aF0.0
aF443.32183209376979
asg54
Nssg55
g341
sbsI63
g0
(g333
g2
Ntp372
Rp373
(dp374
g43
Nsg44
g337
sg46
(lp375
I59
aI1
asg48
I63
sg49
I00
sg50
(dp376
g52
Nsg53
(lp377
F-1.5916157281026244e-12
aF0.0
aF443.32183209376979
asg54
Nssg55
g341
sbsI64
g0
(g333
g2
Ntp378
Rp379
(dp380
g43
Nsg44
g337
sg46
(lp381
I58
aI0
asg48
I64
sg49
I00
sg50
(dp382
g52
Nsg53
(lp383
F0.0
aF0.0
aF443.32183209376979
asg54
Nssg55
g341
sbssS'element_index'
p384
(dp385
S'592.885,8024.964,0.000'
p386
I26
sS'592.885,16049.928,-2536.182'
p387
I54
sS'1778.654,3310.298,0.000'
p388
I10
sS'1778.654,0.000,-856.881'
p389
I40
sS'1778.654,14063.749,0.000'
p390
I14
sS'592.885,662.060,0.000'
p391
I0
sS'2982.389,3310.298,0.000'
p392
I18
sS'2982.389,4634.417,0.000'
p393
I19
sS'1778.654,6933.569,0.000'
p394
I30
sS'1778.654,9116.359,0.000'
p395
I32
sS'2982.389,15387.868,0.000'
p396
I23
sS'2982.389,0.000,-1696.532'
p397
I44
sS'1778.654,16049.928,-1696.532'
p398
I52
sS'3593.240,16049.928,-221.661'
p399
I57
sS'592.885,11415.511,0.000'
p400
I4
sS'2982.389,8024.964,0.000'
p401
I36
sS'1778.654,4634.417,0.000'
p402
I11
sS'592.885,16049.928,-1696.532'
p403
I51
sS'2982.389,0.000,-2536.182'
p404
I47
sS'1778.654,662.060,0.000'
p405
I8
sS'2982.389,16049.928,-856.881'
p406
I50
sS'2982.389,1986.179,0.000'
p407
I17
sS'1778.654,0.000,-2536.182'
p408
I46
sS'1185.769,16049.928,-221.661'
p409
I59
sS'592.885,4634.417,0.000'
p410
I3
sS'592.885,1986.179,0.000'
p411
I1
sS'1185.769,0.000,-221.661'
p412
I63
sS'592.885,15387.868,0.000'
p413
I7
sS'592.885,9116.359,0.000'
p414
I27
sS'592.885,3310.298,0.000'
p415
I2
sS'1778.654,8024.964,0.000'
p416
I31
sS'2982.389,16049.928,-2536.182'
p417
I56
sS'3593.240,0.000,-221.661'
p418
I61
sS'2982.389,12739.630,0.000'
p419
I21
sS'2982.389,6933.569,0.000'
p420
I35
sS'2982.389,0.000,-856.881'
p421
I41
sS'1778.654,1986.179,0.000'
p422
I9
sS'2982.389,11415.511,0.000'
p423
I20
sS'2982.389,662.060,0.000'
p424
I16
sS'592.885,5842.174,0.000'
p425
I24
sS'592.885,0.000,-856.881'
p426
I39
sS'592.885,16049.928,-856.881'
p427
I48
sS'1778.654,16049.928,-856.881'
p428
I49
sS'592.885,0.000,-1696.532'
p429
I42
sS'1778.654,0.000,-1696.532'
p430
I43
sS'1778.654,16049.928,-2536.182'
p431
I55
sS'1778.654,11415.511,0.000'
p432
I12
sS'1778.654,15387.868,0.000'
p433
I15
sS'592.885,10207.754,0.000'
p434
I28
sS'0.000,0.000,-221.661'
p435
I64
sS'2982.389,5842.174,0.000'
p436
I34
sS'592.885,0.000,-2536.182'
p437
I45
sS'1778.654,12739.630,0.000'
p438
I13
sS'2982.389,16049.928,-1696.532'
p439
I53
sS'592.885,12739.630,0.000'
p440
I5
sS'2371.538,0.000,-221.661'
p441
I62
sS'2982.389,14063.749,0.000'
p442
I22
sS'2371.538,16049.928,-221.661'
p443
I58
sS'2982.389,10207.754,0.000'
p444
I38
sS'592.885,6933.569,0.000'
p445
I25
sS'592.885,14063.749,0.000'
p446
I6
sS'0.000,16049.928,-221.661'
p447
I60
sS'1778.654,10207.754,0.000'
p448
I33
sS'1778.654,5842.174,0.000'
p449
I29
sS'2982.389,9116.359,0.000'
p450
I37
ssS'element_properties'
p451
(dp452
g302
g0
(ccompas_fea.structure.element_properties
ElementProperties
p453
g2
Ntp454
Rp455
(dp456
g15
I21
sS'__name__'
p457
S'ElementProperties'
p458
sS'name'
p459
g302
sS'material'
p460
S'wall_element_mat'
p461
sS'section'
p462
S'wall2_element_sec'
p463
sS'elset'
p464
S'elset_wall_2_4'
p465
sS'elements'
p466
NsS'rebar'
p467
(dp468
sbsg236
g0
(g453
g2
Ntp469
Rp470
(dp471
g15
I10
sg457
g458
sg459
g236
sg460
g461
sg462
S'wall1_element_sec'
p472
sg464
S'elset_wall_1_2'
p473
sg466
Nsg467
g468
sbsg272
g0
(g453
g2
Ntp474
Rp475
(dp476
g15
I16
sg457
g458
sg459
g272
sg460
g461
sg462
g472
sg464
S'elset_wall_1_8'
p477
sg466
Nsg467
g468
sbsg290
g0
(g453
g2
Ntp478
Rp479
(dp480
g15
I19
sg457
g458
sg459
g290
sg460
g461
sg462
g463
sg464
S'elset_wall_2_2'
p481
sg466
Nsg467
g468
sbsg56
g0
(g453
g2
Ntp482
Rp483
(dp484
g15
I0
sg457
g458
sg459
g56
sg460
S'plate_element_mat'
p485
sg462
S'plate_element_sec'
p486
sg464
S'elset_plate_1'
p487
sg466
Nsg467
g468
sbsg308
g0
(g453
g2
Ntp488
Rp489
(dp490
g15
I22
sg457
g458
sg459
g308
sg460
g461
sg462
g463
sg464
S'elset_wall_2_5'
p491
sg466
Nsg467
g468
sbsg208
g0
(g453
g2
Ntp492
Rp493
(dp494
g15
I8
sg457
g458
sg459
g208
sg460
g485
sg462
g486
sg464
S'elset_plate_9'
p495
sg466
Nsg467
g468
sbsg260
g0
(g453
g2
Ntp496
Rp497
(dp498
g15
I14
sg457
g458
sg459
g260
sg460
g461
sg462
g472
sg464
S'elset_wall_1_6'
p499
sg466
Nsg467
g468
sbsg128
g0
(g453
g2
Ntp500
Rp501
(dp502
g15
I4
sg457
g458
sg459
g128
sg460
g485
sg462
g486
sg464
S'elset_plate_5'
p503
sg466
Nsg467
g468
sbsg242
g0
(g453
g2
Ntp504
Rp505
(dp506
g15
I11
sg457
g458
sg459
g242
sg460
g461
sg462
g472
sg464
S'elset_wall_1_3'
p507
sg466
Nsg467
g468
sbsg92
g0
(g453
g2
Ntp508
Rp509
(dp510
g15
I2
sg457
g458
sg459
g92
sg460
g485
sg462
g486
sg464
S'elset_plate_3'
p511
sg466
Nsg467
g468
sbsg296
g0
(g453
g2
Ntp512
Rp513
(dp514
g15
I20
sg457
g458
sg459
g296
sg460
g461
sg462
g463
sg464
S'elset_wall_2_3'
p515
sg466
Nsg467
g468
sbsg314
g0
(g453
g2
Ntp516
Rp517
(dp518
g15
I23
sg457
g458
sg459
g314
sg460
g461
sg462
g463
sg464
S'elset_wall_2_6'
p519
sg466
Nsg467
g468
sbsg248
g0
(g453
g2
Ntp520
Rp521
(dp522
g15
I12
sg457
g458
sg459
g248
sg460
g461
sg462
g472
sg464
S'elset_wall_1_4'
p523
sg466
Nsg467
g468
sbsg278
g0
(g453
g2
Ntp524
Rp525
(dp526
g15
I17
sg457
g458
sg459
g278
sg460
g461
sg462
g472
sg464
S'elset_wall_1_9'
p527
sg466
Nsg467
g468
sbsg186
g0
(g453
g2
Ntp528
Rp529
(dp530
g15
I7
sg457
g458
sg459
g186
sg460
g485
sg462
g486
sg464
S'elset_plate_8'
p531
sg466
Nsg467
g468
sbsg230
g0
(g453
g2
Ntp532
Rp533
(dp534
g15
I9
sg457
g458
sg459
g230
sg460
g461
sg462
g472
sg464
S'elset_wall_1_1'
p535
sg466
Nsg467
g468
sbsg164
g0
(g453
g2
Ntp536
Rp537
(dp538
g15
I6
sg457
g458
sg459
g164
sg460
g485
sg462
g486
sg464
S'elset_plate_7'
p539
sg466
Nsg467
g468
sbsg326
g0
(g453
g2
Ntp540
Rp541
(dp542
g15
I25
sg457
g458
sg459
g326
sg460
g461
sg462
g463
sg464
S'elset_wall_2_8'
p543
sg466
Nsg467
g468
sbsg110
g0
(g453
g2
Ntp544
Rp545
(dp546
g15
I3
sg457
g458
sg459
g110
sg460
g485
sg462
g486
sg464
S'elset_plate_4'
p547
sg466
Nsg467
g468
sbsg74
g0
(g453
g2
Ntp548
Rp549
(dp550
g15
I1
sg457
g458
sg459
g74
sg460
g485
sg462
g486
sg464
S'elset_plate_2'
p551
sg466
Nsg467
g468
sbsg341
g0
(g453
g2
Ntp552
Rp553
(dp554
g15
I27
sg457
g458
sg459
g341
sg460
S'elset_mpc_element_mat'
p555
sg462
S'sec_mpc'
p556
sg464
S'elset_mpcs'
p557
sg466
Nsg467
g468
sbsg266
g0
(g453
g2
Ntp558
Rp559
(dp560
g15
I15
sg457
g458
sg459
g266
sg460
g461
sg462
g472
sg464
S'elset_wall_1_7'
p561
sg466
Nsg467
g468
sbsg320
g0
(g453
g2
Ntp562
Rp563
(dp564
g15
I24
sg457
g458
sg459
g320
sg460
g461
sg462
g463
sg464
S'elset_wall_2_7'
p565
sg466
Nsg467
g468
sbsg332
g0
(g453
g2
Ntp566
Rp567
(dp568
g15
I26
sg457
g458
sg459
g332
sg460
g461
sg462
g463
sg464
S'elset_wall_2_9'
p569
sg466
Nsg467
g468
sbsg284
g0
(g453
g2
Ntp570
Rp571
(dp572
g15
I18
sg457
g458
sg459
g284
sg460
g461
sg462
g463
sg464
S'elset_wall_2_1'
p573
sg466
Nsg467
g468
sbsg146
g0
(g453
g2
Ntp574
Rp575
(dp576
g15
I5
sg457
g458
sg459
g146
sg460
g485
sg462
g486
sg464
S'elset_plate_6'
p577
sg466
Nsg467
g468
sbsg254
g0
(g453
g2
Ntp578
Rp579
(dp580
g15
I13
sg457
g458
sg459
g254
sg460
g461
sg462
g472
sg464
S'elset_wall_1_5'
p581
sg466
Nsg467
g468
sbssS'interactions'
p582
(dp583
sS'loads'
p584
(dp585
S'Gleis1_BAHNLASTEN_Lasteinzugsflache_Lastblock_-3'
p586
g0
(ccompas_fea.structure.load
AreaLoad
p587
g2
Ntp588
Rp589
(dp590
g15
I8
sS'__name__'
p591
S'AreaLoad'
p592
sS'name'
p593
g586
sS'axes'
p594
S'global'
p595
sS'components'
p596
(dp597
g23
F0.0987387552910651
sg27
I0
sg28
I0
ssS'nodes'
p598
(lp599
sS'elements'
p600
(lp601
I1
aI9
asS'attr_list'
p602
(lp603
S'name'
p604
aS'axes'
p605
aS'components'
p606
aS'nodes'
p607
aS'elements'
p608
asbsS'earthPressure_liveLoad'
p609
g0
(g587
g2
Ntp610
Rp611
(dp612
g15
I9
sg591
g592
sg593
g609
sg594
S'local'
p613
sg596
(dp614
g23
F0.037699999999999997
sg27
I0
sg28
I0
ssg598
g599
sg600
(lp615
I40
aI41
aI43
aI44
aI46
aI47
asg602
(lp616
g604
ag605
ag606
ag607
ag608
asbsS'Gleis1_BAHNLASTEN_Lasteinzugsflache_Lastblock_-2'
p617
g0
(g587
g2
Ntp618
Rp619
(dp620
g15
I7
sg591
g592
sg593
g617
sg594
g595
sg596
(dp621
g23
F0.0987387552910651
sg27
I0
sg28
I0
ssg598
g599
sg600
(lp622
I2
aI10
aI18
asg602
(lp623
g604
ag605
ag606
ag607
ag608
asbsS'Gleis1_EIGENGEWICHTE_SCHIENE_Lasteinzugsflache'
p624
g0
(g587
g2
Ntp625
Rp626
(dp627
g15
I3
sg591
g592
sg593
g624
sg594
g595
sg596
(dp628
g23
F0.0025484112226199355
sg27
I0
sg28
I0
ssg598
g599
sg600
(lp629
I1
aI2
aI3
aI4
aI9
aI10
aI11
aI12
aI18
aI19
aI20
aI21
aI30
aI31
aI32
aI35
aI36
aI37
aI38
aI39
asg602
(lp630
g604
ag605
ag606
ag607
ag608
asbsS'earthPressure_backfill'
p631
g0
(g587
g2
Ntp632
Rp633
(dp634
g15
I2
sg591
g592
sg593
g631
sg594
g613
sg596
(dp635
g23
F0.039320266249272262
sg27
I0
sg28
I0
ssg598
g599
sg600
(lp636
g535
ag473
ag507
ag523
ag581
ag499
ag561
ag477
ag527
ag573
ag481
ag515
ag465
ag491
ag519
ag565
ag543
ag569
asg602
(lp637
g604
ag605
ag606
ag607
ag608
asbsS'Gleis1_BAHNLASTEN_Lasteinzugsflache_Lastblock_2'
p638
g0
(g587
g2
Ntp639
Rp640
(dp641
g15
I5
sg591
g592
sg593
g638
sg594
g595
sg596
(dp642
g23
F0.0987387552910651
sg27
I0
sg28
I0
ssg598
g599
sg600
(lp643
I21
asg602
(lp644
g604
ag605
ag606
ag607
ag608
asbsS'earthPressure_gravel'
p645
g0
(g587
g2
Ntp646
Rp647
(dp648
g15
I1
sg591
g592
sg593
g645
sg594
g595
sg596
(dp649
g23
F0.013500000000000002
sg27
I0
sg28
I0
ssg598
g599
sg600
(lp650
g487
ag551
ag511
ag547
ag503
ag577
ag539
ag531
ag495
asg602
(lp651
g604
ag605
ag606
ag607
ag608
asbsS'Gleis1_BAHNLASTEN_Lasteinzugsflache_Lastblock_-1'
p652
g0
(g587
g2
Ntp653
Rp654
(dp655
g15
I6
sg591
g592
sg593
g652
sg594
g595
sg596
(dp656
g23
F0.0987387552910651
sg27
I0
sg28
I0
ssg598
g599
sg600
(lp657
I30
aI31
aI35
aI36
asg602
(lp658
g604
ag605
ag606
ag607
ag608
asbsS'Gleis1_BAHNLASTEN_Lasteinzugsflache_Lastblock_1'
p659
g0
(g587
g2
Ntp660
Rp661
(dp662
g15
I4
sg591
g592
sg593
g659
sg594
g595
sg596
(dp663
g23
F0.0987387552910651
sg27
I0
sg28
I0
ssg598
g599
sg600
(lp664
I32
aI37
asg602
(lp665
g604
ag605
ag606
ag607
ag608
asbsS'load_gravity'
p666
g0
(ccompas_fea.structure.load
GravityLoad
p667
g2
Ntp668
Rp669
(dp670
g15
I0
sg591
S'GravityLoad'
p671
sg593
g666
sg594
g595
sg596
(dp672
g23
F1.3500000000000001
sg27
F0.0
sg28
F0.0
ssg598
g599
sg600
(lp673
g487
ag551
ag511
ag547
ag503
ag577
ag539
ag531
ag495
ag535
ag473
ag507
ag523
ag581
ag499
ag561
ag477
ag527
ag573
ag481
ag515
ag465
ag491
ag519
ag565
ag543
ag569
asg602
(lp674
g604
ag605
ag606
ag607
ag608
aS'g'
p675
asS'g'
p676
F-9.8100000000000005
sbssS'materials'
p677
(dp678
g555
g0
(ccompas_fea.structure.material
MPCStiff
p679
g2
Ntp680
Rp681
(dp682
g15
I2
sS'__name__'
p683
S'MPCStiff'
p684
sS'name'
p685
g555
sS'attr_list'
p686
(lp687
g604
aS'E'
p688
aS'v'
p689
aS'G'
p690
aS'p'
p691
aS'tension'
p692
aS'compression'
p693
asS'E'
p694
(dp695
g688
L10000000000000L
ssS'v'
p696
(dp697
g689
F0.29999999999999999
ssS'G'
p698
(dp699
g690
F3846153846153.8462
ssS'p'
p700
F0.10000000000000001
sS'tension'
p701
I01
sS'compression'
p702
I01
sbsg461
g0
(ccompas_fea.structure.material
CMMUsermat
p703
g2
Ntp704
Rp705
(dp706
g15
I1
sg683
S'CMMUsermat'
p707
sg685
g461
sg686
(lp708
g604
ag688
ag689
ag690
ag691
aS'R_Rohr'
p709
aS'rho'
p710
aS'oo'
p711
aS'uu'
p712
aS'beton'
p713
aS'fcc'
p714
aS'vc'
p715
aS'ecu'
p716
aS'k_E'
p717
aS'theta_b0'
p718
aS'theta_b1'
p719
aS'k_riss'
p720
aS'Entfestigung'
p721
aS'lambdaTS'
p722
aS'srmx'
p723
aS'srmy'
p724
aS'Begrenzung'
p725
aS'KritQ'
p726
aS'winkelD'
p727
aS'k_vr'
p728
aS'fswy'
p729
aS'stahl1'
p730
aS'zm1'
p731
aS'fsy1'
p732
aS'fsu1'
p733
aS'esu1'
p734
aS'esv1'
p735
aS'Es1'
p736
aS'ka1'
p737
aS'kb1'
p738
aS'kc1'
p739
aS'as1'
p740
aS'dm1'
p741
aS'psi1'
p742
aS'stahl2'
p743
aS'zm2'
p744
aS'fsy2'
p745
aS'fsu2'
p746
aS'esu2'
p747
aS'esv2'
p748
aS'Es2'
p749
aS'ka2'
p750
aS'kb2'
p751
aS'kc2'
p752
aS'as2'
p753
aS'dm2'
p754
aS'psi2'
p755
aS'stahl3'
p756
aS'zm3'
p757
aS'fsy3'
p758
aS'fsu3'
p759
aS'esu3'
p760
aS'esv3'
p761
aS'Es3'
p762
aS'ka3'
p763
aS'kb3'
p764
aS'kc3'
p765
aS'as3'
p766
aS'dm3'
p767
aS'psi3'
p768
aS'stahl4'
p769
aS'zm4'
p770
aS'fsy4'
p771
aS'fsu4'
p772
aS'esu4'
p773
aS'esv4'
p774
aS'Es4'
p775
aS'ka4'
p776
aS'kb4'
p777
aS'kc4'
p778
aS'as4'
p779
aS'dm4'
p780
aS'psi4'
p781
asS'E'
p782
(dp783
S'E'
p784
I200000
ssS'v'
p785
(dp786
S'v'
p787
F0.10000000000000001
ssS'G'
p788
(dp789
g690
F90909.090909090897
ssS'p'
p790
F2.5000000000000002e-06
sS'R_Rohr'
p791
(dp792
g709
I-1
ssS'rho'
p793
(dp794
g710
F2.5000000000000002e-06
ssS'oo'
p795
(dp796
g711
I30
ssS'uu'
p797
(dp798
g712
I30
ssS'beton'
p799
(dp800
g713
I2
ssS'fcc'
p801
(dp802
g714
I38
ssS'vc'
p803
(dp804
g715
I0
ssS'ecu'
p805
(dp806
g716
F-0.002
ssS'k_E'
p807
(dp808
g717
I10000
ssS'theta_b0'
p809
(dp810
g718
I2
ssS'theta_b1'
p811
(dp812
g719
I1
ssS'k_riss'
p813
(dp814
g720
I0
ssS'Entfestigung'
p815
(dp816
g721
I0
ssS'lambdaTS'
p817
(dp818
g722
F0.67000000000000004
ssS'srmx'
p819
(dp820
g723
I1
ssS'srmy'
p821
(dp822
g724
I1
ssS'Begrenzung'
p823
(dp824
g725
I2
ssS'KritQ'
p825
(dp826
g726
I0
ssS'winkelD'
p827
(dp828
g727
I45
ssS'k_vr'
p829
(dp830
g728
I1
ssS'fswy'
p831
(dp832
g729
I500
ssS'stahl1'
p833
(dp834
g730
I1
ssS'zm1'
p835
(dp836
g731
I2
ssS'fsy1'
p837
(dp838
g732
I314
ssS'fsu1'
p839
(dp840
g733
I339
ssS'esu1'
p841
(dp842
g734
F0.044999999999999998
ssS'esv1'
p843
(dp844
g735
F0.02
ssS'Es1'
p845
(dp846
g736
I200000
ssS'ka1'
p847
(dp848
g737
I-1
ssS'kb1'
p849
(dp850
g738
I-1
ssS'kc1'
p851
(dp852
g739
I-1
ssS'as1'
p853
(dp854
g740
F3.0158624987296609
ssS'dm1'
p855
(dp856
g741
F23.450066931752581
ssS'psi1'
p857
(dp858
g742
I90
ssS'stahl2'
p859
(dp860
g743
I1
ssS'zm2'
p861
(dp862
g744
I2
ssS'fsy2'
p863
(dp864
g745
I314
ssS'fsu2'
p865
(dp866
g746
I339
ssS'esu2'
p867
(dp868
g747
F0.044999999999999998
ssS'esv2'
p869
(dp870
g748
F0.02
ssS'Es2'
p871
(dp872
g749
I200000
ssS'ka2'
p873
(dp874
g750
I-1
ssS'kb2'
p875
(dp876
g751
I-1
ssS'kc2'
p877
(dp878
g752
I-1
ssS'as2'
p879
(dp880
g753
F0.7897431285209896
ssS'dm2'
p881
(dp882
g754
F12.0
ssS'psi2'
p883
(dp884
g755
I0
ssS'stahl3'
p885
(dp886
g756
I1
ssS'zm3'
p887
(dp888
g757
I2
ssS'fsy3'
p889
(dp890
g758
I314
ssS'fsu3'
p891
(dp892
g759
I339
ssS'esu3'
p893
(dp894
g760
F0.044999999999999998
ssS'esv3'
p895
(dp896
g761
F0.02
ssS'Es3'
p897
(dp898
g762
I200000
ssS'ka3'
p899
(dp900
g763
I-1
ssS'kb3'
p901
(dp902
g764
I-1
ssS'kc3'
p903
(dp904
g765
I-1
ssS'as3'
p905
(dp906
g766
F0.7897431285209896
ssS'dm3'
p907
(dp908
g767
F12.0
ssS'psi3'
p909
(dp910
g768
I0
ssS'stahl4'
p911
(dp912
g769
I1
ssS'zm4'
p913
(dp914
g770
I2
ssS'fsy4'
p915
(dp916
g771
I314
ssS'fsu4'
p917
(dp918
g772
I339
ssS'esu4'
p919
(dp920
g773
F0.044999999999999998
ssS'esv4'
p921
(dp922
g774
F0.02
ssS'Es4'
p923
(dp924
g775
I200000
ssS'ka4'
p925
(dp926
g776
I-1
ssS'kb4'
p927
(dp928
g777
I-1
ssS'kc4'
p929
(dp930
g778
I-1
ssS'as4'
p931
(dp932
g779
F1.519661327250265
ssS'dm4'
p933
(dp934
g780
F16.646070280448193
ssS'psi4'
p935
(dp936
g781
I90
ssbsg485
g0
(g703
g2
Ntp937
Rp938
(dp939
g15
I0
sg683
g707
sg685
g485
sg686
(lp940
g604
ag688
ag689
ag690
ag691
ag709
ag710
ag711
ag712
ag713
ag714
ag715
ag716
ag717
ag718
ag719
ag720
ag721
ag722
ag723
ag724
ag725
ag726
ag727
ag728
ag729
ag730
ag731
ag732
ag733
ag734
ag735
ag736
ag737
ag738
ag739
ag740
ag741
ag742
ag743
ag744
ag745
ag746
ag747
ag748
ag749
ag750
ag751
ag752
ag753
ag754
ag755
ag756
ag757
ag758
ag759
ag760
ag761
ag762
ag763
ag764
ag765
ag766
ag767
ag768
ag769
ag770
ag771
ag772
ag773
ag774
ag775
ag776
ag777
ag778
ag779
ag780
ag781
asg782
(dp941
g784
I200000
ssg785
(dp942
g787
F0.10000000000000001
ssg788
(dp943
g690
F90909.090909090897
ssg790
F2.5000000000000002e-06
sg791
(dp944
g709
I-1
ssg793
(dp945
g710
F2.5000000000000002e-06
ssg795
(dp946
g711
I30
ssg797
(dp947
g712
I30
ssg799
(dp948
g713
I2
ssg801
(dp949
g714
I38
ssg803
(dp950
g715
I0
ssg805
(dp951
g716
F-0.002
ssg807
(dp952
g717
I10000
ssg809
(dp953
g718
I2
ssg811
(dp954
g719
I1
ssg813
(dp955
g720
I0
ssg815
(dp956
g721
I0
ssg817
(dp957
g722
F0.67000000000000004
ssg819
(dp958
g723
I1
ssg821
(dp959
g724
I1
ssg823
(dp960
g725
I2
ssg825
(dp961
g726
I0
ssg827
(dp962
g727
I45
ssg829
(dp963
g728
I1
ssg831
(dp964
g729
I500
ssg833
(dp965
g730
I1
ssg835
(dp966
g731
I2
ssg837
(dp967
g732
I314
ssg839
(dp968
g733
I339
ssg841
(dp969
g734
F0.044999999999999998
ssg843
(dp970
g735
F0.02
ssg845
(dp971
g736
I200000
ssg847
(dp972
g737
I-1
ssg849
(dp973
g738
I-1
ssg851
(dp974
g739
I-1
ssg853
(dp975
g740
F0.33939846472222818
ssg855
(dp976
g741
F13.363037843234208
ssg857
(dp977
g742
I90
ssg859
(dp978
g743
I1
ssg861
(dp979
g744
I2
ssg863
(dp980
g745
I314
ssg865
(dp981
g746
I339
ssg867
(dp982
g747
F0.044999999999999998
ssg869
(dp983
g748
F0.02
ssg871
(dp984
g749
I200000
ssg873
(dp985
g750
I-1
ssg875
(dp986
g751
I-1
ssg877
(dp987
g752
I-1
ssg879
(dp988
g753
F1.3306919966027619
ssg881
(dp989
g754
F26.459950902457276
ssg883
(dp990
g755
I0
ssg885
(dp991
g756
I1
ssg887
(dp992
g757
I2
ssg889
(dp993
g758
I314
ssg891
(dp994
g759
I339
ssg893
(dp995
g760
F0.044999999999999998
ssg895
(dp996
g761
F0.02
ssg897
(dp997
g762
I200000
ssg899
(dp998
g763
I-1
ssg901
(dp999
g764
I-1
ssg903
(dp1000
g765
I-1
ssg905
(dp1001
g766
F0.27369191538841681
ssg907
(dp1002
g767
F12.0
ssg909
(dp1003
g768
I0
ssg911
(dp1004
g769
I1
ssg913
(dp1005
g770
I2
ssg915
(dp1006
g771
I314
ssg917
(dp1007
g772
I339
ssg919
(dp1008
g773
F0.044999999999999998
ssg921
(dp1009
g774
F0.02
ssg923
(dp1010
g775
I200000
ssg925
(dp1011
g776
I-1
ssg927
(dp1012
g777
I-1
ssg929
(dp1013
g778
I-1
ssg931
(dp1014
g779
F0.75452939805950436
ssg933
(dp1015
g780
F19.924541868901201
ssg935
(dp1016
g781
I90
ssbssS'misc'
p1017
(dp1018
sS'name'
p1019
S'NLFE_CFB2'
p1020
sS'nodes'
p1021
(dp1022
I0
g0
(ccompas_fea.structure.node
Node
p1023
g2
Ntp1024
Rp1025
(dp1026
S'__name__'
p1027
S'Node'
p1028
sS'key'
p1029
I0
sS'x'
p1030
F0.0
sS'y'
p1031
F0.0
sS'z'
p1032
F0.0
sS'ex'
p1033
(lp1034
I1
aI0
aI0
asS'ey'
p1035
(lp1036
I0
aI1
aI0
asS'ez'
p1037
(lp1038
I0
aI0
aI1
asS'mass'
p1039
NsbsI1
g0
(g1023
g2
Ntp1040
Rp1041
(dp1042
g1027
g1028
sg1029
I1
sg1030
F1185.7692316585185
sg1031
F0.0
sg1032
F0.0
sg1033
g1034
sg1035
g1036
sg1037
g1038
sg1039
NsbsI2
g0
(g1023
g2
Ntp1043
Rp1044
(dp1045
g1027
g1028
sg1029
I2
sg1030
F0.0
sg1031
F1324.1190282075056
sg1032
F0.0
sg1033
g1034
sg1035
g1036
sg1037
g1038
sg1039
NsbsI3
g0
(g1023
g2
Ntp1046
Rp1047
(dp1048
g1027
g1028
sg1029
I3
sg1030
F1185.7692316585185
sg1031
F1324.1190282075056
sg1032
F0.0
sg1033
g1034
sg1035
g1036
sg1037
g1038
sg1039
NsbsI4
g0
(g1023
g2
Ntp1049
Rp1050
(dp1051
g1027
g1028
sg1029
I4
sg1030
F0.0
sg1031
F2648.2380564150112
sg1032
F0.0
sg1033
g1034
sg1035
g1036
sg1037
g1038
sg1039
NsbsI5
g0
(g1023
g2
Ntp1052
Rp1053
(dp1054
g1027
g1028
sg1029
I5
sg1030
F1185.7692316585185
sg1031
F2648.2380564150112
sg1032
F0.0
sg1033
g1034
sg1035
g1036
sg1037
g1038
sg1039
NsbsI6
g0
(g1023
g2
Ntp1055
Rp1056
(dp1057
g1027
g1028
sg1029
I6
sg1030
F0.0
sg1031
F3972.3570846225166
sg1032
F0.0
sg1033
g1034
sg1035
g1036
sg1037
g1038
sg1039
NsbsI7
g0
(g1023
g2
Ntp1058
Rp1059
(dp1060
g1027
g1028
sg1029
I7
sg1030
F1185.7692316585185
sg1031
F3972.3570846225166
sg1032
F0.0
sg1033
g1034
sg1035
g1036
sg1037
g1038
sg1039
NsbsI8
g0
(g1023
g2
Ntp1061
Rp1062
(dp1063
g1027
g1028
sg1029
I8
sg1030
F0.0
sg1031
F5296.4761128300224
sg1032
F0.0
sg1033
g1034
sg1035
g1036
sg1037
g1038
sg1039
NsbsI9
g0
(g1023
g2
Ntp1064
Rp1065
(dp1066
g1027
g1028
sg1029
I9
sg1030
F1185.7692316585185
sg1031
F5296.4761128300224
sg1032
F0.0
sg1033
g1034
sg1035
g1036
sg1037
g1038
sg1039
NsbsI10
g0
(g1023
g2
Ntp1067
Rp1068
(dp1069
g1027
g1028
sg1029
I10
sg1030
F0.0
sg1031
F10753.451501806408
sg1032
F0.0
sg1033
g1034
sg1035
g1036
sg1037
g1038
sg1039
NsbsI11
g0
(g1023
g2
Ntp1070
Rp1071
(dp1072
g1027
g1028
sg1029
I11
sg1030
F1185.7692316585185
sg1031
F10753.451501806408
sg1032
F0.0
sg1033
g1034
sg1035
g1036
sg1037
g1038
sg1039
NsbsI12
g0
(g1023
g2
Ntp1073
Rp1074
(dp1075
g1027
g1028
sg1029
I12
sg1030
F0.0
sg1031
F12077.570530013914
sg1032
F0.0
sg1033
g1034
sg1035
g1036
sg1037
g1038
sg1039
NsbsI13
g0
(g1023
g2
Ntp1076
Rp1077
(dp1078
g1027
g1028
sg1029
I13
sg1030
F1185.7692316585185
sg1031
F12077.570530013914
sg1032
F0.0
sg1033
g1034
sg1035
g1036
sg1037
g1038
sg1039
NsbsI14
g0
(g1023
g2
Ntp1079
Rp1080
(dp1081
g1027
g1028
sg1029
I14
sg1030
F0.0
sg1031
F13401.68955822142
sg1032
F0.0
sg1033
g1034
sg1035
g1036
sg1037
g1038
sg1039
NsbsI15
g0
(g1023
g2
Ntp1082
Rp1083
(dp1084
g1027
g1028
sg1029
I15
sg1030
F1185.7692316585185
sg1031
F13401.68955822142
sg1032
F0.0
sg1033
g1034
sg1035
g1036
sg1037
g1038
sg1039
NsbsI16
g0
(g1023
g2
Ntp1085
Rp1086
(dp1087
g1027
g1028
sg1029
I16
sg1030
F0.0
sg1031
F14725.808586428928
sg1032
F0.0
sg1033
g1034
sg1035
g1036
sg1037
g1038
sg1039
NsbsI17
g0
(g1023
g2
Ntp1088
Rp1089
(dp1090
g1027
g1028
sg1029
I17
sg1030
F1185.7692316585185
sg1031
F14725.808586428928
sg1032
F0.0
sg1033
g1034
sg1035
g1036
sg1037
g1038
sg1039
NsbsI18
g0
(g1023
g2
Ntp1091
Rp1092
(dp1093
g1027
g1028
sg1029
I18
sg1030
F0.0
sg1031
F16049.927614636432
sg1032
F0.0
sg1033
g1034
sg1035
g1036
sg1037
g1038
sg1039
NsbsI19
g0
(g1023
g2
Ntp1094
Rp1095
(dp1096
g1027
g1028
sg1029
I19
sg1030
F1185.7692316585185
sg1031
F16049.927614636432
sg1032
F0.0
sg1033
g1034
sg1035
g1036
sg1037
g1038
sg1039
NsbsI20
g0
(g1023
g2
Ntp1097
Rp1098
(dp1099
g1027
g1028
sg1029
I20
sg1030
F2371.538463317037
sg1031
F0.0
sg1032
F0.0
sg1033
g1034
sg1035
g1036
sg1037
g1038
sg1039
NsbsI21
g0
(g1023
g2
Ntp1100
Rp1101
(dp1102
g1027
g1028
sg1029
I21
sg1030
F2371.538463317037
sg1031
F1324.1190282075056
sg1032
F0.0
sg1033
g1034
sg1035
g1036
sg1037
g1038
sg1039
NsbsI22
g0
(g1023
g2
Ntp1103
Rp1104
(dp1105
g1027
g1028
sg1029
I22
sg1030
F2371.538463317037
sg1031
F2648.2380564150112
sg1032
F0.0
sg1033
g1034
sg1035
g1036
sg1037
g1038
sg1039
NsbsI23
g0
(g1023
g2
Ntp1106
Rp1107
(dp1108
g1027
g1028
sg1029
I23
sg1030
F2371.538463317037
sg1031
F3972.3570846225166
sg1032
F0.0
sg1033
g1034
sg1035
g1036
sg1037
g1038
sg1039
NsbsI24
g0
(g1023
g2
Ntp1109
Rp1110
(dp1111
g1027
g1028
sg1029
I24
sg1030
F2371.538463317037
sg1031
F5296.4761128300224
sg1032
F0.0
sg1033
g1034
sg1035
g1036
sg1037
g1038
sg1039
NsbsI25
g0
(g1023
g2
Ntp1112
Rp1113
(dp1114
g1027
g1028
sg1029
I25
sg1030
F2371.538463317037
sg1031
F10753.451501806408
sg1032
F0.0
sg1033
g1034
sg1035
g1036
sg1037
g1038
sg1039
NsbsI26
g0
(g1023
g2
Ntp1115
Rp1116
(dp1117
g1027
g1028
sg1029
I26
sg1030
F2371.538463317037
sg1031
F12077.570530013914
sg1032
F0.0
sg1033
g1034
sg1035
g1036
sg1037
g1038
sg1039
NsbsI27
g0
(g1023
g2
Ntp1118
Rp1119
(dp1120
g1027
g1028
sg1029
I27
sg1030
F2371.538463317037
sg1031
F13401.68955822142
sg1032
F0.0
sg1033
g1034
sg1035
g1036
sg1037
g1038
sg1039
NsbsI28
g0
(g1023
g2
Ntp1121
Rp1122
(dp1123
g1027
g1028
sg1029
I28
sg1030
F2371.538463317037
sg1031
F14725.808586428928
sg1032
F0.0
sg1033
g1034
sg1035
g1036
sg1037
g1038
sg1039
NsbsI29
g0
(g1023
g2
Ntp1124
Rp1125
(dp1126
g1027
g1028
sg1029
I29
sg1030
F2371.538463317037
sg1031
F16049.927614636432
sg1032
F0.0
sg1033
g1034
sg1035
g1036
sg1037
g1038
sg1039
NsbsI30
g0
(g1023
g2
Ntp1127
Rp1128
(dp1129
g1027
g1028
sg1029
I30
sg1030
F3593.2400959349043
sg1031
F0.0
sg1032
F0.0
sg1033
g1034
sg1035
g1036
sg1037
g1038
sg1039
NsbsI31
g0
(g1023
g2
Ntp1130
Rp1131
(dp1132
g1027
g1028
sg1029
I31
sg1030
F3593.2400959349043
sg1031
F1324.1190282075056
sg1032
F0.0
sg1033
g1034
sg1035
g1036
sg1037
g1038
sg1039
NsbsI32
g0
(g1023
g2
Ntp1133
Rp1134
(dp1135
g1027
g1028
sg1029
I32
sg1030
F3593.2400959349043
sg1031
F2648.2380564150112
sg1032
F0.0
sg1033
g1034
sg1035
g1036
sg1037
g1038
sg1039
NsbsI33
g0
(g1023
g2
Ntp1136
Rp1137
(dp1138
g1027
g1028
sg1029
I33
sg1030
F3593.2400959349047
sg1031
F3972.3570846225166
sg1032
F0.0
sg1033
g1034
sg1035
g1036
sg1037
g1038
sg1039
NsbsI34
g0
(g1023
g2
Ntp1139
Rp1140
(dp1141
g1027
g1028
sg1029
I34
sg1030
F3593.2400959349043
sg1031
F5296.4761128300224
sg1032
F0.0
sg1033
g1034
sg1035
g1036
sg1037
g1038
sg1039
NsbsI35
g0
(g1023
g2
Ntp1142
Rp1143
(dp1144
g1027
g1028
sg1029
I35
sg1030
F3593.2400959349043
sg1031
F10753.451501806408
sg1032
F0.0
sg1033
g1034
sg1035
g1036
sg1037
g1038
sg1039
NsbsI36
g0
(g1023
g2
Ntp1145
Rp1146
(dp1147
g1027
g1028
sg1029
I36
sg1030
F3593.2400959349043
sg1031
F12077.570530013914
sg1032
F0.0
sg1033
g1034
sg1035
g1036
sg1037
g1038
sg1039
NsbsI37
g0
(g1023
g2
Ntp1148
Rp1149
(dp1150
g1027
g1028
sg1029
I37
sg1030
F3593.2400959349043
sg1031
F13401.68955822142
sg1032
F0.0
sg1033
g1034
sg1035
g1036
sg1037
g1038
sg1039
NsbsI38
g0
(g1023
g2
Ntp1151
Rp1152
(dp1153
g1027
g1028
sg1029
I38
sg1030
F3593.2400959349043
sg1031
F14725.808586428928
sg1032
F0.0
sg1033
g1034
sg1035
g1036
sg1037
g1038
sg1039
NsbsI39
g0
(g1023
g2
Ntp1154
Rp1155
(dp1156
g1027
g1028
sg1029
I39
sg1030
F3593.2400959349043
sg1031
F16049.927614636432
sg1032
F0.0
sg1033
g1034
sg1035
g1036
sg1037
g1038
sg1039
NsbsI40
g0
(g1023
g2
Ntp1157
Rp1158
(dp1159
g1027
g1028
sg1029
I40
sg1030
F0.0
sg1031
F6387.8711906252993
sg1032
F0.0
sg1033
g1034
sg1035
g1036
sg1037
g1038
sg1039
NsbsI41
g0
(g1023
g2
Ntp1160
Rp1161
(dp1162
g1027
g1028
sg1029
I41
sg1030
F1185.7692316585185
sg1031
F6387.8711906252993
sg1032
F0.0
sg1033
g1034
sg1035
g1036
sg1037
g1038
sg1039
NsbsI42
g0
(g1023
g2
Ntp1163
Rp1164
(dp1165
g1027
g1028
sg1029
I42
sg1030
F0.0
sg1031
F7479.266268420577
sg1032
F0.0
sg1033
g1034
sg1035
g1036
sg1037
g1038
sg1039
NsbsI43
g0
(g1023
g2
Ntp1166
Rp1167
(dp1168
g1027
g1028
sg1029
I43
sg1030
F1185.7692316585185
sg1031
F7479.266268420577
sg1032
F0.0
sg1033
g1034
sg1035
g1036
sg1037
g1038
sg1039
NsbsI44
g0
(g1023
g2
Ntp1169
Rp1170
(dp1171
g1027
g1028
sg1029
I44
sg1030
F0.0
sg1031
F8570.661346215853
sg1032
F0.0
sg1033
g1034
sg1035
g1036
sg1037
g1038
sg1039
NsbsI45
g0
(g1023
g2
Ntp1172
Rp1173
(dp1174
g1027
g1028
sg1029
I45
sg1030
F1185.7692316585185
sg1031
F8570.661346215853
sg1032
F0.0
sg1033
g1034
sg1035
g1036
sg1037
g1038
sg1039
NsbsI46
g0
(g1023
g2
Ntp1175
Rp1176
(dp1177
g1027
g1028
sg1029
I46
sg1030
F0.0
sg1031
F9662.0564240111325
sg1032
F0.0
sg1033
g1034
sg1035
g1036
sg1037
g1038
sg1039
NsbsI47
g0
(g1023
g2
Ntp1178
Rp1179
(dp1180
g1027
g1028
sg1029
I47
sg1030
F1185.7692316585185
sg1031
F9662.0564240111325
sg1032
F0.0
sg1033
g1034
sg1035
g1036
sg1037
g1038
sg1039
NsbsI48
g0
(g1023
g2
Ntp1181
Rp1182
(dp1183
g1027
g1028
sg1029
I48
sg1030
F2371.538463317037
sg1031
F6387.8711906252993
sg1032
F0.0
sg1033
g1034
sg1035
g1036
sg1037
g1038
sg1039
NsbsI49
g0
(g1023
g2
Ntp1184
Rp1185
(dp1186
g1027
g1028
sg1029
I49
sg1030
F2371.538463317037
sg1031
F7479.266268420577
sg1032
F0.0
sg1033
g1034
sg1035
g1036
sg1037
g1038
sg1039
NsbsI50
g0
(g1023
g2
Ntp1187
Rp1188
(dp1189
g1027
g1028
sg1029
I50
sg1030
F2371.538463317037
sg1031
F8570.661346215853
sg1032
F0.0
sg1033
g1034
sg1035
g1036
sg1037
g1038
sg1039
NsbsI51
g0
(g1023
g2
Ntp1190
Rp1191
(dp1192
g1027
g1028
sg1029
I51
sg1030
F2371.538463317037
sg1031
F9662.0564240111325
sg1032
F0.0
sg1033
g1034
sg1035
g1036
sg1037
g1038
sg1039
NsbsI52
g0
(g1023
g2
Ntp1193
Rp1194
(dp1195
g1027
g1028
sg1029
I52
sg1030
F3593.2400959349043
sg1031
F6387.8711906252993
sg1032
F0.0
sg1033
g1034
sg1035
g1036
sg1037
g1038
sg1039
NsbsI53
g0
(g1023
g2
Ntp1196
Rp1197
(dp1198
g1027
g1028
sg1029
I53
sg1030
F3593.2400959349043
sg1031
F7479.266268420577
sg1032
F0.0
sg1033
g1034
sg1035
g1036
sg1037
g1038
sg1039
NsbsI54
g0
(g1023
g2
Ntp1199
Rp1200
(dp1201
g1027
g1028
sg1029
I54
sg1030
F3593.2400959349043
sg1031
F8570.661346215853
sg1032
F0.0
sg1033
g1034
sg1035
g1036
sg1037
g1038
sg1039
NsbsI55
g0
(g1023
g2
Ntp1202
Rp1203
(dp1204
g1027
g1028
sg1029
I55
sg1030
F3593.2400959349043
sg1031
F9662.0564240111325
sg1032
F0.0
sg1033
g1034
sg1035
g1036
sg1037
g1038
sg1039
NsbsI56
g0
(g1023
g2
Ntp1205
Rp1206
(dp1207
g1027
g1028
sg1029
I56
sg1030
F0.0
sg1031
F0.0
sg1032
F-1270.4402691403243
sg1033
g1034
sg1035
g1036
sg1037
g1038
sg1039
NsbsI57
g0
(g1023
g2
Ntp1208
Rp1209
(dp1210
g1027
g1028
sg1029
I57
sg1030
F1185.7692316585201
sg1031
F0.0
sg1032
F-1270.4402691403243
sg1033
g1034
sg1035
g1036
sg1037
g1038
sg1039
NsbsI58
g0
(g1023
g2
Ntp1211
Rp1212
(dp1213
g1027
g1028
sg1029
I58
sg1030
F0.0
sg1031
F0.0
sg1032
F-443.32183209376979
sg1033
g1034
sg1035
g1036
sg1037
g1038
sg1039
NsbsI59
g0
(g1023
g2
Ntp1214
Rp1215
(dp1216
g1027
g1028
sg1029
I59
sg1030
F1185.7692316585201
sg1031
F0.0
sg1032
F-443.32183209376979
sg1033
g1034
sg1035
g1036
sg1037
g1038
sg1039
NsbsI60
g0
(g1023
g2
Ntp1217
Rp1218
(dp1219
g1027
g1028
sg1029
I60
sg1030
F2371.5384633170402
sg1031
F0.0
sg1032
F-1270.4402691403243
sg1033
g1034
sg1035
g1036
sg1037
g1038
sg1039
NsbsI61
g0
(g1023
g2
Ntp1220
Rp1221
(dp1222
g1027
g1028
sg1029
I61
sg1030
F2371.5384633170402
sg1031
F0.0
sg1032
F-443.32183209376979
sg1033
g1034
sg1035
g1036
sg1037
g1038
sg1039
NsbsI62
g0
(g1023
g2
Ntp1223
Rp1224
(dp1225
g1027
g1028
sg1029
I62
sg1030
F3593.2400959349002
sg1031
F0.0
sg1032
F-1270.4402691403243
sg1033
g1034
sg1035
g1036
sg1037
g1038
sg1039
NsbsI63
g0
(g1023
g2
Ntp1226
Rp1227
(dp1228
g1027
g1028
sg1029
I63
sg1030
F3593.2400959349002
sg1031
F0.0
sg1032
F-443.32183209376979
sg1033
g1034
sg1035
g1036
sg1037
g1038
sg1039
NsbsI64
g0
(g1023
g2
Ntp1229
Rp1230
(dp1231
g1027
g1028
sg1029
I64
sg1030
F0.0
sg1031
F0.0
sg1032
F-2122.6229012488957
sg1033
g1034
sg1035
g1036
sg1037
g1038
sg1039
NsbsI65
g0
(g1023
g2
Ntp1232
Rp1233
(dp1234
g1027
g1028
sg1029
I65
sg1030
F1185.7692316585201
sg1031
F0.0
sg1032
F-2122.6229012488957
sg1033
g1034
sg1035
g1036
sg1037
g1038
sg1039
NsbsI66
g0
(g1023
g2
Ntp1235
Rp1236
(dp1237
g1027
g1028
sg1029
I66
sg1030
F2371.5384633170402
sg1031
F0.0
sg1032
F-2122.6229012488957
sg1033
g1034
sg1035
g1036
sg1037
g1038
sg1039
NsbsI67
g0
(g1023
g2
Ntp1238
Rp1239
(dp1240
g1027
g1028
sg1029
I67
sg1030
F3593.2400959349002
sg1031
F0.0
sg1032
F-2122.6229012488957
sg1033
g1034
sg1035
g1036
sg1037
g1038
sg1039
NsbsI68
g0
(g1023
g2
Ntp1241
Rp1242
(dp1243
g1027
g1028
sg1029
I68
sg1030
F0.0
sg1031
F0.0
sg1032
F-2949.7413382954505
sg1033
g1034
sg1035
g1036
sg1037
g1038
sg1039
NsbsI69
g0
(g1023
g2
Ntp1244
Rp1245
(dp1246
g1027
g1028
sg1029
I69
sg1030
F1185.7692316585201
sg1031
F0.0
sg1032
F-2949.7413382954505
sg1033
g1034
sg1035
g1036
sg1037
g1038
sg1039
NsbsI70
g0
(g1023
g2
Ntp1247
Rp1248
(dp1249
g1027
g1028
sg1029
I70
sg1030
F2371.5384633170402
sg1031
F0.0
sg1032
F-2949.7413382954505
sg1033
g1034
sg1035
g1036
sg1037
g1038
sg1039
NsbsI71
g0
(g1023
g2
Ntp1250
Rp1251
(dp1252
g1027
g1028
sg1029
I71
sg1030
F3593.2400959349002
sg1031
F0.0
sg1032
F-2949.7413382954505
sg1033
g1034
sg1035
g1036
sg1037
g1038
sg1039
NsbsI72
g0
(g1023
g2
Ntp1253
Rp1254
(dp1255
g1027
g1028
sg1029
I72
sg1030
F0.0
sg1031
F16049.927614636432
sg1032
F-1270.4402691403243
sg1033
g1034
sg1035
g1036
sg1037
g1038
sg1039
NsbsI73
g0
(g1023
g2
Ntp1256
Rp1257
(dp1258
g1027
g1028
sg1029
I73
sg1030
F1185.7692316585201
sg1031
F16049.927614636432
sg1032
F-1270.4402691403243
sg1033
g1034
sg1035
g1036
sg1037
g1038
sg1039
NsbsI74
g0
(g1023
g2
Ntp1259
Rp1260
(dp1261
g1027
g1028
sg1029
I74
sg1030
F0.0
sg1031
F16049.927614636432
sg1032
F-443.32183209376979
sg1033
g1034
sg1035
g1036
sg1037
g1038
sg1039
NsbsI75
g0
(g1023
g2
Ntp1262
Rp1263
(dp1264
g1027
g1028
sg1029
I75
sg1030
F1185.7692316585201
sg1031
F16049.927614636432
sg1032
F-443.32183209376979
sg1033
g1034
sg1035
g1036
sg1037
g1038
sg1039
NsbsI76
g0
(g1023
g2
Ntp1265
Rp1266
(dp1267
g1027
g1028
sg1029
I76
sg1030
F2371.5384633170402
sg1031
F16049.927614636432
sg1032
F-1270.4402691403243
sg1033
g1034
sg1035
g1036
sg1037
g1038
sg1039
NsbsI77
g0
(g1023
g2
Ntp1268
Rp1269
(dp1270
g1027
g1028
sg1029
I77
sg1030
F2371.5384633170402
sg1031
F16049.927614636432
sg1032
F-443.32183209376979
sg1033
g1034
sg1035
g1036
sg1037
g1038
sg1039
NsbsI78
g0
(g1023
g2
Ntp1271
Rp1272
(dp1273
g1027
g1028
sg1029
I78
sg1030
F3593.2400959349002
sg1031
F16049.927614636432
sg1032
F-1270.4402691403243
sg1033
g1034
sg1035
g1036
sg1037
g1038
sg1039
NsbsI79
g0
(g1023
g2
Ntp1274
Rp1275
(dp1276
g1027
g1028
sg1029
I79
sg1030
F3593.2400959349002
sg1031
F16049.927614636432
sg1032
F-443.32183209376979
sg1033
g1034
sg1035
g1036
sg1037
g1038
sg1039
NsbsI80
g0
(g1023
g2
Ntp1277
Rp1278
(dp1279
g1027
g1028
sg1029
I80
sg1030
F0.0
sg1031
F16049.927614636432
sg1032
F-2122.6229012488957
sg1033
g1034
sg1035
g1036
sg1037
g1038
sg1039
NsbsI81
g0
(g1023
g2
Ntp1280
Rp1281
(dp1282
g1027
g1028
sg1029
I81
sg1030
F1185.7692316585201
sg1031
F16049.927614636432
sg1032
F-2122.6229012488957
sg1033
g1034
sg1035
g1036
sg1037
g1038
sg1039
NsbsI82
g0
(g1023
g2
Ntp1283
Rp1284
(dp1285
g1027
g1028
sg1029
I82
sg1030
F2371.5384633170402
sg1031
F16049.927614636432
sg1032
F-2122.6229012488957
sg1033
g1034
sg1035
g1036
sg1037
g1038
sg1039
NsbsI83
g0
(g1023
g2
Ntp1286
Rp1287
(dp1288
g1027
g1028
sg1029
I83
sg1030
F3593.2400959349002
sg1031
F16049.927614636432
sg1032
F-2122.6229012488957
sg1033
g1034
sg1035
g1036
sg1037
g1038
sg1039
NsbsI84
g0
(g1023
g2
Ntp1289
Rp1290
(dp1291
g1027
g1028
sg1029
I84
sg1030
F0.0
sg1031
F16049.927614636432
sg1032
F-2949.7413382954505
sg1033
g1034
sg1035
g1036
sg1037
g1038
sg1039
NsbsI85
g0
(g1023
g2
Ntp1292
Rp1293
(dp1294
g1027
g1028
sg1029
I85
sg1030
F1185.7692316585201
sg1031
F16049.927614636432
sg1032
F-2949.7413382954505
sg1033
g1034
sg1035
g1036
sg1037
g1038
sg1039
NsbsI86
g0
(g1023
g2
Ntp1295
Rp1296
(dp1297
g1027
g1028
sg1029
I86
sg1030
F2371.5384633170402
sg1031
F16049.927614636432
sg1032
F-2949.7413382954505
sg1033
g1034
sg1035
g1036
sg1037
g1038
sg1039
NsbsI87
g0
(g1023
g2
Ntp1298
Rp1299
(dp1300
g1027
g1028
sg1029
I87
sg1030
F3593.2400959349002
sg1031
F16049.927614636432
sg1032
F-2949.7413382954505
sg1033
g1034
sg1035
g1036
sg1037
g1038
sg1039
NsbssS'node_index'
p1301
(dp1302
S'2371.538,7479.266,0.000'
p1303
I49
sS'0.000,2648.238,0.000'
p1304
I4
sS'2371.538,3972.357,0.000'
p1305
I23
sS'1185.769,2648.238,0.000'
p1306
I5
sS'3593.240,1324.119,0.000'
p1307
I31
sS'0.000,0.000,-2949.741'
p1308
I68
sS'3593.240,16049.928,0.000'
p1309
I39
sS'1185.769,16049.928,-1270.440'
p1310
I73
sS'2371.538,2648.238,0.000'
p1311
I22
sS'1185.769,0.000,0.000'
p1312
I1
sS'3593.240,7479.266,0.000'
p1313
I53
sS'3593.240,0.000,-1270.440'
p1314
I62
sS'3593.240,2648.238,0.000'
p1315
I32
sS'0.000,7479.266,0.000'
p1316
I42
sS'0.000,0.000,-443.322'
p1317
I58
sS'2371.538,16049.928,-2949.741'
p1318
I86
sS'1185.769,0.000,-1270.440'
p1319
I57
sS'1185.769,6387.871,0.000'
p1320
I41
sS'3593.240,9662.056,0.000'
p1321
I55
sS'3593.240,16049.928,-2949.741'
p1322
I87
sS'1185.769,0.000,-2122.623'
p1323
I65
sS'3593.240,0.000,-2122.623'
p1324
I67
sS'0.000,12077.571,0.000'
p1325
I12
sS'2371.538,6387.871,0.000'
p1326
I48
sS'1185.769,8570.661,0.000'
p1327
I45
sS'0.000,1324.119,0.000'
p1328
I2
sS'1185.769,16049.928,0.000'
p1329
I19
sS'0.000,10753.452,0.000'
p1330
I10
sS'2371.538,14725.809,0.000'
p1331
I28
sS'2371.538,0.000,0.000'
p1332
I20
sS'3593.240,3972.357,0.000'
p1333
I33
sS'1185.769,12077.571,0.000'
p1334
I13
sS'2371.538,16049.928,0.000'
p1335
I29
sS'3593.240,12077.571,0.000'
p1336
I36
sS'1185.769,7479.266,0.000'
p1337
I43
sS'1185.769,14725.809,0.000'
p1338
I17
sS'0.000,9662.056,0.000'
p1339
I46
sS'2371.538,0.000,-1270.440'
p1340
I60
sS'0.000,0.000,0.000'
p1341
I0
sS'2371.538,13401.690,0.000'
p1342
I27
sS'2371.538,0.000,-443.322'
p1343
I61
sS'3593.240,0.000,-2949.741'
p1344
I71
sS'0.000,16049.928,-443.322'
p1345
I74
sS'2371.538,16049.928,-443.322'
p1346
I77
sS'2371.538,0.000,-2949.741'
p1347
I70
sS'0.000,16049.928,0.000'
p1348
I18
sS'3593.240,16049.928,-1270.440'
p1349
I78
sS'0.000,16049.928,-2122.623'
p1350
I80
sS'1185.769,16049.928,-2122.623'
p1351
I81
sS'1185.769,16049.928,-2949.741'
p1352
I85
sS'0.000,6387.871,0.000'
p1353
I40
sS'1185.769,3972.357,0.000'
p1354
I7
sS'3593.240,6387.871,0.000'
p1355
I52
sS'0.000,16049.928,-1270.440'
p1356
I72
sS'3593.240,10753.452,0.000'
p1357
I35
sS'0.000,8570.661,0.000'
p1358
I44
sS'1185.769,9662.056,0.000'
p1359
I47
sS'2371.538,8570.661,0.000'
p1360
I50
sS'2371.538,0.000,-2122.623'
p1361
I66
sS'1185.769,5296.476,0.000'
p1362
I9
sS'0.000,5296.476,0.000'
p1363
I8
sS'0.000,3972.357,0.000'
p1364
I6
sS'3593.240,0.000,0.000'
p1365
I30
sS'2371.538,9662.056,0.000'
p1366
I51
sS'3593.240,16049.928,-443.322'
p1367
I79
sS'2371.538,16049.928,-2122.623'
p1368
I82
sS'0.000,14725.809,0.000'
p1369
I16
sS'0.000,13401.690,0.000'
p1370
I14
sS'0.000,0.000,-1270.440'
p1371
I56
sS'2371.538,12077.571,0.000'
p1372
I26
sS'2371.538,16049.928,-1270.440'
p1373
I76
sS'3593.240,5296.476,0.000'
p1374
I34
sS'3593.240,16049.928,-2122.623'
p1375
I83
sS'1185.769,16049.928,-443.322'
p1376
I75
sS'1185.769,0.000,-443.322'
p1377
I59
sS'3593.240,14725.809,0.000'
p1378
I38
sS'3593.240,0.000,-443.322'
p1379
I63
sS'0.000,0.000,-2122.623'
p1380
I64
sS'3593.240,8570.661,0.000'
p1381
I54
sS'2371.538,5296.476,0.000'
p1382
I24
sS'2371.538,10753.452,0.000'
p1383
I25
sS'1185.769,13401.690,0.000'
p1384
I15
sS'1185.769,10753.452,0.000'
p1385
I11
sS'1185.769,1324.119,0.000'
p1386
I3
sS'1185.769,0.000,-2949.741'
p1387
I69
sS'0.000,16049.928,-2949.741'
p1388
I84
sS'2371.538,1324.119,0.000'
p1389
I21
sS'3593.240,13401.690,0.000'
p1390
I37
ssS'path'
p1391
S'C:\\Temp\\'
p1392
sS'results'
p1393
(dp1394
S'step_2'
p1395
S'ERROR'
p1396
sS'step_3'
p1397
g1396
sS'step_4'
p1398
g1396
sS'step_1'
p1399
g1396
ssS'sections'
p1400
(dp1401
g472
g0
(ccompas_fea.structure.section
ShellSection
p1402
g2
Ntp1403
Rp1404
(dp1405
g15
I1
sS'__name__'
p1406
S'ShellSection'
p1407
sS'name'
p1408
g472
sS'geometry'
p1409
(dp1410
S't'
p1411
F1180.1465264064573
ssS'loc_coords_OR'
p1412
(dp1413
S'ORxyz'
p1414
(lp1415
I0
aI0
aF-2506.4195061999999
assS'loc_coords_XA'
p1416
(dp1417
S'XAxyz'
p1418
(lp1419
I1
aI0
aF-2506.4195061999999
assS'loc_coords_YA'
p1420
(dp1421
S'YAxyz'
p1422
(lp1423
F2506.4195061999999
aF-2506.4195061999999
aF-2505.4195061999999
assS'loc_coords_EV_XA'
p1424
(dp1425
S'EV_XA'
p1426
(lp1427
F1.0
aF0.0
aF0.0
assS'loc_coords_EV_YA'
p1428
(dp1429
S'EV_YA'
p1430
(lp1431
F0.70710675304697723
aF-0.70710675304697723
aF0.00028211827720692564
assS'loc_coords_EV_ZA'
p1432
(dp1433
S'EV_ZA'
p1434
(lp1435
F0.0
aF-1.0
aF0.0
assS'nr_layers'
p1436
(dp1437
S'nn'
p1438
F37.0
ssS'offset'
p1439
(dp1440
S'mode'
p1441
S'mid'
p1442
ssbsg486
g0
(g1402
g2
Ntp1443
Rp1444
(dp1445
g15
I0
sg1406
g1407
sg1408
g486
sg1409
(dp1446
g1411
F443.32183209376979
ssg1412
(dp1447
g1414
(lp1448
I0
aI0
aI0
assg1416
(dp1449
g1418
(lp1450
I1
aI0
aI0
assg1420
(dp1451
g1422
(lp1452
F0.0
aF1.0
aF0.0
assg1424
(dp1453
g1426
(lp1454
F1.0
aF0.0
aF0.0
assg1428
(dp1455
g1430
(lp1456
F0.0
aF1.0
aF0.0
assg1432
(dp1457
g1434
(lp1458
F0.0
aF0.0
aF1.0
assg1436
(dp1459
g1438
F37.0
ssg1439
(dp1460
g1441
S'top'
p1461
ssbsg463
g0
(g1402
g2
Ntp1462
Rp1463
(dp1464
g15
I2
sg1406
g1407
sg1408
g463
sg1409
(dp1465
g1411
F1180.1465264064573
ssg1412
(dp1466
g1414
(lp1467
I0
aF16049.927614599999
aF-2506.4195061999999
assg1416
(dp1468
g1418
(lp1469
I1
aF16049.927614599999
aF-2506.4195061999999
assg1420
(dp1470
g1422
(lp1471
F-2506.4195061996579
aF13543.508108399999
aF-18557.347120799997
assg1424
(dp1472
g1426
(lp1473
F1.0
aF0.0
aF0.0
assg1428
(dp1474
g1430
(lp1475
F-0.15248034229765864
aF-0.15248034229767943
aF-0.97647298499526936
assg1432
(dp1476
g1434
(lp1477
F0.0
aF1.0
aF0.0
assg1436
(dp1478
g1438
F37.0
ssg1439
(dp1479
g1441
g1442
ssbsg556
g0
(ccompas_fea.structure.section
MPCSection
p1480
g2
Ntp1481
Rp1482
(dp1483
g15
I3
sg1406
S'MPCSection'
p1484
sg1408
g556
sg1409
NsS'nr_layers'
p1485
NsbssS'sets'
p1486
(dp1487
g581
g0
(ccompas_fea.structure.set
Set
p1488
g2
Ntp1489
Rp1490
(dp1491
S'__name__'
p1492
S'Set'
p1493
sS'name'
p1494
g581
sS'type'
p1495
S'element'
p1496
sS'selection'
p1497
(lp1498
I43
asS'index'
p1499
I13
sbsg557
g0
(g1488
g2
Ntp1500
Rp1501
(dp1502
g1492
g1493
sg1494
g557
sg1495
g1496
sg1497
(lp1503
I64
aI57
aI58
aI59
aI60
aI61
aI62
aI63
asg1499
I27
sbsg465
g0
(g1488
g2
Ntp1504
Rp1505
(dp1506
g1492
g1493
sg1494
g465
sg1495
g1496
sg1497
(lp1507
I51
asg1499
I21
sbsg511
g0
(g1488
g2
Ntp1508
Rp1509
(dp1510
g1492
g1493
sg1494
g511
sg1495
g1496
sg1497
(lp1511
I8
aI9
aI10
aI11
asg1499
I2
sbsg477
g0
(g1488
g2
Ntp1512
Rp1513
(dp1514
g1492
g1493
sg1494
g477
sg1495
g1496
sg1497
(lp1515
I46
asg1499
I16
sbsg573
g0
(g1488
g2
Ntp1516
Rp1517
(dp1518
g1492
g1493
sg1494
g573
sg1495
g1496
sg1497
(lp1519
I48
asg1499
I18
sbsg551
g0
(g1488
g2
Ntp1520
Rp1521
(dp1522
g1492
g1493
sg1494
g551
sg1495
g1496
sg1497
(lp1523
I4
aI5
aI6
aI7
asg1499
I1
sbsg487
g0
(g1488
g2
Ntp1524
Rp1525
(dp1526
g1492
g1493
sg1494
g487
sg1495
g1496
sg1497
(lp1527
I0
aI1
aI2
aI3
asg1499
I0
sbsg539
g0
(g1488
g2
Ntp1528
Rp1529
(dp1530
g1492
g1493
sg1494
g539
sg1495
g1496
sg1497
(lp1531
I24
aI25
aI26
aI27
aI28
asg1499
I6
sbsg577
g0
(g1488
g2
Ntp1532
Rp1533
(dp1534
g1492
g1493
sg1494
g577
sg1495
g1496
sg1497
(lp1535
I20
aI21
aI22
aI23
asg1499
I5
sbsg503
g0
(g1488
g2
Ntp1536
Rp1537
(dp1538
g1492
g1493
sg1494
g503
sg1495
g1496
sg1497
(lp1539
I16
aI17
aI18
aI19
asg1499
I4
sbsg547
g0
(g1488
g2
Ntp1540
Rp1541
(dp1542
g1492
g1493
sg1494
g547
sg1495
g1496
sg1497
(lp1543
I12
aI13
aI14
aI15
asg1499
I3
sbsg495
g0
(g1488
g2
Ntp1544
Rp1545
(dp1546
g1492
g1493
sg1494
g495
sg1495
g1496
sg1497
(lp1547
I34
aI35
aI36
aI37
aI38
asg1499
I8
sbsg531
g0
(g1488
g2
Ntp1548
Rp1549
(dp1550
g1492
g1493
sg1494
g531
sg1495
g1496
sg1497
(lp1551
I32
aI33
aI29
aI30
aI31
asg1499
I7
sbsg507
g0
(g1488
g2
Ntp1552
Rp1553
(dp1554
g1492
g1493
sg1494
g507
sg1495
g1496
sg1497
(lp1555
I41
asg1499
I11
sbsg569
g0
(g1488
g2
Ntp1556
Rp1557
(dp1558
g1492
g1493
sg1494
g569
sg1495
g1496
sg1497
(lp1559
I56
asg1499
I26
sbsg519
g0
(g1488
g2
Ntp1560
Rp1561
(dp1562
g1492
g1493
sg1494
g519
sg1495
g1496
sg1497
(lp1563
I53
asg1499
I23
sbsg499
g0
(g1488
g2
Ntp1564
Rp1565
(dp1566
g1492
g1493
sg1494
g499
sg1495
g1496
sg1497
(lp1567
I44
asg1499
I14
sbsg515
g0
(g1488
g2
Ntp1568
Rp1569
(dp1570
g1492
g1493
sg1494
g515
sg1495
g1496
sg1497
(lp1571
I50
asg1499
I20
sbsg535
g0
(g1488
g2
Ntp1572
Rp1573
(dp1574
g1492
g1493
sg1494
g535
sg1495
g1496
sg1497
(lp1575
I39
asg1499
I9
sbsg527
g0
(g1488
g2
Ntp1576
Rp1577
(dp1578
g1492
g1493
sg1494
g527
sg1495
g1496
sg1497
(lp1579
I47
asg1499
I17
sbsg35
g0
(g1488
g2
Ntp1580
Rp1581
(dp1582
g1492
g1493
sg1494
g35
sg1495
S'node'
p1583
sg1497
(lp1584
I87
aI86
aI85
aI84
asg1499
I29
sbsg523
g0
(g1488
g2
Ntp1585
Rp1586
(dp1587
g1492
g1493
sg1494
g523
sg1495
g1496
sg1497
(lp1588
I42
asg1499
I12
sbsg543
g0
(g1488
g2
Ntp1589
Rp1590
(dp1591
g1492
g1493
sg1494
g543
sg1495
g1496
sg1497
(lp1592
I55
asg1499
I25
sbsg491
g0
(g1488
g2
Ntp1593
Rp1594
(dp1595
g1492
g1493
sg1494
g491
sg1495
g1496
sg1497
(lp1596
I52
asg1499
I22
sbsg20
g0
(g1488
g2
Ntp1597
Rp1598
(dp1599
g1492
g1493
sg1494
g20
sg1495
g1583
sg1497
(lp1600
I71
aI70
aI69
aI68
asg1499
I28
sbsg561
g0
(g1488
g2
Ntp1601
Rp1602
(dp1603
g1492
g1493
sg1494
g561
sg1495
g1496
sg1497
(lp1604
I45
asg1499
I15
sbsg481
g0
(g1488
g2
Ntp1605
Rp1606
(dp1607
g1492
g1493
sg1494
g481
sg1495
g1496
sg1497
(lp1608
I49
asg1499
I19
sbsg473
g0
(g1488
g2
Ntp1609
Rp1610
(dp1611
g1492
g1493
sg1494
g473
sg1495
g1496
sg1497
(lp1612
I40
asg1499
I10
sbsg565
g0
(g1488
g2
Ntp1613
Rp1614
(dp1615
g1492
g1493
sg1494
g565
sg1495
g1496
sg1497
(lp1616
I54
asg1499
I24
sbssS'steps'
p1617
(dp1618
g1395
g0
(ccompas_fea.structure.step
GeneralStep
p1619
g2
Ntp1620
Rp1621
(dp1622
g15
I1
sS'__name__'
p1623
S'GeneralStep'
p1624
sS'name'
p1625
g1395
sS'attr_list'
p1626
(lp1627
g604
aS'increments'
p1628
aS'iterations'
p1629
aS'factor'
p1630
aS'nlgeom'
p1631
aS'nlmat'
p1632
aS'displacements'
p1633
aS'loads'
p1634
aS'type'
p1635
aS'tolerance'
p1636
aS'modify'
p1637
asS'increments'
p1638
I1
sS'iterations'
p1639
I100
sS'tolerance'
p1640
F0.01
sS'factor'
p1641
F1.0
sS'nlgeom'
p1642
I00
sS'nlmat'
p1643
I01
sS'displacements'
p1644
(lp1645
sS'loads'
p1646
(lp1647
g666
asS'modify'
p1648
I01
sS'type'
p1649
S'static'
p1650
sbsg1397
g0
(g1619
g2
Ntp1651
Rp1652
(dp1653
g15
I2
sg1623
g1624
sg1625
g1397
sg1626
(lp1654
g604
ag1628
ag1629
ag1630
ag1631
ag1632
ag1633
ag1634
ag1635
ag1636
ag1637
asg1638
I1
sg1639
I100
sg1640
F0.01
sg1641
F1.0
sg1642
I00
sg1643
I01
sg1644
(lp1655
sg1646
(lp1656
g645
ag631
ag624
asg1648
I01
sg1649
g1650
sbsg1398
g0
(g1619
g2
Ntp1657
Rp1658
(dp1659
g15
I3
sg1623
g1624
sg1625
g1398
sg1626
(lp1660
g604
ag1628
ag1629
ag1630
ag1631
ag1632
ag1633
ag1634
ag1635
ag1636
ag1637
asg1638
I1
sg1639
I100
sg1640
F0.01
sg1641
F1.0
sg1642
I00
sg1643
I01
sg1644
(lp1661
sg1646
(lp1662
g659
ag638
ag652
ag617
ag586
ag609
asg1648
I01
sg1649
g1650
sbsg1399
g0
(g1619
g2
Ntp1663
Rp1664
(dp1665
g15
I0
sg1623
g1624
sg1625
g1399
sg1626
(lp1666
g604
ag1628
ag1629
ag1630
ag1631
ag1632
ag1633
ag1634
ag1635
ag1636
ag1637
asg1638
I1
sg1639
I100
sg1640
F0.01
sg1641
F1.0
sg1642
I00
sg1643
I01
sg1644
(lp1667
g10
ag31
asg1646
(lp1668
sg1648
I01
sg1649
g1650
sbssS'loc_coor'
p1669
(dp1670
sS'steps_order'
p1671
(lp1672
g1399
ag1395
ag1397
ag1398
asS'tol'
p1673
S'3'
p1674
sS'virtual_nodes'
p1675
(dp1676
sS'virtual_node_index'
p1677
(dp1678
sS'virtual_elements'
p1679
(dp1680
sS'virtual_element_index'
p1681
(dp1682
sb.