ccopy_reg
_reconstructor
p0
(ccompas_fea.structure.structure
Structure
p1
c__builtin__
object
p2
Ntp3
Rp4
(dp5
S'constraints'
p6
(dp7
sS'displacements'
p8
(dp9
S'nset_pinned_set_disp_1'
p10
g0
(ccompas_fea.structure.displacement
GeneralDisplacement
p11
g2
Ntp12
Rp13
(dp14
S'index'
p15
I0
sS'__name__'
p16
S'GeneralDisplacement'
p17
sS'name'
p18
g10
sS'nodes'
p19
S'nset_support_wall1'
p20
sS'components'
p21
(dp22
S'z'
p23
I0
sS'xx'
p24
I0
sS'zz'
p25
I0
sS'yy'
p26
I0
sS'y'
p27
I0
sS'x'
p28
I0
ssS'axes'
p29
S'global'
p30
sbsS'nset_pinned_set_disp_2'
p31
g0
(g11
g2
Ntp32
Rp33
(dp34
g15
I1
sg16
g17
sg18
g31
sg19
S'nset_support_wall2'
p35
sg21
(dp36
g23
I0
sg24
I0
sg25
I0
sg26
I0
sg27
I0
sg28
I0
ssg29
g30
sbssS'elements'
p37
(dp38
I0
g0
(ccompas_fea.structure.element
ShellElement
p39
g2
Ntp40
Rp41
(dp42
S'mass'
p43
NsS'__name__'
p44
S'ShellElement'
p45
sS'nodes'
p46
(lp47
I0
aI1
aI3
aI2
asS'number'
p48
I0
sS'thermal'
p49
I00
sS'axes'
p50
(dp51
S'ey'
p52
NsS'ez'
p53
NsS'ex'
p54
NssS'element_property'
p55
S'elset_plate_1_element_prop'
p56
sbsI1
g0
(g39
g2
Ntp57
Rp58
(dp59
g43
Nsg44
g45
sg46
(lp60
I2
aI3
aI5
aI4
asg48
I1
sg49
I00
sg50
g51
sg55
g56
sbsI2
g0
(g39
g2
Ntp61
Rp62
(dp63
g43
Nsg44
g45
sg46
(lp64
I4
aI5
aI7
aI6
asg48
I2
sg49
I00
sg50
g51
sg55
g56
sbsI3
g0
(g39
g2
Ntp65
Rp66
(dp67
g43
Nsg44
g45
sg46
(lp68
I8
aI9
aI11
aI10
asg48
I3
sg49
I00
sg50
(dp69
g52
Nsg53
Nsg54
Nssg55
S'elset_plate_2_element_prop'
p70
sbsI4
g0
(g39
g2
Ntp71
Rp72
(dp73
g43
Nsg44
g45
sg46
(lp74
I10
aI11
aI13
aI12
asg48
I4
sg49
I00
sg50
g69
sg55
g70
sbsI5
g0
(g39
g2
Ntp75
Rp76
(dp77
g43
Nsg44
g45
sg46
(lp78
I12
aI13
aI15
aI14
asg48
I5
sg49
I00
sg50
g69
sg55
g70
sbsI6
g0
(g39
g2
Ntp79
Rp80
(dp81
g43
Nsg44
g45
sg46
(lp82
I1
aI16
aI17
aI3
asg48
I6
sg49
I00
sg50
(dp83
g52
Nsg53
Nsg54
Nssg55
S'elset_plate_3_element_prop'
p84
sbsI7
g0
(g39
g2
Ntp85
Rp86
(dp87
g43
Nsg44
g45
sg46
(lp88
I3
aI17
aI18
aI5
asg48
I7
sg49
I00
sg50
g83
sg55
g84
sbsI8
g0
(g39
g2
Ntp89
Rp90
(dp91
g43
Nsg44
g45
sg46
(lp92
I5
aI18
aI19
aI7
asg48
I8
sg49
I00
sg50
g83
sg55
g84
sbsI9
g0
(g39
g2
Ntp93
Rp94
(dp95
g43
Nsg44
g45
sg46
(lp96
I9
aI20
aI21
aI11
asg48
I9
sg49
I00
sg50
(dp97
g52
Nsg53
Nsg54
Nssg55
S'elset_plate_4_element_prop'
p98
sbsI10
g0
(g39
g2
Ntp99
Rp100
(dp101
g43
Nsg44
g45
sg46
(lp102
I11
aI21
aI22
aI13
asg48
I10
sg49
I00
sg50
g97
sg55
g98
sbsI11
g0
(g39
g2
Ntp103
Rp104
(dp105
g43
Nsg44
g45
sg46
(lp106
I13
aI22
aI23
aI15
asg48
I11
sg49
I00
sg50
g97
sg55
g98
sbsI12
g0
(g39
g2
Ntp107
Rp108
(dp109
g43
Nsg44
g45
sg46
(lp110
I16
aI24
aI25
aI17
asg48
I12
sg49
I00
sg50
(dp111
g52
Nsg53
Nsg54
Nssg55
S'elset_plate_5_element_prop'
p112
sbsI13
g0
(g39
g2
Ntp113
Rp114
(dp115
g43
Nsg44
g45
sg46
(lp116
I17
aI25
aI26
aI18
asg48
I13
sg49
I00
sg50
g111
sg55
g112
sbsI14
g0
(g39
g2
Ntp117
Rp118
(dp119
g43
Nsg44
g45
sg46
(lp120
I18
aI26
aI27
aI19
asg48
I14
sg49
I00
sg50
g111
sg55
g112
sbsI15
g0
(g39
g2
Ntp121
Rp122
(dp123
g43
Nsg44
g45
sg46
(lp124
I20
aI28
aI29
aI21
asg48
I15
sg49
I00
sg50
(dp125
g52
Nsg53
Nsg54
Nssg55
S'elset_plate_6_element_prop'
p126
sbsI16
g0
(g39
g2
Ntp127
Rp128
(dp129
g43
Nsg44
g45
sg46
(lp130
I21
aI29
aI30
aI22
asg48
I16
sg49
I00
sg50
g125
sg55
g126
sbsI17
g0
(g39
g2
Ntp131
Rp132
(dp133
g43
Nsg44
g45
sg46
(lp134
I22
aI30
aI31
aI23
asg48
I17
sg49
I00
sg50
g125
sg55
g126
sbsI18
g0
(g39
g2
Ntp135
Rp136
(dp137
g43
Nsg44
g45
sg46
(lp138
I6
aI7
aI33
aI32
asg48
I18
sg49
I00
sg50
(dp139
g52
Nsg53
Nsg54
Nssg55
S'elset_plate_7_element_prop'
p140
sbsI19
g0
(g39
g2
Ntp141
Rp142
(dp143
g43
Nsg44
g45
sg46
(lp144
I32
aI33
aI35
aI34
asg48
I19
sg49
I00
sg50
g139
sg55
g140
sbsI20
g0
(g39
g2
Ntp145
Rp146
(dp147
g43
Nsg44
g45
sg46
(lp148
I34
aI35
aI9
aI8
asg48
I20
sg49
I00
sg50
g139
sg55
g140
sbsI21
g0
(g39
g2
Ntp149
Rp150
(dp151
g43
Nsg44
g45
sg46
(lp152
I7
aI19
aI36
aI33
asg48
I21
sg49
I00
sg50
(dp153
g52
Nsg53
Nsg54
Nssg55
S'elset_plate_8_element_prop'
p154
sbsI22
g0
(g39
g2
Ntp155
Rp156
(dp157
g43
Nsg44
g45
sg46
(lp158
I33
aI36
aI37
aI35
asg48
I22
sg49
I00
sg50
g153
sg55
g154
sbsI23
g0
(g39
g2
Ntp159
Rp160
(dp161
g43
Nsg44
g45
sg46
(lp162
I35
aI37
aI20
aI9
asg48
I23
sg49
I00
sg50
g153
sg55
g154
sbsI24
g0
(g39
g2
Ntp163
Rp164
(dp165
g43
Nsg44
g45
sg46
(lp166
I19
aI27
aI38
aI36
asg48
I24
sg49
I00
sg50
(dp167
g52
Nsg53
Nsg54
Nssg55
S'elset_plate_9_element_prop'
p168
sbsI25
g0
(g39
g2
Ntp169
Rp170
(dp171
g43
Nsg44
g45
sg46
(lp172
I36
aI38
aI39
aI37
asg48
I25
sg49
I00
sg50
g167
sg55
g168
sbsI26
g0
(g39
g2
Ntp173
Rp174
(dp175
g43
Nsg44
g45
sg46
(lp176
I37
aI39
aI28
aI20
asg48
I26
sg49
I00
sg50
g167
sg55
g168
sbsI27
g0
(g39
g2
Ntp177
Rp178
(dp179
g43
Nsg44
g45
sg46
(lp180
I40
aI41
aI43
aI42
asg48
I27
sg49
I00
sg50
(dp181
g52
Nsg53
Nsg54
Nssg55
S'elset_wall_1_1_element_prop'
p182
sbsI28
g0
(g39
g2
Ntp183
Rp184
(dp185
g43
Nsg44
g45
sg46
(lp186
I41
aI44
aI45
aI43
asg48
I28
sg49
I00
sg50
(dp187
g52
Nsg53
Nsg54
Nssg55
S'elset_wall_1_2_element_prop'
p188
sbsI29
g0
(g39
g2
Ntp189
Rp190
(dp191
g43
Nsg44
g45
sg46
(lp192
I44
aI46
aI47
aI45
asg48
I29
sg49
I00
sg50
(dp193
g52
Nsg53
Nsg54
Nssg55
S'elset_wall_1_3_element_prop'
p194
sbsI30
g0
(g39
g2
Ntp195
Rp196
(dp197
g43
Nsg44
g45
sg46
(lp198
I48
aI49
aI41
aI40
asg48
I30
sg49
I00
sg50
(dp199
g52
Nsg53
Nsg54
Nssg55
S'elset_wall_1_4_element_prop'
p200
sbsI31
g0
(g39
g2
Ntp201
Rp202
(dp203
g43
Nsg44
g45
sg46
(lp204
I49
aI50
aI44
aI41
asg48
I31
sg49
I00
sg50
(dp205
g52
Nsg53
Nsg54
Nssg55
S'elset_wall_1_5_element_prop'
p206
sbsI32
g0
(g39
g2
Ntp207
Rp208
(dp209
g43
Nsg44
g45
sg46
(lp210
I50
aI51
aI46
aI44
asg48
I32
sg49
I00
sg50
(dp211
g52
Nsg53
Nsg54
Nssg55
S'elset_wall_1_6_element_prop'
p212
sbsI33
g0
(g39
g2
Ntp213
Rp214
(dp215
g43
Nsg44
g45
sg46
(lp216
I52
aI53
aI49
aI48
asg48
I33
sg49
I00
sg50
(dp217
g52
Nsg53
Nsg54
Nssg55
S'elset_wall_1_7_element_prop'
p218
sbsI34
g0
(g39
g2
Ntp219
Rp220
(dp221
g43
Nsg44
g45
sg46
(lp222
I53
aI54
aI50
aI49
asg48
I34
sg49
I00
sg50
(dp223
g52
Nsg53
Nsg54
Nssg55
S'elset_wall_1_8_element_prop'
p224
sbsI35
g0
(g39
g2
Ntp225
Rp226
(dp227
g43
Nsg44
g45
sg46
(lp228
I54
aI55
aI51
aI50
asg48
I35
sg49
I00
sg50
(dp229
g52
Nsg53
Nsg54
Nssg55
S'elset_wall_1_9_element_prop'
p230
sbsI36
g0
(g39
g2
Ntp231
Rp232
(dp233
g43
Nsg44
g45
sg46
(lp234
I56
aI58
aI59
aI57
asg48
I36
sg49
I00
sg50
(dp235
g52
Nsg53
Nsg54
Nssg55
S'elset_wall_2_1_element_prop'
p236
sbsI37
g0
(g39
g2
Ntp237
Rp238
(dp239
g43
Nsg44
g45
sg46
(lp240
I57
aI59
aI61
aI60
asg48
I37
sg49
I00
sg50
(dp241
g52
Nsg53
Nsg54
Nssg55
S'elset_wall_2_2_element_prop'
p242
sbsI38
g0
(g39
g2
Ntp243
Rp244
(dp245
g43
Nsg44
g45
sg46
(lp246
I60
aI61
aI63
aI62
asg48
I38
sg49
I00
sg50
(dp247
g52
Nsg53
Nsg54
Nssg55
S'elset_wall_2_3_element_prop'
p248
sbsI39
g0
(g39
g2
Ntp249
Rp250
(dp251
g43
Nsg44
g45
sg46
(lp252
I64
aI56
aI57
aI65
asg48
I39
sg49
I00
sg50
(dp253
g52
Nsg53
Nsg54
Nssg55
S'elset_wall_2_4_element_prop'
p254
sbsI40
g0
(g39
g2
Ntp255
Rp256
(dp257
g43
Nsg44
g45
sg46
(lp258
I65
aI57
aI60
aI66
asg48
I40
sg49
I00
sg50
(dp259
g52
Nsg53
Nsg54
Nssg55
S'elset_wall_2_5_element_prop'
p260
sbsI41
g0
(g39
g2
Ntp261
Rp262
(dp263
g43
Nsg44
g45
sg46
(lp264
I66
aI60
aI62
aI67
asg48
I41
sg49
I00
sg50
(dp265
g52
Nsg53
Nsg54
Nssg55
S'elset_wall_2_6_element_prop'
p266
sbsI42
g0
(g39
g2
Ntp267
Rp268
(dp269
g43
Nsg44
g45
sg46
(lp270
I68
aI64
aI65
aI69
asg48
I42
sg49
I00
sg50
(dp271
g52
Nsg53
Nsg54
Nssg55
S'elset_wall_2_7_element_prop'
p272
sbsI43
g0
(g39
g2
Ntp273
Rp274
(dp275
g43
Nsg44
g45
sg46
(lp276
I69
aI65
aI66
aI70
asg48
I43
sg49
I00
sg50
(dp277
g52
Nsg53
Nsg54
Nssg55
S'elset_wall_2_8_element_prop'
p278
sbsI44
g0
(g39
g2
Ntp279
Rp280
(dp281
g43
Nsg44
g45
sg46
(lp282
I70
aI66
aI67
aI71
asg48
I44
sg49
I00
sg50
(dp283
g52
Nsg53
Nsg54
Nssg55
S'elset_wall_2_9_element_prop'
p284
sbsI45
g0
(ccompas_fea.structure.element
MPCElement
p285
g2
Ntp286
Rp287
(dp288
g43
Nsg44
S'MPCElement'
p289
sg46
(lp290
I63
aI31
asg48
I45
sg49
I00
sg50
(dp291
g52
Nsg53
(lp292
F0.0
aF0.0
aF633.6773791775064
asg54
Nssg55
S'elset_mpc_element_prop'
p293
sbsI46
g0
(g285
g2
Ntp294
Rp295
(dp296
g43
Nsg44
g289
sg46
(lp297
I61
aI23
asg48
I46
sg49
I00
sg50
(dp298
g52
Nsg53
(lp299
F2.2737367544323206e-12
aF0.0
aF633.6773791775064
asg54
Nssg55
g293
sbsI47
g0
(g285
g2
Ntp300
Rp301
(dp302
g43
Nsg44
g289
sg46
(lp303
I59
aI15
asg48
I47
sg49
I00
sg50
(dp304
g52
Nsg53
(lp305
F1.1368683772161603e-12
aF0.0
aF633.6773791775064
asg54
Nssg55
g293
sbsI48
g0
(g285
g2
Ntp306
Rp307
(dp308
g43
Nsg44
g289
sg46
(lp309
I58
aI14
asg48
I48
sg49
I00
sg50
(dp310
g52
Nsg53
(lp311
F0.0
aF0.0
aF633.6773791775064
asg54
Nssg55
g293
sbsI49
g0
(g285
g2
Ntp312
Rp313
(dp314
g43
Nsg44
g289
sg46
(lp315
I47
aI24
asg48
I49
sg49
I00
sg50
(dp316
g52
Nsg53
(lp317
F0.0
aF0.0
aF633.6773791775064
asg54
Nssg55
g293
sbsI50
g0
(g285
g2
Ntp318
Rp319
(dp320
g43
Nsg44
g289
sg46
(lp321
I45
aI16
asg48
I50
sg49
I00
sg50
(dp322
g52
Nsg53
(lp323
F2.2737367544323206e-12
aF0.0
aF633.6773791775064
asg54
Nssg55
g293
sbsI51
g0
(g285
g2
Ntp324
Rp325
(dp326
g43
Nsg44
g289
sg46
(lp327
I43
aI1
asg48
I51
sg49
I00
sg50
(dp328
g52
Nsg53
(lp329
F1.1368683772161603e-12
aF0.0
aF633.6773791775064
asg54
Nssg55
g293
sbsI52
g0
(g285
g2
Ntp330
Rp331
(dp332
g43
Nsg44
g289
sg46
(lp333
I42
aI0
asg48
I52
sg49
I00
sg50
(dp334
g52
Nsg53
(lp335
F0.0
aF0.0
aF633.6773791775064
asg54
Nssg55
g293
sbssS'element_index'
p336
(dp337
S'4091.772,15193.690,-3955.438'
p338
I44
sS'2440.274,11015.425,0.000'
p339
I9
sS'2440.274,15193.690,-1290.073'
p340
I37
sS'0.000,15193.690,-316.839'
p341
I48
sS'813.425,4178.265,0.000'
p342
I2
sS'2440.274,15193.690,-3955.438'
p343
I43
sS'813.425,9318.796,0.000'
p344
I20
sS'813.425,2506.959,0.000'
p345
I1
sS'1626.849,0.000,-316.839'
p346
I51
sS'2440.274,4178.265,0.000'
p347
I8
sS'813.425,0.000,-1290.073'
p348
I27
sS'813.425,12686.731,0.000'
p349
I4
sS'813.425,15193.690,-1290.073'
p350
I36
sS'4091.772,11015.425,0.000'
p351
I15
sS'4091.772,5874.893,0.000'
p352
I24
sS'2440.274,12686.731,0.000'
p353
I10
sS'813.425,14358.037,0.000'
p354
I5
sS'2440.274,2506.959,0.000'
p355
I7
sS'2440.274,9318.796,0.000'
p356
I23
sS'2440.274,0.000,-2622.756'
p357
I31
sS'813.425,15193.690,-2622.756'
p358
I39
sS'4091.772,0.000,-1290.073'
p359
I29
sS'813.425,0.000,-2622.756'
p360
I30
sS'2440.274,5874.893,0.000'
p361
I21
sS'4091.772,835.653,0.000'
p362
I12
sS'4091.772,9318.796,0.000'
p363
I26
sS'1626.849,15193.690,-316.839'
p364
I47
sS'3253.698,0.000,-316.839'
p365
I50
sS'4091.772,4178.265,0.000'
p366
I14
sS'4091.772,15193.690,-1290.073'
p367
I38
sS'4929.845,0.000,-316.839'
p368
I49
sS'2440.274,7596.845,0.000'
p369
I22
sS'4091.772,7596.845,0.000'
p370
I25
sS'2440.274,0.000,-3955.438'
p371
I34
sS'0.000,0.000,-316.839'
p372
I52
sS'4091.772,2506.959,0.000'
p373
I13
sS'813.425,5874.893,0.000'
p374
I18
sS'4091.772,0.000,-3955.438'
p375
I35
sS'3253.698,15193.690,-316.839'
p376
I46
sS'4929.845,15193.690,-316.839'
p377
I45
sS'813.425,15193.690,-3955.438'
p378
I42
sS'2440.274,0.000,-1290.073'
p379
I28
sS'4091.772,12686.731,0.000'
p380
I16
sS'2440.274,14358.037,0.000'
p381
I11
sS'813.425,11015.425,0.000'
p382
I3
sS'2440.274,15193.690,-2622.756'
p383
I40
sS'813.425,835.653,0.000'
p384
I0
sS'4091.772,0.000,-2622.756'
p385
I32
sS'813.425,0.000,-3955.438'
p386
I33
sS'4091.772,14358.037,0.000'
p387
I17
sS'813.425,7596.845,0.000'
p388
I19
sS'2440.274,835.653,0.000'
p389
I6
sS'4091.772,15193.690,-2622.756'
p390
I41
ssS'element_properties'
p391
(dp392
g254
g0
(ccompas_fea.structure.element_properties
ElementProperties
p393
g2
Ntp394
Rp395
(dp396
S'index'
p397
I21
sS'__name__'
p398
S'ElementProperties'
p399
sS'name'
p400
g254
sS'material'
p401
S'wall_element_mat'
p402
sS'section'
p403
S'wall2_element_sec'
p404
sS'elset'
p405
S'elset_wall_2_4'
p406
sS'elements'
p407
NsS'rebar'
p408
(dp409
sbsg188
g0
(g393
g2
Ntp410
Rp411
(dp412
g397
I10
sg398
g399
sg400
g188
sg401
g402
sg403
S'wall1_element_sec'
p413
sg405
S'elset_wall_1_2'
p414
sg407
Nsg408
g409
sbsg224
g0
(g393
g2
Ntp415
Rp416
(dp417
g397
I16
sg398
g399
sg400
g224
sg401
g402
sg403
g413
sg405
S'elset_wall_1_8'
p418
sg407
Nsg408
g409
sbsg242
g0
(g393
g2
Ntp419
Rp420
(dp421
g397
I19
sg398
g399
sg400
g242
sg401
g402
sg403
g404
sg405
S'elset_wall_2_2'
p422
sg407
Nsg408
g409
sbsg56
g0
(g393
g2
Ntp423
Rp424
(dp425
g397
I0
sg398
g399
sg400
g56
sg401
S'plate_element_mat'
p426
sg403
S'plate_element_sec'
p427
sg405
S'elset_plate_1'
p428
sg407
Nsg408
g409
sbsg260
g0
(g393
g2
Ntp429
Rp430
(dp431
g397
I22
sg398
g399
sg400
g260
sg401
g402
sg403
g404
sg405
S'elset_wall_2_5'
p432
sg407
Nsg408
g409
sbsg168
g0
(g393
g2
Ntp433
Rp434
(dp435
g397
I8
sg398
g399
sg400
g168
sg401
g426
sg403
g427
sg405
S'elset_plate_9'
p436
sg407
Nsg408
g409
sbsg212
g0
(g393
g2
Ntp437
Rp438
(dp439
g397
I14
sg398
g399
sg400
g212
sg401
g402
sg403
g413
sg405
S'elset_wall_1_6'
p440
sg407
Nsg408
g409
sbsg112
g0
(g393
g2
Ntp441
Rp442
(dp443
g397
I4
sg398
g399
sg400
g112
sg401
g426
sg403
g427
sg405
S'elset_plate_5'
p444
sg407
Nsg408
g409
sbsg194
g0
(g393
g2
Ntp445
Rp446
(dp447
g397
I11
sg398
g399
sg400
g194
sg401
g402
sg403
g413
sg405
S'elset_wall_1_3'
p448
sg407
Nsg408
g409
sbsg84
g0
(g393
g2
Ntp449
Rp450
(dp451
g397
I2
sg398
g399
sg400
g84
sg401
g426
sg403
g427
sg405
S'elset_plate_3'
p452
sg407
Nsg408
g409
sbsg248
g0
(g393
g2
Ntp453
Rp454
(dp455
g397
I20
sg398
g399
sg400
g248
sg401
g402
sg403
g404
sg405
S'elset_wall_2_3'
p456
sg407
Nsg408
g409
sbsg266
g0
(g393
g2
Ntp457
Rp458
(dp459
g397
I23
sg398
g399
sg400
g266
sg401
g402
sg403
g404
sg405
S'elset_wall_2_6'
p460
sg407
Nsg408
g409
sbsg200
g0
(g393
g2
Ntp461
Rp462
(dp463
g397
I12
sg398
g399
sg400
g200
sg401
g402
sg403
g413
sg405
S'elset_wall_1_4'
p464
sg407
Nsg408
g409
sbsg230
g0
(g393
g2
Ntp465
Rp466
(dp467
g397
I17
sg398
g399
sg400
g230
sg401
g402
sg403
g413
sg405
S'elset_wall_1_9'
p468
sg407
Nsg408
g409
sbsg154
g0
(g393
g2
Ntp469
Rp470
(dp471
g397
I7
sg398
g399
sg400
g154
sg401
g426
sg403
g427
sg405
S'elset_plate_8'
p472
sg407
Nsg408
g409
sbsg182
g0
(g393
g2
Ntp473
Rp474
(dp475
g397
I9
sg398
g399
sg400
g182
sg401
g402
sg403
g413
sg405
S'elset_wall_1_1'
p476
sg407
Nsg408
g409
sbsg140
g0
(g393
g2
Ntp477
Rp478
(dp479
g397
I6
sg398
g399
sg400
g140
sg401
g426
sg403
g427
sg405
S'elset_plate_7'
p480
sg407
Nsg408
g409
sbsg278
g0
(g393
g2
Ntp481
Rp482
(dp483
g397
I25
sg398
g399
sg400
g278
sg401
g402
sg403
g404
sg405
S'elset_wall_2_8'
p484
sg407
Nsg408
g409
sbsg98
g0
(g393
g2
Ntp485
Rp486
(dp487
g397
I3
sg398
g399
sg400
g98
sg401
g426
sg403
g427
sg405
S'elset_plate_4'
p488
sg407
Nsg408
g409
sbsg70
g0
(g393
g2
Ntp489
Rp490
(dp491
g397
I1
sg398
g399
sg400
g70
sg401
g426
sg403
g427
sg405
S'elset_plate_2'
p492
sg407
Nsg408
g409
sbsg293
g0
(g393
g2
Ntp493
Rp494
(dp495
g397
I27
sg398
g399
sg400
g293
sg401
S'elset_mpc_element_mat'
p496
sg403
S'sec_mpc'
p497
sg405
S'elset_mpcs'
p498
sg407
Nsg408
g409
sbsg218
g0
(g393
g2
Ntp499
Rp500
(dp501
g397
I15
sg398
g399
sg400
g218
sg401
g402
sg403
g413
sg405
S'elset_wall_1_7'
p502
sg407
Nsg408
g409
sbsg272
g0
(g393
g2
Ntp503
Rp504
(dp505
g397
I24
sg398
g399
sg400
g272
sg401
g402
sg403
g404
sg405
S'elset_wall_2_7'
p506
sg407
Nsg408
g409
sbsg284
g0
(g393
g2
Ntp507
Rp508
(dp509
g397
I26
sg398
g399
sg400
g284
sg401
g402
sg403
g404
sg405
S'elset_wall_2_9'
p510
sg407
Nsg408
g409
sbsg236
g0
(g393
g2
Ntp511
Rp512
(dp513
g397
I18
sg398
g399
sg400
g236
sg401
g402
sg403
g404
sg405
S'elset_wall_2_1'
p514
sg407
Nsg408
g409
sbsg126
g0
(g393
g2
Ntp515
Rp516
(dp517
g397
I5
sg398
g399
sg400
g126
sg401
g426
sg403
g427
sg405
S'elset_plate_6'
p518
sg407
Nsg408
g409
sbsg206
g0
(g393
g2
Ntp519
Rp520
(dp521
g397
I13
sg398
g399
sg400
g206
sg401
g402
sg403
g413
sg405
S'elset_wall_1_5'
p522
sg407
Nsg408
g409
sbssS'interactions'
p523
(dp524
sS'loads'
p525
(dp526
S'earthPressure_liveLoad'
p527
g0
(ccompas_fea.structure.load
AreaLoad
p528
g2
Ntp529
Rp530
(dp531
g397
I9
sS'__name__'
p532
S'AreaLoad'
p533
sS'name'
p534
g527
sS'axes'
p535
S'local'
p536
sS'components'
p537
(dp538
g23
F0.037699999999999997
sg27
I0
sg28
I0
ssS'nodes'
p539
(lp540
sS'elements'
p541
(lp542
I28
aI29
aI31
aI32
aI34
aI35
asS'attr_list'
p543
(lp544
S'name'
p545
aS'axes'
p546
aS'components'
p547
aS'nodes'
p548
aS'elements'
p549
asbsS'Gleis1_BAHNLASTEN_Lasteinzugsflache_Lastblock_-2'
p550
g0
(g528
g2
Ntp551
Rp552
(dp553
g397
I8
sg532
g533
sg534
g550
sg535
S'global'
p554
sg537
(dp555
g23
F0.080740273318763808
sg27
I0
sg28
I0
ssg539
g540
sg541
(lp556
I1
aI7
asg543
(lp557
g545
ag546
ag547
ag548
ag549
asbsS'Gleis1_EIGENGEWICHTE_SCHIENE_Lasteinzugsflache'
p558
g0
(g528
g2
Ntp559
Rp560
(dp561
g397
I3
sg532
g533
sg534
g558
sg535
g554
sg537
(dp562
g23
F0.0024149089432882586
sg27
I0
sg28
I0
ssg539
g540
sg541
(lp563
I1
aI2
aI7
aI8
aI9
aI10
aI14
aI15
aI16
aI17
aI18
aI22
aI23
aI24
aI25
aI26
aI27
asg543
(lp564
g545
ag546
ag547
ag548
ag549
asbsS'earthPressure_backfill'
p565
g0
(g528
g2
Ntp566
Rp567
(dp568
g397
I2
sg532
g533
sg534
g565
sg535
g536
sg537
(dp569
g23
F0.051738935912855638
sg27
I0
sg28
I0
ssg539
g540
sg541
(lp570
g476
ag414
ag448
ag464
ag522
ag440
ag502
ag418
ag468
ag514
ag422
ag456
ag406
ag432
ag460
ag506
ag484
ag510
asg543
(lp571
g545
ag546
ag547
ag548
ag549
asbsS'Gleis1_BAHNLASTEN_Lasteinzugsflache_Lastblock_2'
p572
g0
(g528
g2
Ntp573
Rp574
(dp575
g397
I5
sg532
g533
sg534
g572
sg535
g554
sg537
(dp576
g23
F0.080740273318763808
sg27
I0
sg28
I0
ssg539
g540
sg541
(lp577
I10
aI16
asg543
(lp578
g545
ag546
ag547
ag548
ag549
asbsS'earthPressure_gravel'
p579
g0
(g528
g2
Ntp580
Rp581
(dp582
g397
I1
sg532
g533
sg534
g579
sg535
g554
sg537
(dp583
g23
F0.013500000000000002
sg27
I0
sg28
I0
ssg539
g540
sg541
(lp584
g428
ag492
ag452
ag488
ag444
ag518
ag480
ag472
ag436
asg543
(lp585
g545
ag546
ag547
ag548
ag549
asbsS'Gleis1_BAHNLASTEN_Lasteinzugsflache_Lastblock_3'
p586
g0
(g528
g2
Ntp587
Rp588
(dp589
g397
I6
sg532
g533
sg534
g586
sg535
g554
sg537
(dp590
g23
F0.080740273318763808
sg27
I0
sg28
I0
ssg539
g540
sg541
(lp591
I17
asg543
(lp592
g545
ag546
ag547
ag548
ag549
asbsS'Gleis1_BAHNLASTEN_Lasteinzugsflache_Lastblock_1'
p593
g0
(g528
g2
Ntp594
Rp595
(dp596
g397
I4
sg532
g533
sg534
g593
sg535
g554
sg537
(dp597
g23
F0.080740273318763808
sg27
I0
sg28
I0
ssg539
g540
sg541
(lp598
I23
aI26
asg543
(lp599
g545
ag546
ag547
ag548
ag549
asbsS'load_gravity'
p600
g0
(ccompas_fea.structure.load
GravityLoad
p601
g2
Ntp602
Rp603
(dp604
g15
I0
sg532
S'GravityLoad'
p605
sg534
g600
sg535
g554
sg537
(dp606
g23
F1.3500000000000001
sg27
F0.0
sg28
F0.0
ssg539
g540
sg541
(lp607
g428
ag492
ag452
ag488
ag444
ag518
ag480
ag472
ag436
ag476
ag414
ag448
ag464
ag522
ag440
ag502
ag418
ag468
ag514
ag422
ag456
ag406
ag432
ag460
ag506
ag484
ag510
asg543
(lp608
g545
ag546
ag547
ag548
ag549
aS'g'
p609
asS'g'
p610
F-9.8100000000000005
sbsS'Gleis1_BAHNLASTEN_Lasteinzugsflache_Lastblock_-1'
p611
g0
(g528
g2
Ntp612
Rp613
(dp614
g397
I7
sg532
g533
sg534
g611
sg535
g554
sg537
(dp615
g23
F0.080740273318763808
sg27
I0
sg28
I0
ssg539
g540
sg541
(lp616
I22
aI25
asg543
(lp617
g545
ag546
ag547
ag548
ag549
asbssS'materials'
p618
(dp619
g496
g0
(ccompas_fea.structure.material
MPCStiff
p620
g2
Ntp621
Rp622
(dp623
g15
I2
sS'__name__'
p624
S'MPCStiff'
p625
sS'name'
p626
g496
sS'attr_list'
p627
(lp628
g545
aS'E'
p629
aS'v'
p630
aS'G'
p631
aS'p'
p632
aS'tension'
p633
aS'compression'
p634
asS'E'
p635
(dp636
g629
L10000000000000L
ssS'v'
p637
(dp638
g630
F0.29999999999999999
ssS'G'
p639
(dp640
g631
F3846153846153.8462
ssS'p'
p641
F0.10000000000000001
sS'tension'
p642
I01
sS'compression'
p643
I01
sbsg402
g0
(ccompas_fea.structure.material
CMMUsermat
p644
g2
Ntp645
Rp646
(dp647
g15
I1
sg624
S'CMMUsermat'
p648
sg626
g402
sg627
(lp649
g545
ag629
ag630
ag631
ag632
aS'R_Rohr'
p650
aS'rho'
p651
aS'oo'
p652
aS'uu'
p653
aS'beton'
p654
aS'fcc'
p655
aS'vc'
p656
aS'ecu'
p657
aS'k_E'
p658
aS'theta_b0'
p659
aS'theta_b1'
p660
aS'k_riss'
p661
aS'Entfestigung'
p662
aS'lambdaTS'
p663
aS'srmx'
p664
aS'srmy'
p665
aS'Begrenzung'
p666
aS'KritQ'
p667
aS'winkelD'
p668
aS'k_vr'
p669
aS'fswy'
p670
aS'stahl1'
p671
aS'zm1'
p672
aS'fsy1'
p673
aS'fsu1'
p674
aS'esu1'
p675
aS'esv1'
p676
aS'Es1'
p677
aS'ka1'
p678
aS'kb1'
p679
aS'kc1'
p680
aS'as1'
p681
aS'dm1'
p682
aS'psi1'
p683
aS'stahl2'
p684
aS'zm2'
p685
aS'fsy2'
p686
aS'fsu2'
p687
aS'esu2'
p688
aS'esv2'
p689
aS'Es2'
p690
aS'ka2'
p691
aS'kb2'
p692
aS'kc2'
p693
aS'as2'
p694
aS'dm2'
p695
aS'psi2'
p696
aS'stahl3'
p697
aS'zm3'
p698
aS'fsy3'
p699
aS'fsu3'
p700
aS'esu3'
p701
aS'esv3'
p702
aS'Es3'
p703
aS'ka3'
p704
aS'kb3'
p705
aS'kc3'
p706
aS'as3'
p707
aS'dm3'
p708
aS'psi3'
p709
aS'stahl4'
p710
aS'zm4'
p711
aS'fsy4'
p712
aS'fsu4'
p713
aS'esu4'
p714
aS'esv4'
p715
aS'Es4'
p716
aS'ka4'
p717
aS'kb4'
p718
aS'kc4'
p719
aS'as4'
p720
aS'dm4'
p721
aS'psi4'
p722
asS'E'
p723
(dp724
S'E'
p725
I200000
ssS'v'
p726
(dp727
S'v'
p728
F0.10000000000000001
ssS'G'
p729
(dp730
g631
F90909.090909090897
ssS'p'
p731
F2.5000000000000002e-06
sS'R_Rohr'
p732
(dp733
g650
I-1
ssS'rho'
p734
(dp735
g651
F2.5000000000000002e-06
ssS'oo'
p736
(dp737
g652
I30
ssS'uu'
p738
(dp739
g653
I30
ssS'beton'
p740
(dp741
g654
I2
ssS'fcc'
p742
(dp743
g655
I44
ssS'vc'
p744
(dp745
g656
I0
ssS'ecu'
p746
(dp747
g657
F-0.002
ssS'k_E'
p748
(dp749
g658
I10000
ssS'theta_b0'
p750
(dp751
g659
I2
ssS'theta_b1'
p752
(dp753
g660
I1
ssS'k_riss'
p754
(dp755
g661
I0
ssS'Entfestigung'
p756
(dp757
g662
I0
ssS'lambdaTS'
p758
(dp759
g663
F0.67000000000000004
ssS'srmx'
p760
(dp761
g664
I1
ssS'srmy'
p762
(dp763
g665
I1
ssS'Begrenzung'
p764
(dp765
g666
I2
ssS'KritQ'
p766
(dp767
g667
I0
ssS'winkelD'
p768
(dp769
g668
I45
ssS'k_vr'
p770
(dp771
g669
I1
ssS'fswy'
p772
(dp773
g670
I500
ssS'stahl1'
p774
(dp775
g671
I1
ssS'zm1'
p776
(dp777
g672
I2
ssS'fsy1'
p778
(dp779
g673
I318
ssS'fsu1'
p780
(dp781
g674
I344
ssS'esu1'
p782
(dp783
g675
F0.044999999999999998
ssS'esv1'
p784
(dp785
g676
F0.02
ssS'Es1'
p786
(dp787
g677
I200000
ssS'ka1'
p788
(dp789
g678
I-1
ssS'kb1'
p790
(dp791
g679
I-1
ssS'kc1'
p792
(dp793
g680
I-1
ssS'as1'
p794
(dp795
g681
F0.43965598903652364
ssS'dm1'
p796
(dp797
g682
F16.64057004160027
ssS'psi1'
p798
(dp799
g683
I90
ssS'stahl2'
p800
(dp801
g684
I1
ssS'zm2'
p802
(dp803
g685
I2
ssS'fsy2'
p804
(dp805
g686
I318
ssS'fsu2'
p806
(dp807
g687
I344
ssS'esu2'
p808
(dp809
g688
F0.044999999999999998
ssS'esv2'
p810
(dp811
g689
F0.02
ssS'Es2'
p812
(dp813
g690
I200000
ssS'ka2'
p814
(dp815
g691
I-1
ssS'kb2'
p816
(dp817
g692
I-1
ssS'kc2'
p818
(dp819
g693
I-1
ssS'as2'
p820
(dp821
g694
F0.2286330904164007
ssS'dm2'
p822
(dp823
g695
F12.0
ssS'psi2'
p824
(dp825
g696
I0
ssS'stahl3'
p826
(dp827
g697
I1
ssS'zm3'
p828
(dp829
g698
I2
ssS'fsy3'
p830
(dp831
g699
I318
ssS'fsu3'
p832
(dp833
g700
I344
ssS'esu3'
p834
(dp835
g701
F0.044999999999999998
ssS'esv3'
p836
(dp837
g702
F0.02
ssS'Es3'
p838
(dp839
g703
I200000
ssS'ka3'
p840
(dp841
g704
I-1
ssS'kb3'
p842
(dp843
g705
I-1
ssS'kc3'
p844
(dp845
g706
I-1
ssS'as3'
p846
(dp847
g707
F0.2286330904164007
ssS'dm3'
p848
(dp849
g708
F12.0
ssS'psi3'
p850
(dp851
g709
I0
ssS'stahl4'
p852
(dp853
g710
I1
ssS'zm4'
p854
(dp855
g711
I2
ssS'fsy4'
p856
(dp857
g712
I318
ssS'fsu4'
p858
(dp859
g713
I344
ssS'esu4'
p860
(dp861
g714
F0.044999999999999998
ssS'esv4'
p862
(dp863
g715
F0.02
ssS'Es4'
p864
(dp865
g716
I200000
ssS'ka4'
p866
(dp867
g717
I-1
ssS'kb4'
p868
(dp869
g718
I-1
ssS'kc4'
p870
(dp871
g719
I-1
ssS'as4'
p872
(dp873
g720
F0.29345800990344184
ssS'dm4'
p874
(dp875
g721
F13.595171381750461
ssS'psi4'
p876
(dp877
g722
I90
ssbsg426
g0
(g644
g2
Ntp878
Rp879
(dp880
g15
I0
sg624
g648
sg626
g426
sg627
(lp881
g545
ag629
ag630
ag631
ag632
ag650
ag651
ag652
ag653
ag654
ag655
ag656
ag657
ag658
ag659
ag660
ag661
ag662
ag663
ag664
ag665
ag666
ag667
ag668
ag669
ag670
ag671
ag672
ag673
ag674
ag675
ag676
ag677
ag678
ag679
ag680
ag681
ag682
ag683
ag684
ag685
ag686
ag687
ag688
ag689
ag690
ag691
ag692
ag693
ag694
ag695
ag696
ag697
ag698
ag699
ag700
ag701
ag702
ag703
ag704
ag705
ag706
ag707
ag708
ag709
ag710
ag711
ag712
ag713
ag714
ag715
ag716
ag717
ag718
ag719
ag720
ag721
ag722
asg723
(dp882
g725
I200000
ssg726
(dp883
g728
F0.10000000000000001
ssg729
(dp884
g631
F90909.090909090897
ssg731
F2.5000000000000002e-06
sg732
(dp885
g650
I-1
ssg734
(dp886
g651
F2.5000000000000002e-06
ssg736
(dp887
g652
I30
ssg738
(dp888
g653
I30
ssg740
(dp889
g654
I2
ssg742
(dp890
g655
I44
ssg744
(dp891
g656
I0
ssg746
(dp892
g657
F-0.002
ssg748
(dp893
g658
I10000
ssg750
(dp894
g659
I2
ssg752
(dp895
g660
I1
ssg754
(dp896
g661
I0
ssg756
(dp897
g662
I0
ssg758
(dp898
g663
F0.67000000000000004
ssg760
(dp899
g664
I1
ssg762
(dp900
g665
I1
ssg764
(dp901
g666
I2
ssg766
(dp902
g667
I0
ssg768
(dp903
g668
I45
ssg770
(dp904
g669
I1
ssg772
(dp905
g670
I500
ssg774
(dp906
g671
I1
ssg776
(dp907
g672
I2
ssg778
(dp908
g673
I318
ssg780
(dp909
g674
I344
ssg782
(dp910
g675
F0.044999999999999998
ssg784
(dp911
g676
F0.02
ssg786
(dp912
g677
I200000
ssg788
(dp913
g678
I-1
ssg790
(dp914
g679
I-1
ssg792
(dp915
g680
I-1
ssg794
(dp916
g681
F1.2317545866425086
ssg796
(dp917
g682
F26.928569904210878
ssg798
(dp918
g683
I90
ssg800
(dp919
g684
I1
ssg802
(dp920
g685
I2
ssg804
(dp921
g686
I318
ssg806
(dp922
g687
I344
ssg808
(dp923
g688
F0.044999999999999998
ssg810
(dp924
g689
F0.02
ssg812
(dp925
g690
I200000
ssg814
(dp926
g691
I-1
ssg816
(dp927
g692
I-1
ssg818
(dp928
g693
I-1
ssg820
(dp929
g694
F0.36080642634686871
ssg822
(dp930
g695
F14.574320910405572
ssg824
(dp931
g696
I0
ssg826
(dp932
g697
I1
ssg828
(dp933
g698
I2
ssg830
(dp934
g699
I318
ssg832
(dp935
g700
I344
ssg834
(dp936
g701
F0.044999999999999998
ssg836
(dp937
g702
F0.02
ssg838
(dp938
g703
I200000
ssg840
(dp939
g704
I-1
ssg842
(dp940
g705
I-1
ssg844
(dp941
g706
I-1
ssg846
(dp942
g707
F0.24460205439654392
ssg848
(dp943
g708
F12.0
ssg850
(dp944
g709
I0
ssg852
(dp945
g710
I1
ssg854
(dp946
g711
I2
ssg856
(dp947
g712
I318
ssg858
(dp948
g713
I344
ssg860
(dp949
g714
F0.044999999999999998
ssg862
(dp950
g715
F0.02
ssg864
(dp951
g716
I200000
ssg866
(dp952
g717
I-1
ssg868
(dp953
g718
I-1
ssg870
(dp954
g719
I-1
ssg872
(dp955
g720
F0.59161394095902575
ssg874
(dp956
g721
F18.662524700034467
ssg876
(dp957
g722
I90
ssbssS'misc'
p958
(dp959
sS'name'
p960
S'NLFE_CFB8'
p961
sS'nodes'
p962
(dp963
I0
g0
(ccompas_fea.structure.node
Node
p964
g2
Ntp965
Rp966
(dp967
S'__name__'
p968
S'Node'
p969
sS'key'
p970
I0
sS'x'
p971
F0.0
sS'y'
p972
F0.0
sS'z'
p973
F0.0
sS'ex'
p974
(lp975
I1
aI0
aI0
asS'ey'
p976
(lp977
I0
aI1
aI0
asS'ez'
p978
(lp979
I0
aI0
aI1
asS'mass'
p980
NsbsI1
g0
(g964
g2
Ntp981
Rp982
(dp983
g968
g969
sg970
I1
sg971
F1626.8490101911311
sg972
F0.0
sg973
F0.0
sg974
g975
sg976
g977
sg978
g979
sg980
NsbsI2
g0
(g964
g2
Ntp984
Rp985
(dp986
g968
g969
sg970
I2
sg971
F0.0
sg972
F1671.3058834938649
sg973
F0.0
sg974
g975
sg976
g977
sg978
g979
sg980
NsbsI3
g0
(g964
g2
Ntp987
Rp988
(dp989
g968
g969
sg970
I3
sg971
F1626.8490101911309
sg972
F1671.3058834938649
sg973
F0.0
sg974
g975
sg976
g977
sg978
g979
sg980
NsbsI4
g0
(g964
g2
Ntp990
Rp991
(dp992
g968
g969
sg970
I4
sg971
F0.0
sg972
F3342.6117669877299
sg973
F0.0
sg974
g975
sg976
g977
sg978
g979
sg980
NsbsI5
g0
(g964
g2
Ntp993
Rp994
(dp995
g968
g969
sg970
I5
sg971
F1626.8490101911309
sg972
F3342.6117669877299
sg973
F0.0
sg974
g975
sg976
g977
sg978
g979
sg980
NsbsI6
g0
(g964
g2
Ntp996
Rp997
(dp998
g968
g969
sg970
I6
sg971
F0.0
sg972
F5013.917650481596
sg973
F0.0
sg974
g975
sg976
g977
sg978
g979
sg980
NsbsI7
g0
(g964
g2
Ntp999
Rp1000
(dp1001
g968
g969
sg970
I7
sg971
F1626.8490101911311
sg972
F5013.917650481596
sg973
F0.0
sg974
g975
sg976
g977
sg978
g979
sg980
NsbsI8
g0
(g964
g2
Ntp1002
Rp1003
(dp1004
g968
g969
sg970
I8
sg971
F0.0
sg972
F10179.772199462634
sg973
F0.0
sg974
g975
sg976
g977
sg978
g979
sg980
NsbsI9
g0
(g964
g2
Ntp1005
Rp1006
(dp1007
g968
g969
sg970
I9
sg971
F1626.8490101911311
sg972
F10179.772199462634
sg973
F0.0
sg974
g975
sg976
g977
sg978
g979
sg980
NsbsI10
g0
(g964
g2
Ntp1008
Rp1009
(dp1010
g968
g969
sg970
I10
sg971
F0.0
sg972
F11851.078082956499
sg973
F0.0
sg974
g975
sg976
g977
sg978
g979
sg980
NsbsI11
g0
(g964
g2
Ntp1011
Rp1012
(dp1013
g968
g969
sg970
I11
sg971
F1626.8490101911311
sg972
F11851.078082956499
sg973
F0.0
sg974
g975
sg976
g977
sg978
g979
sg980
NsbsI12
g0
(g964
g2
Ntp1014
Rp1015
(dp1016
g968
g969
sg970
I12
sg971
F0.0
sg972
F13522.383966450365
sg973
F0.0
sg974
g975
sg976
g977
sg978
g979
sg980
NsbsI13
g0
(g964
g2
Ntp1017
Rp1018
(dp1019
g968
g969
sg970
I13
sg971
F1626.8490101911311
sg972
F13522.383966450365
sg973
F0.0
sg974
g975
sg976
g977
sg978
g979
sg980
NsbsI14
g0
(g964
g2
Ntp1020
Rp1021
(dp1022
g968
g969
sg970
I14
sg971
F0.0
sg972
F15193.689849944229
sg973
F0.0
sg974
g975
sg976
g977
sg978
g979
sg980
NsbsI15
g0
(g964
g2
Ntp1023
Rp1024
(dp1025
g968
g969
sg970
I15
sg971
F1626.8490101911311
sg972
F15193.689849944229
sg973
F0.0
sg974
g975
sg976
g977
sg978
g979
sg980
NsbsI16
g0
(g964
g2
Ntp1026
Rp1027
(dp1028
g968
g969
sg970
I16
sg971
F3253.6980203822623
sg972
F0.0
sg973
F0.0
sg974
g975
sg976
g977
sg978
g979
sg980
NsbsI17
g0
(g964
g2
Ntp1029
Rp1030
(dp1031
g968
g969
sg970
I17
sg971
F3253.6980203822618
sg972
F1671.3058834938649
sg973
F0.0
sg974
g975
sg976
g977
sg978
g979
sg980
NsbsI18
g0
(g964
g2
Ntp1032
Rp1033
(dp1034
g968
g969
sg970
I18
sg971
F3253.6980203822618
sg972
F3342.6117669877299
sg973
F0.0
sg974
g975
sg976
g977
sg978
g979
sg980
NsbsI19
g0
(g964
g2
Ntp1035
Rp1036
(dp1037
g968
g969
sg970
I19
sg971
F3253.6980203822623
sg972
F5013.917650481596
sg973
F0.0
sg974
g975
sg976
g977
sg978
g979
sg980
NsbsI20
g0
(g964
g2
Ntp1038
Rp1039
(dp1040
g968
g969
sg970
I20
sg971
F3253.6980203822623
sg972
F10179.772199462634
sg973
F0.0
sg974
g975
sg976
g977
sg978
g979
sg980
NsbsI21
g0
(g964
g2
Ntp1041
Rp1042
(dp1043
g968
g969
sg970
I21
sg971
F3253.6980203822623
sg972
F11851.078082956499
sg973
F0.0
sg974
g975
sg976
g977
sg978
g979
sg980
NsbsI22
g0
(g964
g2
Ntp1044
Rp1045
(dp1046
g968
g969
sg970
I22
sg971
F3253.6980203822623
sg972
F13522.383966450365
sg973
F0.0
sg974
g975
sg976
g977
sg978
g979
sg980
NsbsI23
g0
(g964
g2
Ntp1047
Rp1048
(dp1049
g968
g969
sg970
I23
sg971
F3253.6980203822623
sg972
F15193.689849944229
sg973
F0.0
sg974
g975
sg976
g977
sg978
g979
sg980
NsbsI24
g0
(g964
g2
Ntp1050
Rp1051
(dp1052
g968
g969
sg970
I24
sg971
F4929.8454854276697
sg972
F0.0
sg973
F0.0
sg974
g975
sg976
g977
sg978
g979
sg980
NsbsI25
g0
(g964
g2
Ntp1053
Rp1054
(dp1055
g968
g969
sg970
I25
sg971
F4929.8454854276697
sg972
F1671.3058834938649
sg973
F0.0
sg974
g975
sg976
g977
sg978
g979
sg980
NsbsI26
g0
(g964
g2
Ntp1056
Rp1057
(dp1058
g968
g969
sg970
I26
sg971
F4929.8454854276697
sg972
F3342.6117669877299
sg973
F0.0
sg974
g975
sg976
g977
sg978
g979
sg980
NsbsI27
g0
(g964
g2
Ntp1059
Rp1060
(dp1061
g968
g969
sg970
I27
sg971
F4929.8454854276697
sg972
F5013.917650481596
sg973
F0.0
sg974
g975
sg976
g977
sg978
g979
sg980
NsbsI28
g0
(g964
g2
Ntp1062
Rp1063
(dp1064
g968
g969
sg970
I28
sg971
F4929.8454854276697
sg972
F10179.772199462634
sg973
F0.0
sg974
g975
sg976
g977
sg978
g979
sg980
NsbsI29
g0
(g964
g2
Ntp1065
Rp1066
(dp1067
g968
g969
sg970
I29
sg971
F4929.8454854276697
sg972
F11851.078082956499
sg973
F0.0
sg974
g975
sg976
g977
sg978
g979
sg980
NsbsI30
g0
(g964
g2
Ntp1068
Rp1069
(dp1070
g968
g969
sg970
I30
sg971
F4929.8454854276697
sg972
F13522.383966450365
sg973
F0.0
sg974
g975
sg976
g977
sg978
g979
sg980
NsbsI31
g0
(g964
g2
Ntp1071
Rp1072
(dp1073
g968
g969
sg970
I31
sg971
F4929.8454854276697
sg972
F15193.689849944229
sg973
F0.0
sg974
g975
sg976
g977
sg978
g979
sg980
NsbsI32
g0
(g964
g2
Ntp1074
Rp1075
(dp1076
g968
g969
sg970
I32
sg971
F0.0
sg972
F6735.8691668086085
sg973
F0.0
sg974
g975
sg976
g977
sg978
g979
sg980
NsbsI33
g0
(g964
g2
Ntp1077
Rp1078
(dp1079
g968
g969
sg970
I33
sg971
F1626.8490101911311
sg972
F6735.8691668086085
sg973
F0.0
sg974
g975
sg976
g977
sg978
g979
sg980
NsbsI34
g0
(g964
g2
Ntp1080
Rp1081
(dp1082
g968
g969
sg970
I34
sg971
F0.0
sg972
F8457.8206831356201
sg973
F0.0
sg974
g975
sg976
g977
sg978
g979
sg980
NsbsI35
g0
(g964
g2
Ntp1083
Rp1084
(dp1085
g968
g969
sg970
I35
sg971
F1626.8490101911311
sg972
F8457.8206831356201
sg973
F0.0
sg974
g975
sg976
g977
sg978
g979
sg980
NsbsI36
g0
(g964
g2
Ntp1086
Rp1087
(dp1088
g968
g969
sg970
I36
sg971
F3253.6980203822623
sg972
F6735.8691668086085
sg973
F0.0
sg974
g975
sg976
g977
sg978
g979
sg980
NsbsI37
g0
(g964
g2
Ntp1089
Rp1090
(dp1091
g968
g969
sg970
I37
sg971
F3253.6980203822623
sg972
F8457.8206831356201
sg973
F0.0
sg974
g975
sg976
g977
sg978
g979
sg980
NsbsI38
g0
(g964
g2
Ntp1092
Rp1093
(dp1094
g968
g969
sg970
I38
sg971
F4929.8454854276697
sg972
F6735.8691668086085
sg973
F0.0
sg974
g975
sg976
g977
sg978
g979
sg980
NsbsI39
g0
(g964
g2
Ntp1095
Rp1096
(dp1097
g968
g969
sg970
I39
sg971
F4929.8454854276697
sg972
F8457.8206831356201
sg973
F0.0
sg974
g975
sg976
g977
sg978
g979
sg980
NsbsI40
g0
(g964
g2
Ntp1098
Rp1099
(dp1100
g968
g969
sg970
I40
sg971
F0.0
sg972
F0.0
sg973
F-1946.4689920893306
sg974
g975
sg976
g977
sg978
g979
sg980
NsbsI41
g0
(g964
g2
Ntp1101
Rp1102
(dp1103
g968
g969
sg970
I41
sg971
F1626.84901019113
sg972
F0.0
sg973
F-1946.4689920893306
sg974
g975
sg976
g977
sg978
g979
sg980
NsbsI42
g0
(g964
g2
Ntp1104
Rp1105
(dp1106
g968
g969
sg970
I42
sg971
F0.0
sg972
F0.0
sg973
F-633.6773791775064
sg974
g975
sg976
g977
sg978
g979
sg980
NsbsI43
g0
(g964
g2
Ntp1107
Rp1108
(dp1109
g968
g969
sg970
I43
sg971
F1626.84901019113
sg972
F0.0
sg973
F-633.6773791775064
sg974
g975
sg976
g977
sg978
g979
sg980
NsbsI44
g0
(g964
g2
Ntp1110
Rp1111
(dp1112
g968
g969
sg970
I44
sg971
F3253.69802038226
sg972
F0.0
sg973
F-1946.4689920893306
sg974
g975
sg976
g977
sg978
g979
sg980
NsbsI45
g0
(g964
g2
Ntp1113
Rp1114
(dp1115
g968
g969
sg970
I45
sg971
F3253.69802038226
sg972
F0.0
sg973
F-633.6773791775064
sg974
g975
sg976
g977
sg978
g979
sg980
NsbsI46
g0
(g964
g2
Ntp1116
Rp1117
(dp1118
g968
g969
sg970
I46
sg971
F4929.8454854276697
sg972
F0.0
sg973
F-1946.4689920893306
sg974
g975
sg976
g977
sg978
g979
sg980
NsbsI47
g0
(g964
g2
Ntp1119
Rp1120
(dp1121
g968
g969
sg970
I47
sg971
F4929.8454854276697
sg972
F0.0
sg973
F-633.6773791775064
sg974
g975
sg976
g977
sg978
g979
sg980
NsbsI48
g0
(g964
g2
Ntp1122
Rp1123
(dp1124
g968
g969
sg970
I48
sg971
F0.0
sg972
F0.0
sg973
F-3299.0421690287862
sg974
g975
sg976
g977
sg978
g979
sg980
NsbsI49
g0
(g964
g2
Ntp1125
Rp1126
(dp1127
g968
g969
sg970
I49
sg971
F1626.84901019113
sg972
F0.0
sg973
F-3299.0421690287862
sg974
g975
sg976
g977
sg978
g979
sg980
NsbsI50
g0
(g964
g2
Ntp1128
Rp1129
(dp1130
g968
g969
sg970
I50
sg971
F3253.69802038226
sg972
F0.0
sg973
F-3299.0421690287862
sg974
g975
sg976
g977
sg978
g979
sg980
NsbsI51
g0
(g964
g2
Ntp1131
Rp1132
(dp1133
g968
g969
sg970
I51
sg971
F4929.8454854276697
sg972
F0.0
sg973
F-3299.0421690287862
sg974
g975
sg976
g977
sg978
g979
sg980
NsbsI52
g0
(g964
g2
Ntp1134
Rp1135
(dp1136
g968
g969
sg970
I52
sg971
F0.0
sg972
F0.0
sg973
F-4611.8337819406106
sg974
g975
sg976
g977
sg978
g979
sg980
NsbsI53
g0
(g964
g2
Ntp1137
Rp1138
(dp1139
g968
g969
sg970
I53
sg971
F1626.84901019113
sg972
F0.0
sg973
F-4611.8337819406106
sg974
g975
sg976
g977
sg978
g979
sg980
NsbsI54
g0
(g964
g2
Ntp1140
Rp1141
(dp1142
g968
g969
sg970
I54
sg971
F3253.69802038226
sg972
F0.0
sg973
F-4611.8337819406106
sg974
g975
sg976
g977
sg978
g979
sg980
NsbsI55
g0
(g964
g2
Ntp1143
Rp1144
(dp1145
g968
g969
sg970
I55
sg971
F4929.8454854276697
sg972
F0.0
sg973
F-4611.8337819406106
sg974
g975
sg976
g977
sg978
g979
sg980
NsbsI56
g0
(g964
g2
Ntp1146
Rp1147
(dp1148
g968
g969
sg970
I56
sg971
F0.0
sg972
F15193.689849944229
sg973
F-1946.4689920893306
sg974
g975
sg976
g977
sg978
g979
sg980
NsbsI57
g0
(g964
g2
Ntp1149
Rp1150
(dp1151
g968
g969
sg970
I57
sg971
F1626.84901019113
sg972
F15193.689849944229
sg973
F-1946.4689920893306
sg974
g975
sg976
g977
sg978
g979
sg980
NsbsI58
g0
(g964
g2
Ntp1152
Rp1153
(dp1154
g968
g969
sg970
I58
sg971
F0.0
sg972
F15193.689849944229
sg973
F-633.6773791775064
sg974
g975
sg976
g977
sg978
g979
sg980
NsbsI59
g0
(g964
g2
Ntp1155
Rp1156
(dp1157
g968
g969
sg970
I59
sg971
F1626.84901019113
sg972
F15193.689849944229
sg973
F-633.6773791775064
sg974
g975
sg976
g977
sg978
g979
sg980
NsbsI60
g0
(g964
g2
Ntp1158
Rp1159
(dp1160
g968
g969
sg970
I60
sg971
F3253.69802038226
sg972
F15193.689849944229
sg973
F-1946.4689920893306
sg974
g975
sg976
g977
sg978
g979
sg980
NsbsI61
g0
(g964
g2
Ntp1161
Rp1162
(dp1163
g968
g969
sg970
I61
sg971
F3253.69802038226
sg972
F15193.689849944229
sg973
F-633.6773791775064
sg974
g975
sg976
g977
sg978
g979
sg980
NsbsI62
g0
(g964
g2
Ntp1164
Rp1165
(dp1166
g968
g969
sg970
I62
sg971
F4929.8454854276697
sg972
F15193.689849944229
sg973
F-1946.4689920893306
sg974
g975
sg976
g977
sg978
g979
sg980
NsbsI63
g0
(g964
g2
Ntp1167
Rp1168
(dp1169
g968
g969
sg970
I63
sg971
F4929.8454854276697
sg972
F15193.689849944229
sg973
F-633.6773791775064
sg974
g975
sg976
g977
sg978
g979
sg980
NsbsI64
g0
(g964
g2
Ntp1170
Rp1171
(dp1172
g968
g969
sg970
I64
sg971
F0.0
sg972
F15193.689849944229
sg973
F-3299.0421690287862
sg974
g975
sg976
g977
sg978
g979
sg980
NsbsI65
g0
(g964
g2
Ntp1173
Rp1174
(dp1175
g968
g969
sg970
I65
sg971
F1626.84901019113
sg972
F15193.689849944229
sg973
F-3299.0421690287862
sg974
g975
sg976
g977
sg978
g979
sg980
NsbsI66
g0
(g964
g2
Ntp1176
Rp1177
(dp1178
g968
g969
sg970
I66
sg971
F3253.69802038226
sg972
F15193.689849944229
sg973
F-3299.0421690287862
sg974
g975
sg976
g977
sg978
g979
sg980
NsbsI67
g0
(g964
g2
Ntp1179
Rp1180
(dp1181
g968
g969
sg970
I67
sg971
F4929.8454854276697
sg972
F15193.689849944229
sg973
F-3299.0421690287862
sg974
g975
sg976
g977
sg978
g979
sg980
NsbsI68
g0
(g964
g2
Ntp1182
Rp1183
(dp1184
g968
g969
sg970
I68
sg971
F0.0
sg972
F15193.689849944229
sg973
F-4611.8337819406106
sg974
g975
sg976
g977
sg978
g979
sg980
NsbsI69
g0
(g964
g2
Ntp1185
Rp1186
(dp1187
g968
g969
sg970
I69
sg971
F1626.84901019113
sg972
F15193.689849944229
sg973
F-4611.8337819406106
sg974
g975
sg976
g977
sg978
g979
sg980
NsbsI70
g0
(g964
g2
Ntp1188
Rp1189
(dp1190
g968
g969
sg970
I70
sg971
F3253.69802038226
sg972
F15193.689849944229
sg973
F-4611.8337819406106
sg974
g975
sg976
g977
sg978
g979
sg980
NsbsI71
g0
(g964
g2
Ntp1191
Rp1192
(dp1193
g968
g969
sg970
I71
sg971
F4929.8454854276697
sg972
F15193.689849944229
sg973
F-4611.8337819406106
sg974
g975
sg976
g977
sg978
g979
sg980
NsbssS'node_index'
p1194
(dp1195
S'0.000,0.000,-633.677'
p1196
I42
sS'1626.849,11851.078,0.000'
p1197
I11
sS'1626.849,0.000,0.000'
p1198
I1
sS'0.000,15193.690,-1946.469'
p1199
I56
sS'1626.849,15193.690,-3299.042'
p1200
I65
sS'4929.845,11851.078,0.000'
p1201
I29
sS'0.000,15193.690,-633.677'
p1202
I58
sS'4929.845,3342.612,0.000'
p1203
I26
sS'0.000,5013.918,0.000'
p1204
I6
sS'3253.698,13522.384,0.000'
p1205
I22
sS'4929.845,13522.384,0.000'
p1206
I30
sS'1626.849,15193.690,-633.677'
p1207
I59
sS'0.000,15193.690,-3299.042'
p1208
I64
sS'4929.845,0.000,-4611.834'
p1209
I55
sS'3253.698,0.000,-3299.042'
p1210
I50
sS'1626.849,15193.690,-4611.834'
p1211
I69
sS'1626.849,15193.690,0.000'
p1212
I15
sS'4929.845,1671.306,0.000'
p1213
I25
sS'4929.845,0.000,-3299.042'
p1214
I51
sS'3253.698,15193.690,0.000'
p1215
I23
sS'3253.698,15193.690,-3299.042'
p1216
I66
sS'1626.849,5013.918,0.000'
p1217
I7
sS'3253.698,15193.690,-633.677'
p1218
I61
sS'4929.845,10179.772,0.000'
p1219
I28
sS'3253.698,11851.078,0.000'
p1220
I21
sS'1626.849,13522.384,0.000'
p1221
I13
sS'1626.849,6735.869,0.000'
p1222
I33
sS'0.000,0.000,0.000'
p1223
I0
sS'3253.698,1671.306,0.000'
p1224
I17
sS'0.000,15193.690,0.000'
p1225
I14
sS'1626.849,3342.612,0.000'
p1226
I5
sS'4929.845,0.000,-633.677'
p1227
I47
sS'3253.698,15193.690,-4611.834'
p1228
I70
sS'0.000,10179.772,0.000'
p1229
I8
sS'3253.698,6735.869,0.000'
p1230
I36
sS'1626.849,0.000,-1946.469'
p1231
I41
sS'3253.698,0.000,-4611.834'
p1232
I54
sS'4929.845,15193.690,-633.677'
p1233
I63
sS'0.000,0.000,-3299.042'
p1234
I48
sS'1626.849,0.000,-3299.042'
p1235
I49
sS'0.000,11851.078,0.000'
p1236
I10
sS'4929.845,6735.869,0.000'
p1237
I38
sS'0.000,15193.690,-4611.834'
p1238
I68
sS'3253.698,0.000,0.000'
p1239
I16
sS'3253.698,3342.612,0.000'
p1240
I18
sS'3253.698,10179.772,0.000'
p1241
I20
sS'0.000,0.000,-4611.834'
p1242
I52
sS'0.000,3342.612,0.000'
p1243
I4
sS'0.000,1671.306,0.000'
p1244
I2
sS'3253.698,8457.821,0.000'
p1245
I37
sS'1626.849,10179.772,0.000'
p1246
I9
sS'4929.845,15193.690,-3299.042'
p1247
I67
sS'4929.845,15193.690,0.000'
p1248
I31
sS'4929.845,8457.821,0.000'
p1249
I39
sS'4929.845,0.000,-1946.469'
p1250
I46
sS'4929.845,0.000,0.000'
p1251
I24
sS'1626.849,0.000,-633.677'
p1252
I43
sS'3253.698,0.000,-1946.469'
p1253
I44
sS'4929.845,15193.690,-4611.834'
p1254
I71
sS'0.000,6735.869,0.000'
p1255
I32
sS'0.000,8457.821,0.000'
p1256
I34
sS'0.000,13522.384,0.000'
p1257
I12
sS'3253.698,15193.690,-1946.469'
p1258
I60
sS'4929.845,15193.690,-1946.469'
p1259
I62
sS'1626.849,15193.690,-1946.469'
p1260
I57
sS'3253.698,0.000,-633.677'
p1261
I45
sS'1626.849,1671.306,0.000'
p1262
I3
sS'0.000,0.000,-1946.469'
p1263
I40
sS'4929.845,5013.918,0.000'
p1264
I27
sS'3253.698,5013.918,0.000'
p1265
I19
sS'1626.849,0.000,-4611.834'
p1266
I53
sS'1626.849,8457.821,0.000'
p1267
I35
ssS'path'
p1268
S'C:\\Temp\\'
p1269
sS'results'
p1270
(dp1271
S'step_2'
p1272
S'ERROR'
p1273
sS'step_3'
p1274
g1273
sS'step_4'
p1275
g1273
sS'step_1'
p1276
g1273
ssS'sections'
p1277
(dp1278
g413
g0
(ccompas_fea.structure.section
ShellSection
p1279
g2
Ntp1280
Rp1281
(dp1282
g397
I1
sS'__name__'
p1283
S'ShellSection'
p1284
sS'name'
p1285
g413
sS'geometry'
p1286
(dp1287
S't'
p1288
F1074.1718018707766
ssS'loc_coords_OR'
p1289
(dp1290
S'ORxyz'
p1291
(lp1292
I0
aI0
aF-3978.1564027600002
assS'loc_coords_XA'
p1293
(dp1294
S'XAxyz'
p1295
(lp1296
I1
aI0
aF-3978.1564027600002
assS'loc_coords_YA'
p1297
(dp1298
S'YAxyz'
p1299
(lp1300
F3978.1564027600002
aF-3978.1564027600002
aF-3977.1564027600002
assS'loc_coords_EV_XA'
p1301
(dp1302
S'EV_XA'
p1303
(lp1304
F1.0
aF0.0
aF0.0
assS'loc_coords_EV_YA'
p1305
(dp1306
S'EV_YA'
p1307
(lp1308
F0.7071067700163387
aF-0.7071067700163387
aF0.00017774735290089548
assS'loc_coords_EV_ZA'
p1309
(dp1310
S'EV_ZA'
p1311
(lp1312
F0.0
aF-1.0
aF0.0
assS'nr_layers'
p1313
(dp1314
S'nn'
p1315
F53.0
ssS'offset'
p1316
(dp1317
S'mode'
p1318
S'mid'
p1319
ssbsg427
g0
(g1279
g2
Ntp1320
Rp1321
(dp1322
g397
I0
sg1283
g1284
sg1285
g427
sg1286
(dp1323
g1288
F633.6773791775064
ssg1289
(dp1324
g1291
(lp1325
I0
aI0
aI0
assg1293
(dp1326
g1295
(lp1327
I1
aI0
aI0
assg1297
(dp1328
g1299
(lp1329
F0.0
aF1.0
aF0.0
assg1301
(dp1330
g1303
(lp1331
F1.0
aF0.0
aF0.0
assg1305
(dp1332
g1307
(lp1333
F0.0
aF1.0
aF0.0
assg1309
(dp1334
g1311
(lp1335
F0.0
aF0.0
aF1.0
assg1313
(dp1336
g1315
F53.0
ssg1316
(dp1337
g1318
S'top'
p1338
ssbsg404
g0
(g1279
g2
Ntp1339
Rp1340
(dp1341
g397
I2
sg1283
g1284
sg1285
g404
sg1286
(dp1342
g1288
F1074.1718018707766
ssg1289
(dp1343
g1291
(lp1344
I0
aF15193.6898499
aF-3978.1564027600002
assg1293
(dp1345
g1295
(lp1346
I1
aF15193.6898499
aF-3978.1564027600002
assg1297
(dp1347
g1299
(lp1348
F-3978.156402759254
aF11215.53344714
aF-19172.846252660001
assg1301
(dp1349
g1303
(lp1350
F1.0
aF0.0
aF0.0
assg1305
(dp1351
g1307
(lp1352
F-0.24552308799966105
aF-0.2455230879997071
aF-0.93778293144959646
assg1309
(dp1353
g1311
(lp1354
F0.0
aF1.0
aF0.0
assg1313
(dp1355
g1315
F53.0
ssg1316
(dp1356
g1318
g1319
ssbsg497
g0
(ccompas_fea.structure.section
MPCSection
p1357
g2
Ntp1358
Rp1359
(dp1360
g15
I3
sg1283
S'MPCSection'
p1361
sg1285
g497
sg1286
NsS'nr_layers'
p1362
NsbssS'sets'
p1363
(dp1364
g522
g0
(ccompas_fea.structure.set
Set
p1365
g2
Ntp1366
Rp1367
(dp1368
S'__name__'
p1369
S'Set'
p1370
sS'name'
p1371
g522
sS'type'
p1372
S'element'
p1373
sS'selection'
p1374
(lp1375
I31
asS'index'
p1376
I13
sbsg498
g0
(g1365
g2
Ntp1377
Rp1378
(dp1379
g1369
g1370
sg1371
g498
sg1372
g1373
sg1374
(lp1380
I48
aI49
aI50
aI51
aI52
aI45
aI46
aI47
asg1376
I27
sbsg406
g0
(g1365
g2
Ntp1381
Rp1382
(dp1383
g1369
g1370
sg1371
g406
sg1372
g1373
sg1374
(lp1384
I39
asg1376
I21
sbsg452
g0
(g1365
g2
Ntp1385
Rp1386
(dp1387
g1369
g1370
sg1371
g452
sg1372
g1373
sg1374
(lp1388
I8
aI6
aI7
asg1376
I2
sbsg418
g0
(g1365
g2
Ntp1389
Rp1390
(dp1391
g1369
g1370
sg1371
g418
sg1372
g1373
sg1374
(lp1392
I34
asg1376
I16
sbsg514
g0
(g1365
g2
Ntp1393
Rp1394
(dp1395
g1369
g1370
sg1371
g514
sg1372
g1373
sg1374
(lp1396
I36
asg1376
I18
sbsg492
g0
(g1365
g2
Ntp1397
Rp1398
(dp1399
g1369
g1370
sg1371
g492
sg1372
g1373
sg1374
(lp1400
I3
aI4
aI5
asg1376
I1
sbsg428
g0
(g1365
g2
Ntp1401
Rp1402
(dp1403
g1369
g1370
sg1371
g428
sg1372
g1373
sg1374
(lp1404
I0
aI1
aI2
asg1376
I0
sbsg480
g0
(g1365
g2
Ntp1405
Rp1406
(dp1407
g1369
g1370
sg1371
g480
sg1372
g1373
sg1374
(lp1408
I18
aI19
aI20
asg1376
I6
sbsg518
g0
(g1365
g2
Ntp1409
Rp1410
(dp1411
g1369
g1370
sg1371
g518
sg1372
g1373
sg1374
(lp1412
I16
aI17
aI15
asg1376
I5
sbsg444
g0
(g1365
g2
Ntp1413
Rp1414
(dp1415
g1369
g1370
sg1371
g444
sg1372
g1373
sg1374
(lp1416
I12
aI13
aI14
asg1376
I4
sbsg488
g0
(g1365
g2
Ntp1417
Rp1418
(dp1419
g1369
g1370
sg1371
g488
sg1372
g1373
sg1374
(lp1420
I9
aI10
aI11
asg1376
I3
sbsg436
g0
(g1365
g2
Ntp1421
Rp1422
(dp1423
g1369
g1370
sg1371
g436
sg1372
g1373
sg1374
(lp1424
I24
aI25
aI26
asg1376
I8
sbsg472
g0
(g1365
g2
Ntp1425
Rp1426
(dp1427
g1369
g1370
sg1371
g472
sg1372
g1373
sg1374
(lp1428
I21
aI22
aI23
asg1376
I7
sbsg448
g0
(g1365
g2
Ntp1429
Rp1430
(dp1431
g1369
g1370
sg1371
g448
sg1372
g1373
sg1374
(lp1432
I29
asg1376
I11
sbsg510
g0
(g1365
g2
Ntp1433
Rp1434
(dp1435
g1369
g1370
sg1371
g510
sg1372
g1373
sg1374
(lp1436
I44
asg1376
I26
sbsg460
g0
(g1365
g2
Ntp1437
Rp1438
(dp1439
g1369
g1370
sg1371
g460
sg1372
g1373
sg1374
(lp1440
I41
asg1376
I23
sbsg440
g0
(g1365
g2
Ntp1441
Rp1442
(dp1443
g1369
g1370
sg1371
g440
sg1372
g1373
sg1374
(lp1444
I32
asg1376
I14
sbsg456
g0
(g1365
g2
Ntp1445
Rp1446
(dp1447
g1369
g1370
sg1371
g456
sg1372
g1373
sg1374
(lp1448
I38
asg1376
I20
sbsg476
g0
(g1365
g2
Ntp1449
Rp1450
(dp1451
g1369
g1370
sg1371
g476
sg1372
g1373
sg1374
(lp1452
I27
asg1376
I9
sbsg468
g0
(g1365
g2
Ntp1453
Rp1454
(dp1455
g1369
g1370
sg1371
g468
sg1372
g1373
sg1374
(lp1456
I35
asg1376
I17
sbsg35
g0
(g1365
g2
Ntp1457
Rp1458
(dp1459
g1369
g1370
sg1371
g35
sg1372
S'node'
p1460
sg1374
(lp1461
I71
aI70
aI69
aI68
asg1376
I29
sbsg464
g0
(g1365
g2
Ntp1462
Rp1463
(dp1464
g1369
g1370
sg1371
g464
sg1372
g1373
sg1374
(lp1465
I30
asg1376
I12
sbsg484
g0
(g1365
g2
Ntp1466
Rp1467
(dp1468
g1369
g1370
sg1371
g484
sg1372
g1373
sg1374
(lp1469
I43
asg1376
I25
sbsg432
g0
(g1365
g2
Ntp1470
Rp1471
(dp1472
g1369
g1370
sg1371
g432
sg1372
g1373
sg1374
(lp1473
I40
asg1376
I22
sbsg20
g0
(g1365
g2
Ntp1474
Rp1475
(dp1476
g1369
g1370
sg1371
g20
sg1372
g1460
sg1374
(lp1477
I55
aI54
aI53
aI52
asg1376
I28
sbsg502
g0
(g1365
g2
Ntp1478
Rp1479
(dp1480
g1369
g1370
sg1371
g502
sg1372
g1373
sg1374
(lp1481
I33
asg1376
I15
sbsg422
g0
(g1365
g2
Ntp1482
Rp1483
(dp1484
g1369
g1370
sg1371
g422
sg1372
g1373
sg1374
(lp1485
I37
asg1376
I19
sbsg414
g0
(g1365
g2
Ntp1486
Rp1487
(dp1488
g1369
g1370
sg1371
g414
sg1372
g1373
sg1374
(lp1489
I28
asg1376
I10
sbsg506
g0
(g1365
g2
Ntp1490
Rp1491
(dp1492
g1369
g1370
sg1371
g506
sg1372
g1373
sg1374
(lp1493
I42
asg1376
I24
sbssS'steps'
p1494
(dp1495
g1272
g0
(ccompas_fea.structure.step
GeneralStep
p1496
g2
Ntp1497
Rp1498
(dp1499
g397
I1
sS'__name__'
p1500
S'GeneralStep'
p1501
sS'name'
p1502
g1272
sS'attr_list'
p1503
(lp1504
g545
aS'increments'
p1505
aS'iterations'
p1506
aS'factor'
p1507
aS'nlgeom'
p1508
aS'nlmat'
p1509
aS'displacements'
p1510
aS'loads'
p1511
aS'type'
p1512
aS'tolerance'
p1513
aS'modify'
p1514
asS'increments'
p1515
I1
sS'iterations'
p1516
I100
sS'tolerance'
p1517
F0.01
sS'factor'
p1518
F1.0
sS'nlgeom'
p1519
I00
sS'nlmat'
p1520
I01
sS'displacements'
p1521
(lp1522
sS'loads'
p1523
(lp1524
g600
asS'modify'
p1525
I01
sS'type'
p1526
S'static'
p1527
sbsg1274
g0
(g1496
g2
Ntp1528
Rp1529
(dp1530
g397
I2
sg1500
g1501
sg1502
g1274
sg1503
(lp1531
g545
ag1505
ag1506
ag1507
ag1508
ag1509
ag1510
ag1511
ag1512
ag1513
ag1514
asg1515
I1
sg1516
I100
sg1517
F0.01
sg1518
F1.0
sg1519
I00
sg1520
I01
sg1521
(lp1532
sg1523
(lp1533
g579
ag565
ag558
asg1525
I01
sg1526
g1527
sbsg1275
g0
(g1496
g2
Ntp1534
Rp1535
(dp1536
g397
I3
sg1500
g1501
sg1502
g1275
sg1503
(lp1537
g545
ag1505
ag1506
ag1507
ag1508
ag1509
ag1510
ag1511
ag1512
ag1513
ag1514
asg1515
I1
sg1516
I100
sg1517
F0.01
sg1518
F1.0
sg1519
I00
sg1520
I01
sg1521
(lp1538
sg1523
(lp1539
g593
ag572
ag586
ag611
ag550
ag527
asg1525
I01
sg1526
g1527
sbsg1276
g0
(g1496
g2
Ntp1540
Rp1541
(dp1542
g397
I0
sg1500
g1501
sg1502
g1276
sg1503
(lp1543
g545
ag1505
ag1506
ag1507
ag1508
ag1509
ag1510
ag1511
ag1512
ag1513
ag1514
asg1515
I1
sg1516
I100
sg1517
F0.01
sg1518
F1.0
sg1519
I00
sg1520
I01
sg1521
(lp1544
g10
ag31
asg1523
(lp1545
sg1525
I01
sg1526
g1527
sbssS'loc_coor'
p1546
(dp1547
sS'steps_order'
p1548
(lp1549
g1276
ag1272
ag1274
ag1275
asS'tol'
p1550
S'3'
p1551
sS'virtual_nodes'
p1552
(dp1553
sS'virtual_node_index'
p1554
(dp1555
sS'virtual_elements'
p1556
(dp1557
sS'virtual_element_index'
p1558
(dp1559
sb.