ccopy_reg
_reconstructor
p0
(ccompas_fea.structure.structure
Structure
p1
c__builtin__
object
p2
Ntp3
Rp4
(dp5
S'constraints'
p6
(dp7
sS'displacements'
p8
(dp9
S'nset_pinned_set_disp_1'
p10
g0
(ccompas_fea.structure.displacement
GeneralDisplacement
p11
g2
Ntp12
Rp13
(dp14
S'index'
p15
I0
sS'__name__'
p16
S'GeneralDisplacement'
p17
sS'name'
p18
g10
sS'nodes'
p19
S'nset_support_wall1'
p20
sS'components'
p21
(dp22
S'z'
p23
I0
sS'xx'
p24
I0
sS'zz'
p25
I0
sS'yy'
p26
I0
sS'y'
p27
I0
sS'x'
p28
I0
ssS'axes'
p29
S'global'
p30
sbsS'nset_pinned_set_disp_2'
p31
g0
(g11
g2
Ntp32
Rp33
(dp34
g15
I1
sg16
g17
sg18
g31
sg19
S'nset_support_wall2'
p35
sg21
(dp36
g23
I0
sg24
I0
sg25
I0
sg26
I0
sg27
I0
sg28
I0
ssg29
g30
sbssS'elements'
p37
(dp38
I0
g0
(ccompas_fea.structure.element
ShellElement
p39
g2
Ntp40
Rp41
(dp42
S'mass'
p43
NsS'__name__'
p44
S'ShellElement'
p45
sS'nodes'
p46
(lp47
I0
aI1
aI3
aI2
asS'number'
p48
I0
sS'thermal'
p49
I00
sS'axes'
p50
(dp51
S'ey'
p52
NsS'ez'
p53
NsS'ex'
p54
NssS'element_property'
p55
S'elset_plate_1_element_prop'
p56
sbsI1
g0
(g39
g2
Ntp57
Rp58
(dp59
g43
Nsg44
g45
sg46
(lp60
I2
aI3
aI5
aI4
asg48
I1
sg49
I00
sg50
g51
sg55
g56
sbsI2
g0
(g39
g2
Ntp61
Rp62
(dp63
g43
Nsg44
g45
sg46
(lp64
I4
aI5
aI7
aI6
asg48
I2
sg49
I00
sg50
g51
sg55
g56
sbsI3
g0
(g39
g2
Ntp65
Rp66
(dp67
g43
Nsg44
g45
sg46
(lp68
I8
aI9
aI11
aI10
asg48
I3
sg49
I00
sg50
(dp69
g52
Nsg53
Nsg54
Nssg55
S'elset_plate_2_element_prop'
p70
sbsI4
g0
(g39
g2
Ntp71
Rp72
(dp73
g43
Nsg44
g45
sg46
(lp74
I10
aI11
aI13
aI12
asg48
I4
sg49
I00
sg50
g69
sg55
g70
sbsI5
g0
(g39
g2
Ntp75
Rp76
(dp77
g43
Nsg44
g45
sg46
(lp78
I12
aI13
aI15
aI14
asg48
I5
sg49
I00
sg50
g69
sg55
g70
sbsI6
g0
(g39
g2
Ntp79
Rp80
(dp81
g43
Nsg44
g45
sg46
(lp82
I1
aI16
aI17
aI3
asg48
I6
sg49
I00
sg50
(dp83
g52
Nsg53
Nsg54
Nssg55
S'elset_plate_3_element_prop'
p84
sbsI7
g0
(g39
g2
Ntp85
Rp86
(dp87
g43
Nsg44
g45
sg46
(lp88
I3
aI17
aI18
aI5
asg48
I7
sg49
I00
sg50
g83
sg55
g84
sbsI8
g0
(g39
g2
Ntp89
Rp90
(dp91
g43
Nsg44
g45
sg46
(lp92
I5
aI18
aI19
aI7
asg48
I8
sg49
I00
sg50
g83
sg55
g84
sbsI9
g0
(g39
g2
Ntp93
Rp94
(dp95
g43
Nsg44
g45
sg46
(lp96
I9
aI20
aI21
aI11
asg48
I9
sg49
I00
sg50
(dp97
g52
Nsg53
Nsg54
Nssg55
S'elset_plate_4_element_prop'
p98
sbsI10
g0
(g39
g2
Ntp99
Rp100
(dp101
g43
Nsg44
g45
sg46
(lp102
I11
aI21
aI22
aI13
asg48
I10
sg49
I00
sg50
g97
sg55
g98
sbsI11
g0
(g39
g2
Ntp103
Rp104
(dp105
g43
Nsg44
g45
sg46
(lp106
I13
aI22
aI23
aI15
asg48
I11
sg49
I00
sg50
g97
sg55
g98
sbsI12
g0
(g39
g2
Ntp107
Rp108
(dp109
g43
Nsg44
g45
sg46
(lp110
I16
aI24
aI25
aI17
asg48
I12
sg49
I00
sg50
(dp111
g52
Nsg53
Nsg54
Nssg55
S'elset_plate_5_element_prop'
p112
sbsI13
g0
(g39
g2
Ntp113
Rp114
(dp115
g43
Nsg44
g45
sg46
(lp116
I17
aI25
aI26
aI18
asg48
I13
sg49
I00
sg50
g111
sg55
g112
sbsI14
g0
(g39
g2
Ntp117
Rp118
(dp119
g43
Nsg44
g45
sg46
(lp120
I18
aI26
aI27
aI19
asg48
I14
sg49
I00
sg50
g111
sg55
g112
sbsI15
g0
(g39
g2
Ntp121
Rp122
(dp123
g43
Nsg44
g45
sg46
(lp124
I20
aI28
aI29
aI21
asg48
I15
sg49
I00
sg50
(dp125
g52
Nsg53
Nsg54
Nssg55
S'elset_plate_6_element_prop'
p126
sbsI16
g0
(g39
g2
Ntp127
Rp128
(dp129
g43
Nsg44
g45
sg46
(lp130
I21
aI29
aI30
aI22
asg48
I16
sg49
I00
sg50
g125
sg55
g126
sbsI17
g0
(g39
g2
Ntp131
Rp132
(dp133
g43
Nsg44
g45
sg46
(lp134
I22
aI30
aI31
aI23
asg48
I17
sg49
I00
sg50
g125
sg55
g126
sbsI18
g0
(g39
g2
Ntp135
Rp136
(dp137
g43
Nsg44
g45
sg46
(lp138
I6
aI7
aI33
aI32
asg48
I18
sg49
I00
sg50
(dp139
g52
Nsg53
Nsg54
Nssg55
S'elset_plate_7_element_prop'
p140
sbsI19
g0
(g39
g2
Ntp141
Rp142
(dp143
g43
Nsg44
g45
sg46
(lp144
I32
aI33
aI35
aI34
asg48
I19
sg49
I00
sg50
g139
sg55
g140
sbsI20
g0
(g39
g2
Ntp145
Rp146
(dp147
g43
Nsg44
g45
sg46
(lp148
I34
aI35
aI9
aI8
asg48
I20
sg49
I00
sg50
g139
sg55
g140
sbsI21
g0
(g39
g2
Ntp149
Rp150
(dp151
g43
Nsg44
g45
sg46
(lp152
I7
aI19
aI36
aI33
asg48
I21
sg49
I00
sg50
(dp153
g52
Nsg53
Nsg54
Nssg55
S'elset_plate_8_element_prop'
p154
sbsI22
g0
(g39
g2
Ntp155
Rp156
(dp157
g43
Nsg44
g45
sg46
(lp158
I33
aI36
aI37
aI35
asg48
I22
sg49
I00
sg50
g153
sg55
g154
sbsI23
g0
(g39
g2
Ntp159
Rp160
(dp161
g43
Nsg44
g45
sg46
(lp162
I35
aI37
aI20
aI9
asg48
I23
sg49
I00
sg50
g153
sg55
g154
sbsI24
g0
(g39
g2
Ntp163
Rp164
(dp165
g43
Nsg44
g45
sg46
(lp166
I19
aI27
aI38
aI36
asg48
I24
sg49
I00
sg50
(dp167
g52
Nsg53
Nsg54
Nssg55
S'elset_plate_9_element_prop'
p168
sbsI25
g0
(g39
g2
Ntp169
Rp170
(dp171
g43
Nsg44
g45
sg46
(lp172
I36
aI38
aI39
aI37
asg48
I25
sg49
I00
sg50
g167
sg55
g168
sbsI26
g0
(g39
g2
Ntp173
Rp174
(dp175
g43
Nsg44
g45
sg46
(lp176
I37
aI39
aI28
aI20
asg48
I26
sg49
I00
sg50
g167
sg55
g168
sbsI27
g0
(g39
g2
Ntp177
Rp178
(dp179
g43
Nsg44
g45
sg46
(lp180
I40
aI41
aI43
aI42
asg48
I27
sg49
I00
sg50
(dp181
g52
Nsg53
Nsg54
Nssg55
S'elset_wall_1_1_element_prop'
p182
sbsI28
g0
(g39
g2
Ntp183
Rp184
(dp185
g43
Nsg44
g45
sg46
(lp186
I41
aI44
aI45
aI43
asg48
I28
sg49
I00
sg50
(dp187
g52
Nsg53
Nsg54
Nssg55
S'elset_wall_1_2_element_prop'
p188
sbsI29
g0
(g39
g2
Ntp189
Rp190
(dp191
g43
Nsg44
g45
sg46
(lp192
I44
aI46
aI47
aI45
asg48
I29
sg49
I00
sg50
(dp193
g52
Nsg53
Nsg54
Nssg55
S'elset_wall_1_3_element_prop'
p194
sbsI30
g0
(g39
g2
Ntp195
Rp196
(dp197
g43
Nsg44
g45
sg46
(lp198
I48
aI49
aI41
aI40
asg48
I30
sg49
I00
sg50
(dp199
g52
Nsg53
Nsg54
Nssg55
S'elset_wall_1_4_element_prop'
p200
sbsI31
g0
(g39
g2
Ntp201
Rp202
(dp203
g43
Nsg44
g45
sg46
(lp204
I49
aI50
aI44
aI41
asg48
I31
sg49
I00
sg50
(dp205
g52
Nsg53
Nsg54
Nssg55
S'elset_wall_1_5_element_prop'
p206
sbsI32
g0
(g39
g2
Ntp207
Rp208
(dp209
g43
Nsg44
g45
sg46
(lp210
I50
aI51
aI46
aI44
asg48
I32
sg49
I00
sg50
(dp211
g52
Nsg53
Nsg54
Nssg55
S'elset_wall_1_6_element_prop'
p212
sbsI33
g0
(g39
g2
Ntp213
Rp214
(dp215
g43
Nsg44
g45
sg46
(lp216
I52
aI53
aI49
aI48
asg48
I33
sg49
I00
sg50
(dp217
g52
Nsg53
Nsg54
Nssg55
S'elset_wall_1_7_element_prop'
p218
sbsI34
g0
(g39
g2
Ntp219
Rp220
(dp221
g43
Nsg44
g45
sg46
(lp222
I53
aI54
aI50
aI49
asg48
I34
sg49
I00
sg50
(dp223
g52
Nsg53
Nsg54
Nssg55
S'elset_wall_1_8_element_prop'
p224
sbsI35
g0
(g39
g2
Ntp225
Rp226
(dp227
g43
Nsg44
g45
sg46
(lp228
I54
aI55
aI51
aI50
asg48
I35
sg49
I00
sg50
(dp229
g52
Nsg53
Nsg54
Nssg55
S'elset_wall_1_9_element_prop'
p230
sbsI36
g0
(g39
g2
Ntp231
Rp232
(dp233
g43
Nsg44
g45
sg46
(lp234
I56
aI58
aI59
aI57
asg48
I36
sg49
I00
sg50
(dp235
g52
Nsg53
Nsg54
Nssg55
S'elset_wall_2_1_element_prop'
p236
sbsI37
g0
(g39
g2
Ntp237
Rp238
(dp239
g43
Nsg44
g45
sg46
(lp240
I57
aI59
aI61
aI60
asg48
I37
sg49
I00
sg50
(dp241
g52
Nsg53
Nsg54
Nssg55
S'elset_wall_2_2_element_prop'
p242
sbsI38
g0
(g39
g2
Ntp243
Rp244
(dp245
g43
Nsg44
g45
sg46
(lp246
I60
aI61
aI63
aI62
asg48
I38
sg49
I00
sg50
(dp247
g52
Nsg53
Nsg54
Nssg55
S'elset_wall_2_3_element_prop'
p248
sbsI39
g0
(g39
g2
Ntp249
Rp250
(dp251
g43
Nsg44
g45
sg46
(lp252
I64
aI56
aI57
aI65
asg48
I39
sg49
I00
sg50
(dp253
g52
Nsg53
Nsg54
Nssg55
S'elset_wall_2_4_element_prop'
p254
sbsI40
g0
(g39
g2
Ntp255
Rp256
(dp257
g43
Nsg44
g45
sg46
(lp258
I65
aI57
aI60
aI66
asg48
I40
sg49
I00
sg50
(dp259
g52
Nsg53
Nsg54
Nssg55
S'elset_wall_2_5_element_prop'
p260
sbsI41
g0
(g39
g2
Ntp261
Rp262
(dp263
g43
Nsg44
g45
sg46
(lp264
I66
aI60
aI62
aI67
asg48
I41
sg49
I00
sg50
(dp265
g52
Nsg53
Nsg54
Nssg55
S'elset_wall_2_6_element_prop'
p266
sbsI42
g0
(g39
g2
Ntp267
Rp268
(dp269
g43
Nsg44
g45
sg46
(lp270
I68
aI64
aI65
aI69
asg48
I42
sg49
I00
sg50
(dp271
g52
Nsg53
Nsg54
Nssg55
S'elset_wall_2_7_element_prop'
p272
sbsI43
g0
(g39
g2
Ntp273
Rp274
(dp275
g43
Nsg44
g45
sg46
(lp276
I69
aI65
aI66
aI70
asg48
I43
sg49
I00
sg50
(dp277
g52
Nsg53
Nsg54
Nssg55
S'elset_wall_2_8_element_prop'
p278
sbsI44
g0
(g39
g2
Ntp279
Rp280
(dp281
g43
Nsg44
g45
sg46
(lp282
I70
aI66
aI67
aI71
asg48
I44
sg49
I00
sg50
(dp283
g52
Nsg53
Nsg54
Nssg55
S'elset_wall_2_9_element_prop'
p284
sbsI45
g0
(ccompas_fea.structure.element
MPCElement
p285
g2
Ntp286
Rp287
(dp288
g43
Nsg44
S'MPCElement'
p289
sg46
(lp290
I63
aI31
asg48
I45
sg49
I00
sg50
(dp291
g52
Nsg53
(lp292
F2.2737367544323206e-12
aF0.0
aF527.44714608374534
asg54
Nssg55
S'elset_mpc_element_prop'
p293
sbsI46
g0
(g285
g2
Ntp294
Rp295
(dp296
g43
Nsg44
g289
sg46
(lp297
I61
aI23
asg48
I46
sg49
I00
sg50
(dp298
g52
Nsg53
(lp299
F4.0927261579781771e-12
aF0.0
aF527.44714608374534
asg54
Nssg55
g293
sbsI47
g0
(g285
g2
Ntp300
Rp301
(dp302
g43
Nsg44
g289
sg46
(lp303
I59
aI15
asg48
I47
sg49
I00
sg50
(dp304
g52
Nsg53
(lp305
F1.1368683772161603e-13
aF0.0
aF527.44714608374534
asg54
Nssg55
g293
sbsI48
g0
(g285
g2
Ntp306
Rp307
(dp308
g43
Nsg44
g289
sg46
(lp309
I58
aI14
asg48
I48
sg49
I00
sg50
(dp310
g52
Nsg53
(lp311
F0.0
aF0.0
aF527.44714608374534
asg54
Nssg55
g293
sbsI49
g0
(g285
g2
Ntp312
Rp313
(dp314
g43
Nsg44
g289
sg46
(lp315
I47
aI24
asg48
I49
sg49
I00
sg50
(dp316
g52
Nsg53
(lp317
F2.2737367544323206e-12
aF0.0
aF527.44714608374534
asg54
Nssg55
g293
sbsI50
g0
(g285
g2
Ntp318
Rp319
(dp320
g43
Nsg44
g289
sg46
(lp321
I45
aI16
asg48
I50
sg49
I00
sg50
(dp322
g52
Nsg53
(lp323
F4.0927261579781771e-12
aF0.0
aF527.44714608374534
asg54
Nssg55
g293
sbsI51
g0
(g285
g2
Ntp324
Rp325
(dp326
g43
Nsg44
g289
sg46
(lp327
I43
aI1
asg48
I51
sg49
I00
sg50
(dp328
g52
Nsg53
(lp329
F1.1368683772161603e-13
aF0.0
aF527.44714608374534
asg54
Nssg55
g293
sbsI52
g0
(g285
g2
Ntp330
Rp331
(dp332
g43
Nsg44
g289
sg46
(lp333
I42
aI0
asg48
I52
sg49
I00
sg50
(dp334
g52
Nsg53
(lp335
F0.0
aF0.0
aF527.44714608374534
asg54
Nssg55
g293
sbssS'element_index'
p336
(dp337
S'497.607,13304.381,-3974.291'
p338
I42
sS'0.000,13304.381,-263.724'
p339
I48
sS'2503.112,13304.381,-2591.426'
p340
I41
sS'1492.820,13304.381,-1208.560'
p341
I37
sS'3015.798,0.000,-263.724'
p342
I49
sS'497.607,5144.361,0.000'
p343
I18
sS'1492.820,13304.381,-3974.291'
p344
I43
sS'1492.820,8160.020,0.000'
p345
I23
sS'1492.820,12572.640,0.000'
p346
I11
sS'497.607,0.000,-3974.291'
p347
I33
sS'497.607,8160.020,0.000'
p348
I20
sS'497.607,13304.381,-1208.560'
p349
I36
sS'497.607,13304.381,-2591.426'
p350
I39
sS'1492.820,6652.190,0.000'
p351
I22
sS'2503.112,0.000,-2591.426'
p352
I32
sS'497.607,11109.158,0.000'
p353
I4
sS'497.607,12572.640,0.000'
p354
I5
sS'497.607,6652.190,0.000'
p355
I19
sS'1990.427,0.000,-263.724'
p356
I50
sS'2503.112,8160.020,0.000'
p357
I26
sS'1492.820,5144.361,0.000'
p358
I21
sS'497.607,0.000,-2591.426'
p359
I30
sS'1492.820,13304.381,-2591.426'
p360
I40
sS'2503.112,13304.381,-3974.291'
p361
I44
sS'995.213,0.000,-263.724'
p362
I51
sS'2503.112,0.000,-3974.291'
p363
I35
sS'2503.112,12572.640,0.000'
p364
I17
sS'1492.820,0.000,-3974.291'
p365
I34
sS'995.213,13304.381,-263.724'
p366
I47
sS'1492.820,3658.705,0.000'
p367
I8
sS'0.000,0.000,-263.724'
p368
I52
sS'2503.112,3658.705,0.000'
p369
I14
sS'497.607,0.000,-1208.560'
p370
I27
sS'3015.798,13304.381,-263.724'
p371
I45
sS'1492.820,11109.158,0.000'
p372
I10
sS'2503.112,13304.381,-1208.560'
p373
I38
sS'1492.820,0.000,-2591.426'
p374
I31
sS'2503.112,6652.190,0.000'
p375
I25
sS'1990.427,13304.381,-263.724'
p376
I46
sS'1492.820,731.741,0.000'
p377
I6
sS'497.607,731.741,0.000'
p378
I0
sS'497.607,3658.705,0.000'
p379
I2
sS'2503.112,11109.158,0.000'
p380
I16
sS'2503.112,731.741,0.000'
p381
I12
sS'2503.112,9645.676,0.000'
p382
I15
sS'497.607,9645.676,0.000'
p383
I3
sS'2503.112,2195.223,0.000'
p384
I13
sS'2503.112,5144.361,0.000'
p385
I24
sS'1492.820,9645.676,0.000'
p386
I9
sS'2503.112,0.000,-1208.560'
p387
I29
sS'1492.820,2195.223,0.000'
p388
I7
sS'1492.820,0.000,-1208.560'
p389
I28
sS'497.607,2195.223,0.000'
p390
I1
ssS'element_properties'
p391
(dp392
g254
g0
(ccompas_fea.structure.element_properties
ElementProperties
p393
g2
Ntp394
Rp395
(dp396
S'index'
p397
I21
sS'__name__'
p398
S'ElementProperties'
p399
sS'name'
p400
g254
sS'material'
p401
S'wall_element_mat'
p402
sS'section'
p403
S'wall2_element_sec'
p404
sS'elset'
p405
S'elset_wall_2_4'
p406
sS'elements'
p407
NsS'rebar'
p408
(dp409
sbsg188
g0
(g393
g2
Ntp410
Rp411
(dp412
g397
I10
sg398
g399
sg400
g188
sg401
g402
sg403
S'wall1_element_sec'
p413
sg405
S'elset_wall_1_2'
p414
sg407
Nsg408
g409
sbsg224
g0
(g393
g2
Ntp415
Rp416
(dp417
g397
I16
sg398
g399
sg400
g224
sg401
g402
sg403
g413
sg405
S'elset_wall_1_8'
p418
sg407
Nsg408
g409
sbsg242
g0
(g393
g2
Ntp419
Rp420
(dp421
g397
I19
sg398
g399
sg400
g242
sg401
g402
sg403
g404
sg405
S'elset_wall_2_2'
p422
sg407
Nsg408
g409
sbsg56
g0
(g393
g2
Ntp423
Rp424
(dp425
g397
I0
sg398
g399
sg400
g56
sg401
S'plate_element_mat'
p426
sg403
S'plate_element_sec'
p427
sg405
S'elset_plate_1'
p428
sg407
Nsg408
g409
sbsg260
g0
(g393
g2
Ntp429
Rp430
(dp431
g397
I22
sg398
g399
sg400
g260
sg401
g402
sg403
g404
sg405
S'elset_wall_2_5'
p432
sg407
Nsg408
g409
sbsg168
g0
(g393
g2
Ntp433
Rp434
(dp435
g397
I8
sg398
g399
sg400
g168
sg401
g426
sg403
g427
sg405
S'elset_plate_9'
p436
sg407
Nsg408
g409
sbsg212
g0
(g393
g2
Ntp437
Rp438
(dp439
g397
I14
sg398
g399
sg400
g212
sg401
g402
sg403
g413
sg405
S'elset_wall_1_6'
p440
sg407
Nsg408
g409
sbsg112
g0
(g393
g2
Ntp441
Rp442
(dp443
g397
I4
sg398
g399
sg400
g112
sg401
g426
sg403
g427
sg405
S'elset_plate_5'
p444
sg407
Nsg408
g409
sbsg194
g0
(g393
g2
Ntp445
Rp446
(dp447
g397
I11
sg398
g399
sg400
g194
sg401
g402
sg403
g413
sg405
S'elset_wall_1_3'
p448
sg407
Nsg408
g409
sbsg84
g0
(g393
g2
Ntp449
Rp450
(dp451
g397
I2
sg398
g399
sg400
g84
sg401
g426
sg403
g427
sg405
S'elset_plate_3'
p452
sg407
Nsg408
g409
sbsg248
g0
(g393
g2
Ntp453
Rp454
(dp455
g397
I20
sg398
g399
sg400
g248
sg401
g402
sg403
g404
sg405
S'elset_wall_2_3'
p456
sg407
Nsg408
g409
sbsg266
g0
(g393
g2
Ntp457
Rp458
(dp459
g397
I23
sg398
g399
sg400
g266
sg401
g402
sg403
g404
sg405
S'elset_wall_2_6'
p460
sg407
Nsg408
g409
sbsg200
g0
(g393
g2
Ntp461
Rp462
(dp463
g397
I12
sg398
g399
sg400
g200
sg401
g402
sg403
g413
sg405
S'elset_wall_1_4'
p464
sg407
Nsg408
g409
sbsg230
g0
(g393
g2
Ntp465
Rp466
(dp467
g397
I17
sg398
g399
sg400
g230
sg401
g402
sg403
g413
sg405
S'elset_wall_1_9'
p468
sg407
Nsg408
g409
sbsg154
g0
(g393
g2
Ntp469
Rp470
(dp471
g397
I7
sg398
g399
sg400
g154
sg401
g426
sg403
g427
sg405
S'elset_plate_8'
p472
sg407
Nsg408
g409
sbsg182
g0
(g393
g2
Ntp473
Rp474
(dp475
g397
I9
sg398
g399
sg400
g182
sg401
g402
sg403
g413
sg405
S'elset_wall_1_1'
p476
sg407
Nsg408
g409
sbsg140
g0
(g393
g2
Ntp477
Rp478
(dp479
g397
I6
sg398
g399
sg400
g140
sg401
g426
sg403
g427
sg405
S'elset_plate_7'
p480
sg407
Nsg408
g409
sbsg278
g0
(g393
g2
Ntp481
Rp482
(dp483
g397
I25
sg398
g399
sg400
g278
sg401
g402
sg403
g404
sg405
S'elset_wall_2_8'
p484
sg407
Nsg408
g409
sbsg98
g0
(g393
g2
Ntp485
Rp486
(dp487
g397
I3
sg398
g399
sg400
g98
sg401
g426
sg403
g427
sg405
S'elset_plate_4'
p488
sg407
Nsg408
g409
sbsg70
g0
(g393
g2
Ntp489
Rp490
(dp491
g397
I1
sg398
g399
sg400
g70
sg401
g426
sg403
g427
sg405
S'elset_plate_2'
p492
sg407
Nsg408
g409
sbsg293
g0
(g393
g2
Ntp493
Rp494
(dp495
g397
I27
sg398
g399
sg400
g293
sg401
S'elset_mpc_element_mat'
p496
sg403
S'sec_mpc'
p497
sg405
S'elset_mpcs'
p498
sg407
Nsg408
g409
sbsg218
g0
(g393
g2
Ntp499
Rp500
(dp501
g397
I15
sg398
g399
sg400
g218
sg401
g402
sg403
g413
sg405
S'elset_wall_1_7'
p502
sg407
Nsg408
g409
sbsg272
g0
(g393
g2
Ntp503
Rp504
(dp505
g397
I24
sg398
g399
sg400
g272
sg401
g402
sg403
g404
sg405
S'elset_wall_2_7'
p506
sg407
Nsg408
g409
sbsg284
g0
(g393
g2
Ntp507
Rp508
(dp509
g397
I26
sg398
g399
sg400
g284
sg401
g402
sg403
g404
sg405
S'elset_wall_2_9'
p510
sg407
Nsg408
g409
sbsg236
g0
(g393
g2
Ntp511
Rp512
(dp513
g397
I18
sg398
g399
sg400
g236
sg401
g402
sg403
g404
sg405
S'elset_wall_2_1'
p514
sg407
Nsg408
g409
sbsg126
g0
(g393
g2
Ntp515
Rp516
(dp517
g397
I5
sg398
g399
sg400
g126
sg401
g426
sg403
g427
sg405
S'elset_plate_6'
p518
sg407
Nsg408
g409
sbsg206
g0
(g393
g2
Ntp519
Rp520
(dp521
g397
I13
sg398
g399
sg400
g206
sg401
g402
sg403
g413
sg405
S'elset_wall_1_5'
p522
sg407
Nsg408
g409
sbssS'interactions'
p523
(dp524
sS'loads'
p525
(dp526
S'Gleis1_BAHNLASTEN_Lasteinzugsflache_Lastblock_-3'
p527
g0
(ccompas_fea.structure.load
AreaLoad
p528
g2
Ntp529
Rp530
(dp531
g397
I5
sS'__name__'
p532
S'AreaLoad'
p533
sS'name'
p534
g527
sS'axes'
p535
S'global'
p536
sS'components'
p537
(dp538
g23
F0.091521235150705441
sg27
I0
sg28
I0
ssS'nodes'
p539
(lp540
sS'elements'
p541
(lp542
I7
aI13
asS'attr_list'
p543
(lp544
S'name'
p545
aS'axes'
p546
aS'components'
p547
aS'nodes'
p548
aS'elements'
p549
asbsS'earthPressure_liveLoad'
p550
g0
(g528
g2
Ntp551
Rp552
(dp553
g397
I6
sg532
g533
sg534
g550
sg535
S'local'
p554
sg537
(dp555
g23
F0.037699999999999997
sg27
I0
sg28
I0
ssg539
g540
sg541
(lp556
I28
aI29
aI30
aI31
aI32
aI33
aI34
aI35
aI36
asg543
(lp557
g545
ag546
ag547
ag548
ag549
asbsS'Gleis1_BAHNLASTEN_Lasteinzugsflache_Lastblock_-2'
p558
g0
(g528
g2
Ntp559
Rp560
(dp561
g397
I4
sg532
g533
sg534
g558
sg535
g536
sg537
(dp562
g23
F0.091521235150705441
sg27
I0
sg28
I0
ssg539
g540
sg541
(lp563
I2
aI8
asg543
(lp564
g545
ag546
ag547
ag548
ag549
asbsS'Gleis1_EIGENGEWICHTE_SCHIENE_Lasteinzugsflache'
p565
g0
(g528
g2
Ntp566
Rp567
(dp568
g397
I3
sg532
g533
sg534
g565
sg535
g536
sg537
(dp569
g23
F0.0024876347218248788
sg27
I0
sg28
I0
ssg539
g540
sg541
(lp570
I1
aI2
aI7
aI8
aI13
asg543
(lp571
g545
ag546
ag547
ag548
ag549
asbsS'earthPressure_backfill'
p572
g0
(g528
g2
Ntp573
Rp574
(dp575
g397
I2
sg532
g533
sg534
g572
sg535
g554
sg537
(dp576
g23
F0.05066411131455123
sg27
I0
sg28
I0
ssg539
g540
sg541
(lp577
g476
ag414
ag448
ag464
ag522
ag440
ag502
ag418
ag468
ag514
ag422
ag456
ag406
ag432
ag460
ag506
ag484
ag510
asg543
(lp578
g545
ag546
ag547
ag548
ag549
asbsS'earthPressure_gravel'
p579
g0
(g528
g2
Ntp580
Rp581
(dp582
g397
I1
sg532
g533
sg534
g579
sg535
g536
sg537
(dp583
g23
F0.013500000000000002
sg27
I0
sg28
I0
ssg539
g540
sg541
(lp584
g428
ag492
ag452
ag488
ag444
ag518
ag480
ag472
ag436
asg543
(lp585
g545
ag546
ag547
ag548
ag549
asbsS'load_gravity'
p586
g0
(ccompas_fea.structure.load
GravityLoad
p587
g2
Ntp588
Rp589
(dp590
g15
I0
sg532
S'GravityLoad'
p591
sg534
g586
sg535
g536
sg537
(dp592
g23
F1.3500000000000001
sg27
F0.0
sg28
F0.0
ssg539
g540
sg541
(lp593
g428
ag492
ag452
ag488
ag444
ag518
ag480
ag472
ag436
ag476
ag414
ag448
ag464
ag522
ag440
ag502
ag418
ag468
ag514
ag422
ag456
ag406
ag432
ag460
ag506
ag484
ag510
asg543
(lp594
g545
ag546
ag547
ag548
ag549
aS'g'
p595
asS'g'
p596
F-9.8100000000000005
sbssS'materials'
p597
(dp598
g496
g0
(ccompas_fea.structure.material
MPCStiff
p599
g2
Ntp600
Rp601
(dp602
g15
I2
sS'__name__'
p603
S'MPCStiff'
p604
sS'name'
p605
g496
sS'attr_list'
p606
(lp607
g545
aS'E'
p608
aS'v'
p609
aS'G'
p610
aS'p'
p611
aS'tension'
p612
aS'compression'
p613
asS'E'
p614
(dp615
g608
L10000000000000L
ssS'v'
p616
(dp617
g609
F0.29999999999999999
ssS'G'
p618
(dp619
g610
F3846153846153.8462
ssS'p'
p620
F0.10000000000000001
sS'tension'
p621
I01
sS'compression'
p622
I01
sbsg402
g0
(ccompas_fea.structure.material
CMMUsermat
p623
g2
Ntp624
Rp625
(dp626
g15
I1
sg603
S'CMMUsermat'
p627
sg605
g402
sg606
(lp628
g545
ag608
ag609
ag610
ag611
aS'R_Rohr'
p629
aS'rho'
p630
aS'oo'
p631
aS'uu'
p632
aS'beton'
p633
aS'fcc'
p634
aS'vc'
p635
aS'ecu'
p636
aS'k_E'
p637
aS'theta_b0'
p638
aS'theta_b1'
p639
aS'k_riss'
p640
aS'Entfestigung'
p641
aS'lambdaTS'
p642
aS'srmx'
p643
aS'srmy'
p644
aS'Begrenzung'
p645
aS'KritQ'
p646
aS'winkelD'
p647
aS'k_vr'
p648
aS'fswy'
p649
aS'stahl1'
p650
aS'zm1'
p651
aS'fsy1'
p652
aS'fsu1'
p653
aS'esu1'
p654
aS'esv1'
p655
aS'Es1'
p656
aS'ka1'
p657
aS'kb1'
p658
aS'kc1'
p659
aS'as1'
p660
aS'dm1'
p661
aS'psi1'
p662
aS'stahl2'
p663
aS'zm2'
p664
aS'fsy2'
p665
aS'fsu2'
p666
aS'esu2'
p667
aS'esv2'
p668
aS'Es2'
p669
aS'ka2'
p670
aS'kb2'
p671
aS'kc2'
p672
aS'as2'
p673
aS'dm2'
p674
aS'psi2'
p675
aS'stahl3'
p676
aS'zm3'
p677
aS'fsy3'
p678
aS'fsu3'
p679
aS'esu3'
p680
aS'esv3'
p681
aS'Es3'
p682
aS'ka3'
p683
aS'kb3'
p684
aS'kc3'
p685
aS'as3'
p686
aS'dm3'
p687
aS'psi3'
p688
aS'stahl4'
p689
aS'zm4'
p690
aS'fsy4'
p691
aS'fsu4'
p692
aS'esu4'
p693
aS'esv4'
p694
aS'Es4'
p695
aS'ka4'
p696
aS'kb4'
p697
aS'kc4'
p698
aS'as4'
p699
aS'dm4'
p700
aS'psi4'
p701
asS'E'
p702
(dp703
S'E'
p704
I200000
ssS'v'
p705
(dp706
S'v'
p707
F0.10000000000000001
ssS'G'
p708
(dp709
g610
F90909.090909090897
ssS'p'
p710
F2.5000000000000002e-06
sS'R_Rohr'
p711
(dp712
g629
I-1
ssS'rho'
p713
(dp714
g630
F2.5000000000000002e-06
ssS'oo'
p715
(dp716
g631
I30
ssS'uu'
p717
(dp718
g632
I30
ssS'beton'
p719
(dp720
g633
I2
ssS'fcc'
p721
(dp722
g634
I32
ssS'vc'
p723
(dp724
g635
I0
ssS'ecu'
p725
(dp726
g636
F-0.002
ssS'k_E'
p727
(dp728
g637
I10000
ssS'theta_b0'
p729
(dp730
g638
I2
ssS'theta_b1'
p731
(dp732
g639
I1
ssS'k_riss'
p733
(dp734
g640
I0
ssS'Entfestigung'
p735
(dp736
g641
I0
ssS'lambdaTS'
p737
(dp738
g642
F0.67000000000000004
ssS'srmx'
p739
(dp740
g643
I1
ssS'srmy'
p741
(dp742
g644
I1
ssS'Begrenzung'
p743
(dp744
g645
I2
ssS'KritQ'
p745
(dp746
g646
I0
ssS'winkelD'
p747
(dp748
g647
I45
ssS'k_vr'
p749
(dp750
g648
I1
ssS'fswy'
p751
(dp752
g649
I500
ssS'stahl1'
p753
(dp754
g650
I1
ssS'zm1'
p755
(dp756
g651
I2
ssS'fsy1'
p757
(dp758
g652
I300
ssS'fsu1'
p759
(dp760
g653
I324
ssS'esu1'
p761
(dp762
g654
F0.044999999999999998
ssS'esv1'
p763
(dp764
g655
F0.02
ssS'Es1'
p765
(dp766
g656
I200000
ssS'ka1'
p767
(dp768
g657
I-1
ssS'kb1'
p769
(dp770
g658
I-1
ssS'kc1'
p771
(dp772
g659
I-1
ssS'as1'
p773
(dp774
g660
F0.23463229965008556
ssS'dm1'
p775
(dp776
g661
F11.150761594299173
ssS'psi1'
p777
(dp778
g662
I90
ssS'stahl2'
p779
(dp780
g663
I1
ssS'zm2'
p781
(dp782
g664
I2
ssS'fsy2'
p783
(dp784
g665
I300
ssS'fsu2'
p785
(dp786
g666
I324
ssS'esu2'
p787
(dp788
g667
F0.044999999999999998
ssS'esv2'
p789
(dp790
g668
F0.02
ssS'Es2'
p791
(dp792
g669
I200000
ssS'ka2'
p793
(dp794
g670
I-1
ssS'kb2'
p795
(dp796
g671
I-1
ssS'kc2'
p797
(dp798
g672
I-1
ssS'as2'
p799
(dp800
g673
F0.27173227704161773
ssS'dm2'
p801
(dp802
g674
F12.0
ssS'psi2'
p803
(dp804
g675
I0
ssS'stahl3'
p805
(dp806
g676
I1
ssS'zm3'
p807
(dp808
g677
I2
ssS'fsy3'
p809
(dp810
g678
I300
ssS'fsu3'
p811
(dp812
g679
I324
ssS'esu3'
p813
(dp814
g680
F0.044999999999999998
ssS'esv3'
p815
(dp816
g681
F0.02
ssS'Es3'
p817
(dp818
g682
I200000
ssS'ka3'
p819
(dp820
g683
I-1
ssS'kb3'
p821
(dp822
g684
I-1
ssS'kc3'
p823
(dp824
g685
I-1
ssS'as3'
p825
(dp826
g686
F0.27173227704161773
ssS'dm3'
p827
(dp828
g687
F12.0
ssS'psi3'
p829
(dp830
g688
I0
ssS'stahl4'
p831
(dp832
g689
I1
ssS'zm4'
p833
(dp834
g690
I2
ssS'fsy4'
p835
(dp836
g691
I300
ssS'fsu4'
p837
(dp838
g692
I324
ssS'esu4'
p839
(dp840
g693
F0.044999999999999998
ssS'esv4'
p841
(dp842
g694
F0.02
ssS'Es4'
p843
(dp844
g695
I200000
ssS'ka4'
p845
(dp846
g696
I-1
ssS'kb4'
p847
(dp848
g697
I-1
ssS'kc4'
p849
(dp850
g698
I-1
ssS'as4'
p851
(dp852
g699
F1.5895854371861873
ssS'dm4'
p853
(dp854
g700
F29.023686188442188
ssS'psi4'
p855
(dp856
g701
I90
ssbsg426
g0
(g623
g2
Ntp857
Rp858
(dp859
g15
I0
sg603
g627
sg605
g426
sg606
(lp860
g545
ag608
ag609
ag610
ag611
ag629
ag630
ag631
ag632
ag633
ag634
ag635
ag636
ag637
ag638
ag639
ag640
ag641
ag642
ag643
ag644
ag645
ag646
ag647
ag648
ag649
ag650
ag651
ag652
ag653
ag654
ag655
ag656
ag657
ag658
ag659
ag660
ag661
ag662
ag663
ag664
ag665
ag666
ag667
ag668
ag669
ag670
ag671
ag672
ag673
ag674
ag675
ag676
ag677
ag678
ag679
ag680
ag681
ag682
ag683
ag684
ag685
ag686
ag687
ag688
ag689
ag690
ag691
ag692
ag693
ag694
ag695
ag696
ag697
ag698
ag699
ag700
ag701
asg702
(dp861
g704
I200000
ssg705
(dp862
g707
F0.10000000000000001
ssg708
(dp863
g610
F90909.090909090897
ssg710
F2.5000000000000002e-06
sg711
(dp864
g629
I-1
ssg713
(dp865
g630
F2.5000000000000002e-06
ssg715
(dp866
g631
I30
ssg717
(dp867
g632
I30
ssg719
(dp868
g633
I2
ssg721
(dp869
g634
I32
ssg723
(dp870
g635
I0
ssg725
(dp871
g636
F-0.002
ssg727
(dp872
g637
I10000
ssg729
(dp873
g638
I2
ssg731
(dp874
g639
I1
ssg733
(dp875
g640
I0
ssg735
(dp876
g641
I0
ssg737
(dp877
g642
F0.67000000000000004
ssg739
(dp878
g643
I1
ssg741
(dp879
g644
I1
ssg743
(dp880
g645
I2
ssg745
(dp881
g646
I0
ssg747
(dp882
g647
I45
ssg749
(dp883
g648
I1
ssg751
(dp884
g649
I500
ssg753
(dp885
g650
I1
ssg755
(dp886
g651
I2
ssg757
(dp887
g652
I300
ssg759
(dp888
g653
I324
ssg761
(dp889
g654
F0.044999999999999998
ssg763
(dp890
g655
F0.02
ssg765
(dp891
g656
I200000
ssg767
(dp892
g657
I-1
ssg769
(dp893
g658
I-1
ssg771
(dp894
g659
I-1
ssg773
(dp895
g660
F0.22305306323437704
ssg775
(dp896
g661
F11.364253235605519
ssg777
(dp897
g662
I90
ssg779
(dp898
g663
I1
ssg781
(dp899
g664
I2
ssg783
(dp900
g665
I300
ssg785
(dp901
g666
I324
ssg787
(dp902
g667
F0.044999999999999998
ssg789
(dp903
g668
F0.02
ssg791
(dp904
g669
I200000
ssg793
(dp905
g670
I-1
ssg795
(dp906
g671
I-1
ssg797
(dp907
g672
I-1
ssg799
(dp908
g673
F1.1358535962809633
ssg801
(dp909
g674
F25.644721412570014
ssg803
(dp910
g675
I0
ssg805
(dp911
g676
I1
ssg807
(dp912
g677
I2
ssg809
(dp913
g678
I300
ssg811
(dp914
g679
I324
ssg813
(dp915
g680
F0.044999999999999998
ssg815
(dp916
g681
F0.02
ssg817
(dp917
g682
I200000
ssg819
(dp918
g683
I-1
ssg821
(dp919
g684
I-1
ssg823
(dp920
g685
I-1
ssg825
(dp921
g686
F0.24870749794964633
ssg827
(dp922
g687
F12.0
ssg829
(dp923
g688
I0
ssg831
(dp924
g689
I1
ssg833
(dp925
g690
I2
ssg835
(dp926
g691
I300
ssg837
(dp927
g692
I324
ssg839
(dp928
g693
F0.044999999999999998
ssg841
(dp929
g694
F0.02
ssg843
(dp930
g695
I200000
ssg845
(dp931
g696
I-1
ssg847
(dp932
g697
I-1
ssg849
(dp933
g698
I-1
ssg851
(dp934
g699
F1.0702314427753996
ssg853
(dp935
g700
F24.892909482691824
ssg855
(dp936
g701
I90
ssbssS'misc'
p937
(dp938
sS'name'
p939
S'NLFE_CFB2'
p940
sS'nodes'
p941
(dp942
I0
g0
(ccompas_fea.structure.node
Node
p943
g2
Ntp944
Rp945
(dp946
S'__name__'
p947
S'Node'
p948
sS'key'
p949
I0
sS'x'
p950
F0.0
sS'y'
p951
F0.0
sS'z'
p952
F0.0
sS'ex'
p953
(lp954
I1
aI0
aI0
asS'ey'
p955
(lp956
I0
aI1
aI0
asS'ez'
p957
(lp958
I0
aI0
aI1
asS'mass'
p959
NsbsI1
g0
(g943
g2
Ntp960
Rp961
(dp962
g947
g948
sg949
I1
sg950
F995.21335948208207
sg951
F0.0
sg952
F0.0
sg953
g954
sg955
g956
sg957
g958
sg959
NsbsI2
g0
(g943
g2
Ntp963
Rp964
(dp965
g947
g948
sg949
I2
sg950
F0.0
sg951
F1463.4818988552745
sg952
F0.0
sg953
g954
sg955
g956
sg957
g958
sg959
NsbsI3
g0
(g943
g2
Ntp966
Rp967
(dp968
g947
g948
sg949
I3
sg950
F995.21335948208184
sg951
F1463.4818988552745
sg952
F0.0
sg953
g954
sg955
g956
sg957
g958
sg959
NsbsI4
g0
(g943
g2
Ntp969
Rp970
(dp971
g947
g948
sg949
I4
sg950
F0.0
sg951
F2926.963797710549
sg952
F0.0
sg953
g954
sg955
g956
sg957
g958
sg959
NsbsI5
g0
(g943
g2
Ntp972
Rp973
(dp974
g947
g948
sg949
I5
sg950
F995.21335948208184
sg951
F2926.963797710549
sg952
F0.0
sg953
g954
sg955
g956
sg957
g958
sg959
NsbsI6
g0
(g943
g2
Ntp975
Rp976
(dp977
g947
g948
sg949
I6
sg950
F0.0
sg951
F4390.4456965658246
sg952
F0.0
sg953
g954
sg955
g956
sg957
g958
sg959
NsbsI7
g0
(g943
g2
Ntp978
Rp979
(dp980
g947
g948
sg949
I7
sg950
F995.21335948208207
sg951
F4390.4456965658246
sg952
F0.0
sg953
g954
sg955
g956
sg957
g958
sg959
NsbsI8
g0
(g943
g2
Ntp981
Rp982
(dp983
g947
g948
sg949
I8
sg950
F0.0
sg951
F8913.9352021184914
sg952
F0.0
sg953
g954
sg955
g956
sg957
g958
sg959
NsbsI9
g0
(g943
g2
Ntp984
Rp985
(dp986
g947
g948
sg949
I9
sg950
F995.21335948208207
sg951
F8913.9352021184914
sg952
F0.0
sg953
g954
sg955
g956
sg957
g958
sg959
NsbsI10
g0
(g943
g2
Ntp987
Rp988
(dp989
g947
g948
sg949
I10
sg950
F0.0
sg951
F10377.417100973766
sg952
F0.0
sg953
g954
sg955
g956
sg957
g958
sg959
NsbsI11
g0
(g943
g2
Ntp990
Rp991
(dp992
g947
g948
sg949
I11
sg950
F995.21335948208184
sg951
F10377.417100973766
sg952
F0.0
sg953
g954
sg955
g956
sg957
g958
sg959
NsbsI12
g0
(g943
g2
Ntp993
Rp994
(dp995
g947
g948
sg949
I12
sg950
F0.0
sg951
F11840.898999829038
sg952
F0.0
sg953
g954
sg955
g956
sg957
g958
sg959
NsbsI13
g0
(g943
g2
Ntp996
Rp997
(dp998
g947
g948
sg949
I13
sg950
F995.21335948208184
sg951
F11840.898999829038
sg952
F0.0
sg953
g954
sg955
g956
sg957
g958
sg959
NsbsI14
g0
(g943
g2
Ntp999
Rp1000
(dp1001
g947
g948
sg949
I14
sg950
F0.0
sg951
F13304.380898684316
sg952
F0.0
sg953
g954
sg955
g956
sg957
g958
sg959
NsbsI15
g0
(g943
g2
Ntp1002
Rp1003
(dp1004
g947
g948
sg949
I15
sg950
F995.21335948208207
sg951
F13304.380898684316
sg952
F0.0
sg953
g954
sg955
g956
sg957
g958
sg959
NsbsI16
g0
(g943
g2
Ntp1005
Rp1006
(dp1007
g947
g948
sg949
I16
sg950
F1990.4267189641641
sg951
F0.0
sg952
F0.0
sg953
g954
sg955
g956
sg957
g958
sg959
NsbsI17
g0
(g943
g2
Ntp1008
Rp1009
(dp1010
g947
g948
sg949
I17
sg950
F1990.4267189641637
sg951
F1463.4818988552745
sg952
F0.0
sg953
g954
sg955
g956
sg957
g958
sg959
NsbsI18
g0
(g943
g2
Ntp1011
Rp1012
(dp1013
g947
g948
sg949
I18
sg950
F1990.4267189641637
sg951
F2926.963797710549
sg952
F0.0
sg953
g954
sg955
g956
sg957
g958
sg959
NsbsI19
g0
(g943
g2
Ntp1014
Rp1015
(dp1016
g947
g948
sg949
I19
sg950
F1990.4267189641641
sg951
F4390.4456965658246
sg952
F0.0
sg953
g954
sg955
g956
sg957
g958
sg959
NsbsI20
g0
(g943
g2
Ntp1017
Rp1018
(dp1019
g947
g948
sg949
I20
sg950
F1990.4267189641641
sg951
F8913.9352021184914
sg952
F0.0
sg953
g954
sg955
g956
sg957
g958
sg959
NsbsI21
g0
(g943
g2
Ntp1020
Rp1021
(dp1022
g947
g948
sg949
I21
sg950
F1990.4267189641637
sg951
F10377.417100973766
sg952
F0.0
sg953
g954
sg955
g956
sg957
g958
sg959
NsbsI22
g0
(g943
g2
Ntp1023
Rp1024
(dp1025
g947
g948
sg949
I22
sg950
F1990.4267189641637
sg951
F11840.898999829038
sg952
F0.0
sg953
g954
sg955
g956
sg957
g958
sg959
NsbsI23
g0
(g943
g2
Ntp1026
Rp1027
(dp1028
g947
g948
sg949
I23
sg950
F1990.4267189641641
sg951
F13304.380898684316
sg952
F0.0
sg953
g954
sg955
g956
sg957
g958
sg959
NsbsI24
g0
(g943
g2
Ntp1029
Rp1030
(dp1031
g947
g948
sg949
I24
sg950
F3015.7980590366124
sg951
F0.0
sg952
F0.0
sg953
g954
sg955
g956
sg957
g958
sg959
NsbsI25
g0
(g943
g2
Ntp1032
Rp1033
(dp1034
g947
g948
sg949
I25
sg950
F3015.7980590366119
sg951
F1463.4818988552745
sg952
F0.0
sg953
g954
sg955
g956
sg957
g958
sg959
NsbsI26
g0
(g943
g2
Ntp1035
Rp1036
(dp1037
g947
g948
sg949
I26
sg950
F3015.7980590366119
sg951
F2926.963797710549
sg952
F0.0
sg953
g954
sg955
g956
sg957
g958
sg959
NsbsI27
g0
(g943
g2
Ntp1038
Rp1039
(dp1040
g947
g948
sg949
I27
sg950
F3015.7980590366124
sg951
F4390.4456965658246
sg952
F0.0
sg953
g954
sg955
g956
sg957
g958
sg959
NsbsI28
g0
(g943
g2
Ntp1041
Rp1042
(dp1043
g947
g948
sg949
I28
sg950
F3015.7980590366124
sg951
F8913.9352021184914
sg952
F0.0
sg953
g954
sg955
g956
sg957
g958
sg959
NsbsI29
g0
(g943
g2
Ntp1044
Rp1045
(dp1046
g947
g948
sg949
I29
sg950
F3015.7980590366119
sg951
F10377.417100973766
sg952
F0.0
sg953
g954
sg955
g956
sg957
g958
sg959
NsbsI30
g0
(g943
g2
Ntp1047
Rp1048
(dp1049
g947
g948
sg949
I30
sg950
F3015.7980590366119
sg951
F11840.898999829038
sg952
F0.0
sg953
g954
sg955
g956
sg957
g958
sg959
NsbsI31
g0
(g943
g2
Ntp1050
Rp1051
(dp1052
g947
g948
sg949
I31
sg950
F3015.7980590366124
sg951
F13304.380898684316
sg952
F0.0
sg953
g954
sg955
g956
sg957
g958
sg959
NsbsI32
g0
(g943
g2
Ntp1053
Rp1054
(dp1055
g947
g948
sg949
I32
sg950
F0.0
sg951
F5898.2755317500469
sg952
F0.0
sg953
g954
sg955
g956
sg957
g958
sg959
NsbsI33
g0
(g943
g2
Ntp1056
Rp1057
(dp1058
g947
g948
sg949
I33
sg950
F995.21335948208196
sg951
F5898.2755317500469
sg952
F0.0
sg953
g954
sg955
g956
sg957
g958
sg959
NsbsI34
g0
(g943
g2
Ntp1059
Rp1060
(dp1061
g947
g948
sg949
I34
sg950
F0.0
sg951
F7406.1053669342691
sg952
F0.0
sg953
g954
sg955
g956
sg957
g958
sg959
NsbsI35
g0
(g943
g2
Ntp1062
Rp1063
(dp1064
g947
g948
sg949
I35
sg950
F995.21335948208196
sg951
F7406.1053669342691
sg952
F0.0
sg953
g954
sg955
g956
sg957
g958
sg959
NsbsI36
g0
(g943
g2
Ntp1065
Rp1066
(dp1067
g947
g948
sg949
I36
sg950
F1990.4267189641639
sg951
F5898.2755317500469
sg952
F0.0
sg953
g954
sg955
g956
sg957
g958
sg959
NsbsI37
g0
(g943
g2
Ntp1068
Rp1069
(dp1070
g947
g948
sg949
I37
sg950
F1990.4267189641639
sg951
F7406.1053669342691
sg952
F0.0
sg953
g954
sg955
g956
sg957
g958
sg959
NsbsI38
g0
(g943
g2
Ntp1071
Rp1072
(dp1073
g947
g948
sg949
I38
sg950
F3015.7980590366124
sg951
F5898.2755317500469
sg952
F0.0
sg953
g954
sg955
g956
sg957
g958
sg959
NsbsI39
g0
(g943
g2
Ntp1074
Rp1075
(dp1076
g947
g948
sg949
I39
sg950
F3015.7980590366124
sg951
F7406.1053669342691
sg952
F0.0
sg953
g954
sg955
g956
sg957
g958
sg959
NsbsI40
g0
(g943
g2
Ntp1077
Rp1078
(dp1079
g947
g948
sg949
I40
sg950
F0.0
sg951
F0.0
sg952
F-1889.6729506202585
sg953
g954
sg955
g956
sg957
g958
sg959
NsbsI41
g0
(g943
g2
Ntp1080
Rp1081
(dp1082
g947
g948
sg949
I41
sg950
F995.21335948208196
sg951
F0.0
sg952
F-1889.6729506202585
sg953
g954
sg955
g956
sg957
g958
sg959
NsbsI42
g0
(g943
g2
Ntp1083
Rp1084
(dp1085
g947
g948
sg949
I42
sg950
F0.0
sg951
F0.0
sg952
F-527.44714608374534
sg953
g954
sg955
g956
sg957
g958
sg959
NsbsI43
g0
(g943
g2
Ntp1086
Rp1087
(dp1088
g947
g948
sg949
I43
sg950
F995.21335948208196
sg951
F0.0
sg952
F-527.44714608374534
sg953
g954
sg955
g956
sg957
g958
sg959
NsbsI44
g0
(g943
g2
Ntp1089
Rp1090
(dp1091
g947
g948
sg949
I44
sg950
F1990.42671896416
sg951
F0.0
sg952
F-1889.6729506202585
sg953
g954
sg955
g956
sg957
g958
sg959
NsbsI45
g0
(g943
g2
Ntp1092
Rp1093
(dp1094
g947
g948
sg949
I45
sg950
F1990.42671896416
sg951
F0.0
sg952
F-527.44714608374534
sg953
g954
sg955
g956
sg957
g958
sg959
NsbsI46
g0
(g943
g2
Ntp1095
Rp1096
(dp1097
g947
g948
sg949
I46
sg950
F3015.7980590366101
sg951
F0.0
sg952
F-1889.6729506202585
sg953
g954
sg955
g956
sg957
g958
sg959
NsbsI47
g0
(g943
g2
Ntp1098
Rp1099
(dp1100
g947
g948
sg949
I47
sg950
F3015.7980590366101
sg951
F0.0
sg952
F-527.44714608374534
sg953
g954
sg955
g956
sg957
g958
sg959
NsbsI48
g0
(g943
g2
Ntp1101
Rp1102
(dp1103
g947
g948
sg949
I48
sg950
F0.0
sg951
F0.0
sg952
F-3293.1783249912105
sg953
g954
sg955
g956
sg957
g958
sg959
NsbsI49
g0
(g943
g2
Ntp1104
Rp1105
(dp1106
g947
g948
sg949
I49
sg950
F995.21335948208196
sg951
F0.0
sg952
F-3293.1783249912105
sg953
g954
sg955
g956
sg957
g958
sg959
NsbsI50
g0
(g943
g2
Ntp1107
Rp1108
(dp1109
g947
g948
sg949
I50
sg950
F1990.42671896416
sg951
F0.0
sg952
F-3293.1783249912105
sg953
g954
sg955
g956
sg957
g958
sg959
NsbsI51
g0
(g943
g2
Ntp1110
Rp1111
(dp1112
g947
g948
sg949
I51
sg950
F3015.7980590366101
sg951
F0.0
sg952
F-3293.1783249912105
sg953
g954
sg955
g956
sg957
g958
sg959
NsbsI52
g0
(g943
g2
Ntp1113
Rp1114
(dp1115
g947
g948
sg949
I52
sg950
F0.0
sg951
F0.0
sg952
F-4655.4041295277239
sg953
g954
sg955
g956
sg957
g958
sg959
NsbsI53
g0
(g943
g2
Ntp1116
Rp1117
(dp1118
g947
g948
sg949
I53
sg950
F995.21335948208196
sg951
F0.0
sg952
F-4655.4041295277239
sg953
g954
sg955
g956
sg957
g958
sg959
NsbsI54
g0
(g943
g2
Ntp1119
Rp1120
(dp1121
g947
g948
sg949
I54
sg950
F1990.42671896416
sg951
F0.0
sg952
F-4655.4041295277239
sg953
g954
sg955
g956
sg957
g958
sg959
NsbsI55
g0
(g943
g2
Ntp1122
Rp1123
(dp1124
g947
g948
sg949
I55
sg950
F3015.7980590366101
sg951
F0.0
sg952
F-4655.4041295277239
sg953
g954
sg955
g956
sg957
g958
sg959
NsbsI56
g0
(g943
g2
Ntp1125
Rp1126
(dp1127
g947
g948
sg949
I56
sg950
F0.0
sg951
F13304.380898684316
sg952
F-1889.6729506202585
sg953
g954
sg955
g956
sg957
g958
sg959
NsbsI57
g0
(g943
g2
Ntp1128
Rp1129
(dp1130
g947
g948
sg949
I57
sg950
F995.21335948208196
sg951
F13304.380898684316
sg952
F-1889.6729506202585
sg953
g954
sg955
g956
sg957
g958
sg959
NsbsI58
g0
(g943
g2
Ntp1131
Rp1132
(dp1133
g947
g948
sg949
I58
sg950
F0.0
sg951
F13304.380898684316
sg952
F-527.44714608374534
sg953
g954
sg955
g956
sg957
g958
sg959
NsbsI59
g0
(g943
g2
Ntp1134
Rp1135
(dp1136
g947
g948
sg949
I59
sg950
F995.21335948208196
sg951
F13304.380898684316
sg952
F-527.44714608374534
sg953
g954
sg955
g956
sg957
g958
sg959
NsbsI60
g0
(g943
g2
Ntp1137
Rp1138
(dp1139
g947
g948
sg949
I60
sg950
F1990.42671896416
sg951
F13304.380898684316
sg952
F-1889.6729506202585
sg953
g954
sg955
g956
sg957
g958
sg959
NsbsI61
g0
(g943
g2
Ntp1140
Rp1141
(dp1142
g947
g948
sg949
I61
sg950
F1990.42671896416
sg951
F13304.380898684316
sg952
F-527.44714608374534
sg953
g954
sg955
g956
sg957
g958
sg959
NsbsI62
g0
(g943
g2
Ntp1143
Rp1144
(dp1145
g947
g948
sg949
I62
sg950
F3015.7980590366101
sg951
F13304.380898684316
sg952
F-1889.6729506202585
sg953
g954
sg955
g956
sg957
g958
sg959
NsbsI63
g0
(g943
g2
Ntp1146
Rp1147
(dp1148
g947
g948
sg949
I63
sg950
F3015.7980590366101
sg951
F13304.380898684316
sg952
F-527.44714608374534
sg953
g954
sg955
g956
sg957
g958
sg959
NsbsI64
g0
(g943
g2
Ntp1149
Rp1150
(dp1151
g947
g948
sg949
I64
sg950
F0.0
sg951
F13304.380898684316
sg952
F-3293.1783249912105
sg953
g954
sg955
g956
sg957
g958
sg959
NsbsI65
g0
(g943
g2
Ntp1152
Rp1153
(dp1154
g947
g948
sg949
I65
sg950
F995.21335948208196
sg951
F13304.380898684316
sg952
F-3293.1783249912105
sg953
g954
sg955
g956
sg957
g958
sg959
NsbsI66
g0
(g943
g2
Ntp1155
Rp1156
(dp1157
g947
g948
sg949
I66
sg950
F1990.42671896416
sg951
F13304.380898684316
sg952
F-3293.1783249912105
sg953
g954
sg955
g956
sg957
g958
sg959
NsbsI67
g0
(g943
g2
Ntp1158
Rp1159
(dp1160
g947
g948
sg949
I67
sg950
F3015.7980590366101
sg951
F13304.380898684316
sg952
F-3293.1783249912105
sg953
g954
sg955
g956
sg957
g958
sg959
NsbsI68
g0
(g943
g2
Ntp1161
Rp1162
(dp1163
g947
g948
sg949
I68
sg950
F0.0
sg951
F13304.380898684316
sg952
F-4655.4041295277239
sg953
g954
sg955
g956
sg957
g958
sg959
NsbsI69
g0
(g943
g2
Ntp1164
Rp1165
(dp1166
g947
g948
sg949
I69
sg950
F995.21335948208196
sg951
F13304.380898684316
sg952
F-4655.4041295277239
sg953
g954
sg955
g956
sg957
g958
sg959
NsbsI70
g0
(g943
g2
Ntp1167
Rp1168
(dp1169
g947
g948
sg949
I70
sg950
F1990.42671896416
sg951
F13304.380898684316
sg952
F-4655.4041295277239
sg953
g954
sg955
g956
sg957
g958
sg959
NsbsI71
g0
(g943
g2
Ntp1170
Rp1171
(dp1172
g947
g948
sg949
I71
sg950
F3015.7980590366101
sg951
F13304.380898684316
sg952
F-4655.4041295277239
sg953
g954
sg955
g956
sg957
g958
sg959
NsbssS'node_index'
p1173
(dp1174
S'3015.798,13304.381,-3293.178'
p1175
I67
sS'1990.427,10377.417,0.000'
p1176
I21
sS'995.213,1463.482,0.000'
p1177
I3
sS'995.213,13304.381,-527.447'
p1178
I59
sS'995.213,8913.935,0.000'
p1179
I9
sS'1990.427,13304.381,0.000'
p1180
I23
sS'1990.427,13304.381,-527.447'
p1181
I61
sS'0.000,0.000,-4655.404'
p1182
I52
sS'0.000,0.000,-527.447'
p1183
I42
sS'0.000,0.000,-1889.673'
p1184
I40
sS'995.213,13304.381,-1889.673'
p1185
I57
sS'995.213,13304.381,-3293.178'
p1186
I65
sS'1990.427,0.000,0.000'
p1187
I16
sS'995.213,0.000,-4655.404'
p1188
I53
sS'0.000,10377.417,0.000'
p1189
I10
sS'0.000,5898.276,0.000'
p1190
I32
sS'1990.427,13304.381,-3293.178'
p1191
I66
sS'3015.798,8913.935,0.000'
p1192
I28
sS'3015.798,2926.964,0.000'
p1193
I26
sS'3015.798,13304.381,0.000'
p1194
I31
sS'995.213,5898.276,0.000'
p1195
I33
sS'0.000,0.000,-3293.178'
p1196
I48
sS'3015.798,5898.276,0.000'
p1197
I38
sS'3015.798,0.000,-1889.673'
p1198
I46
sS'3015.798,11840.899,0.000'
p1199
I30
sS'1990.427,7406.105,0.000'
p1200
I37
sS'3015.798,10377.417,0.000'
p1201
I29
sS'995.213,4390.446,0.000'
p1202
I7
sS'0.000,13304.381,-3293.178'
p1203
I64
sS'0.000,1463.482,0.000'
p1204
I2
sS'3015.798,0.000,-4655.404'
p1205
I55
sS'0.000,0.000,0.000'
p1206
I0
sS'3015.798,0.000,-3293.178'
p1207
I51
sS'0.000,8913.935,0.000'
p1208
I8
sS'1990.427,8913.935,0.000'
p1209
I20
sS'995.213,13304.381,0.000'
p1210
I15
sS'995.213,7406.105,0.000'
p1211
I35
sS'3015.798,7406.105,0.000'
p1212
I39
sS'995.213,0.000,0.000'
p1213
I1
sS'0.000,13304.381,0.000'
p1214
I14
sS'995.213,0.000,-3293.178'
p1215
I49
sS'995.213,11840.899,0.000'
p1216
I13
sS'1990.427,11840.899,0.000'
p1217
I22
sS'3015.798,13304.381,-4655.404'
p1218
I71
sS'1990.427,1463.482,0.000'
p1219
I17
sS'0.000,13304.381,-527.447'
p1220
I58
sS'3015.798,13304.381,-527.447'
p1221
I63
sS'995.213,10377.417,0.000'
p1222
I11
sS'1990.427,2926.964,0.000'
p1223
I18
sS'1990.427,0.000,-4655.404'
p1224
I54
sS'3015.798,0.000,0.000'
p1225
I24
sS'1990.427,0.000,-527.447'
p1226
I45
sS'3015.798,4390.446,0.000'
p1227
I27
sS'995.213,13304.381,-4655.404'
p1228
I69
sS'0.000,13304.381,-1889.673'
p1229
I56
sS'995.213,2926.964,0.000'
p1230
I5
sS'0.000,2926.964,0.000'
p1231
I4
sS'1990.427,13304.381,-1889.673'
p1232
I60
sS'0.000,7406.105,0.000'
p1233
I34
sS'0.000,11840.899,0.000'
p1234
I12
sS'1990.427,5898.276,0.000'
p1235
I36
sS'1990.427,0.000,-3293.178'
p1236
I50
sS'0.000,4390.446,0.000'
p1237
I6
sS'3015.798,1463.482,0.000'
p1238
I25
sS'995.213,0.000,-1889.673'
p1239
I41
sS'3015.798,13304.381,-1889.673'
p1240
I62
sS'1990.427,13304.381,-4655.404'
p1241
I70
sS'3015.798,0.000,-527.447'
p1242
I47
sS'1990.427,0.000,-1889.673'
p1243
I44
sS'1990.427,4390.446,0.000'
p1244
I19
sS'995.213,0.000,-527.447'
p1245
I43
sS'0.000,13304.381,-4655.404'
p1246
I68
ssS'path'
p1247
S'C:\\Temp\\'
p1248
sS'results'
p1249
(dp1250
S'step_2'
p1251
S'ERROR'
p1252
sS'step_3'
p1253
g1252
sS'step_4'
p1254
g1252
sS'step_1'
p1255
g1252
ssS'sections'
p1256
(dp1257
g413
g0
(ccompas_fea.structure.section
ShellSection
p1258
g2
Ntp1259
Rp1260
(dp1261
g397
I1
sS'__name__'
p1262
S'ShellSection'
p1263
sS'name'
p1264
g413
sS'geometry'
p1265
(dp1266
S't'
p1267
F807.8688628208638
ssS'loc_coords_OR'
p1268
(dp1269
S'ORxyz'
p1270
(lp1271
I0
aI0
aF-4127.9569834399999
assS'loc_coords_XA'
p1272
(dp1273
S'XAxyz'
p1274
(lp1275
I1
aI0
aF-4127.9569834399999
assS'loc_coords_YA'
p1276
(dp1277
S'YAxyz'
p1278
(lp1279
F4127.9569834399999
aF-4127.9569834399999
aF-4126.9569834399999
assS'loc_coords_EV_XA'
p1280
(dp1281
S'EV_XA'
p1282
(lp1283
F1.0
aF0.0
aF0.0
assS'loc_coords_EV_YA'
p1284
(dp1285
S'EV_YA'
p1286
(lp1287
F0.70710677081234619
aF-0.70710677081234619
aF0.00017129702989857331
assS'loc_coords_EV_ZA'
p1288
(dp1289
S'EV_ZA'
p1290
(lp1291
F0.0
aF-1.0
aF0.0
assS'nr_layers'
p1292
(dp1293
S'nn'
p1294
F48.0
ssS'offset'
p1295
(dp1296
S'mode'
p1297
S'mid'
p1298
ssbsg427
g0
(g1258
g2
Ntp1299
Rp1300
(dp1301
g397
I0
sg1262
g1263
sg1264
g427
sg1265
(dp1302
g1267
F527.44714608374534
ssg1268
(dp1303
g1270
(lp1304
I0
aI0
aI0
assg1272
(dp1305
g1274
(lp1306
I1
aI0
aI0
assg1276
(dp1307
g1278
(lp1308
F0.0
aF1.0
aF0.0
assg1280
(dp1309
g1282
(lp1310
F1.0
aF0.0
aF0.0
assg1284
(dp1311
g1286
(lp1312
F0.0
aF1.0
aF0.0
assg1288
(dp1313
g1290
(lp1314
F0.0
aF0.0
aF1.0
assg1292
(dp1315
g1294
F47.0
ssg1295
(dp1316
g1297
S'top'
p1317
ssbsg404
g0
(g1258
g2
Ntp1318
Rp1319
(dp1320
g397
I2
sg1262
g1263
sg1264
g404
sg1265
(dp1321
g1267
F807.8688628208638
ssg1268
(dp1322
g1270
(lp1323
I0
aF13304.380898699999
aF-4127.9569834399999
assg1272
(dp1324
g1274
(lp1325
I1
aF13304.380898699999
aF-4127.9569834399999
assg1276
(dp1326
g1278
(lp1327
F-4127.9569834396243
aF9176.4239152599985
aF-17433.33788214
assg1280
(dp1328
g1282
(lp1329
F1.0
aF0.0
aF0.0
assg1284
(dp1330
g1286
(lp1331
F-0.28410406616075873
aF-0.28410406616078465
aF-0.91573454624243145
assg1288
(dp1332
g1290
(lp1333
F0.0
aF1.0
aF0.0
assg1292
(dp1334
g1294
F48.0
ssg1295
(dp1335
g1297
g1298
ssbsg497
g0
(ccompas_fea.structure.section
MPCSection
p1336
g2
Ntp1337
Rp1338
(dp1339
g15
I3
sg1262
S'MPCSection'
p1340
sg1264
g497
sg1265
NsS'nr_layers'
p1341
NsbssS'sets'
p1342
(dp1343
g522
g0
(ccompas_fea.structure.set
Set
p1344
g2
Ntp1345
Rp1346
(dp1347
S'__name__'
p1348
S'Set'
p1349
sS'name'
p1350
g522
sS'type'
p1351
S'element'
p1352
sS'selection'
p1353
(lp1354
I31
asS'index'
p1355
I13
sbsg498
g0
(g1344
g2
Ntp1356
Rp1357
(dp1358
g1348
g1349
sg1350
g498
sg1351
g1352
sg1353
(lp1359
I48
aI49
aI50
aI51
aI52
aI45
aI46
aI47
asg1355
I27
sbsg406
g0
(g1344
g2
Ntp1360
Rp1361
(dp1362
g1348
g1349
sg1350
g406
sg1351
g1352
sg1353
(lp1363
I39
asg1355
I21
sbsg452
g0
(g1344
g2
Ntp1364
Rp1365
(dp1366
g1348
g1349
sg1350
g452
sg1351
g1352
sg1353
(lp1367
I8
aI6
aI7
asg1355
I2
sbsg418
g0
(g1344
g2
Ntp1368
Rp1369
(dp1370
g1348
g1349
sg1350
g418
sg1351
g1352
sg1353
(lp1371
I34
asg1355
I16
sbsg514
g0
(g1344
g2
Ntp1372
Rp1373
(dp1374
g1348
g1349
sg1350
g514
sg1351
g1352
sg1353
(lp1375
I36
asg1355
I18
sbsg492
g0
(g1344
g2
Ntp1376
Rp1377
(dp1378
g1348
g1349
sg1350
g492
sg1351
g1352
sg1353
(lp1379
I3
aI4
aI5
asg1355
I1
sbsg428
g0
(g1344
g2
Ntp1380
Rp1381
(dp1382
g1348
g1349
sg1350
g428
sg1351
g1352
sg1353
(lp1383
I0
aI1
aI2
asg1355
I0
sbsg480
g0
(g1344
g2
Ntp1384
Rp1385
(dp1386
g1348
g1349
sg1350
g480
sg1351
g1352
sg1353
(lp1387
I18
aI19
aI20
asg1355
I6
sbsg518
g0
(g1344
g2
Ntp1388
Rp1389
(dp1390
g1348
g1349
sg1350
g518
sg1351
g1352
sg1353
(lp1391
I16
aI17
aI15
asg1355
I5
sbsg444
g0
(g1344
g2
Ntp1392
Rp1393
(dp1394
g1348
g1349
sg1350
g444
sg1351
g1352
sg1353
(lp1395
I12
aI13
aI14
asg1355
I4
sbsg488
g0
(g1344
g2
Ntp1396
Rp1397
(dp1398
g1348
g1349
sg1350
g488
sg1351
g1352
sg1353
(lp1399
I9
aI10
aI11
asg1355
I3
sbsg436
g0
(g1344
g2
Ntp1400
Rp1401
(dp1402
g1348
g1349
sg1350
g436
sg1351
g1352
sg1353
(lp1403
I24
aI25
aI26
asg1355
I8
sbsg472
g0
(g1344
g2
Ntp1404
Rp1405
(dp1406
g1348
g1349
sg1350
g472
sg1351
g1352
sg1353
(lp1407
I21
aI22
aI23
asg1355
I7
sbsg448
g0
(g1344
g2
Ntp1408
Rp1409
(dp1410
g1348
g1349
sg1350
g448
sg1351
g1352
sg1353
(lp1411
I29
asg1355
I11
sbsg510
g0
(g1344
g2
Ntp1412
Rp1413
(dp1414
g1348
g1349
sg1350
g510
sg1351
g1352
sg1353
(lp1415
I44
asg1355
I26
sbsg460
g0
(g1344
g2
Ntp1416
Rp1417
(dp1418
g1348
g1349
sg1350
g460
sg1351
g1352
sg1353
(lp1419
I41
asg1355
I23
sbsg440
g0
(g1344
g2
Ntp1420
Rp1421
(dp1422
g1348
g1349
sg1350
g440
sg1351
g1352
sg1353
(lp1423
I32
asg1355
I14
sbsg456
g0
(g1344
g2
Ntp1424
Rp1425
(dp1426
g1348
g1349
sg1350
g456
sg1351
g1352
sg1353
(lp1427
I38
asg1355
I20
sbsg476
g0
(g1344
g2
Ntp1428
Rp1429
(dp1430
g1348
g1349
sg1350
g476
sg1351
g1352
sg1353
(lp1431
I27
asg1355
I9
sbsg468
g0
(g1344
g2
Ntp1432
Rp1433
(dp1434
g1348
g1349
sg1350
g468
sg1351
g1352
sg1353
(lp1435
I35
asg1355
I17
sbsg35
g0
(g1344
g2
Ntp1436
Rp1437
(dp1438
g1348
g1349
sg1350
g35
sg1351
S'node'
p1439
sg1353
(lp1440
I71
aI70
aI69
aI68
asg1355
I29
sbsg464
g0
(g1344
g2
Ntp1441
Rp1442
(dp1443
g1348
g1349
sg1350
g464
sg1351
g1352
sg1353
(lp1444
I30
asg1355
I12
sbsg484
g0
(g1344
g2
Ntp1445
Rp1446
(dp1447
g1348
g1349
sg1350
g484
sg1351
g1352
sg1353
(lp1448
I43
asg1355
I25
sbsg432
g0
(g1344
g2
Ntp1449
Rp1450
(dp1451
g1348
g1349
sg1350
g432
sg1351
g1352
sg1353
(lp1452
I40
asg1355
I22
sbsg20
g0
(g1344
g2
Ntp1453
Rp1454
(dp1455
g1348
g1349
sg1350
g20
sg1351
g1439
sg1353
(lp1456
I55
aI54
aI53
aI52
asg1355
I28
sbsg502
g0
(g1344
g2
Ntp1457
Rp1458
(dp1459
g1348
g1349
sg1350
g502
sg1351
g1352
sg1353
(lp1460
I33
asg1355
I15
sbsg422
g0
(g1344
g2
Ntp1461
Rp1462
(dp1463
g1348
g1349
sg1350
g422
sg1351
g1352
sg1353
(lp1464
I37
asg1355
I19
sbsg414
g0
(g1344
g2
Ntp1465
Rp1466
(dp1467
g1348
g1349
sg1350
g414
sg1351
g1352
sg1353
(lp1468
I28
asg1355
I10
sbsg506
g0
(g1344
g2
Ntp1469
Rp1470
(dp1471
g1348
g1349
sg1350
g506
sg1351
g1352
sg1353
(lp1472
I42
asg1355
I24
sbssS'steps'
p1473
(dp1474
g1251
g0
(ccompas_fea.structure.step
GeneralStep
p1475
g2
Ntp1476
Rp1477
(dp1478
g397
I1
sS'__name__'
p1479
S'GeneralStep'
p1480
sS'name'
p1481
g1251
sS'attr_list'
p1482
(lp1483
g545
aS'increments'
p1484
aS'iterations'
p1485
aS'factor'
p1486
aS'nlgeom'
p1487
aS'nlmat'
p1488
aS'displacements'
p1489
aS'loads'
p1490
aS'type'
p1491
aS'tolerance'
p1492
aS'modify'
p1493
asS'increments'
p1494
I1
sS'iterations'
p1495
I100
sS'tolerance'
p1496
F0.01
sS'factor'
p1497
F1.0
sS'nlgeom'
p1498
I00
sS'nlmat'
p1499
I01
sS'displacements'
p1500
(lp1501
sS'loads'
p1502
(lp1503
g586
asS'modify'
p1504
I01
sS'type'
p1505
S'static'
p1506
sbsg1253
g0
(g1475
g2
Ntp1507
Rp1508
(dp1509
g397
I2
sg1479
g1480
sg1481
g1253
sg1482
(lp1510
g545
ag1484
ag1485
ag1486
ag1487
ag1488
ag1489
ag1490
ag1491
ag1492
ag1493
asg1494
I1
sg1495
I100
sg1496
F0.01
sg1497
F1.0
sg1498
I00
sg1499
I01
sg1500
(lp1511
sg1502
(lp1512
g579
ag572
ag565
asg1504
I01
sg1505
g1506
sbsg1254
g0
(g1475
g2
Ntp1513
Rp1514
(dp1515
g397
I3
sg1479
g1480
sg1481
g1254
sg1482
(lp1516
g545
ag1484
ag1485
ag1486
ag1487
ag1488
ag1489
ag1490
ag1491
ag1492
ag1493
asg1494
I1
sg1495
I100
sg1496
F0.01
sg1497
F1.0
sg1498
I00
sg1499
I01
sg1500
(lp1517
sg1502
(lp1518
g558
ag527
ag550
asg1504
I01
sg1505
g1506
sbsg1255
g0
(g1475
g2
Ntp1519
Rp1520
(dp1521
g397
I0
sg1479
g1480
sg1481
g1255
sg1482
(lp1522
g545
ag1484
ag1485
ag1486
ag1487
ag1488
ag1489
ag1490
ag1491
ag1492
ag1493
asg1494
I1
sg1495
I100
sg1496
F0.01
sg1497
F1.0
sg1498
I00
sg1499
I01
sg1500
(lp1523
g10
ag31
asg1502
(lp1524
sg1504
I01
sg1505
g1506
sbssS'loc_coor'
p1525
(dp1526
sS'steps_order'
p1527
(lp1528
g1255
ag1251
ag1253
ag1254
asS'tol'
p1529
S'3'
p1530
sS'virtual_nodes'
p1531
(dp1532
sS'virtual_node_index'
p1533
(dp1534
sS'virtual_elements'
p1535
(dp1536
sS'virtual_element_index'
p1537
(dp1538
sb.