ccopy_reg
_reconstructor
p0
(ccompas_fea.structure.structure
Structure
p1
c__builtin__
object
p2
Ntp3
Rp4
(dp5
S'constraints'
p6
(dp7
sS'displacements'
p8
(dp9
S'nset_pinned_set_disp_1'
p10
g0
(ccompas_fea.structure.displacement
GeneralDisplacement
p11
g2
Ntp12
Rp13
(dp14
S'index'
p15
I0
sS'__name__'
p16
S'GeneralDisplacement'
p17
sS'name'
p18
g10
sS'nodes'
p19
S'nset_support_wall1'
p20
sS'components'
p21
(dp22
S'z'
p23
I0
sS'xx'
p24
I0
sS'zz'
p25
I0
sS'yy'
p26
I0
sS'y'
p27
I0
sS'x'
p28
I0
ssS'axes'
p29
S'global'
p30
sbsS'nset_pinned_set_disp_2'
p31
g0
(g11
g2
Ntp32
Rp33
(dp34
g15
I1
sg16
g17
sg18
g31
sg19
S'nset_support_wall2'
p35
sg21
(dp36
g23
I0
sg24
I0
sg25
I0
sg26
I0
sg27
I0
sg28
I0
ssg29
g30
sbssS'elements'
p37
(dp38
I0
g0
(ccompas_fea.structure.element
ShellElement
p39
g2
Ntp40
Rp41
(dp42
S'mass'
p43
NsS'__name__'
p44
S'ShellElement'
p45
sS'nodes'
p46
(lp47
I0
aI1
aI3
aI2
asS'number'
p48
I0
sS'thermal'
p49
I00
sS'axes'
p50
(dp51
S'ey'
p52
NsS'ez'
p53
NsS'ex'
p54
NssS'element_property'
p55
S'elset_plate_1_element_prop'
p56
sbsI1
g0
(g39
g2
Ntp57
Rp58
(dp59
g43
Nsg44
g45
sg46
(lp60
I2
aI3
aI5
aI4
asg48
I1
sg49
I00
sg50
g51
sg55
g56
sbsI2
g0
(g39
g2
Ntp61
Rp62
(dp63
g43
Nsg44
g45
sg46
(lp64
I4
aI5
aI7
aI6
asg48
I2
sg49
I00
sg50
g51
sg55
g56
sbsI3
g0
(g39
g2
Ntp65
Rp66
(dp67
g43
Nsg44
g45
sg46
(lp68
I6
aI7
aI9
aI8
asg48
I3
sg49
I00
sg50
g51
sg55
g56
sbsI4
g0
(g39
g2
Ntp69
Rp70
(dp71
g43
Nsg44
g45
sg46
(lp72
I10
aI11
aI13
aI12
asg48
I4
sg49
I00
sg50
(dp73
g52
Nsg53
Nsg54
Nssg55
S'elset_plate_2_element_prop'
p74
sbsI5
g0
(g39
g2
Ntp75
Rp76
(dp77
g43
Nsg44
g45
sg46
(lp78
I12
aI13
aI15
aI14
asg48
I5
sg49
I00
sg50
g73
sg55
g74
sbsI6
g0
(g39
g2
Ntp79
Rp80
(dp81
g43
Nsg44
g45
sg46
(lp82
I14
aI15
aI17
aI16
asg48
I6
sg49
I00
sg50
g73
sg55
g74
sbsI7
g0
(g39
g2
Ntp83
Rp84
(dp85
g43
Nsg44
g45
sg46
(lp86
I16
aI17
aI19
aI18
asg48
I7
sg49
I00
sg50
g73
sg55
g74
sbsI8
g0
(g39
g2
Ntp87
Rp88
(dp89
g43
Nsg44
g45
sg46
(lp90
I1
aI20
aI21
aI3
asg48
I8
sg49
I00
sg50
(dp91
g52
Nsg53
Nsg54
Nssg55
S'elset_plate_3_element_prop'
p92
sbsI9
g0
(g39
g2
Ntp93
Rp94
(dp95
g43
Nsg44
g45
sg46
(lp96
I3
aI21
aI22
aI5
asg48
I9
sg49
I00
sg50
g91
sg55
g92
sbsI10
g0
(g39
g2
Ntp97
Rp98
(dp99
g43
Nsg44
g45
sg46
(lp100
I5
aI22
aI23
aI7
asg48
I10
sg49
I00
sg50
g91
sg55
g92
sbsI11
g0
(g39
g2
Ntp101
Rp102
(dp103
g43
Nsg44
g45
sg46
(lp104
I7
aI23
aI24
aI9
asg48
I11
sg49
I00
sg50
g91
sg55
g92
sbsI12
g0
(g39
g2
Ntp105
Rp106
(dp107
g43
Nsg44
g45
sg46
(lp108
I11
aI25
aI26
aI13
asg48
I12
sg49
I00
sg50
(dp109
g52
Nsg53
Nsg54
Nssg55
S'elset_plate_4_element_prop'
p110
sbsI13
g0
(g39
g2
Ntp111
Rp112
(dp113
g43
Nsg44
g45
sg46
(lp114
I13
aI26
aI27
aI15
asg48
I13
sg49
I00
sg50
g109
sg55
g110
sbsI14
g0
(g39
g2
Ntp115
Rp116
(dp117
g43
Nsg44
g45
sg46
(lp118
I15
aI27
aI28
aI17
asg48
I14
sg49
I00
sg50
g109
sg55
g110
sbsI15
g0
(g39
g2
Ntp119
Rp120
(dp121
g43
Nsg44
g45
sg46
(lp122
I17
aI28
aI29
aI19
asg48
I15
sg49
I00
sg50
g109
sg55
g110
sbsI16
g0
(g39
g2
Ntp123
Rp124
(dp125
g43
Nsg44
g45
sg46
(lp126
I20
aI30
aI31
aI21
asg48
I16
sg49
I00
sg50
(dp127
g52
Nsg53
Nsg54
Nssg55
S'elset_plate_5_element_prop'
p128
sbsI17
g0
(g39
g2
Ntp129
Rp130
(dp131
g43
Nsg44
g45
sg46
(lp132
I21
aI31
aI32
aI22
asg48
I17
sg49
I00
sg50
g127
sg55
g128
sbsI18
g0
(g39
g2
Ntp133
Rp134
(dp135
g43
Nsg44
g45
sg46
(lp136
I22
aI32
aI33
aI23
asg48
I18
sg49
I00
sg50
g127
sg55
g128
sbsI19
g0
(g39
g2
Ntp137
Rp138
(dp139
g43
Nsg44
g45
sg46
(lp140
I23
aI33
aI34
aI24
asg48
I19
sg49
I00
sg50
g127
sg55
g128
sbsI20
g0
(g39
g2
Ntp141
Rp142
(dp143
g43
Nsg44
g45
sg46
(lp144
I25
aI35
aI36
aI26
asg48
I20
sg49
I00
sg50
(dp145
g52
Nsg53
Nsg54
Nssg55
S'elset_plate_6_element_prop'
p146
sbsI21
g0
(g39
g2
Ntp147
Rp148
(dp149
g43
Nsg44
g45
sg46
(lp150
I26
aI36
aI37
aI27
asg48
I21
sg49
I00
sg50
g145
sg55
g146
sbsI22
g0
(g39
g2
Ntp151
Rp152
(dp153
g43
Nsg44
g45
sg46
(lp154
I27
aI37
aI38
aI28
asg48
I22
sg49
I00
sg50
g145
sg55
g146
sbsI23
g0
(g39
g2
Ntp155
Rp156
(dp157
g43
Nsg44
g45
sg46
(lp158
I28
aI38
aI39
aI29
asg48
I23
sg49
I00
sg50
g145
sg55
g146
sbsI24
g0
(g39
g2
Ntp159
Rp160
(dp161
g43
Nsg44
g45
sg46
(lp162
I8
aI9
aI41
aI40
asg48
I24
sg49
I00
sg50
(dp163
g52
Nsg53
Nsg54
Nssg55
S'elset_plate_7_element_prop'
p164
sbsI25
g0
(g39
g2
Ntp165
Rp166
(dp167
g43
Nsg44
g45
sg46
(lp168
I40
aI41
aI43
aI42
asg48
I25
sg49
I00
sg50
g163
sg55
g164
sbsI26
g0
(g39
g2
Ntp169
Rp170
(dp171
g43
Nsg44
g45
sg46
(lp172
I42
aI43
aI45
aI44
asg48
I26
sg49
I00
sg50
g163
sg55
g164
sbsI27
g0
(g39
g2
Ntp173
Rp174
(dp175
g43
Nsg44
g45
sg46
(lp176
I44
aI45
aI11
aI10
asg48
I27
sg49
I00
sg50
g163
sg55
g164
sbsI28
g0
(g39
g2
Ntp177
Rp178
(dp179
g43
Nsg44
g45
sg46
(lp180
I9
aI24
aI46
aI41
asg48
I28
sg49
I00
sg50
(dp181
g52
Nsg53
Nsg54
Nssg55
S'elset_plate_8_element_prop'
p182
sbsI29
g0
(g39
g2
Ntp183
Rp184
(dp185
g43
Nsg44
g45
sg46
(lp186
I41
aI46
aI47
aI43
asg48
I29
sg49
I00
sg50
g181
sg55
g182
sbsI30
g0
(g39
g2
Ntp187
Rp188
(dp189
g43
Nsg44
g45
sg46
(lp190
I43
aI47
aI48
aI45
asg48
I30
sg49
I00
sg50
g181
sg55
g182
sbsI31
g0
(g39
g2
Ntp191
Rp192
(dp193
g43
Nsg44
g45
sg46
(lp194
I45
aI48
aI25
aI11
asg48
I31
sg49
I00
sg50
g181
sg55
g182
sbsI32
g0
(g39
g2
Ntp195
Rp196
(dp197
g43
Nsg44
g45
sg46
(lp198
I24
aI34
aI49
aI46
asg48
I32
sg49
I00
sg50
(dp199
g52
Nsg53
Nsg54
Nssg55
S'elset_plate_9_element_prop'
p200
sbsI33
g0
(g39
g2
Ntp201
Rp202
(dp203
g43
Nsg44
g45
sg46
(lp204
I46
aI49
aI50
aI47
asg48
I33
sg49
I00
sg50
g199
sg55
g200
sbsI34
g0
(g39
g2
Ntp205
Rp206
(dp207
g43
Nsg44
g45
sg46
(lp208
I47
aI50
aI51
aI48
asg48
I34
sg49
I00
sg50
g199
sg55
g200
sbsI35
g0
(g39
g2
Ntp209
Rp210
(dp211
g43
Nsg44
g45
sg46
(lp212
I48
aI51
aI35
aI25
asg48
I35
sg49
I00
sg50
g199
sg55
g200
sbsI36
g0
(g39
g2
Ntp213
Rp214
(dp215
g43
Nsg44
g45
sg46
(lp216
I52
aI53
aI55
aI54
asg48
I36
sg49
I00
sg50
(dp217
g52
Nsg53
Nsg54
Nssg55
S'elset_wall_1_1_element_prop'
p218
sbsI37
g0
(g39
g2
Ntp219
Rp220
(dp221
g43
Nsg44
g45
sg46
(lp222
I53
aI56
aI57
aI55
asg48
I37
sg49
I00
sg50
(dp223
g52
Nsg53
Nsg54
Nssg55
S'elset_wall_1_2_element_prop'
p224
sbsI38
g0
(g39
g2
Ntp225
Rp226
(dp227
g43
Nsg44
g45
sg46
(lp228
I56
aI58
aI59
aI57
asg48
I38
sg49
I00
sg50
(dp229
g52
Nsg53
Nsg54
Nssg55
S'elset_wall_1_3_element_prop'
p230
sbsI39
g0
(g39
g2
Ntp231
Rp232
(dp233
g43
Nsg44
g45
sg46
(lp234
I60
aI61
aI53
aI52
asg48
I39
sg49
I00
sg50
(dp235
g52
Nsg53
Nsg54
Nssg55
S'elset_wall_1_4_element_prop'
p236
sbsI40
g0
(g39
g2
Ntp237
Rp238
(dp239
g43
Nsg44
g45
sg46
(lp240
I61
aI62
aI56
aI53
asg48
I40
sg49
I00
sg50
(dp241
g52
Nsg53
Nsg54
Nssg55
S'elset_wall_1_5_element_prop'
p242
sbsI41
g0
(g39
g2
Ntp243
Rp244
(dp245
g43
Nsg44
g45
sg46
(lp246
I62
aI63
aI58
aI56
asg48
I41
sg49
I00
sg50
(dp247
g52
Nsg53
Nsg54
Nssg55
S'elset_wall_1_6_element_prop'
p248
sbsI42
g0
(g39
g2
Ntp249
Rp250
(dp251
g43
Nsg44
g45
sg46
(lp252
I64
aI65
aI61
aI60
asg48
I42
sg49
I00
sg50
(dp253
g52
Nsg53
Nsg54
Nssg55
S'elset_wall_1_7_element_prop'
p254
sbsI43
g0
(g39
g2
Ntp255
Rp256
(dp257
g43
Nsg44
g45
sg46
(lp258
I65
aI66
aI62
aI61
asg48
I43
sg49
I00
sg50
(dp259
g52
Nsg53
Nsg54
Nssg55
S'elset_wall_1_8_element_prop'
p260
sbsI44
g0
(g39
g2
Ntp261
Rp262
(dp263
g43
Nsg44
g45
sg46
(lp264
I66
aI67
aI63
aI62
asg48
I44
sg49
I00
sg50
(dp265
g52
Nsg53
Nsg54
Nssg55
S'elset_wall_1_9_element_prop'
p266
sbsI45
g0
(g39
g2
Ntp267
Rp268
(dp269
g43
Nsg44
g45
sg46
(lp270
I68
aI70
aI71
aI69
asg48
I45
sg49
I00
sg50
(dp271
g52
Nsg53
Nsg54
Nssg55
S'elset_wall_2_1_element_prop'
p272
sbsI46
g0
(g39
g2
Ntp273
Rp274
(dp275
g43
Nsg44
g45
sg46
(lp276
I69
aI71
aI73
aI72
asg48
I46
sg49
I00
sg50
(dp277
g52
Nsg53
Nsg54
Nssg55
S'elset_wall_2_2_element_prop'
p278
sbsI47
g0
(g39
g2
Ntp279
Rp280
(dp281
g43
Nsg44
g45
sg46
(lp282
I72
aI73
aI75
aI74
asg48
I47
sg49
I00
sg50
(dp283
g52
Nsg53
Nsg54
Nssg55
S'elset_wall_2_3_element_prop'
p284
sbsI48
g0
(g39
g2
Ntp285
Rp286
(dp287
g43
Nsg44
g45
sg46
(lp288
I76
aI68
aI69
aI77
asg48
I48
sg49
I00
sg50
(dp289
g52
Nsg53
Nsg54
Nssg55
S'elset_wall_2_4_element_prop'
p290
sbsI49
g0
(g39
g2
Ntp291
Rp292
(dp293
g43
Nsg44
g45
sg46
(lp294
I77
aI69
aI72
aI78
asg48
I49
sg49
I00
sg50
(dp295
g52
Nsg53
Nsg54
Nssg55
S'elset_wall_2_5_element_prop'
p296
sbsI50
g0
(g39
g2
Ntp297
Rp298
(dp299
g43
Nsg44
g45
sg46
(lp300
I78
aI72
aI74
aI79
asg48
I50
sg49
I00
sg50
(dp301
g52
Nsg53
Nsg54
Nssg55
S'elset_wall_2_6_element_prop'
p302
sbsI51
g0
(g39
g2
Ntp303
Rp304
(dp305
g43
Nsg44
g45
sg46
(lp306
I80
aI76
aI77
aI81
asg48
I51
sg49
I00
sg50
(dp307
g52
Nsg53
Nsg54
Nssg55
S'elset_wall_2_7_element_prop'
p308
sbsI52
g0
(g39
g2
Ntp309
Rp310
(dp311
g43
Nsg44
g45
sg46
(lp312
I81
aI77
aI78
aI82
asg48
I52
sg49
I00
sg50
(dp313
g52
Nsg53
Nsg54
Nssg55
S'elset_wall_2_8_element_prop'
p314
sbsI53
g0
(g39
g2
Ntp315
Rp316
(dp317
g43
Nsg44
g45
sg46
(lp318
I82
aI78
aI79
aI83
asg48
I53
sg49
I00
sg50
(dp319
g52
Nsg53
Nsg54
Nssg55
S'elset_wall_2_9_element_prop'
p320
sbsI54
g0
(ccompas_fea.structure.element
MPCElement
p321
g2
Ntp322
Rp323
(dp324
g43
Nsg44
S'MPCElement'
p325
sg46
(lp326
I75
aI39
asg48
I54
sg49
I00
sg50
(dp327
g52
Nsg53
(lp328
F-4.5474735088646412e-12
aF0.0
aF615.26172166895412
asg54
Nssg55
S'elset_mpc_element_prop'
p329
sbsI55
g0
(g321
g2
Ntp330
Rp331
(dp332
g43
Nsg44
g325
sg46
(lp333
I73
aI29
asg48
I55
sg49
I00
sg50
(dp334
g52
Nsg53
(lp335
F-4.5474735088646412e-12
aF0.0
aF615.26172166895412
asg54
Nssg55
g329
sbsI56
g0
(g321
g2
Ntp336
Rp337
(dp338
g43
Nsg44
g325
sg46
(lp339
I71
aI19
asg48
I56
sg49
I00
sg50
(dp340
g52
Nsg53
(lp341
F-2.2737367544323206e-12
aF0.0
aF615.26172166895412
asg54
Nssg55
g329
sbsI57
g0
(g321
g2
Ntp342
Rp343
(dp344
g43
Nsg44
g325
sg46
(lp345
I70
aI18
asg48
I57
sg49
I00
sg50
(dp346
g52
Nsg53
(lp347
F0.0
aF0.0
aF615.26172166895412
asg54
Nssg55
g329
sbsI58
g0
(g321
g2
Ntp348
Rp349
(dp350
g43
Nsg44
g325
sg46
(lp351
I59
aI30
asg48
I58
sg49
I00
sg50
(dp352
g52
Nsg53
(lp353
F-4.5474735088646412e-12
aF0.0
aF615.26172166895412
asg54
Nssg55
g329
sbsI59
g0
(g321
g2
Ntp354
Rp355
(dp356
g43
Nsg44
g325
sg46
(lp357
I57
aI20
asg48
I59
sg49
I00
sg50
(dp358
g52
Nsg53
(lp359
F-4.5474735088646412e-12
aF0.0
aF615.26172166895412
asg54
Nssg55
g329
sbsI60
g0
(g321
g2
Ntp360
Rp361
(dp362
g43
Nsg44
g325
sg46
(lp363
I55
aI1
asg48
I60
sg49
I00
sg50
(dp364
g52
Nsg53
(lp365
F-2.2737367544323206e-12
aF0.0
aF615.26172166895412
asg54
Nssg55
g329
sbsI61
g0
(g321
g2
Ntp366
Rp367
(dp368
g43
Nsg44
g325
sg46
(lp369
I54
aI0
asg48
I61
sg49
I00
sg50
(dp370
g52
Nsg53
(lp371
F0.0
aF0.0
aF615.26172166895412
asg54
Nssg55
g329
sbssS'element_index'
p372
(dp373
S'2262.568,16987.171,-1314.111'
p374
I46
sS'2262.568,13483.567,0.000'
p375
I13
sS'754.189,16987.171,-1314.111'
p376
I45
sS'754.189,4905.046,0.000'
p377
I3
sS'3793.801,16987.171,-1314.111'
p378
I47
sS'2262.568,3503.604,0.000'
p379
I10
sS'754.189,16987.171,-2732.988'
p380
I48
sS'0.000,0.000,-307.631'
p381
I61
sS'3016.757,16987.171,-307.631'
p382
I55
sS'2262.568,0.000,-4151.864'
p383
I43
sS'3793.801,14885.009,0.000'
p384
I22
sS'3793.801,0.000,-4151.864'
p385
I44
sS'3793.801,2102.162,0.000'
p386
I17
sS'1508.379,0.000,-307.631'
p387
I60
sS'754.189,16286.450,0.000'
p388
I7
sS'754.189,14885.009,0.000'
p389
I6
sS'754.189,16987.171,-4151.864'
p390
I51
sS'754.189,3503.604,0.000'
p391
I2
sS'2262.568,9215.540,0.000'
p392
I30
sS'2262.568,12082.125,0.000'
p393
I12
sS'2262.568,2102.162,0.000'
p394
I9
sS'754.189,700.721,0.000'
p395
I0
sS'3793.801,7771.631,0.000'
p396
I33
sS'3793.801,700.721,0.000'
p397
I16
sS'754.189,7771.631,0.000'
p398
I25
sS'754.189,0.000,-4151.864'
p399
I42
sS'754.189,12082.125,0.000'
p400
I4
sS'4570.844,0.000,-307.631'
p401
I58
sS'3793.801,9215.540,0.000'
p402
I34
sS'754.189,10659.450,0.000'
p403
I27
sS'754.189,0.000,-2732.988'
p404
I39
sS'3793.801,16987.171,-2732.988'
p405
I50
sS'0.000,16987.171,-307.631'
p406
I57
sS'754.189,0.000,-1314.111'
p407
I36
sS'3793.801,3503.604,0.000'
p408
I18
sS'3793.801,16987.171,-4151.864'
p409
I53
sS'1508.379,16987.171,-307.631'
p410
I56
sS'3793.801,6327.721,0.000'
p411
I32
sS'754.189,9215.540,0.000'
p412
I26
sS'3793.801,0.000,-1314.111'
p413
I38
sS'2262.568,7771.631,0.000'
p414
I29
sS'2262.568,700.721,0.000'
p415
I8
sS'3793.801,10659.450,0.000'
p416
I35
sS'754.189,13483.567,0.000'
p417
I5
sS'754.189,2102.162,0.000'
p418
I1
sS'4570.844,16987.171,-307.631'
p419
I54
sS'754.189,6327.721,0.000'
p420
I24
sS'3793.801,12082.125,0.000'
p421
I20
sS'3793.801,13483.567,0.000'
p422
I21
sS'2262.568,0.000,-2732.988'
p423
I40
sS'2262.568,16286.450,0.000'
p424
I15
sS'2262.568,16987.171,-4151.864'
p425
I52
sS'2262.568,14885.009,0.000'
p426
I14
sS'3016.757,0.000,-307.631'
p427
I59
sS'2262.568,16987.171,-2732.988'
p428
I49
sS'2262.568,4905.046,0.000'
p429
I11
sS'3793.801,16286.450,0.000'
p430
I23
sS'3793.801,4905.046,0.000'
p431
I19
sS'2262.568,10659.450,0.000'
p432
I31
sS'2262.568,6327.721,0.000'
p433
I28
sS'2262.568,0.000,-1314.111'
p434
I37
sS'3793.801,0.000,-2732.988'
p435
I41
ssS'element_properties'
p436
(dp437
g290
g0
(ccompas_fea.structure.element_properties
ElementProperties
p438
g2
Ntp439
Rp440
(dp441
g15
I21
sS'__name__'
p442
S'ElementProperties'
p443
sS'name'
p444
g290
sS'material'
p445
S'wall_element_mat'
p446
sS'section'
p447
S'wall2_element_sec'
p448
sS'elset'
p449
S'elset_wall_2_4'
p450
sS'elements'
p451
NsS'rebar'
p452
(dp453
sbsg224
g0
(g438
g2
Ntp454
Rp455
(dp456
g15
I10
sg442
g443
sg444
g224
sg445
g446
sg447
S'wall1_element_sec'
p457
sg449
S'elset_wall_1_2'
p458
sg451
Nsg452
g453
sbsg260
g0
(g438
g2
Ntp459
Rp460
(dp461
g15
I16
sg442
g443
sg444
g260
sg445
g446
sg447
g457
sg449
S'elset_wall_1_8'
p462
sg451
Nsg452
g453
sbsg278
g0
(g438
g2
Ntp463
Rp464
(dp465
g15
I19
sg442
g443
sg444
g278
sg445
g446
sg447
g448
sg449
S'elset_wall_2_2'
p466
sg451
Nsg452
g453
sbsg56
g0
(g438
g2
Ntp467
Rp468
(dp469
g15
I0
sg442
g443
sg444
g56
sg445
S'plate_element_mat'
p470
sg447
S'plate_element_sec'
p471
sg449
S'elset_plate_1'
p472
sg451
Nsg452
g453
sbsg296
g0
(g438
g2
Ntp473
Rp474
(dp475
g15
I22
sg442
g443
sg444
g296
sg445
g446
sg447
g448
sg449
S'elset_wall_2_5'
p476
sg451
Nsg452
g453
sbsg200
g0
(g438
g2
Ntp477
Rp478
(dp479
g15
I8
sg442
g443
sg444
g200
sg445
g470
sg447
g471
sg449
S'elset_plate_9'
p480
sg451
Nsg452
g453
sbsg248
g0
(g438
g2
Ntp481
Rp482
(dp483
g15
I14
sg442
g443
sg444
g248
sg445
g446
sg447
g457
sg449
S'elset_wall_1_6'
p484
sg451
Nsg452
g453
sbsg128
g0
(g438
g2
Ntp485
Rp486
(dp487
g15
I4
sg442
g443
sg444
g128
sg445
g470
sg447
g471
sg449
S'elset_plate_5'
p488
sg451
Nsg452
g453
sbsg230
g0
(g438
g2
Ntp489
Rp490
(dp491
g15
I11
sg442
g443
sg444
g230
sg445
g446
sg447
g457
sg449
S'elset_wall_1_3'
p492
sg451
Nsg452
g453
sbsg92
g0
(g438
g2
Ntp493
Rp494
(dp495
g15
I2
sg442
g443
sg444
g92
sg445
g470
sg447
g471
sg449
S'elset_plate_3'
p496
sg451
Nsg452
g453
sbsg284
g0
(g438
g2
Ntp497
Rp498
(dp499
g15
I20
sg442
g443
sg444
g284
sg445
g446
sg447
g448
sg449
S'elset_wall_2_3'
p500
sg451
Nsg452
g453
sbsg302
g0
(g438
g2
Ntp501
Rp502
(dp503
g15
I23
sg442
g443
sg444
g302
sg445
g446
sg447
g448
sg449
S'elset_wall_2_6'
p504
sg451
Nsg452
g453
sbsg236
g0
(g438
g2
Ntp505
Rp506
(dp507
g15
I12
sg442
g443
sg444
g236
sg445
g446
sg447
g457
sg449
S'elset_wall_1_4'
p508
sg451
Nsg452
g453
sbsg266
g0
(g438
g2
Ntp509
Rp510
(dp511
g15
I17
sg442
g443
sg444
g266
sg445
g446
sg447
g457
sg449
S'elset_wall_1_9'
p512
sg451
Nsg452
g453
sbsg182
g0
(g438
g2
Ntp513
Rp514
(dp515
g15
I7
sg442
g443
sg444
g182
sg445
g470
sg447
g471
sg449
S'elset_plate_8'
p516
sg451
Nsg452
g453
sbsg218
g0
(g438
g2
Ntp517
Rp518
(dp519
g15
I9
sg442
g443
sg444
g218
sg445
g446
sg447
g457
sg449
S'elset_wall_1_1'
p520
sg451
Nsg452
g453
sbsg164
g0
(g438
g2
Ntp521
Rp522
(dp523
g15
I6
sg442
g443
sg444
g164
sg445
g470
sg447
g471
sg449
S'elset_plate_7'
p524
sg451
Nsg452
g453
sbsg314
g0
(g438
g2
Ntp525
Rp526
(dp527
g15
I25
sg442
g443
sg444
g314
sg445
g446
sg447
g448
sg449
S'elset_wall_2_8'
p528
sg451
Nsg452
g453
sbsg110
g0
(g438
g2
Ntp529
Rp530
(dp531
g15
I3
sg442
g443
sg444
g110
sg445
g470
sg447
g471
sg449
S'elset_plate_4'
p532
sg451
Nsg452
g453
sbsg74
g0
(g438
g2
Ntp533
Rp534
(dp535
g15
I1
sg442
g443
sg444
g74
sg445
g470
sg447
g471
sg449
S'elset_plate_2'
p536
sg451
Nsg452
g453
sbsg329
g0
(g438
g2
Ntp537
Rp538
(dp539
g15
I27
sg442
g443
sg444
g329
sg445
S'elset_mpc_element_mat'
p540
sg447
S'sec_mpc'
p541
sg449
S'elset_mpcs'
p542
sg451
Nsg452
g453
sbsg254
g0
(g438
g2
Ntp543
Rp544
(dp545
g15
I15
sg442
g443
sg444
g254
sg445
g446
sg447
g457
sg449
S'elset_wall_1_7'
p546
sg451
Nsg452
g453
sbsg308
g0
(g438
g2
Ntp547
Rp548
(dp549
g15
I24
sg442
g443
sg444
g308
sg445
g446
sg447
g448
sg449
S'elset_wall_2_7'
p550
sg451
Nsg452
g453
sbsg320
g0
(g438
g2
Ntp551
Rp552
(dp553
g15
I26
sg442
g443
sg444
g320
sg445
g446
sg447
g448
sg449
S'elset_wall_2_9'
p554
sg451
Nsg452
g453
sbsg272
g0
(g438
g2
Ntp555
Rp556
(dp557
g15
I18
sg442
g443
sg444
g272
sg445
g446
sg447
g448
sg449
S'elset_wall_2_1'
p558
sg451
Nsg452
g453
sbsg146
g0
(g438
g2
Ntp559
Rp560
(dp561
g15
I5
sg442
g443
sg444
g146
sg445
g470
sg447
g471
sg449
S'elset_plate_6'
p562
sg451
Nsg452
g453
sbsg242
g0
(g438
g2
Ntp563
Rp564
(dp565
g15
I13
sg442
g443
sg444
g242
sg445
g446
sg447
g457
sg449
S'elset_wall_1_5'
p566
sg451
Nsg452
g453
sbssS'interactions'
p567
(dp568
sS'loads'
p569
(dp570
S'Gleis1_BAHNLASTEN_Lasteinzugsflache_Lastblock_-3'
p571
g0
(ccompas_fea.structure.load
AreaLoad
p572
g2
Ntp573
Rp574
(dp575
g15
I6
sS'__name__'
p576
S'AreaLoad'
p577
sS'name'
p578
g571
sS'axes'
p579
S'global'
p580
sS'components'
p581
(dp582
g23
F0.082002970164490388
sg27
I0
sg28
I0
ssS'nodes'
p583
(lp584
sS'elements'
p585
(lp586
I9
aI17
asS'attr_list'
p587
(lp588
S'name'
p589
aS'axes'
p590
aS'components'
p591
aS'nodes'
p592
aS'elements'
p593
asbsS'earthPressure_liveLoad'
p594
g0
(g572
g2
Ntp595
Rp596
(dp597
g15
I7
sg576
g577
sg578
g594
sg579
S'local'
p598
sg581
(dp599
g23
F0.037699999999999997
sg27
I0
sg28
I0
ssg583
g584
sg585
(lp600
I38
aI39
aI41
aI42
aI44
aI45
asg587
(lp601
g589
ag590
ag591
ag592
ag593
asbsS'Gleis1_BAHNLASTEN_Lasteinzugsflache_Lastblock_-2'
p602
g0
(g572
g2
Ntp603
Rp604
(dp605
g15
I5
sg576
g577
sg578
g602
sg579
g580
sg581
(dp606
g23
F0.082002970164490388
sg27
I0
sg28
I0
ssg583
g584
sg585
(lp607
I10
aI18
asg587
(lp608
g589
ag590
ag591
ag592
ag593
asbsS'Gleis1_EIGENGEWICHTE_SCHIENE_Lasteinzugsflache'
p609
g0
(g572
g2
Ntp610
Rp611
(dp612
g15
I3
sg576
g577
sg578
g609
sg579
g580
sg581
(dp613
g23
F0.0024272101650082193
sg27
I0
sg28
I0
ssg583
g584
sg585
(lp614
I9
aI10
aI17
aI18
aI19
aI20
aI33
aI34
asg587
(lp615
g589
ag590
ag591
ag592
ag593
asbsS'earthPressure_backfill'
p616
g0
(g572
g2
Ntp617
Rp618
(dp619
g15
I2
sg576
g577
sg578
g616
sg579
g598
sg581
(dp620
g23
F0.052959694938643206
sg27
I0
sg28
I0
ssg583
g584
sg585
(lp621
g520
ag458
ag492
ag508
ag566
ag484
ag546
ag462
ag512
ag558
ag466
ag500
ag450
ag476
ag504
ag550
ag528
ag554
asg587
(lp622
g589
ag590
ag591
ag592
ag593
asbsS'earthPressure_gravel'
p623
g0
(g572
g2
Ntp624
Rp625
(dp626
g15
I1
sg576
g577
sg578
g623
sg579
g580
sg581
(dp627
g23
F0.013500000000000002
sg27
I0
sg28
I0
ssg583
g584
sg585
(lp628
g472
ag536
ag496
ag532
ag488
ag562
ag524
ag516
ag480
asg587
(lp629
g589
ag590
ag591
ag592
ag593
asbsS'Gleis1_BAHNLASTEN_Lasteinzugsflache_Lastblock_-1'
p630
g0
(g572
g2
Ntp631
Rp632
(dp633
g15
I4
sg576
g577
sg578
g630
sg579
g580
sg581
(dp634
g23
F0.082002970164490388
sg27
I0
sg28
I0
ssg583
g584
sg585
(lp635
I33
aI34
asg587
(lp636
g589
ag590
ag591
ag592
ag593
asbsS'load_gravity'
p637
g0
(ccompas_fea.structure.load
GravityLoad
p638
g2
Ntp639
Rp640
(dp641
S'index'
p642
I0
sg576
S'GravityLoad'
p643
sg578
g637
sg579
g580
sg581
(dp644
g23
F1.3500000000000001
sg27
F0.0
sg28
F0.0
ssg583
g584
sg585
(lp645
g472
ag536
ag496
ag532
ag488
ag562
ag524
ag516
ag480
ag520
ag458
ag492
ag508
ag566
ag484
ag546
ag462
ag512
ag558
ag466
ag500
ag450
ag476
ag504
ag550
ag528
ag554
asg587
(lp646
g589
ag590
ag591
ag592
ag593
aS'g'
p647
asS'g'
p648
F-9.8100000000000005
sbssS'materials'
p649
(dp650
g540
g0
(ccompas_fea.structure.material
MPCStiff
p651
g2
Ntp652
Rp653
(dp654
g642
I2
sS'__name__'
p655
S'MPCStiff'
p656
sS'name'
p657
g540
sS'attr_list'
p658
(lp659
g589
aS'E'
p660
aS'v'
p661
aS'G'
p662
aS'p'
p663
aS'tension'
p664
aS'compression'
p665
asS'E'
p666
(dp667
g660
L10000000000000L
ssS'v'
p668
(dp669
g661
F0.29999999999999999
ssS'G'
p670
(dp671
g662
F3846153846153.8462
ssS'p'
p672
F0.10000000000000001
sS'tension'
p673
I01
sS'compression'
p674
I01
sbsg446
g0
(ccompas_fea.structure.material
CMMUsermat
p675
g2
Ntp676
Rp677
(dp678
g15
I1
sg655
S'CMMUsermat'
p679
sg657
g446
sg658
(lp680
g589
ag660
ag661
ag662
ag663
aS'R_Rohr'
p681
aS'rho'
p682
aS'oo'
p683
aS'uu'
p684
aS'beton'
p685
aS'fcc'
p686
aS'vc'
p687
aS'ecu'
p688
aS'k_E'
p689
aS'theta_b0'
p690
aS'theta_b1'
p691
aS'k_riss'
p692
aS'Entfestigung'
p693
aS'lambdaTS'
p694
aS'srmx'
p695
aS'srmy'
p696
aS'Begrenzung'
p697
aS'KritQ'
p698
aS'winkelD'
p699
aS'k_vr'
p700
aS'fswy'
p701
aS'stahl1'
p702
aS'zm1'
p703
aS'fsy1'
p704
aS'fsu1'
p705
aS'esu1'
p706
aS'esv1'
p707
aS'Es1'
p708
aS'ka1'
p709
aS'kb1'
p710
aS'kc1'
p711
aS'as1'
p712
aS'dm1'
p713
aS'psi1'
p714
aS'stahl2'
p715
aS'zm2'
p716
aS'fsy2'
p717
aS'fsu2'
p718
aS'esu2'
p719
aS'esv2'
p720
aS'Es2'
p721
aS'ka2'
p722
aS'kb2'
p723
aS'kc2'
p724
aS'as2'
p725
aS'dm2'
p726
aS'psi2'
p727
aS'stahl3'
p728
aS'zm3'
p729
aS'fsy3'
p730
aS'fsu3'
p731
aS'esu3'
p732
aS'esv3'
p733
aS'Es3'
p734
aS'ka3'
p735
aS'kb3'
p736
aS'kc3'
p737
aS'as3'
p738
aS'dm3'
p739
aS'psi3'
p740
aS'stahl4'
p741
aS'zm4'
p742
aS'fsy4'
p743
aS'fsu4'
p744
aS'esu4'
p745
aS'esv4'
p746
aS'Es4'
p747
aS'ka4'
p748
aS'kb4'
p749
aS'kc4'
p750
aS'as4'
p751
aS'dm4'
p752
aS'psi4'
p753
asS'E'
p754
(dp755
S'E'
p756
I200000
ssS'v'
p757
(dp758
S'v'
p759
F0.10000000000000001
ssS'G'
p760
(dp761
g662
F90909.090909090897
ssS'p'
p762
F2.5000000000000002e-06
sS'R_Rohr'
p763
(dp764
g681
I-1
ssS'rho'
p765
(dp766
g682
F2.5000000000000002e-06
ssS'oo'
p767
(dp768
g683
I30
ssS'uu'
p769
(dp770
g684
I30
ssS'beton'
p771
(dp772
g685
I2
ssS'fcc'
p773
(dp774
g686
I25
ssS'vc'
p775
(dp776
g687
I0
ssS'ecu'
p777
(dp778
g688
F-0.002
ssS'k_E'
p779
(dp780
g689
I10000
ssS'theta_b0'
p781
(dp782
g690
I2
ssS'theta_b1'
p783
(dp784
g691
I1
ssS'k_riss'
p785
(dp786
g692
I0
ssS'Entfestigung'
p787
(dp788
g693
I0
ssS'lambdaTS'
p789
(dp790
g694
F0.67000000000000004
ssS'srmx'
p791
(dp792
g695
I1
ssS'srmy'
p793
(dp794
g696
I1
ssS'Begrenzung'
p795
(dp796
g697
I2
ssS'KritQ'
p797
(dp798
g698
I0
ssS'winkelD'
p799
(dp800
g699
I45
ssS'k_vr'
p801
(dp802
g700
I1
ssS'fswy'
p803
(dp804
g701
I500
ssS'stahl1'
p805
(dp806
g702
I1
ssS'zm1'
p807
(dp808
g703
I2
ssS'fsy1'
p809
(dp810
g704
I303
ssS'fsu1'
p811
(dp812
g705
I328
ssS'esu1'
p813
(dp814
g706
F0.044999999999999998
ssS'esv1'
p815
(dp816
g707
F0.02
ssS'Es1'
p817
(dp818
g708
I200000
ssS'ka1'
p819
(dp820
g709
I-1
ssS'kb1'
p821
(dp822
g710
I-1
ssS'kc1'
p823
(dp824
g711
I-1
ssS'as1'
p825
(dp826
g712
F1.1298530685585366
ssS'dm1'
p827
(dp828
g713
F22.0748853883794
ssS'psi1'
p829
(dp830
g714
I90
ssS'stahl2'
p831
(dp832
g715
I1
ssS'zm2'
p833
(dp834
g716
I2
ssS'fsy2'
p835
(dp836
g717
I303
ssS'fsu2'
p837
(dp838
g718
I328
ssS'esu2'
p839
(dp840
g719
F0.044999999999999998
ssS'esv2'
p841
(dp842
g720
F0.02
ssS'Es2'
p843
(dp844
g721
I200000
ssS'ka2'
p845
(dp846
g722
I-1
ssS'kb2'
p847
(dp848
g723
I-1
ssS'kc2'
p849
(dp850
g724
I-1
ssS'as2'
p851
(dp852
g725
F0.33387780271186318
ssS'dm2'
p853
(dp854
g726
F12.0
ssS'psi2'
p855
(dp856
g727
I0
ssS'stahl3'
p857
(dp858
g728
I1
ssS'zm3'
p859
(dp860
g729
I2
ssS'fsy3'
p861
(dp862
g730
I303
ssS'fsu3'
p863
(dp864
g731
I328
ssS'esu3'
p865
(dp866
g732
F0.044999999999999998
ssS'esv3'
p867
(dp868
g733
F0.02
ssS'Es3'
p869
(dp870
g734
I200000
ssS'ka3'
p871
(dp872
g735
I-1
ssS'kb3'
p873
(dp874
g736
I-1
ssS'kc3'
p875
(dp876
g737
I-1
ssS'as3'
p877
(dp878
g738
F0.33387780271186318
ssS'dm3'
p879
(dp880
g739
F12.0
ssS'psi3'
p881
(dp882
g740
I0
ssS'stahl4'
p883
(dp884
g741
I1
ssS'zm4'
p885
(dp886
g742
I2
ssS'fsy4'
p887
(dp888
g743
I303
ssS'fsu4'
p889
(dp890
g744
I328
ssS'esu4'
p891
(dp892
g745
F0.044999999999999998
ssS'esv4'
p893
(dp894
g746
F0.02
ssS'Es4'
p895
(dp896
g747
I200000
ssS'ka4'
p897
(dp898
g748
I-1
ssS'kb4'
p899
(dp900
g749
I-1
ssS'kc4'
p901
(dp902
g750
I-1
ssS'as4'
p903
(dp904
g751
F1.8385472169292061
ssS'dm4'
p905
(dp906
g752
F28.159495290444703
ssS'psi4'
p907
(dp908
g753
I90
ssbsg470
g0
(g675
g2
Ntp909
Rp910
(dp911
g15
I0
sg655
g679
sg657
g470
sg658
(lp912
g589
ag660
ag661
ag662
ag663
ag681
ag682
ag683
ag684
ag685
ag686
ag687
ag688
ag689
ag690
ag691
ag692
ag693
ag694
ag695
ag696
ag697
ag698
ag699
ag700
ag701
ag702
ag703
ag704
ag705
ag706
ag707
ag708
ag709
ag710
ag711
ag712
ag713
ag714
ag715
ag716
ag717
ag718
ag719
ag720
ag721
ag722
ag723
ag724
ag725
ag726
ag727
ag728
ag729
ag730
ag731
ag732
ag733
ag734
ag735
ag736
ag737
ag738
ag739
ag740
ag741
ag742
ag743
ag744
ag745
ag746
ag747
ag748
ag749
ag750
ag751
ag752
ag753
asg754
(dp913
g756
I200000
ssg757
(dp914
g759
F0.10000000000000001
ssg760
(dp915
g662
F90909.090909090897
ssg762
F2.5000000000000002e-06
sg763
(dp916
g681
I-1
ssg765
(dp917
g682
F2.5000000000000002e-06
ssg767
(dp918
g683
I30
ssg769
(dp919
g684
I30
ssg771
(dp920
g685
I2
ssg773
(dp921
g686
I25
ssg775
(dp922
g687
I0
ssg777
(dp923
g688
F-0.002
ssg779
(dp924
g689
I10000
ssg781
(dp925
g690
I2
ssg783
(dp926
g691
I1
ssg785
(dp927
g692
I0
ssg787
(dp928
g693
I0
ssg789
(dp929
g694
F0.67000000000000004
ssg791
(dp930
g695
I1
ssg793
(dp931
g696
I1
ssg795
(dp932
g697
I2
ssg797
(dp933
g698
I0
ssg799
(dp934
g699
I45
ssg801
(dp935
g700
I1
ssg803
(dp936
g701
I500
ssg805
(dp937
g702
I1
ssg807
(dp938
g703
I2
ssg809
(dp939
g704
I303
ssg811
(dp940
g705
I328
ssg813
(dp941
g706
F0.044999999999999998
ssg815
(dp942
g707
F0.02
ssg817
(dp943
g708
I200000
ssg819
(dp944
g709
I-1
ssg821
(dp945
g710
I-1
ssg823
(dp946
g711
I-1
ssg825
(dp947
g712
F1.4511122838899531
ssg827
(dp948
g713
F20.443129846412241
ssg829
(dp949
g714
I90
ssg831
(dp950
g715
I1
ssg833
(dp951
g716
I2
ssg835
(dp952
g717
I303
ssg837
(dp953
g718
I328
ssg839
(dp954
g719
F0.044999999999999998
ssg841
(dp955
g720
F0.02
ssg843
(dp956
g721
I200000
ssg845
(dp957
g722
I-1
ssg847
(dp958
g723
I-1
ssg849
(dp959
g724
I-1
ssg851
(dp960
g725
F1.9003941691385378
ssg853
(dp961
g726
F23.394766907242161
ssg855
(dp962
g727
I0
ssg857
(dp963
g728
I1
ssg859
(dp964
g729
I2
ssg861
(dp965
g730
I303
ssg863
(dp966
g731
I328
ssg865
(dp967
g732
F0.044999999999999998
ssg867
(dp968
g733
F0.02
ssg869
(dp969
g734
I200000
ssg871
(dp970
g735
I-1
ssg873
(dp971
g736
I-1
ssg875
(dp972
g737
I-1
ssg877
(dp973
g738
F0.49999854020815465
ssg879
(dp974
g739
F12.0
ssg881
(dp975
g740
I0
ssg883
(dp976
g741
I1
ssg885
(dp977
g742
I2
ssg887
(dp978
g743
I303
ssg889
(dp979
g744
I328
ssg891
(dp980
g745
F0.044999999999999998
ssg893
(dp981
g746
F0.02
ssg895
(dp982
g747
I200000
ssg897
(dp983
g748
I-1
ssg899
(dp984
g749
I-1
ssg901
(dp985
g750
I-1
ssg903
(dp986
g751
F0.96705371572985965
ssg905
(dp987
g752
F16.68868728420901
ssg907
(dp988
g753
I90
ssbssS'misc'
p989
(dp990
sS'name'
p991
S'NLFE_CFB7'
p992
sS'nodes'
p993
(dp994
I0
g0
(ccompas_fea.structure.node
Node
p995
g2
Ntp996
Rp997
(dp998
S'__name__'
p999
S'Node'
p1000
sS'key'
p1001
I0
sS'x'
p1002
F0.0
sS'y'
p1003
F0.0
sS'z'
p1004
F0.0
sS'ex'
p1005
(lp1006
I1
aI0
aI0
asS'ey'
p1007
(lp1008
I0
aI1
aI0
asS'ez'
p1009
(lp1010
I0
aI0
aI1
asS'mass'
p1011
NsbsI1
g0
(g995
g2
Ntp1012
Rp1013
(dp1014
g999
g1000
sg1001
I1
sg1002
F1508.3786570847178
sg1003
F0.0
sg1004
F0.0
sg1005
g1006
sg1007
g1008
sg1009
g1010
sg1011
NsbsI2
g0
(g995
g2
Ntp1015
Rp1016
(dp1017
g999
g1000
sg1001
I2
sg1002
F0.0
sg1003
F1401.4416046028421
sg1004
F0.0
sg1005
g1006
sg1007
g1008
sg1009
g1010
sg1011
NsbsI3
g0
(g995
g2
Ntp1018
Rp1019
(dp1020
g999
g1000
sg1001
I3
sg1002
F1508.378657084718
sg1003
F1401.4416046028421
sg1004
F0.0
sg1005
g1006
sg1007
g1008
sg1009
g1010
sg1011
NsbsI4
g0
(g995
g2
Ntp1021
Rp1022
(dp1023
g999
g1000
sg1001
I4
sg1002
F0.0
sg1003
F2802.8832092056841
sg1004
F0.0
sg1005
g1006
sg1007
g1008
sg1009
g1010
sg1011
NsbsI5
g0
(g995
g2
Ntp1024
Rp1025
(dp1026
g999
g1000
sg1001
I5
sg1002
F1508.3786570847178
sg1003
F2802.8832092056841
sg1004
F0.0
sg1005
g1006
sg1007
g1008
sg1009
g1010
sg1011
NsbsI6
g0
(g995
g2
Ntp1027
Rp1028
(dp1029
g999
g1000
sg1001
I6
sg1002
F0.0
sg1003
F4204.3248138085264
sg1004
F0.0
sg1005
g1006
sg1007
g1008
sg1009
g1010
sg1011
NsbsI7
g0
(g995
g2
Ntp1030
Rp1031
(dp1032
g999
g1000
sg1001
I7
sg1002
F1508.378657084718
sg1003
F4204.3248138085264
sg1004
F0.0
sg1005
g1006
sg1007
g1008
sg1009
g1010
sg1011
NsbsI8
g0
(g995
g2
Ntp1033
Rp1034
(dp1035
g999
g1000
sg1001
I8
sg1002
F0.0
sg1003
F5605.7664184113682
sg1004
F0.0
sg1005
g1006
sg1007
g1008
sg1009
g1010
sg1011
NsbsI9
g0
(g995
g2
Ntp1036
Rp1037
(dp1038
g999
g1000
sg1001
I9
sg1002
F1508.3786570847178
sg1003
F5605.7664184113682
sg1004
F0.0
sg1005
g1006
sg1007
g1008
sg1009
g1010
sg1011
NsbsI10
g0
(g995
g2
Ntp1039
Rp1040
(dp1041
g999
g1000
sg1001
I10
sg1002
F0.0
sg1003
F11381.404546471567
sg1004
F0.0
sg1005
g1006
sg1007
g1008
sg1009
g1010
sg1011
NsbsI11
g0
(g995
g2
Ntp1042
Rp1043
(dp1044
g999
g1000
sg1001
I11
sg1002
F1508.3786570847178
sg1003
F11381.404546471567
sg1004
F0.0
sg1005
g1006
sg1007
g1008
sg1009
g1010
sg1011
NsbsI12
g0
(g995
g2
Ntp1045
Rp1046
(dp1047
g999
g1000
sg1001
I12
sg1002
F0.0
sg1003
F12782.846151074409
sg1004
F0.0
sg1005
g1006
sg1007
g1008
sg1009
g1010
sg1011
NsbsI13
g0
(g995
g2
Ntp1048
Rp1049
(dp1050
g999
g1000
sg1001
I13
sg1002
F1508.3786570847178
sg1003
F12782.846151074409
sg1004
F0.0
sg1005
g1006
sg1007
g1008
sg1009
g1010
sg1011
NsbsI14
g0
(g995
g2
Ntp1051
Rp1052
(dp1053
g999
g1000
sg1001
I14
sg1002
F0.0
sg1003
F14184.287755677251
sg1004
F0.0
sg1005
g1006
sg1007
g1008
sg1009
g1010
sg1011
NsbsI15
g0
(g995
g2
Ntp1054
Rp1055
(dp1056
g999
g1000
sg1001
I15
sg1002
F1508.3786570847178
sg1003
F14184.287755677251
sg1004
F0.0
sg1005
g1006
sg1007
g1008
sg1009
g1010
sg1011
NsbsI16
g0
(g995
g2
Ntp1057
Rp1058
(dp1059
g999
g1000
sg1001
I16
sg1002
F0.0
sg1003
F15585.729360280093
sg1004
F0.0
sg1005
g1006
sg1007
g1008
sg1009
g1010
sg1011
NsbsI17
g0
(g995
g2
Ntp1060
Rp1061
(dp1062
g999
g1000
sg1001
I17
sg1002
F1508.3786570847178
sg1003
F15585.729360280093
sg1004
F0.0
sg1005
g1006
sg1007
g1008
sg1009
g1010
sg1011
NsbsI18
g0
(g995
g2
Ntp1063
Rp1064
(dp1065
g999
g1000
sg1001
I18
sg1002
F0.0
sg1003
F16987.170964882935
sg1004
F0.0
sg1005
g1006
sg1007
g1008
sg1009
g1010
sg1011
NsbsI19
g0
(g995
g2
Ntp1066
Rp1067
(dp1068
g999
g1000
sg1001
I19
sg1002
F1508.3786570847178
sg1003
F16987.170964882935
sg1004
F0.0
sg1005
g1006
sg1007
g1008
sg1009
g1010
sg1011
NsbsI20
g0
(g995
g2
Ntp1069
Rp1070
(dp1071
g999
g1000
sg1001
I20
sg1002
F3016.7573141694356
sg1003
F0.0
sg1004
F0.0
sg1005
g1006
sg1007
g1008
sg1009
g1010
sg1011
NsbsI21
g0
(g995
g2
Ntp1072
Rp1073
(dp1074
g999
g1000
sg1001
I21
sg1002
F3016.7573141694361
sg1003
F1401.4416046028421
sg1004
F0.0
sg1005
g1006
sg1007
g1008
sg1009
g1010
sg1011
NsbsI22
g0
(g995
g2
Ntp1075
Rp1076
(dp1077
g999
g1000
sg1001
I22
sg1002
F3016.7573141694356
sg1003
F2802.8832092056841
sg1004
F0.0
sg1005
g1006
sg1007
g1008
sg1009
g1010
sg1011
NsbsI23
g0
(g995
g2
Ntp1078
Rp1079
(dp1080
g999
g1000
sg1001
I23
sg1002
F3016.7573141694361
sg1003
F4204.3248138085264
sg1004
F0.0
sg1005
g1006
sg1007
g1008
sg1009
g1010
sg1011
NsbsI24
g0
(g995
g2
Ntp1081
Rp1082
(dp1083
g999
g1000
sg1001
I24
sg1002
F3016.7573141694356
sg1003
F5605.7664184113682
sg1004
F0.0
sg1005
g1006
sg1007
g1008
sg1009
g1010
sg1011
NsbsI25
g0
(g995
g2
Ntp1084
Rp1085
(dp1086
g999
g1000
sg1001
I25
sg1002
F3016.7573141694356
sg1003
F11381.404546471567
sg1004
F0.0
sg1005
g1006
sg1007
g1008
sg1009
g1010
sg1011
NsbsI26
g0
(g995
g2
Ntp1087
Rp1088
(dp1089
g999
g1000
sg1001
I26
sg1002
F3016.7573141694356
sg1003
F12782.846151074409
sg1004
F0.0
sg1005
g1006
sg1007
g1008
sg1009
g1010
sg1011
NsbsI27
g0
(g995
g2
Ntp1090
Rp1091
(dp1092
g999
g1000
sg1001
I27
sg1002
F3016.7573141694356
sg1003
F14184.287755677251
sg1004
F0.0
sg1005
g1006
sg1007
g1008
sg1009
g1010
sg1011
NsbsI28
g0
(g995
g2
Ntp1093
Rp1094
(dp1095
g999
g1000
sg1001
I28
sg1002
F3016.7573141694356
sg1003
F15585.729360280093
sg1004
F0.0
sg1005
g1006
sg1007
g1008
sg1009
g1010
sg1011
NsbsI29
g0
(g995
g2
Ntp1096
Rp1097
(dp1098
g999
g1000
sg1001
I29
sg1002
F3016.7573141694356
sg1003
F16987.170964882935
sg1004
F0.0
sg1005
g1006
sg1007
g1008
sg1009
g1010
sg1011
NsbsI30
g0
(g995
g2
Ntp1099
Rp1100
(dp1101
g999
g1000
sg1001
I30
sg1002
F4570.8444154082354
sg1003
F0.0
sg1004
F0.0
sg1005
g1006
sg1007
g1008
sg1009
g1010
sg1011
NsbsI31
g0
(g995
g2
Ntp1102
Rp1103
(dp1104
g999
g1000
sg1001
I31
sg1002
F4570.8444154082354
sg1003
F1401.4416046028421
sg1004
F0.0
sg1005
g1006
sg1007
g1008
sg1009
g1010
sg1011
NsbsI32
g0
(g995
g2
Ntp1105
Rp1106
(dp1107
g999
g1000
sg1001
I32
sg1002
F4570.8444154082354
sg1003
F2802.8832092056841
sg1004
F0.0
sg1005
g1006
sg1007
g1008
sg1009
g1010
sg1011
NsbsI33
g0
(g995
g2
Ntp1108
Rp1109
(dp1110
g999
g1000
sg1001
I33
sg1002
F4570.8444154082354
sg1003
F4204.3248138085264
sg1004
F0.0
sg1005
g1006
sg1007
g1008
sg1009
g1010
sg1011
NsbsI34
g0
(g995
g2
Ntp1111
Rp1112
(dp1113
g999
g1000
sg1001
I34
sg1002
F4570.8444154082354
sg1003
F5605.7664184113682
sg1004
F0.0
sg1005
g1006
sg1007
g1008
sg1009
g1010
sg1011
NsbsI35
g0
(g995
g2
Ntp1114
Rp1115
(dp1116
g999
g1000
sg1001
I35
sg1002
F4570.8444154082354
sg1003
F11381.404546471567
sg1004
F0.0
sg1005
g1006
sg1007
g1008
sg1009
g1010
sg1011
NsbsI36
g0
(g995
g2
Ntp1117
Rp1118
(dp1119
g999
g1000
sg1001
I36
sg1002
F4570.8444154082354
sg1003
F12782.846151074409
sg1004
F0.0
sg1005
g1006
sg1007
g1008
sg1009
g1010
sg1011
NsbsI37
g0
(g995
g2
Ntp1120
Rp1121
(dp1122
g999
g1000
sg1001
I37
sg1002
F4570.8444154082354
sg1003
F14184.287755677251
sg1004
F0.0
sg1005
g1006
sg1007
g1008
sg1009
g1010
sg1011
NsbsI38
g0
(g995
g2
Ntp1123
Rp1124
(dp1125
g999
g1000
sg1001
I38
sg1002
F4570.8444154082354
sg1003
F15585.729360280093
sg1004
F0.0
sg1005
g1006
sg1007
g1008
sg1009
g1010
sg1011
NsbsI39
g0
(g995
g2
Ntp1126
Rp1127
(dp1128
g999
g1000
sg1001
I39
sg1002
F4570.8444154082354
sg1003
F16987.170964882935
sg1004
F0.0
sg1005
g1006
sg1007
g1008
sg1009
g1010
sg1011
NsbsI40
g0
(g995
g2
Ntp1129
Rp1130
(dp1131
g999
g1000
sg1001
I40
sg1002
F0.0
sg1003
F7049.6759504264182
sg1004
F0.0
sg1005
g1006
sg1007
g1008
sg1009
g1010
sg1011
NsbsI41
g0
(g995
g2
Ntp1132
Rp1133
(dp1134
g999
g1000
sg1001
I41
sg1002
F1508.3786570847178
sg1003
F7049.6759504264182
sg1004
F0.0
sg1005
g1006
sg1007
g1008
sg1009
g1010
sg1011
NsbsI42
g0
(g995
g2
Ntp1135
Rp1136
(dp1137
g999
g1000
sg1001
I42
sg1002
F0.0
sg1003
F8493.5854824414673
sg1004
F0.0
sg1005
g1006
sg1007
g1008
sg1009
g1010
sg1011
NsbsI43
g0
(g995
g2
Ntp1138
Rp1139
(dp1140
g999
g1000
sg1001
I43
sg1002
F1508.3786570847178
sg1003
F8493.5854824414673
sg1004
F0.0
sg1005
g1006
sg1007
g1008
sg1009
g1010
sg1011
NsbsI44
g0
(g995
g2
Ntp1141
Rp1142
(dp1143
g999
g1000
sg1001
I44
sg1002
F0.0
sg1003
F9937.4950144565173
sg1004
F0.0
sg1005
g1006
sg1007
g1008
sg1009
g1010
sg1011
NsbsI45
g0
(g995
g2
Ntp1144
Rp1145
(dp1146
g999
g1000
sg1001
I45
sg1002
F1508.3786570847178
sg1003
F9937.4950144565173
sg1004
F0.0
sg1005
g1006
sg1007
g1008
sg1009
g1010
sg1011
NsbsI46
g0
(g995
g2
Ntp1147
Rp1148
(dp1149
g999
g1000
sg1001
I46
sg1002
F3016.7573141694356
sg1003
F7049.6759504264182
sg1004
F0.0
sg1005
g1006
sg1007
g1008
sg1009
g1010
sg1011
NsbsI47
g0
(g995
g2
Ntp1150
Rp1151
(dp1152
g999
g1000
sg1001
I47
sg1002
F3016.7573141694356
sg1003
F8493.5854824414673
sg1004
F0.0
sg1005
g1006
sg1007
g1008
sg1009
g1010
sg1011
NsbsI48
g0
(g995
g2
Ntp1153
Rp1154
(dp1155
g999
g1000
sg1001
I48
sg1002
F3016.7573141694356
sg1003
F9937.4950144565173
sg1004
F0.0
sg1005
g1006
sg1007
g1008
sg1009
g1010
sg1011
NsbsI49
g0
(g995
g2
Ntp1156
Rp1157
(dp1158
g999
g1000
sg1001
I49
sg1002
F4570.8444154082354
sg1003
F7049.6759504264182
sg1004
F0.0
sg1005
g1006
sg1007
g1008
sg1009
g1010
sg1011
NsbsI50
g0
(g995
g2
Ntp1159
Rp1160
(dp1161
g999
g1000
sg1001
I50
sg1002
F4570.8444154082354
sg1003
F8493.5854824414673
sg1004
F0.0
sg1005
g1006
sg1007
g1008
sg1009
g1010
sg1011
NsbsI51
g0
(g995
g2
Ntp1162
Rp1163
(dp1164
g999
g1000
sg1001
I51
sg1002
F4570.8444154082354
sg1003
F9937.4950144565173
sg1004
F0.0
sg1005
g1006
sg1007
g1008
sg1009
g1010
sg1011
NsbsI52
g0
(g995
g2
Ntp1165
Rp1166
(dp1167
g999
g1000
sg1001
I52
sg1002
F0.0
sg1003
F0.0
sg1004
F-2012.9608973925851
sg1005
g1006
sg1007
g1008
sg1009
g1010
sg1011
NsbsI53
g0
(g995
g2
Ntp1168
Rp1169
(dp1170
g999
g1000
sg1001
I53
sg1002
F1508.3786570847201
sg1003
F0.0
sg1004
F-2012.9608973925851
sg1005
g1006
sg1007
g1008
sg1009
g1010
sg1011
NsbsI54
g0
(g995
g2
Ntp1171
Rp1172
(dp1173
g999
g1000
sg1001
I54
sg1002
F0.0
sg1003
F0.0
sg1004
F-615.26172166895412
sg1005
g1006
sg1007
g1008
sg1009
g1010
sg1011
NsbsI55
g0
(g995
g2
Ntp1174
Rp1175
(dp1176
g999
g1000
sg1001
I55
sg1002
F1508.3786570847201
sg1003
F0.0
sg1004
F-615.26172166895412
sg1005
g1006
sg1007
g1008
sg1009
g1010
sg1011
NsbsI56
g0
(g995
g2
Ntp1177
Rp1178
(dp1179
g999
g1000
sg1001
I56
sg1002
F3016.7573141694402
sg1003
F0.0
sg1004
F-2012.9608973925851
sg1005
g1006
sg1007
g1008
sg1009
g1010
sg1011
NsbsI57
g0
(g995
g2
Ntp1180
Rp1181
(dp1182
g999
g1000
sg1001
I57
sg1002
F3016.7573141694402
sg1003
F0.0
sg1004
F-615.26172166895412
sg1005
g1006
sg1007
g1008
sg1009
g1010
sg1011
NsbsI58
g0
(g995
g2
Ntp1183
Rp1184
(dp1185
g999
g1000
sg1001
I58
sg1002
F4570.8444154082399
sg1003
F0.0
sg1004
F-2012.9608973925851
sg1005
g1006
sg1007
g1008
sg1009
g1010
sg1011
NsbsI59
g0
(g995
g2
Ntp1186
Rp1187
(dp1188
g999
g1000
sg1001
I59
sg1002
F4570.8444154082399
sg1003
F0.0
sg1004
F-615.26172166895412
sg1005
g1006
sg1007
g1008
sg1009
g1010
sg1011
NsbsI60
g0
(g995
g2
Ntp1189
Rp1190
(dp1191
g999
g1000
sg1001
I60
sg1002
F0.0
sg1003
F0.0
sg1004
F-3453.0145935926894
sg1005
g1006
sg1007
g1008
sg1009
g1010
sg1011
NsbsI61
g0
(g995
g2
Ntp1192
Rp1193
(dp1194
g999
g1000
sg1001
I61
sg1002
F1508.3786570847201
sg1003
F0.0
sg1004
F-3453.0145935926894
sg1005
g1006
sg1007
g1008
sg1009
g1010
sg1011
NsbsI62
g0
(g995
g2
Ntp1195
Rp1196
(dp1197
g999
g1000
sg1001
I62
sg1002
F3016.7573141694402
sg1003
F0.0
sg1004
F-3453.0145935926894
sg1005
g1006
sg1007
g1008
sg1009
g1010
sg1011
NsbsI63
g0
(g995
g2
Ntp1198
Rp1199
(dp1200
g999
g1000
sg1001
I63
sg1002
F4570.8444154082399
sg1003
F0.0
sg1004
F-3453.0145935926894
sg1005
g1006
sg1007
g1008
sg1009
g1010
sg1011
NsbsI64
g0
(g995
g2
Ntp1201
Rp1202
(dp1203
g999
g1000
sg1001
I64
sg1002
F0.0
sg1003
F0.0
sg1004
F-4850.7137693163204
sg1005
g1006
sg1007
g1008
sg1009
g1010
sg1011
NsbsI65
g0
(g995
g2
Ntp1204
Rp1205
(dp1206
g999
g1000
sg1001
I65
sg1002
F1508.3786570847201
sg1003
F0.0
sg1004
F-4850.7137693163204
sg1005
g1006
sg1007
g1008
sg1009
g1010
sg1011
NsbsI66
g0
(g995
g2
Ntp1207
Rp1208
(dp1209
g999
g1000
sg1001
I66
sg1002
F3016.7573141694402
sg1003
F0.0
sg1004
F-4850.7137693163204
sg1005
g1006
sg1007
g1008
sg1009
g1010
sg1011
NsbsI67
g0
(g995
g2
Ntp1210
Rp1211
(dp1212
g999
g1000
sg1001
I67
sg1002
F4570.8444154082399
sg1003
F0.0
sg1004
F-4850.7137693163204
sg1005
g1006
sg1007
g1008
sg1009
g1010
sg1011
NsbsI68
g0
(g995
g2
Ntp1213
Rp1214
(dp1215
g999
g1000
sg1001
I68
sg1002
F0.0
sg1003
F16987.170964882935
sg1004
F-2012.9608973925851
sg1005
g1006
sg1007
g1008
sg1009
g1010
sg1011
NsbsI69
g0
(g995
g2
Ntp1216
Rp1217
(dp1218
g999
g1000
sg1001
I69
sg1002
F1508.3786570847201
sg1003
F16987.170964882935
sg1004
F-2012.9608973925851
sg1005
g1006
sg1007
g1008
sg1009
g1010
sg1011
NsbsI70
g0
(g995
g2
Ntp1219
Rp1220
(dp1221
g999
g1000
sg1001
I70
sg1002
F0.0
sg1003
F16987.170964882935
sg1004
F-615.26172166895412
sg1005
g1006
sg1007
g1008
sg1009
g1010
sg1011
NsbsI71
g0
(g995
g2
Ntp1222
Rp1223
(dp1224
g999
g1000
sg1001
I71
sg1002
F1508.3786570847201
sg1003
F16987.170964882935
sg1004
F-615.26172166895412
sg1005
g1006
sg1007
g1008
sg1009
g1010
sg1011
NsbsI72
g0
(g995
g2
Ntp1225
Rp1226
(dp1227
g999
g1000
sg1001
I72
sg1002
F3016.7573141694402
sg1003
F16987.170964882935
sg1004
F-2012.9608973925851
sg1005
g1006
sg1007
g1008
sg1009
g1010
sg1011
NsbsI73
g0
(g995
g2
Ntp1228
Rp1229
(dp1230
g999
g1000
sg1001
I73
sg1002
F3016.7573141694402
sg1003
F16987.170964882935
sg1004
F-615.26172166895412
sg1005
g1006
sg1007
g1008
sg1009
g1010
sg1011
NsbsI74
g0
(g995
g2
Ntp1231
Rp1232
(dp1233
g999
g1000
sg1001
I74
sg1002
F4570.8444154082399
sg1003
F16987.170964882935
sg1004
F-2012.9608973925851
sg1005
g1006
sg1007
g1008
sg1009
g1010
sg1011
NsbsI75
g0
(g995
g2
Ntp1234
Rp1235
(dp1236
g999
g1000
sg1001
I75
sg1002
F4570.8444154082399
sg1003
F16987.170964882935
sg1004
F-615.26172166895412
sg1005
g1006
sg1007
g1008
sg1009
g1010
sg1011
NsbsI76
g0
(g995
g2
Ntp1237
Rp1238
(dp1239
g999
g1000
sg1001
I76
sg1002
F0.0
sg1003
F16987.170964882935
sg1004
F-3453.0145935926894
sg1005
g1006
sg1007
g1008
sg1009
g1010
sg1011
NsbsI77
g0
(g995
g2
Ntp1240
Rp1241
(dp1242
g999
g1000
sg1001
I77
sg1002
F1508.3786570847201
sg1003
F16987.170964882935
sg1004
F-3453.0145935926894
sg1005
g1006
sg1007
g1008
sg1009
g1010
sg1011
NsbsI78
g0
(g995
g2
Ntp1243
Rp1244
(dp1245
g999
g1000
sg1001
I78
sg1002
F3016.7573141694402
sg1003
F16987.170964882935
sg1004
F-3453.0145935926894
sg1005
g1006
sg1007
g1008
sg1009
g1010
sg1011
NsbsI79
g0
(g995
g2
Ntp1246
Rp1247
(dp1248
g999
g1000
sg1001
I79
sg1002
F4570.8444154082399
sg1003
F16987.170964882935
sg1004
F-3453.0145935926894
sg1005
g1006
sg1007
g1008
sg1009
g1010
sg1011
NsbsI80
g0
(g995
g2
Ntp1249
Rp1250
(dp1251
g999
g1000
sg1001
I80
sg1002
F0.0
sg1003
F16987.170964882935
sg1004
F-4850.7137693163204
sg1005
g1006
sg1007
g1008
sg1009
g1010
sg1011
NsbsI81
g0
(g995
g2
Ntp1252
Rp1253
(dp1254
g999
g1000
sg1001
I81
sg1002
F1508.3786570847201
sg1003
F16987.170964882935
sg1004
F-4850.7137693163204
sg1005
g1006
sg1007
g1008
sg1009
g1010
sg1011
NsbsI82
g0
(g995
g2
Ntp1255
Rp1256
(dp1257
g999
g1000
sg1001
I82
sg1002
F3016.7573141694402
sg1003
F16987.170964882935
sg1004
F-4850.7137693163204
sg1005
g1006
sg1007
g1008
sg1009
g1010
sg1011
NsbsI83
g0
(g995
g2
Ntp1258
Rp1259
(dp1260
g999
g1000
sg1001
I83
sg1002
F4570.8444154082399
sg1003
F16987.170964882935
sg1004
F-4850.7137693163204
sg1005
g1006
sg1007
g1008
sg1009
g1010
sg1011
NsbssS'node_index'
p1261
(dp1262
S'3016.757,0.000,0.000'
p1263
I20
sS'4570.844,5605.766,0.000'
p1264
I34
sS'1508.379,16987.171,0.000'
p1265
I19
sS'4570.844,12782.846,0.000'
p1266
I36
sS'0.000,9937.495,0.000'
p1267
I44
sS'3016.757,2802.883,0.000'
p1268
I22
sS'4570.844,1401.442,0.000'
p1269
I31
sS'3016.757,11381.405,0.000'
p1270
I25
sS'0.000,11381.405,0.000'
p1271
I10
sS'1508.379,0.000,-2012.961'
p1272
I53
sS'4570.844,2802.883,0.000'
p1273
I32
sS'1508.379,0.000,-615.262'
p1274
I55
sS'1508.379,0.000,-4850.714'
p1275
I65
sS'4570.844,16987.171,-4850.714'
p1276
I83
sS'1508.379,2802.883,0.000'
p1277
I5
sS'4570.844,15585.729,0.000'
p1278
I38
sS'1508.379,12782.846,0.000'
p1279
I13
sS'3016.757,15585.729,0.000'
p1280
I28
sS'3016.757,12782.846,0.000'
p1281
I26
sS'0.000,7049.676,0.000'
p1282
I40
sS'1508.379,9937.495,0.000'
p1283
I45
sS'3016.757,16987.171,-2012.961'
p1284
I72
sS'1508.379,1401.442,0.000'
p1285
I3
sS'0.000,1401.442,0.000'
p1286
I2
sS'4570.844,16987.171,0.000'
p1287
I39
sS'1508.379,8493.585,0.000'
p1288
I43
sS'1508.379,0.000,0.000'
p1289
I1
sS'4570.844,7049.676,0.000'
p1290
I49
sS'0.000,16987.171,-3453.015'
p1291
I76
sS'3016.757,0.000,-615.262'
p1292
I57
sS'4570.844,0.000,-3453.015'
p1293
I63
sS'0.000,0.000,0.000'
p1294
I0
sS'1508.379,16987.171,-3453.015'
p1295
I77
sS'3016.757,16987.171,-4850.714'
p1296
I82
sS'0.000,2802.883,0.000'
p1297
I4
sS'3016.757,1401.442,0.000'
p1298
I21
sS'0.000,8493.585,0.000'
p1299
I42
sS'3016.757,0.000,-2012.961'
p1300
I56
sS'3016.757,0.000,-3453.015'
p1301
I62
sS'0.000,0.000,-3453.015'
p1302
I60
sS'1508.379,16987.171,-2012.961'
p1303
I69
sS'0.000,16987.171,-2012.961'
p1304
I68
sS'1508.379,4204.325,0.000'
p1305
I7
sS'0.000,14184.288,0.000'
p1306
I14
sS'3016.757,9937.495,0.000'
p1307
I48
sS'4570.844,0.000,-615.262'
p1308
I59
sS'0.000,15585.729,0.000'
p1309
I16
sS'0.000,0.000,-615.262'
p1310
I54
sS'1508.379,11381.405,0.000'
p1311
I11
sS'4570.844,16987.171,-3453.015'
p1312
I79
sS'1508.379,0.000,-3453.015'
p1313
I61
sS'1508.379,7049.676,0.000'
p1314
I41
sS'4570.844,0.000,-2012.961'
p1315
I58
sS'0.000,0.000,-4850.714'
p1316
I64
sS'1508.379,14184.288,0.000'
p1317
I15
sS'4570.844,8493.585,0.000'
p1318
I50
sS'3016.757,14184.288,0.000'
p1319
I27
sS'3016.757,16987.171,0.000'
p1320
I29
sS'3016.757,4204.325,0.000'
p1321
I23
sS'3016.757,7049.676,0.000'
p1322
I46
sS'0.000,16987.171,-615.262'
p1323
I70
sS'0.000,4204.325,0.000'
p1324
I6
sS'0.000,12782.846,0.000'
p1325
I12
sS'0.000,0.000,-2012.961'
p1326
I52
sS'1508.379,15585.729,0.000'
p1327
I17
sS'3016.757,16987.171,-615.262'
p1328
I73
sS'4570.844,16987.171,-2012.961'
p1329
I74
sS'4570.844,16987.171,-615.262'
p1330
I75
sS'3016.757,0.000,-4850.714'
p1331
I66
sS'1508.379,5605.766,0.000'
p1332
I9
sS'3016.757,5605.766,0.000'
p1333
I24
sS'4570.844,0.000,-4850.714'
p1334
I67
sS'3016.757,16987.171,-3453.015'
p1335
I78
sS'0.000,16987.171,0.000'
p1336
I18
sS'4570.844,4204.325,0.000'
p1337
I33
sS'4570.844,9937.495,0.000'
p1338
I51
sS'0.000,5605.766,0.000'
p1339
I8
sS'4570.844,0.000,0.000'
p1340
I30
sS'4570.844,11381.405,0.000'
p1341
I35
sS'1508.379,16987.171,-615.262'
p1342
I71
sS'1508.379,16987.171,-4850.714'
p1343
I81
sS'4570.844,14184.288,0.000'
p1344
I37
sS'0.000,16987.171,-4850.714'
p1345
I80
sS'3016.757,8493.585,0.000'
p1346
I47
ssS'path'
p1347
S'C:\\Temp\\'
p1348
sS'results'
p1349
(dp1350
S'step_2'
p1351
S'ERROR'
p1352
sS'step_3'
p1353
g1352
sS'step_4'
p1354
g1352
sS'step_1'
p1355
g1352
ssS'sections'
p1356
(dp1357
g457
g0
(ccompas_fea.structure.section
ShellSection
p1358
g2
Ntp1359
Rp1360
(dp1361
g15
I1
sS'__name__'
p1362
S'ShellSection'
p1363
sS'name'
p1364
g457
sS'geometry'
p1365
(dp1366
S't'
p1367
F827.80121161216186
ssS'loc_coords_OR'
p1368
(dp1369
S'ORxyz'
p1370
(lp1371
I0
aI0
aF-4235.4520476500002
assS'loc_coords_XA'
p1372
(dp1373
S'XAxyz'
p1374
(lp1375
I1
aI0
aF-4235.4520476500002
assS'loc_coords_YA'
p1376
(dp1377
S'YAxyz'
p1378
(lp1379
F4235.4520476500002
aF-4235.4520476500002
aF-4234.4520476500002
assS'loc_coords_EV_XA'
p1380
(dp1381
S'EV_XA'
p1382
(lp1383
F1.0
aF0.0
aF0.0
assS'loc_coords_EV_YA'
p1384
(dp1385
S'EV_YA'
p1386
(lp1387
F0.70710677133225475
aF-0.70710677133225475
aF0.00016694954006729604
assS'loc_coords_EV_ZA'
p1388
(dp1389
S'EV_ZA'
p1390
(lp1391
F0.0
aF-1.0
aF0.0
assS'nr_layers'
p1392
(dp1393
S'nn'
p1394
F52.0
ssS'offset'
p1395
(dp1396
S'mode'
p1397
S'mid'
p1398
ssbsg471
g0
(g1358
g2
Ntp1399
Rp1400
(dp1401
g15
I0
sg1362
g1363
sg1364
g471
sg1365
(dp1402
g1367
F615.26172166895412
ssg1368
(dp1403
g1370
(lp1404
I0
aI0
aI0
assg1372
(dp1405
g1374
(lp1406
I1
aI0
aI0
assg1376
(dp1407
g1378
(lp1408
F0.0
aF1.0
aF0.0
assg1380
(dp1409
g1382
(lp1410
F1.0
aF0.0
aF0.0
assg1384
(dp1411
g1386
(lp1412
F0.0
aF1.0
aF0.0
assg1388
(dp1413
g1390
(lp1414
F0.0
aF0.0
aF1.0
assg1392
(dp1415
g1394
F52.0
ssg1395
(dp1416
g1397
S'top'
p1417
ssbsg448
g0
(g1358
g2
Ntp1418
Rp1419
(dp1420
g15
I2
sg1362
g1363
sg1364
g448
sg1365
(dp1421
g1367
F827.80121161216186
ssg1368
(dp1422
g1370
(lp1423
I0
aF16987.1709649
aF-4235.4520476500002
assg1372
(dp1424
g1374
(lp1425
I1
aF16987.1709649
aF-4235.4520476500002
assg1376
(dp1426
g1378
(lp1427
F-4235.4520476609468
aF12751.71891725
aF-21223.623012550001
assg1380
(dp1428
g1382
(lp1429
F1.0
aF0.0
aF0.0
assg1384
(dp1430
g1386
(lp1431
F-0.23513021376367893
aF-0.23513021376307122
aF-0.94309467454290019
assg1388
(dp1432
g1390
(lp1433
F0.0
aF1.0
aF0.0
assg1392
(dp1434
g1394
F52.0
ssg1395
(dp1435
g1397
g1398
ssbsg541
g0
(ccompas_fea.structure.section
MPCSection
p1436
g2
Ntp1437
Rp1438
(dp1439
g642
I3
sg1362
S'MPCSection'
p1440
sg1364
g541
sg1365
NsS'nr_layers'
p1441
NsbssS'sets'
p1442
(dp1443
g566
g0
(ccompas_fea.structure.set
Set
p1444
g2
Ntp1445
Rp1446
(dp1447
S'__name__'
p1448
S'Set'
p1449
sS'name'
p1450
g566
sS'type'
p1451
S'element'
p1452
sS'selection'
p1453
(lp1454
I40
asS'index'
p1455
I13
sbsg542
g0
(g1444
g2
Ntp1456
Rp1457
(dp1458
g1448
g1449
sg1450
g542
sg1451
g1452
sg1453
(lp1459
I54
aI55
aI56
aI57
aI58
aI59
aI60
aI61
asg1455
I27
sbsg450
g0
(g1444
g2
Ntp1460
Rp1461
(dp1462
g1448
g1449
sg1450
g450
sg1451
g1452
sg1453
(lp1463
I48
asg1455
I21
sbsg496
g0
(g1444
g2
Ntp1464
Rp1465
(dp1466
g1448
g1449
sg1450
g496
sg1451
g1452
sg1453
(lp1467
I8
aI9
aI10
aI11
asg1455
I2
sbsg462
g0
(g1444
g2
Ntp1468
Rp1469
(dp1470
g1448
g1449
sg1450
g462
sg1451
g1452
sg1453
(lp1471
I43
asg1455
I16
sbsg558
g0
(g1444
g2
Ntp1472
Rp1473
(dp1474
g1448
g1449
sg1450
g558
sg1451
g1452
sg1453
(lp1475
I45
asg1455
I18
sbsg536
g0
(g1444
g2
Ntp1476
Rp1477
(dp1478
g1448
g1449
sg1450
g536
sg1451
g1452
sg1453
(lp1479
I4
aI5
aI6
aI7
asg1455
I1
sbsg472
g0
(g1444
g2
Ntp1480
Rp1481
(dp1482
g1448
g1449
sg1450
g472
sg1451
g1452
sg1453
(lp1483
I0
aI1
aI2
aI3
asg1455
I0
sbsg524
g0
(g1444
g2
Ntp1484
Rp1485
(dp1486
g1448
g1449
sg1450
g524
sg1451
g1452
sg1453
(lp1487
I24
aI25
aI26
aI27
asg1455
I6
sbsg562
g0
(g1444
g2
Ntp1488
Rp1489
(dp1490
g1448
g1449
sg1450
g562
sg1451
g1452
sg1453
(lp1491
I20
aI21
aI22
aI23
asg1455
I5
sbsg488
g0
(g1444
g2
Ntp1492
Rp1493
(dp1494
g1448
g1449
sg1450
g488
sg1451
g1452
sg1453
(lp1495
I16
aI17
aI18
aI19
asg1455
I4
sbsg532
g0
(g1444
g2
Ntp1496
Rp1497
(dp1498
g1448
g1449
sg1450
g532
sg1451
g1452
sg1453
(lp1499
I12
aI13
aI14
aI15
asg1455
I3
sbsg480
g0
(g1444
g2
Ntp1500
Rp1501
(dp1502
g1448
g1449
sg1450
g480
sg1451
g1452
sg1453
(lp1503
I32
aI33
aI34
aI35
asg1455
I8
sbsg516
g0
(g1444
g2
Ntp1504
Rp1505
(dp1506
g1448
g1449
sg1450
g516
sg1451
g1452
sg1453
(lp1507
I28
aI29
aI30
aI31
asg1455
I7
sbsg492
g0
(g1444
g2
Ntp1508
Rp1509
(dp1510
g1448
g1449
sg1450
g492
sg1451
g1452
sg1453
(lp1511
I38
asg1455
I11
sbsg554
g0
(g1444
g2
Ntp1512
Rp1513
(dp1514
g1448
g1449
sg1450
g554
sg1451
g1452
sg1453
(lp1515
I53
asg1455
I26
sbsg504
g0
(g1444
g2
Ntp1516
Rp1517
(dp1518
g1448
g1449
sg1450
g504
sg1451
g1452
sg1453
(lp1519
I50
asg1455
I23
sbsg484
g0
(g1444
g2
Ntp1520
Rp1521
(dp1522
g1448
g1449
sg1450
g484
sg1451
g1452
sg1453
(lp1523
I41
asg1455
I14
sbsg500
g0
(g1444
g2
Ntp1524
Rp1525
(dp1526
g1448
g1449
sg1450
g500
sg1451
g1452
sg1453
(lp1527
I47
asg1455
I20
sbsg520
g0
(g1444
g2
Ntp1528
Rp1529
(dp1530
g1448
g1449
sg1450
g520
sg1451
g1452
sg1453
(lp1531
I36
asg1455
I9
sbsg512
g0
(g1444
g2
Ntp1532
Rp1533
(dp1534
g1448
g1449
sg1450
g512
sg1451
g1452
sg1453
(lp1535
I44
asg1455
I17
sbsg35
g0
(g1444
g2
Ntp1536
Rp1537
(dp1538
g1448
g1449
sg1450
g35
sg1451
S'node'
p1539
sg1453
(lp1540
I83
aI82
aI81
aI80
asg1455
I29
sbsg508
g0
(g1444
g2
Ntp1541
Rp1542
(dp1543
g1448
g1449
sg1450
g508
sg1451
g1452
sg1453
(lp1544
I39
asg1455
I12
sbsg528
g0
(g1444
g2
Ntp1545
Rp1546
(dp1547
g1448
g1449
sg1450
g528
sg1451
g1452
sg1453
(lp1548
I52
asg1455
I25
sbsg476
g0
(g1444
g2
Ntp1549
Rp1550
(dp1551
g1448
g1449
sg1450
g476
sg1451
g1452
sg1453
(lp1552
I49
asg1455
I22
sbsg20
g0
(g1444
g2
Ntp1553
Rp1554
(dp1555
g1448
g1449
sg1450
g20
sg1451
g1539
sg1453
(lp1556
I67
aI66
aI65
aI64
asg1455
I28
sbsg546
g0
(g1444
g2
Ntp1557
Rp1558
(dp1559
g1448
g1449
sg1450
g546
sg1451
g1452
sg1453
(lp1560
I42
asg1455
I15
sbsg466
g0
(g1444
g2
Ntp1561
Rp1562
(dp1563
g1448
g1449
sg1450
g466
sg1451
g1452
sg1453
(lp1564
I46
asg1455
I19
sbsg458
g0
(g1444
g2
Ntp1565
Rp1566
(dp1567
g1448
g1449
sg1450
g458
sg1451
g1452
sg1453
(lp1568
I37
asg1455
I10
sbsg550
g0
(g1444
g2
Ntp1569
Rp1570
(dp1571
g1448
g1449
sg1450
g550
sg1451
g1452
sg1453
(lp1572
I51
asg1455
I24
sbssS'steps'
p1573
(dp1574
g1351
g0
(ccompas_fea.structure.step
GeneralStep
p1575
g2
Ntp1576
Rp1577
(dp1578
g15
I1
sS'__name__'
p1579
S'GeneralStep'
p1580
sS'name'
p1581
g1351
sS'attr_list'
p1582
(lp1583
g589
aS'increments'
p1584
aS'iterations'
p1585
aS'factor'
p1586
aS'nlgeom'
p1587
aS'nlmat'
p1588
aS'displacements'
p1589
aS'loads'
p1590
aS'type'
p1591
aS'tolerance'
p1592
aS'modify'
p1593
asS'increments'
p1594
I1
sS'iterations'
p1595
I100
sS'tolerance'
p1596
F0.01
sS'factor'
p1597
F1.0
sS'nlgeom'
p1598
I00
sS'nlmat'
p1599
I01
sS'displacements'
p1600
(lp1601
sS'loads'
p1602
(lp1603
g637
asS'modify'
p1604
I01
sS'type'
p1605
S'static'
p1606
sbsg1353
g0
(g1575
g2
Ntp1607
Rp1608
(dp1609
g15
I2
sg1579
g1580
sg1581
g1353
sg1582
(lp1610
g589
ag1584
ag1585
ag1586
ag1587
ag1588
ag1589
ag1590
ag1591
ag1592
ag1593
asg1594
I1
sg1595
I100
sg1596
F0.01
sg1597
F1.0
sg1598
I00
sg1599
I01
sg1600
(lp1611
sg1602
(lp1612
g623
ag616
ag609
asg1604
I01
sg1605
g1606
sbsg1354
g0
(g1575
g2
Ntp1613
Rp1614
(dp1615
g15
I3
sg1579
g1580
sg1581
g1354
sg1582
(lp1616
g589
ag1584
ag1585
ag1586
ag1587
ag1588
ag1589
ag1590
ag1591
ag1592
ag1593
asg1594
I1
sg1595
I100
sg1596
F0.01
sg1597
F1.0
sg1598
I00
sg1599
I01
sg1600
(lp1617
sg1602
(lp1618
g630
ag602
ag571
ag594
asg1604
I01
sg1605
g1606
sbsg1355
g0
(g1575
g2
Ntp1619
Rp1620
(dp1621
g15
I0
sg1579
g1580
sg1581
g1355
sg1582
(lp1622
g589
ag1584
ag1585
ag1586
ag1587
ag1588
ag1589
ag1590
ag1591
ag1592
ag1593
asg1594
I1
sg1595
I100
sg1596
F0.01
sg1597
F1.0
sg1598
I00
sg1599
I01
sg1600
(lp1623
g10
ag31
asg1602
(lp1624
sg1604
I01
sg1605
g1606
sbssS'loc_coor'
p1625
(dp1626
sS'steps_order'
p1627
(lp1628
g1355
ag1351
ag1353
ag1354
asS'tol'
p1629
S'3'
p1630
sS'virtual_nodes'
p1631
(dp1632
sS'virtual_node_index'
p1633
(dp1634
sS'virtual_elements'
p1635
(dp1636
sS'virtual_element_index'
p1637
(dp1638
sb.