ccopy_reg
_reconstructor
p0
(ccompas_fea.structure.structure
Structure
p1
c__builtin__
object
p2
Ntp3
Rp4
(dp5
S'constraints'
p6
(dp7
sS'displacements'
p8
(dp9
S'nset_pinned_set_disp_1'
p10
g0
(ccompas_fea.structure.displacement
GeneralDisplacement
p11
g2
Ntp12
Rp13
(dp14
S'index'
p15
I0
sS'__name__'
p16
S'GeneralDisplacement'
p17
sS'name'
p18
g10
sS'nodes'
p19
S'nset_support_wall1'
p20
sS'components'
p21
(dp22
S'z'
p23
I0
sS'xx'
p24
I0
sS'zz'
p25
I0
sS'yy'
p26
I0
sS'y'
p27
I0
sS'x'
p28
I0
ssS'axes'
p29
S'global'
p30
sbsS'nset_pinned_set_disp_2'
p31
g0
(g11
g2
Ntp32
Rp33
(dp34
g15
I1
sg16
g17
sg18
g31
sg19
S'nset_support_wall2'
p35
sg21
(dp36
g23
I0
sg24
I0
sg25
I0
sg26
I0
sg27
I0
sg28
I0
ssg29
g30
sbssS'elements'
p37
(dp38
I0
g0
(ccompas_fea.structure.element
ShellElement
p39
g2
Ntp40
Rp41
(dp42
S'mass'
p43
NsS'__name__'
p44
S'ShellElement'
p45
sS'nodes'
p46
(lp47
I0
aI1
aI3
aI2
asS'number'
p48
I0
sS'thermal'
p49
I00
sS'axes'
p50
(dp51
S'ey'
p52
NsS'ez'
p53
NsS'ex'
p54
NssS'element_property'
p55
S'elset_plate_1_element_prop'
p56
sbsI1
g0
(g39
g2
Ntp57
Rp58
(dp59
g43
Nsg44
g45
sg46
(lp60
I2
aI3
aI5
aI4
asg48
I1
sg49
I00
sg50
g51
sg55
g56
sbsI2
g0
(g39
g2
Ntp61
Rp62
(dp63
g43
Nsg44
g45
sg46
(lp64
I6
aI7
aI9
aI8
asg48
I2
sg49
I00
sg50
(dp65
g52
Nsg53
Nsg54
Nssg55
S'elset_plate_2_element_prop'
p66
sbsI3
g0
(g39
g2
Ntp67
Rp68
(dp69
g43
Nsg44
g45
sg46
(lp70
I8
aI9
aI11
aI10
asg48
I3
sg49
I00
sg50
g65
sg55
g66
sbsI4
g0
(g39
g2
Ntp71
Rp72
(dp73
g43
Nsg44
g45
sg46
(lp74
I1
aI12
aI13
aI3
asg48
I4
sg49
I00
sg50
(dp75
g52
Nsg53
Nsg54
Nssg55
S'elset_plate_3_element_prop'
p76
sbsI5
g0
(g39
g2
Ntp77
Rp78
(dp79
g43
Nsg44
g45
sg46
(lp80
I3
aI13
aI14
aI5
asg48
I5
sg49
I00
sg50
g75
sg55
g76
sbsI6
g0
(g39
g2
Ntp81
Rp82
(dp83
g43
Nsg44
g45
sg46
(lp84
I7
aI15
aI16
aI9
asg48
I6
sg49
I00
sg50
(dp85
g52
Nsg53
Nsg54
Nssg55
S'elset_plate_4_element_prop'
p86
sbsI7
g0
(g39
g2
Ntp87
Rp88
(dp89
g43
Nsg44
g45
sg46
(lp90
I9
aI16
aI17
aI11
asg48
I7
sg49
I00
sg50
g85
sg55
g86
sbsI8
g0
(g39
g2
Ntp91
Rp92
(dp93
g43
Nsg44
g45
sg46
(lp94
I12
aI18
aI19
aI13
asg48
I8
sg49
I00
sg50
(dp95
g52
Nsg53
Nsg54
Nssg55
S'elset_plate_5_element_prop'
p96
sbsI9
g0
(g39
g2
Ntp97
Rp98
(dp99
g43
Nsg44
g45
sg46
(lp100
I13
aI19
aI20
aI14
asg48
I9
sg49
I00
sg50
g95
sg55
g96
sbsI10
g0
(g39
g2
Ntp101
Rp102
(dp103
g43
Nsg44
g45
sg46
(lp104
I15
aI21
aI22
aI16
asg48
I10
sg49
I00
sg50
(dp105
g52
Nsg53
Nsg54
Nssg55
S'elset_plate_6_element_prop'
p106
sbsI11
g0
(g39
g2
Ntp107
Rp108
(dp109
g43
Nsg44
g45
sg46
(lp110
I16
aI22
aI23
aI17
asg48
I11
sg49
I00
sg50
g105
sg55
g106
sbsI12
g0
(g39
g2
Ntp111
Rp112
(dp113
g43
Nsg44
g45
sg46
(lp114
I4
aI5
aI25
aI24
asg48
I12
sg49
I00
sg50
(dp115
g52
Nsg53
Nsg54
Nssg55
S'elset_plate_7_element_prop'
p116
sbsI13
g0
(g39
g2
Ntp117
Rp118
(dp119
g43
Nsg44
g45
sg46
(lp120
I24
aI25
aI7
aI6
asg48
I13
sg49
I00
sg50
g115
sg55
g116
sbsI14
g0
(g39
g2
Ntp121
Rp122
(dp123
g43
Nsg44
g45
sg46
(lp124
I5
aI14
aI26
aI25
asg48
I14
sg49
I00
sg50
(dp125
g52
Nsg53
Nsg54
Nssg55
S'elset_plate_8_element_prop'
p126
sbsI15
g0
(g39
g2
Ntp127
Rp128
(dp129
g43
Nsg44
g45
sg46
(lp130
I25
aI26
aI15
aI7
asg48
I15
sg49
I00
sg50
g125
sg55
g126
sbsI16
g0
(g39
g2
Ntp131
Rp132
(dp133
g43
Nsg44
g45
sg46
(lp134
I14
aI20
aI27
aI26
asg48
I16
sg49
I00
sg50
(dp135
g52
Nsg53
Nsg54
Nssg55
S'elset_plate_9_element_prop'
p136
sbsI17
g0
(g39
g2
Ntp137
Rp138
(dp139
g43
Nsg44
g45
sg46
(lp140
I26
aI27
aI21
aI15
asg48
I17
sg49
I00
sg50
g135
sg55
g136
sbsI18
g0
(g39
g2
Ntp141
Rp142
(dp143
g43
Nsg44
g45
sg46
(lp144
I28
aI29
aI31
aI30
asg48
I18
sg49
I00
sg50
(dp145
g52
Nsg53
Nsg54
Nssg55
S'elset_wall_1_1_element_prop'
p146
sbsI19
g0
(g39
g2
Ntp147
Rp148
(dp149
g43
Nsg44
g45
sg46
(lp150
I29
aI32
aI33
aI31
asg48
I19
sg49
I00
sg50
(dp151
g52
Nsg53
Nsg54
Nssg55
S'elset_wall_1_2_element_prop'
p152
sbsI20
g0
(g39
g2
Ntp153
Rp154
(dp155
g43
Nsg44
g45
sg46
(lp156
I32
aI34
aI35
aI33
asg48
I20
sg49
I00
sg50
(dp157
g52
Nsg53
Nsg54
Nssg55
S'elset_wall_1_3_element_prop'
p158
sbsI21
g0
(g39
g2
Ntp159
Rp160
(dp161
g43
Nsg44
g45
sg46
(lp162
I36
aI37
aI29
aI28
asg48
I21
sg49
I00
sg50
(dp163
g52
Nsg53
Nsg54
Nssg55
S'elset_wall_1_4_element_prop'
p164
sbsI22
g0
(g39
g2
Ntp165
Rp166
(dp167
g43
Nsg44
g45
sg46
(lp168
I37
aI38
aI32
aI29
asg48
I22
sg49
I00
sg50
(dp169
g52
Nsg53
Nsg54
Nssg55
S'elset_wall_1_5_element_prop'
p170
sbsI23
g0
(g39
g2
Ntp171
Rp172
(dp173
g43
Nsg44
g45
sg46
(lp174
I38
aI39
aI34
aI32
asg48
I23
sg49
I00
sg50
(dp175
g52
Nsg53
Nsg54
Nssg55
S'elset_wall_1_6_element_prop'
p176
sbsI24
g0
(g39
g2
Ntp177
Rp178
(dp179
g43
Nsg44
g45
sg46
(lp180
I40
aI41
aI37
aI36
asg48
I24
sg49
I00
sg50
(dp181
g52
Nsg53
Nsg54
Nssg55
S'elset_wall_1_7_element_prop'
p182
sbsI25
g0
(g39
g2
Ntp183
Rp184
(dp185
g43
Nsg44
g45
sg46
(lp186
I41
aI42
aI38
aI37
asg48
I25
sg49
I00
sg50
(dp187
g52
Nsg53
Nsg54
Nssg55
S'elset_wall_1_8_element_prop'
p188
sbsI26
g0
(g39
g2
Ntp189
Rp190
(dp191
g43
Nsg44
g45
sg46
(lp192
I42
aI43
aI39
aI38
asg48
I26
sg49
I00
sg50
(dp193
g52
Nsg53
Nsg54
Nssg55
S'elset_wall_1_9_element_prop'
p194
sbsI27
g0
(g39
g2
Ntp195
Rp196
(dp197
g43
Nsg44
g45
sg46
(lp198
I44
aI46
aI47
aI45
asg48
I27
sg49
I00
sg50
(dp199
g52
Nsg53
Nsg54
Nssg55
S'elset_wall_2_1_element_prop'
p200
sbsI28
g0
(g39
g2
Ntp201
Rp202
(dp203
g43
Nsg44
g45
sg46
(lp204
I45
aI47
aI49
aI48
asg48
I28
sg49
I00
sg50
(dp205
g52
Nsg53
Nsg54
Nssg55
S'elset_wall_2_2_element_prop'
p206
sbsI29
g0
(g39
g2
Ntp207
Rp208
(dp209
g43
Nsg44
g45
sg46
(lp210
I48
aI49
aI51
aI50
asg48
I29
sg49
I00
sg50
(dp211
g52
Nsg53
Nsg54
Nssg55
S'elset_wall_2_3_element_prop'
p212
sbsI30
g0
(g39
g2
Ntp213
Rp214
(dp215
g43
Nsg44
g45
sg46
(lp216
I52
aI44
aI45
aI53
asg48
I30
sg49
I00
sg50
(dp217
g52
Nsg53
Nsg54
Nssg55
S'elset_wall_2_4_element_prop'
p218
sbsI31
g0
(g39
g2
Ntp219
Rp220
(dp221
g43
Nsg44
g45
sg46
(lp222
I53
aI45
aI48
aI54
asg48
I31
sg49
I00
sg50
(dp223
g52
Nsg53
Nsg54
Nssg55
S'elset_wall_2_5_element_prop'
p224
sbsI32
g0
(g39
g2
Ntp225
Rp226
(dp227
g43
Nsg44
g45
sg46
(lp228
I54
aI48
aI50
aI55
asg48
I32
sg49
I00
sg50
(dp229
g52
Nsg53
Nsg54
Nssg55
S'elset_wall_2_6_element_prop'
p230
sbsI33
g0
(g39
g2
Ntp231
Rp232
(dp233
g43
Nsg44
g45
sg46
(lp234
I56
aI52
aI53
aI57
asg48
I33
sg49
I00
sg50
(dp235
g52
Nsg53
Nsg54
Nssg55
S'elset_wall_2_7_element_prop'
p236
sbsI34
g0
(g39
g2
Ntp237
Rp238
(dp239
g43
Nsg44
g45
sg46
(lp240
I57
aI53
aI54
aI58
asg48
I34
sg49
I00
sg50
(dp241
g52
Nsg53
Nsg54
Nssg55
S'elset_wall_2_8_element_prop'
p242
sbsI35
g0
(g39
g2
Ntp243
Rp244
(dp245
g43
Nsg44
g45
sg46
(lp246
I58
aI54
aI55
aI59
asg48
I35
sg49
I00
sg50
(dp247
g52
Nsg53
Nsg54
Nssg55
S'elset_wall_2_9_element_prop'
p248
sbsI36
g0
(ccompas_fea.structure.element
MPCElement
p249
g2
Ntp250
Rp251
(dp252
g43
Nsg44
S'MPCElement'
p253
sg46
(lp254
I51
aI23
asg48
I36
sg49
I00
sg50
(dp255
g52
Nsg53
(lp256
F2.7284841053187847e-12
aF0.0
aF782.04824573177677
asg54
Nssg55
S'elset_mpc_element_prop'
p257
sbsI37
g0
(g249
g2
Ntp258
Rp259
(dp260
g43
Nsg44
g253
sg46
(lp261
I49
aI17
asg48
I37
sg49
I00
sg50
(dp262
g52
Nsg53
(lp263
F1.8189894035458565e-12
aF0.0
aF782.04824573177677
asg54
Nssg55
g257
sbsI38
g0
(g249
g2
Ntp264
Rp265
(dp266
g43
Nsg44
g253
sg46
(lp267
I47
aI11
asg48
I38
sg49
I00
sg50
(dp268
g52
Nsg53
(lp269
F9.0949470177292824e-13
aF0.0
aF782.04824573177677
asg54
Nssg55
g257
sbsI39
g0
(g249
g2
Ntp270
Rp271
(dp272
g43
Nsg44
g253
sg46
(lp273
I46
aI10
asg48
I39
sg49
I00
sg50
(dp274
g52
Nsg53
(lp275
F0.0
aF0.0
aF782.04824573177677
asg54
Nssg55
g257
sbsI40
g0
(g249
g2
Ntp276
Rp277
(dp278
g43
Nsg44
g253
sg46
(lp279
I35
aI18
asg48
I40
sg49
I00
sg50
(dp280
g52
Nsg53
(lp281
F2.7284841053187847e-12
aF0.0
aF782.04824573177677
asg54
Nssg55
g257
sbsI41
g0
(g249
g2
Ntp282
Rp283
(dp284
g43
Nsg44
g253
sg46
(lp285
I33
aI12
asg48
I41
sg49
I00
sg50
(dp286
g52
Nsg53
(lp287
F1.8189894035458565e-12
aF0.0
aF782.04824573177677
asg54
Nssg55
g257
sbsI42
g0
(g249
g2
Ntp288
Rp289
(dp290
g43
Nsg44
g253
sg46
(lp291
I31
aI1
asg48
I42
sg49
I00
sg50
(dp292
g52
Nsg53
(lp293
F9.0949470177292824e-13
aF0.0
aF782.04824573177677
asg54
Nssg55
g257
sbsI43
g0
(g249
g2
Ntp294
Rp295
(dp296
g43
Nsg44
g253
sg46
(lp297
I30
aI0
asg48
I43
sg49
I00
sg50
(dp298
g52
Nsg53
(lp299
F0.0
aF0.0
aF782.04824573177677
asg54
Nssg55
g257
sbssS'element_index'
p300
(dp301
S'3946.460,8992.497,0.000'
p302
I10
sS'2353.612,10964.274,0.000'
p303
I7
sS'2353.612,985.888,0.000'
p304
I4
sS'1569.074,11950.163,-391.024'
p305
I38
sS'784.537,0.000,-4809.155'
p306
I24
sS'2353.612,11950.163,-3193.489'
p307
I31
sS'2353.612,11950.163,-1577.824'
p308
I28
sS'3946.460,4959.318,0.000'
p309
I16
sS'2353.612,0.000,-3193.489'
p310
I22
sS'784.537,11950.163,-1577.824'
p311
I27
sS'2353.612,4959.318,0.000'
p312
I14
sS'3946.460,0.000,-1577.824'
p313
I20
sS'784.537,985.888,0.000'
p314
I0
sS'2353.612,0.000,-1577.824'
p315
I19
sS'2353.612,11950.163,-4809.155'
p316
I34
sS'784.537,2957.665,0.000'
p317
I1
sS'2353.612,0.000,-4809.155'
p318
I25
sS'4754.771,0.000,-391.024'
p319
I40
sS'784.537,6990.845,0.000'
p320
I13
sS'3946.460,11950.163,-1577.824'
p321
I29
sS'3946.460,11950.163,-3193.489'
p322
I32
sS'784.537,0.000,-1577.824'
p323
I18
sS'3946.460,0.000,-3193.489'
p324
I23
sS'3946.460,985.888,0.000'
p325
I8
sS'2353.612,8992.497,0.000'
p326
I6
sS'1569.074,0.000,-391.024'
p327
I42
sS'2353.612,6990.845,0.000'
p328
I15
sS'3138.149,0.000,-391.024'
p329
I41
sS'784.537,10964.274,0.000'
p330
I3
sS'2353.612,2957.665,0.000'
p331
I5
sS'0.000,11950.163,-391.024'
p332
I39
sS'3946.460,11950.163,-4809.155'
p333
I35
sS'3946.460,0.000,-4809.155'
p334
I26
sS'3138.149,11950.163,-391.024'
p335
I37
sS'784.537,0.000,-3193.489'
p336
I21
sS'784.537,4959.318,0.000'
p337
I12
sS'3946.460,6990.845,0.000'
p338
I17
sS'784.537,11950.163,-4809.155'
p339
I33
sS'3946.460,2957.665,0.000'
p340
I9
sS'784.537,8992.497,0.000'
p341
I2
sS'4754.771,11950.163,-391.024'
p342
I36
sS'3946.460,10964.274,0.000'
p343
I11
sS'784.537,11950.163,-3193.489'
p344
I30
sS'0.000,0.000,-391.024'
p345
I43
ssS'element_properties'
p346
(dp347
g218
g0
(ccompas_fea.structure.element_properties
ElementProperties
p348
g2
Ntp349
Rp350
(dp351
g15
I21
sS'__name__'
p352
S'ElementProperties'
p353
sS'name'
p354
g218
sS'material'
p355
S'wall_element_mat'
p356
sS'section'
p357
S'wall2_element_sec'
p358
sS'elset'
p359
S'elset_wall_2_4'
p360
sS'elements'
p361
NsS'rebar'
p362
(dp363
sbsg152
g0
(g348
g2
Ntp364
Rp365
(dp366
g15
I10
sg352
g353
sg354
g152
sg355
g356
sg357
S'wall1_element_sec'
p367
sg359
S'elset_wall_1_2'
p368
sg361
Nsg362
g363
sbsg188
g0
(g348
g2
Ntp369
Rp370
(dp371
g15
I16
sg352
g353
sg354
g188
sg355
g356
sg357
g367
sg359
S'elset_wall_1_8'
p372
sg361
Nsg362
g363
sbsg206
g0
(g348
g2
Ntp373
Rp374
(dp375
g15
I19
sg352
g353
sg354
g206
sg355
g356
sg357
g358
sg359
S'elset_wall_2_2'
p376
sg361
Nsg362
g363
sbsg56
g0
(g348
g2
Ntp377
Rp378
(dp379
g15
I0
sg352
g353
sg354
g56
sg355
S'plate_element_mat'
p380
sg357
S'plate_element_sec'
p381
sg359
S'elset_plate_1'
p382
sg361
Nsg362
g363
sbsg224
g0
(g348
g2
Ntp383
Rp384
(dp385
g15
I22
sg352
g353
sg354
g224
sg355
g356
sg357
g358
sg359
S'elset_wall_2_5'
p386
sg361
Nsg362
g363
sbsg136
g0
(g348
g2
Ntp387
Rp388
(dp389
g15
I8
sg352
g353
sg354
g136
sg355
g380
sg357
g381
sg359
S'elset_plate_9'
p390
sg361
Nsg362
g363
sbsg176
g0
(g348
g2
Ntp391
Rp392
(dp393
g15
I14
sg352
g353
sg354
g176
sg355
g356
sg357
g367
sg359
S'elset_wall_1_6'
p394
sg361
Nsg362
g363
sbsg96
g0
(g348
g2
Ntp395
Rp396
(dp397
g15
I4
sg352
g353
sg354
g96
sg355
g380
sg357
g381
sg359
S'elset_plate_5'
p398
sg361
Nsg362
g363
sbsg158
g0
(g348
g2
Ntp399
Rp400
(dp401
g15
I11
sg352
g353
sg354
g158
sg355
g356
sg357
g367
sg359
S'elset_wall_1_3'
p402
sg361
Nsg362
g363
sbsg76
g0
(g348
g2
Ntp403
Rp404
(dp405
g15
I2
sg352
g353
sg354
g76
sg355
g380
sg357
g381
sg359
S'elset_plate_3'
p406
sg361
Nsg362
g363
sbsg212
g0
(g348
g2
Ntp407
Rp408
(dp409
g15
I20
sg352
g353
sg354
g212
sg355
g356
sg357
g358
sg359
S'elset_wall_2_3'
p410
sg361
Nsg362
g363
sbsg230
g0
(g348
g2
Ntp411
Rp412
(dp413
g15
I23
sg352
g353
sg354
g230
sg355
g356
sg357
g358
sg359
S'elset_wall_2_6'
p414
sg361
Nsg362
g363
sbsg164
g0
(g348
g2
Ntp415
Rp416
(dp417
g15
I12
sg352
g353
sg354
g164
sg355
g356
sg357
g367
sg359
S'elset_wall_1_4'
p418
sg361
Nsg362
g363
sbsg194
g0
(g348
g2
Ntp419
Rp420
(dp421
g15
I17
sg352
g353
sg354
g194
sg355
g356
sg357
g367
sg359
S'elset_wall_1_9'
p422
sg361
Nsg362
g363
sbsg126
g0
(g348
g2
Ntp423
Rp424
(dp425
g15
I7
sg352
g353
sg354
g126
sg355
g380
sg357
g381
sg359
S'elset_plate_8'
p426
sg361
Nsg362
g363
sbsg146
g0
(g348
g2
Ntp427
Rp428
(dp429
g15
I9
sg352
g353
sg354
g146
sg355
g356
sg357
g367
sg359
S'elset_wall_1_1'
p430
sg361
Nsg362
g363
sbsg116
g0
(g348
g2
Ntp431
Rp432
(dp433
g15
I6
sg352
g353
sg354
g116
sg355
g380
sg357
g381
sg359
S'elset_plate_7'
p434
sg361
Nsg362
g363
sbsg242
g0
(g348
g2
Ntp435
Rp436
(dp437
g15
I25
sg352
g353
sg354
g242
sg355
g356
sg357
g358
sg359
S'elset_wall_2_8'
p438
sg361
Nsg362
g363
sbsg86
g0
(g348
g2
Ntp439
Rp440
(dp441
g15
I3
sg352
g353
sg354
g86
sg355
g380
sg357
g381
sg359
S'elset_plate_4'
p442
sg361
Nsg362
g363
sbsg66
g0
(g348
g2
Ntp443
Rp444
(dp445
g15
I1
sg352
g353
sg354
g66
sg355
g380
sg357
g381
sg359
S'elset_plate_2'
p446
sg361
Nsg362
g363
sbsg257
g0
(g348
g2
Ntp447
Rp448
(dp449
g15
I27
sg352
g353
sg354
g257
sg355
S'elset_mpc_element_mat'
p450
sg357
S'sec_mpc'
p451
sg359
S'elset_mpcs'
p452
sg361
Nsg362
g363
sbsg182
g0
(g348
g2
Ntp453
Rp454
(dp455
g15
I15
sg352
g353
sg354
g182
sg355
g356
sg357
g367
sg359
S'elset_wall_1_7'
p456
sg361
Nsg362
g363
sbsg236
g0
(g348
g2
Ntp457
Rp458
(dp459
g15
I24
sg352
g353
sg354
g236
sg355
g356
sg357
g358
sg359
S'elset_wall_2_7'
p460
sg361
Nsg362
g363
sbsg248
g0
(g348
g2
Ntp461
Rp462
(dp463
g15
I26
sg352
g353
sg354
g248
sg355
g356
sg357
g358
sg359
S'elset_wall_2_9'
p464
sg361
Nsg362
g363
sbsg200
g0
(g348
g2
Ntp465
Rp466
(dp467
g15
I18
sg352
g353
sg354
g200
sg355
g356
sg357
g358
sg359
S'elset_wall_2_1'
p468
sg361
Nsg362
g363
sbsg106
g0
(g348
g2
Ntp469
Rp470
(dp471
g15
I5
sg352
g353
sg354
g106
sg355
g380
sg357
g381
sg359
S'elset_plate_6'
p472
sg361
Nsg362
g363
sbsg170
g0
(g348
g2
Ntp473
Rp474
(dp475
g15
I13
sg352
g353
sg354
g170
sg355
g356
sg357
g367
sg359
S'elset_wall_1_5'
p476
sg361
Nsg362
g363
sbssS'interactions'
p477
(dp478
sS'loads'
p479
(dp480
S'earthPressure_liveLoad'
p481
g0
(ccompas_fea.structure.load
AreaLoad
p482
g2
Ntp483
Rp484
(dp485
g15
I7
sS'__name__'
p486
S'AreaLoad'
p487
sS'name'
p488
g481
sS'axes'
p489
S'local'
p490
sS'components'
p491
(dp492
g23
F0.037699999999999997
sg27
I0
sg28
I0
ssS'nodes'
p493
(lp494
sS'elements'
p495
(lp496
I20
aI21
aI23
aI24
aI26
aI27
asS'attr_list'
p497
(lp498
S'name'
p499
aS'axes'
p500
aS'components'
p501
aS'nodes'
p502
aS'elements'
p503
asbsS'Gleis1_BAHNLASTEN_Lasteinzugsflache_Lastblock_-2'
p504
g0
(g482
g2
Ntp505
Rp506
(dp507
g15
I6
sg486
g487
sg488
g504
sg489
S'global'
p508
sg491
(dp509
g23
F0.074053078095771482
sg27
I0
sg28
I0
ssg493
g494
sg495
(lp510
I5
aI9
asg497
(lp511
g499
ag500
ag501
ag502
ag503
asbsS'Gleis1_EIGENGEWICHTE_SCHIENE_Lasteinzugsflache'
p512
g0
(g482
g2
Ntp513
Rp514
(dp515
g15
I3
sg486
g487
sg488
g512
sg489
g508
sg491
(dp516
g23
F0.002320171354213424
sg27
I0
sg28
I0
ssg493
g494
sg495
(lp517
I1
aI2
aI5
aI6
aI9
aI13
aI14
aI15
asg497
(lp518
g499
ag500
ag501
ag502
ag503
asbsS'earthPressure_backfill'
p519
g0
(g482
g2
Ntp520
Rp521
(dp522
g15
I2
sg486
g487
sg488
g519
sg489
g490
sg491
(dp523
g23
F0.05965716330740526
sg27
I0
sg28
I0
ssg493
g494
sg495
(lp524
g430
ag368
ag402
ag418
ag476
ag394
ag456
ag372
ag422
ag468
ag376
ag410
ag360
ag386
ag414
ag460
ag438
ag464
asg497
(lp525
g499
ag500
ag501
ag502
ag503
asbsS'earthPressure_gravel'
p526
g0
(g482
g2
Ntp527
Rp528
(dp529
g15
I1
sg486
g487
sg488
g526
sg489
g508
sg491
(dp530
g23
F0.013500000000000002
sg27
I0
sg28
I0
ssg493
g494
sg495
(lp531
g382
ag446
ag406
ag442
ag398
ag472
ag434
ag426
ag390
asg497
(lp532
g499
ag500
ag501
ag502
ag503
asbsS'Gleis1_BAHNLASTEN_Lasteinzugsflache_Lastblock_-1'
p533
g0
(g482
g2
Ntp534
Rp535
(dp536
g15
I5
sg486
g487
sg488
g533
sg489
g508
sg491
(dp537
g23
F0.074053078095771482
sg27
I0
sg28
I0
ssg493
g494
sg495
(lp538
I13
aI15
asg497
(lp539
g499
ag500
ag501
ag502
ag503
asbsS'Gleis1_BAHNLASTEN_Lasteinzugsflache_Lastblock_1'
p540
g0
(g482
g2
Ntp541
Rp542
(dp543
g15
I4
sg486
g487
sg488
g540
sg489
g508
sg491
(dp544
g23
F0.074053078095771482
sg27
I0
sg28
I0
ssg493
g494
sg495
(lp545
I14
asg497
(lp546
g499
ag500
ag501
ag502
ag503
asbsS'load_gravity'
p547
g0
(ccompas_fea.structure.load
GravityLoad
p548
g2
Ntp549
Rp550
(dp551
S'index'
p552
I0
sg486
S'GravityLoad'
p553
sg488
g547
sg489
g508
sg491
(dp554
g23
F1.3500000000000001
sg27
F0.0
sg28
F0.0
ssg493
g494
sg495
(lp555
g382
ag446
ag406
ag442
ag398
ag472
ag434
ag426
ag390
ag430
ag368
ag402
ag418
ag476
ag394
ag456
ag372
ag422
ag468
ag376
ag410
ag360
ag386
ag414
ag460
ag438
ag464
asg497
(lp556
g499
ag500
ag501
ag502
ag503
aS'g'
p557
asS'g'
p558
F-9.8100000000000005
sbssS'materials'
p559
(dp560
g450
g0
(ccompas_fea.structure.material
MPCStiff
p561
g2
Ntp562
Rp563
(dp564
g552
I2
sS'__name__'
p565
S'MPCStiff'
p566
sS'name'
p567
g450
sS'attr_list'
p568
(lp569
g499
aS'E'
p570
aS'v'
p571
aS'G'
p572
aS'p'
p573
aS'tension'
p574
aS'compression'
p575
asS'E'
p576
(dp577
g570
L10000000000000L
ssS'v'
p578
(dp579
g571
F0.29999999999999999
ssS'G'
p580
(dp581
g572
F3846153846153.8462
ssS'p'
p582
F0.10000000000000001
sS'tension'
p583
I01
sS'compression'
p584
I01
sbsg356
g0
(ccompas_fea.structure.material
CMMUsermat
p585
g2
Ntp586
Rp587
(dp588
g15
I1
sg565
S'CMMUsermat'
p589
sg567
g356
sg568
(lp590
g499
ag570
ag571
ag572
ag573
aS'R_Rohr'
p591
aS'rho'
p592
aS'oo'
p593
aS'uu'
p594
aS'beton'
p595
aS'fcc'
p596
aS'vc'
p597
aS'ecu'
p598
aS'k_E'
p599
aS'theta_b0'
p600
aS'theta_b1'
p601
aS'k_riss'
p602
aS'Entfestigung'
p603
aS'lambdaTS'
p604
aS'srmx'
p605
aS'srmy'
p606
aS'Begrenzung'
p607
aS'KritQ'
p608
aS'winkelD'
p609
aS'k_vr'
p610
aS'fswy'
p611
aS'stahl1'
p612
aS'zm1'
p613
aS'fsy1'
p614
aS'fsu1'
p615
aS'esu1'
p616
aS'esv1'
p617
aS'Es1'
p618
aS'ka1'
p619
aS'kb1'
p620
aS'kc1'
p621
aS'as1'
p622
aS'dm1'
p623
aS'psi1'
p624
aS'stahl2'
p625
aS'zm2'
p626
aS'fsy2'
p627
aS'fsu2'
p628
aS'esu2'
p629
aS'esv2'
p630
aS'Es2'
p631
aS'ka2'
p632
aS'kb2'
p633
aS'kc2'
p634
aS'as2'
p635
aS'dm2'
p636
aS'psi2'
p637
aS'stahl3'
p638
aS'zm3'
p639
aS'fsy3'
p640
aS'fsu3'
p641
aS'esu3'
p642
aS'esv3'
p643
aS'Es3'
p644
aS'ka3'
p645
aS'kb3'
p646
aS'kc3'
p647
aS'as3'
p648
aS'dm3'
p649
aS'psi3'
p650
aS'stahl4'
p651
aS'zm4'
p652
aS'fsy4'
p653
aS'fsu4'
p654
aS'esu4'
p655
aS'esv4'
p656
aS'Es4'
p657
aS'ka4'
p658
aS'kb4'
p659
aS'kc4'
p660
aS'as4'
p661
aS'dm4'
p662
aS'psi4'
p663
asS'E'
p664
(dp665
S'E'
p666
I200000
ssS'v'
p667
(dp668
S'v'
p669
F0.10000000000000001
ssS'G'
p670
(dp671
g572
F90909.090909090897
ssS'p'
p672
F2.5000000000000002e-06
sS'R_Rohr'
p673
(dp674
g591
I-1
ssS'rho'
p675
(dp676
g592
F2.5000000000000002e-06
ssS'oo'
p677
(dp678
g593
I30
ssS'uu'
p679
(dp680
g594
I30
ssS'beton'
p681
(dp682
g595
I2
ssS'fcc'
p683
(dp684
g596
I27
ssS'vc'
p685
(dp686
g597
I0
ssS'ecu'
p687
(dp688
g598
F-0.002
ssS'k_E'
p689
(dp690
g599
I10000
ssS'theta_b0'
p691
(dp692
g600
I2
ssS'theta_b1'
p693
(dp694
g601
I1
ssS'k_riss'
p695
(dp696
g602
I0
ssS'Entfestigung'
p697
(dp698
g603
I0
ssS'lambdaTS'
p699
(dp700
g604
F0.67000000000000004
ssS'srmx'
p701
(dp702
g605
I1
ssS'srmy'
p703
(dp704
g606
I1
ssS'Begrenzung'
p705
(dp706
g607
I2
ssS'KritQ'
p707
(dp708
g608
I0
ssS'winkelD'
p709
(dp710
g609
I45
ssS'k_vr'
p711
(dp712
g610
I1
ssS'fswy'
p713
(dp714
g611
I500
ssS'stahl1'
p715
(dp716
g612
I1
ssS'zm1'
p717
(dp718
g613
I2
ssS'fsy1'
p719
(dp720
g614
I439
ssS'fsu1'
p721
(dp722
g615
I475
ssS'esu1'
p723
(dp724
g616
F0.044999999999999998
ssS'esv1'
p725
(dp726
g617
F0.02
ssS'Es1'
p727
(dp728
g618
I200000
ssS'ka1'
p729
(dp730
g619
I-1
ssS'kb1'
p731
(dp732
g620
I-1
ssS'kc1'
p733
(dp734
g621
I-1
ssS'as1'
p735
(dp736
g622
F1.4659779616334816
ssS'dm1'
p737
(dp738
g623
F22.365241656243349
ssS'psi1'
p739
(dp740
g624
I90
ssS'stahl2'
p741
(dp742
g625
I1
ssS'zm2'
p743
(dp744
g626
I2
ssS'fsy2'
p745
(dp746
g627
I439
ssS'fsu2'
p747
(dp748
g628
I475
ssS'esu2'
p749
(dp750
g629
F0.044999999999999998
ssS'esv2'
p751
(dp752
g630
F0.02
ssS'Es2'
p753
(dp754
g631
I200000
ssS'ka2'
p755
(dp756
g632
I-1
ssS'kb2'
p757
(dp758
g633
I-1
ssS'kc2'
p759
(dp760
g634
I-1
ssS'as2'
p761
(dp762
g635
F0.42202943595376641
ssS'dm2'
p763
(dp764
g636
F12.0
ssS'psi2'
p765
(dp766
g637
I0
ssS'stahl3'
p767
(dp768
g638
I1
ssS'zm3'
p769
(dp770
g639
I2
ssS'fsy3'
p771
(dp772
g640
I439
ssS'fsu3'
p773
(dp774
g641
I475
ssS'esu3'
p775
(dp776
g642
F0.044999999999999998
ssS'esv3'
p777
(dp778
g643
F0.02
ssS'Es3'
p779
(dp780
g644
I200000
ssS'ka3'
p781
(dp782
g645
I-1
ssS'kb3'
p783
(dp784
g646
I-1
ssS'kc3'
p785
(dp786
g647
I-1
ssS'as3'
p787
(dp788
g648
F0.42202943595376641
ssS'dm3'
p789
(dp790
g649
F12.0
ssS'psi3'
p791
(dp792
g650
I0
ssS'stahl4'
p793
(dp794
g651
I1
ssS'zm4'
p795
(dp796
g652
I2
ssS'fsy4'
p797
(dp798
g653
I439
ssS'fsu4'
p799
(dp800
g654
I475
ssS'esu4'
p801
(dp802
g655
F0.044999999999999998
ssS'esv4'
p803
(dp804
g656
F0.02
ssS'Es4'
p805
(dp806
g657
I200000
ssS'ka4'
p807
(dp808
g658
I-1
ssS'kb4'
p809
(dp810
g659
I-1
ssS'kc4'
p811
(dp812
g660
I-1
ssS'as4'
p813
(dp814
g661
F0.43265190076760274
ssS'dm4'
p815
(dp816
g662
F12.150081255294413
ssS'psi4'
p817
(dp818
g663
I90
ssbsg380
g0
(g585
g2
Ntp819
Rp820
(dp821
g15
I0
sg565
g589
sg567
g380
sg568
(lp822
g499
ag570
ag571
ag572
ag573
ag591
ag592
ag593
ag594
ag595
ag596
ag597
ag598
ag599
ag600
ag601
ag602
ag603
ag604
ag605
ag606
ag607
ag608
ag609
ag610
ag611
ag612
ag613
ag614
ag615
ag616
ag617
ag618
ag619
ag620
ag621
ag622
ag623
ag624
ag625
ag626
ag627
ag628
ag629
ag630
ag631
ag632
ag633
ag634
ag635
ag636
ag637
ag638
ag639
ag640
ag641
ag642
ag643
ag644
ag645
ag646
ag647
ag648
ag649
ag650
ag651
ag652
ag653
ag654
ag655
ag656
ag657
ag658
ag659
ag660
ag661
ag662
ag663
asg664
(dp823
g666
I200000
ssg667
(dp824
g669
F0.10000000000000001
ssg670
(dp825
g572
F90909.090909090897
ssg672
F2.5000000000000002e-06
sg673
(dp826
g591
I-1
ssg675
(dp827
g592
F2.5000000000000002e-06
ssg677
(dp828
g593
I30
ssg679
(dp829
g594
I30
ssg681
(dp830
g595
I2
ssg683
(dp831
g596
I27
ssg685
(dp832
g597
I0
ssg687
(dp833
g598
F-0.002
ssg689
(dp834
g599
I10000
ssg691
(dp835
g600
I2
ssg693
(dp836
g601
I1
ssg695
(dp837
g602
I0
ssg697
(dp838
g603
I0
ssg699
(dp839
g604
F0.67000000000000004
ssg701
(dp840
g605
I1
ssg703
(dp841
g606
I1
ssg705
(dp842
g607
I2
ssg707
(dp843
g608
I0
ssg709
(dp844
g609
I45
ssg711
(dp845
g610
I1
ssg713
(dp846
g611
I500
ssg715
(dp847
g612
I1
ssg717
(dp848
g613
I2
ssg719
(dp849
g614
I439
ssg721
(dp850
g615
I475
ssg723
(dp851
g616
F0.044999999999999998
ssg725
(dp852
g617
F0.02
ssg727
(dp853
g618
I200000
ssg729
(dp854
g619
I-1
ssg731
(dp855
g620
I-1
ssg733
(dp856
g621
I-1
ssg735
(dp857
g622
F0.97865682282417121
ssg737
(dp858
g623
F21.751966893172785
ssg739
(dp859
g624
I90
ssg741
(dp860
g625
I1
ssg743
(dp861
g626
I2
ssg745
(dp862
g627
I439
ssg747
(dp863
g628
I475
ssg749
(dp864
g629
F0.044999999999999998
ssg751
(dp865
g630
F0.02
ssg753
(dp866
g631
I200000
ssg755
(dp867
g632
I-1
ssg757
(dp868
g633
I-1
ssg759
(dp869
g634
I-1
ssg761
(dp870
g635
F1.4784130717588539
ssg763
(dp871
g636
F26.735063280665081
ssg765
(dp872
g637
I0
ssg767
(dp873
g638
I1
ssg769
(dp874
g639
I2
ssg771
(dp875
g640
I439
ssg773
(dp876
g641
I475
ssg775
(dp877
g642
F0.044999999999999998
ssg777
(dp878
g643
F0.02
ssg779
(dp879
g644
I200000
ssg781
(dp880
g645
I-1
ssg783
(dp881
g646
I-1
ssg785
(dp882
g647
I-1
ssg787
(dp883
g648
F0.29784879891123572
ssg789
(dp884
g649
F12.0
ssg791
(dp885
g650
I0
ssg793
(dp886
g651
I1
ssg795
(dp887
g652
I2
ssg797
(dp888
g653
I439
ssg799
(dp889
g654
I475
ssg801
(dp890
g655
F0.044999999999999998
ssg803
(dp891
g656
F0.02
ssg805
(dp892
g657
I200000
ssg807
(dp893
g658
I-1
ssg809
(dp894
g659
I-1
ssg811
(dp895
g660
I-1
ssg813
(dp896
g661
F1.5225541299997434
ssg815
(dp897
g662
F27.131242948927621
ssg817
(dp898
g663
I90
ssbssS'misc'
p899
(dp900
sS'name'
p901
S'NLFE_CFB1'
p902
sS'nodes'
p903
(dp904
I0
g0
(ccompas_fea.structure.node
Node
p905
g2
Ntp906
Rp907
(dp908
S'__name__'
p909
S'Node'
p910
sS'key'
p911
I0
sS'x'
p912
F0.0
sS'y'
p913
F0.0
sS'z'
p914
F0.0
sS'ex'
p915
(lp916
I1
aI0
aI0
asS'ey'
p917
(lp918
I0
aI1
aI0
asS'ez'
p919
(lp920
I0
aI0
aI1
asS'mass'
p921
NsbsI1
g0
(g905
g2
Ntp922
Rp923
(dp924
g909
g910
sg911
I1
sg912
F1569.0743755579408
sg913
F0.0
sg914
F0.0
sg915
g916
sg917
g918
sg919
g920
sg921
NsbsI2
g0
(g905
g2
Ntp925
Rp926
(dp927
g909
g910
sg911
I2
sg912
F0.0
sg913
F1971.7768427653775
sg914
F0.0
sg915
g916
sg917
g918
sg919
g920
sg921
NsbsI3
g0
(g905
g2
Ntp928
Rp929
(dp930
g909
g910
sg911
I3
sg912
F1569.0743755579408
sg913
F1971.7768427653775
sg914
F0.0
sg915
g916
sg917
g918
sg919
g920
sg921
NsbsI4
g0
(g905
g2
Ntp931
Rp932
(dp933
g909
g910
sg911
I4
sg912
F0.0
sg913
F3943.553685530755
sg914
F0.0
sg915
g916
sg917
g918
sg919
g920
sg921
NsbsI5
g0
(g905
g2
Ntp934
Rp935
(dp936
g909
g910
sg911
I5
sg912
F1569.0743755579408
sg913
F3943.553685530755
sg914
F0.0
sg915
g916
sg917
g918
sg919
g920
sg921
NsbsI6
g0
(g905
g2
Ntp937
Rp938
(dp939
g909
g910
sg911
I6
sg912
F0.0
sg913
F8006.6089978957752
sg914
F0.0
sg915
g916
sg917
g918
sg919
g920
sg921
NsbsI7
g0
(g905
g2
Ntp940
Rp941
(dp942
g909
g910
sg911
I7
sg912
F1569.0743755579408
sg913
F8006.6089978957752
sg914
F0.0
sg915
g916
sg917
g918
sg919
g920
sg921
NsbsI8
g0
(g905
g2
Ntp943
Rp944
(dp945
g909
g910
sg911
I8
sg912
F0.0
sg913
F9978.3858406611507
sg914
F0.0
sg915
g916
sg917
g918
sg919
g920
sg921
NsbsI9
g0
(g905
g2
Ntp946
Rp947
(dp948
g909
g910
sg911
I9
sg912
F1569.0743755579406
sg913
F9978.3858406611507
sg914
F0.0
sg915
g916
sg917
g918
sg919
g920
sg921
NsbsI10
g0
(g905
g2
Ntp949
Rp950
(dp951
g909
g910
sg911
I10
sg912
F0.0
sg913
F11950.16268342653
sg914
F0.0
sg915
g916
sg917
g918
sg919
g920
sg921
NsbsI11
g0
(g905
g2
Ntp952
Rp953
(dp954
g909
g910
sg911
I11
sg912
F1569.0743755579408
sg913
F11950.16268342653
sg914
F0.0
sg915
g916
sg917
g918
sg919
g920
sg921
NsbsI12
g0
(g905
g2
Ntp955
Rp956
(dp957
g909
g910
sg911
I12
sg912
F3138.1487511158816
sg913
F0.0
sg914
F0.0
sg915
g916
sg917
g918
sg919
g920
sg921
NsbsI13
g0
(g905
g2
Ntp958
Rp959
(dp960
g909
g910
sg911
I13
sg912
F3138.1487511158816
sg913
F1971.7768427653775
sg914
F0.0
sg915
g916
sg917
g918
sg919
g920
sg921
NsbsI14
g0
(g905
g2
Ntp961
Rp962
(dp963
g909
g910
sg911
I14
sg912
F3138.1487511158816
sg913
F3943.553685530755
sg914
F0.0
sg915
g916
sg917
g918
sg919
g920
sg921
NsbsI15
g0
(g905
g2
Ntp964
Rp965
(dp966
g909
g910
sg911
I15
sg912
F3138.1487511158816
sg913
F8006.6089978957752
sg914
F0.0
sg915
g916
sg917
g918
sg919
g920
sg921
NsbsI16
g0
(g905
g2
Ntp967
Rp968
(dp969
g909
g910
sg911
I16
sg912
F3138.1487511158812
sg913
F9978.3858406611507
sg914
F0.0
sg915
g916
sg917
g918
sg919
g920
sg921
NsbsI17
g0
(g905
g2
Ntp970
Rp971
(dp972
g909
g910
sg911
I17
sg912
F3138.1487511158816
sg913
F11950.16268342653
sg914
F0.0
sg915
g916
sg917
g918
sg919
g920
sg921
NsbsI18
g0
(g905
g2
Ntp973
Rp974
(dp975
g909
g910
sg911
I18
sg912
F4754.7708350240628
sg913
F0.0
sg914
F0.0
sg915
g916
sg917
g918
sg919
g920
sg921
NsbsI19
g0
(g905
g2
Ntp976
Rp977
(dp978
g909
g910
sg911
I19
sg912
F4754.7708350240628
sg913
F1971.7768427653775
sg914
F0.0
sg915
g916
sg917
g918
sg919
g920
sg921
NsbsI20
g0
(g905
g2
Ntp979
Rp980
(dp981
g909
g910
sg911
I20
sg912
F4754.7708350240628
sg913
F3943.553685530755
sg914
F0.0
sg915
g916
sg917
g918
sg919
g920
sg921
NsbsI21
g0
(g905
g2
Ntp982
Rp983
(dp984
g909
g910
sg911
I21
sg912
F4754.7708350240628
sg913
F8006.6089978957752
sg914
F0.0
sg915
g916
sg917
g918
sg919
g920
sg921
NsbsI22
g0
(g905
g2
Ntp985
Rp986
(dp987
g909
g910
sg911
I22
sg912
F4754.7708350240619
sg913
F9978.3858406611507
sg914
F0.0
sg915
g916
sg917
g918
sg919
g920
sg921
NsbsI23
g0
(g905
g2
Ntp988
Rp989
(dp990
g909
g910
sg911
I23
sg912
F4754.7708350240628
sg913
F11950.16268342653
sg914
F0.0
sg915
g916
sg917
g918
sg919
g920
sg921
NsbsI24
g0
(g905
g2
Ntp991
Rp992
(dp993
g909
g910
sg911
I24
sg912
F0.0
sg913
F5975.0813417132649
sg914
F0.0
sg915
g916
sg917
g918
sg919
g920
sg921
NsbsI25
g0
(g905
g2
Ntp994
Rp995
(dp996
g909
g910
sg911
I25
sg912
F1569.0743755579406
sg913
F5975.0813417132649
sg914
F0.0
sg915
g916
sg917
g918
sg919
g920
sg921
NsbsI26
g0
(g905
g2
Ntp997
Rp998
(dp999
g909
g910
sg911
I26
sg912
F3138.1487511158812
sg913
F5975.0813417132649
sg914
F0.0
sg915
g916
sg917
g918
sg919
g920
sg921
NsbsI27
g0
(g905
g2
Ntp1000
Rp1001
(dp1002
g909
g910
sg911
I27
sg912
F4754.7708350240619
sg913
F5975.0813417132649
sg914
F0.0
sg915
g916
sg917
g918
sg919
g920
sg921
NsbsI28
g0
(g905
g2
Ntp1003
Rp1004
(dp1005
g909
g910
sg911
I28
sg912
F0.0
sg913
F0.0
sg914
F-2373.5994188713489
sg915
g916
sg917
g918
sg919
g920
sg921
NsbsI29
g0
(g905
g2
Ntp1006
Rp1007
(dp1008
g909
g910
sg911
I29
sg912
F1569.0743755579399
sg913
F0.0
sg914
F-2373.5994188713489
sg915
g916
sg917
g918
sg919
g920
sg921
NsbsI30
g0
(g905
g2
Ntp1009
Rp1010
(dp1011
g909
g910
sg911
I30
sg912
F0.0
sg913
F0.0
sg914
F-782.04824573177677
sg915
g916
sg917
g918
sg919
g920
sg921
NsbsI31
g0
(g905
g2
Ntp1012
Rp1013
(dp1014
g909
g910
sg911
I31
sg912
F1569.0743755579399
sg913
F0.0
sg914
F-782.04824573177677
sg915
g916
sg917
g918
sg919
g920
sg921
NsbsI32
g0
(g905
g2
Ntp1015
Rp1016
(dp1017
g909
g910
sg911
I32
sg912
F3138.1487511158798
sg913
F0.0
sg914
F-2373.5994188713489
sg915
g916
sg917
g918
sg919
g920
sg921
NsbsI33
g0
(g905
g2
Ntp1018
Rp1019
(dp1020
g909
g910
sg911
I33
sg912
F3138.1487511158798
sg913
F0.0
sg914
F-782.04824573177677
sg915
g916
sg917
g918
sg919
g920
sg921
NsbsI34
g0
(g905
g2
Ntp1021
Rp1022
(dp1023
g909
g910
sg911
I34
sg912
F4754.77083502406
sg913
F0.0
sg914
F-2373.5994188713489
sg915
g916
sg917
g918
sg919
g920
sg921
NsbsI35
g0
(g905
g2
Ntp1024
Rp1025
(dp1026
g909
g910
sg911
I35
sg912
F4754.77083502406
sg913
F0.0
sg914
F-782.04824573177677
sg915
g916
sg917
g918
sg919
g920
sg921
NsbsI36
g0
(g905
g2
Ntp1027
Rp1028
(dp1029
g909
g910
sg911
I36
sg912
F0.0
sg913
F0.0
sg914
F-4013.3794154393931
sg915
g916
sg917
g918
sg919
g920
sg921
NsbsI37
g0
(g905
g2
Ntp1030
Rp1031
(dp1032
g909
g910
sg911
I37
sg912
F1569.0743755579399
sg913
F0.0
sg914
F-4013.3794154393931
sg915
g916
sg917
g918
sg919
g920
sg921
NsbsI38
g0
(g905
g2
Ntp1033
Rp1034
(dp1035
g909
g910
sg911
I38
sg912
F3138.1487511158798
sg913
F0.0
sg914
F-4013.3794154393931
sg915
g916
sg917
g918
sg919
g920
sg921
NsbsI39
g0
(g905
g2
Ntp1036
Rp1037
(dp1038
g909
g910
sg911
I39
sg912
F4754.77083502406
sg913
F0.0
sg914
F-4013.3794154393931
sg915
g916
sg917
g918
sg919
g920
sg921
NsbsI40
g0
(g905
g2
Ntp1039
Rp1040
(dp1041
g909
g910
sg911
I40
sg912
F0.0
sg913
F0.0
sg914
F-5604.9305885789654
sg915
g916
sg917
g918
sg919
g920
sg921
NsbsI41
g0
(g905
g2
Ntp1042
Rp1043
(dp1044
g909
g910
sg911
I41
sg912
F1569.0743755579399
sg913
F0.0
sg914
F-5604.9305885789654
sg915
g916
sg917
g918
sg919
g920
sg921
NsbsI42
g0
(g905
g2
Ntp1045
Rp1046
(dp1047
g909
g910
sg911
I42
sg912
F3138.1487511158798
sg913
F0.0
sg914
F-5604.9305885789654
sg915
g916
sg917
g918
sg919
g920
sg921
NsbsI43
g0
(g905
g2
Ntp1048
Rp1049
(dp1050
g909
g910
sg911
I43
sg912
F4754.77083502406
sg913
F0.0
sg914
F-5604.9305885789654
sg915
g916
sg917
g918
sg919
g920
sg921
NsbsI44
g0
(g905
g2
Ntp1051
Rp1052
(dp1053
g909
g910
sg911
I44
sg912
F0.0
sg913
F11950.16268342653
sg914
F-2373.5994188713489
sg915
g916
sg917
g918
sg919
g920
sg921
NsbsI45
g0
(g905
g2
Ntp1054
Rp1055
(dp1056
g909
g910
sg911
I45
sg912
F1569.0743755579399
sg913
F11950.16268342653
sg914
F-2373.5994188713489
sg915
g916
sg917
g918
sg919
g920
sg921
NsbsI46
g0
(g905
g2
Ntp1057
Rp1058
(dp1059
g909
g910
sg911
I46
sg912
F0.0
sg913
F11950.16268342653
sg914
F-782.04824573177677
sg915
g916
sg917
g918
sg919
g920
sg921
NsbsI47
g0
(g905
g2
Ntp1060
Rp1061
(dp1062
g909
g910
sg911
I47
sg912
F1569.0743755579399
sg913
F11950.16268342653
sg914
F-782.04824573177677
sg915
g916
sg917
g918
sg919
g920
sg921
NsbsI48
g0
(g905
g2
Ntp1063
Rp1064
(dp1065
g909
g910
sg911
I48
sg912
F3138.1487511158798
sg913
F11950.16268342653
sg914
F-2373.5994188713489
sg915
g916
sg917
g918
sg919
g920
sg921
NsbsI49
g0
(g905
g2
Ntp1066
Rp1067
(dp1068
g909
g910
sg911
I49
sg912
F3138.1487511158798
sg913
F11950.16268342653
sg914
F-782.04824573177677
sg915
g916
sg917
g918
sg919
g920
sg921
NsbsI50
g0
(g905
g2
Ntp1069
Rp1070
(dp1071
g909
g910
sg911
I50
sg912
F4754.77083502406
sg913
F11950.16268342653
sg914
F-2373.5994188713489
sg915
g916
sg917
g918
sg919
g920
sg921
NsbsI51
g0
(g905
g2
Ntp1072
Rp1073
(dp1074
g909
g910
sg911
I51
sg912
F4754.77083502406
sg913
F11950.16268342653
sg914
F-782.04824573177677
sg915
g916
sg917
g918
sg919
g920
sg921
NsbsI52
g0
(g905
g2
Ntp1075
Rp1076
(dp1077
g909
g910
sg911
I52
sg912
F0.0
sg913
F11950.16268342653
sg914
F-4013.3794154393931
sg915
g916
sg917
g918
sg919
g920
sg921
NsbsI53
g0
(g905
g2
Ntp1078
Rp1079
(dp1080
g909
g910
sg911
I53
sg912
F1569.0743755579399
sg913
F11950.16268342653
sg914
F-4013.3794154393931
sg915
g916
sg917
g918
sg919
g920
sg921
NsbsI54
g0
(g905
g2
Ntp1081
Rp1082
(dp1083
g909
g910
sg911
I54
sg912
F3138.1487511158798
sg913
F11950.16268342653
sg914
F-4013.3794154393931
sg915
g916
sg917
g918
sg919
g920
sg921
NsbsI55
g0
(g905
g2
Ntp1084
Rp1085
(dp1086
g909
g910
sg911
I55
sg912
F4754.77083502406
sg913
F11950.16268342653
sg914
F-4013.3794154393931
sg915
g916
sg917
g918
sg919
g920
sg921
NsbsI56
g0
(g905
g2
Ntp1087
Rp1088
(dp1089
g909
g910
sg911
I56
sg912
F0.0
sg913
F11950.16268342653
sg914
F-5604.9305885789654
sg915
g916
sg917
g918
sg919
g920
sg921
NsbsI57
g0
(g905
g2
Ntp1090
Rp1091
(dp1092
g909
g910
sg911
I57
sg912
F1569.0743755579399
sg913
F11950.16268342653
sg914
F-5604.9305885789654
sg915
g916
sg917
g918
sg919
g920
sg921
NsbsI58
g0
(g905
g2
Ntp1093
Rp1094
(dp1095
g909
g910
sg911
I58
sg912
F3138.1487511158798
sg913
F11950.16268342653
sg914
F-5604.9305885789654
sg915
g916
sg917
g918
sg919
g920
sg921
NsbsI59
g0
(g905
g2
Ntp1096
Rp1097
(dp1098
g909
g910
sg911
I59
sg912
F4754.77083502406
sg913
F11950.16268342653
sg914
F-5604.9305885789654
sg915
g916
sg917
g918
sg919
g920
sg921
NsbssS'node_index'
p1099
(dp1100
S'0.000,11950.163,-5604.931'
p1101
I56
sS'3138.149,8006.609,0.000'
p1102
I15
sS'4754.771,8006.609,0.000'
p1103
I21
sS'4754.771,11950.163,-2373.599'
p1104
I50
sS'4754.771,11950.163,-5604.931'
p1105
I59
sS'4754.771,0.000,0.000'
p1106
I18
sS'4754.771,11950.163,-4013.379'
p1107
I55
sS'0.000,8006.609,0.000'
p1108
I6
sS'0.000,3943.554,0.000'
p1109
I4
sS'1569.074,11950.163,-2373.599'
p1110
I45
sS'0.000,11950.163,-4013.379'
p1111
I52
sS'3138.149,9978.386,0.000'
p1112
I16
sS'4754.771,11950.163,0.000'
p1113
I23
sS'4754.771,9978.386,0.000'
p1114
I22
sS'1569.074,0.000,-5604.931'
p1115
I41
sS'1569.074,3943.554,0.000'
p1116
I5
sS'4754.771,1971.777,0.000'
p1117
I19
sS'4754.771,0.000,-782.048'
p1118
I35
sS'3138.149,11950.163,-782.048'
p1119
I49
sS'4754.771,0.000,-5604.931'
p1120
I43
sS'4754.771,11950.163,-782.048'
p1121
I51
sS'1569.074,0.000,0.000'
p1122
I1
sS'1569.074,5975.081,0.000'
p1123
I25
sS'1569.074,11950.163,0.000'
p1124
I11
sS'0.000,0.000,-5604.931'
p1125
I40
sS'3138.149,3943.554,0.000'
p1126
I14
sS'1569.074,1971.777,0.000'
p1127
I3
sS'0.000,0.000,0.000'
p1128
I0
sS'4754.771,0.000,-4013.379'
p1129
I39
sS'4754.771,3943.554,0.000'
p1130
I20
sS'1569.074,8006.609,0.000'
p1131
I7
sS'3138.149,11950.163,-5604.931'
p1132
I58
sS'1569.074,0.000,-4013.379'
p1133
I37
sS'3138.149,11950.163,0.000'
p1134
I17
sS'3138.149,5975.081,0.000'
p1135
I26
sS'0.000,1971.777,0.000'
p1136
I2
sS'3138.149,1971.777,0.000'
p1137
I13
sS'0.000,11950.163,0.000'
p1138
I10
sS'4754.771,5975.081,0.000'
p1139
I27
sS'3138.149,0.000,-782.048'
p1140
I33
sS'4754.771,0.000,-2373.599'
p1141
I34
sS'0.000,9978.386,0.000'
p1142
I8
sS'3138.149,0.000,0.000'
p1143
I12
sS'3138.149,11950.163,-4013.379'
p1144
I54
sS'0.000,11950.163,-2373.599'
p1145
I44
sS'3138.149,0.000,-2373.599'
p1146
I32
sS'1569.074,0.000,-2373.599'
p1147
I29
sS'1569.074,11950.163,-4013.379'
p1148
I53
sS'3138.149,11950.163,-2373.599'
p1149
I48
sS'0.000,0.000,-2373.599'
p1150
I28
sS'3138.149,0.000,-4013.379'
p1151
I38
sS'0.000,11950.163,-782.048'
p1152
I46
sS'1569.074,9978.386,0.000'
p1153
I9
sS'1569.074,11950.163,-5604.931'
p1154
I57
sS'0.000,0.000,-782.048'
p1155
I30
sS'0.000,5975.081,0.000'
p1156
I24
sS'3138.149,0.000,-5604.931'
p1157
I42
sS'0.000,0.000,-4013.379'
p1158
I36
sS'1569.074,0.000,-782.048'
p1159
I31
sS'1569.074,11950.163,-782.048'
p1160
I47
ssS'path'
p1161
S'C:\\Temp\\'
p1162
sS'results'
p1163
(dp1164
S'step_2'
p1165
S'ERROR'
p1166
sS'step_3'
p1167
g1166
sS'step_4'
p1168
g1166
sS'step_1'
p1169
g1166
ssS'sections'
p1170
(dp1171
g367
g0
(ccompas_fea.structure.section
ShellSection
p1172
g2
Ntp1173
Rp1174
(dp1175
g15
I1
sS'__name__'
p1176
S'ShellSection'
p1177
sS'name'
p1178
g367
sS'geometry'
p1179
(dp1180
S't'
p1181
F1109.5123187440677
ssS'loc_coords_OR'
p1182
(dp1183
S'ORxyz'
p1184
(lp1185
I0
aI0
aF-4822.88234285
assS'loc_coords_XA'
p1186
(dp1187
S'XAxyz'
p1188
(lp1189
I1
aI0
aF-4822.88234285
assS'loc_coords_YA'
p1190
(dp1191
S'YAxyz'
p1192
(lp1193
F4822.88234285
aF-4822.88234285
aF-4821.88234285
assS'loc_coords_EV_XA'
p1194
(dp1195
S'EV_XA'
p1196
(lp1197
F1.0
aF0.0
aF0.0
assS'loc_coords_EV_YA'
p1198
(dp1199
S'EV_YA'
p1200
(lp1201
F0.70710677358658114
aF-0.70710677358658114
aF0.00014661497488838355
assS'loc_coords_EV_ZA'
p1202
(dp1203
S'EV_ZA'
p1204
(lp1205
F0.0
aF-1.0
aF0.0
assS'nr_layers'
p1206
(dp1207
S'nn'
p1208
F66.0
ssS'offset'
p1209
(dp1210
S'mode'
p1211
S'mid'
p1212
ssbsg381
g0
(g1172
g2
Ntp1213
Rp1214
(dp1215
g15
I0
sg1176
g1177
sg1178
g381
sg1179
(dp1216
g1181
F782.04824573177677
ssg1182
(dp1217
g1184
(lp1218
I0
aI0
aI0
assg1186
(dp1219
g1188
(lp1220
I1
aI0
aI0
assg1190
(dp1221
g1192
(lp1222
F0.0
aF1.0
aF0.0
assg1194
(dp1223
g1196
(lp1224
F1.0
aF0.0
aF0.0
assg1198
(dp1225
g1200
(lp1226
F0.0
aF1.0
aF0.0
assg1202
(dp1227
g1204
(lp1228
F0.0
aF0.0
aF1.0
assg1206
(dp1229
g1208
F66.0
ssg1209
(dp1230
g1211
S'top'
p1231
ssbsg358
g0
(g1172
g2
Ntp1232
Rp1233
(dp1234
g15
I2
sg1176
g1177
sg1178
g358
sg1179
(dp1235
g1181
F1109.5123187440677
ssg1182
(dp1236
g1184
(lp1237
I0
aF11950.1626834
aF-4822.88234285
assg1186
(dp1238
g1188
(lp1239
I1
aF11950.1626834
aF-4822.88234285
assg1190
(dp1240
g1192
(lp1241
F-4822.8823428452015
aF7127.2803405499999
aF-16774.045026250002
assg1194
(dp1242
g1196
(lp1243
F1.0
aF0.0
aF0.0
assg1198
(dp1244
g1200
(lp1245
F-0.35048806625473899
aF-0.35048806625508772
aF-0.86851380577730775
assg1202
(dp1246
g1204
(lp1247
F0.0
aF1.0
aF0.0
assg1206
(dp1248
g1208
F66.0
ssg1209
(dp1249
g1211
g1212
ssbsg451
g0
(ccompas_fea.structure.section
MPCSection
p1250
g2
Ntp1251
Rp1252
(dp1253
g552
I3
sg1176
S'MPCSection'
p1254
sg1178
g451
sg1179
NsS'nr_layers'
p1255
NsbssS'sets'
p1256
(dp1257
g476
g0
(ccompas_fea.structure.set
Set
p1258
g2
Ntp1259
Rp1260
(dp1261
S'__name__'
p1262
S'Set'
p1263
sS'name'
p1264
g476
sS'type'
p1265
S'element'
p1266
sS'selection'
p1267
(lp1268
I22
asS'index'
p1269
I13
sbsg452
g0
(g1258
g2
Ntp1270
Rp1271
(dp1272
g1262
g1263
sg1264
g452
sg1265
g1266
sg1267
(lp1273
I36
aI37
aI38
aI39
aI40
aI41
aI42
aI43
asg1269
I27
sbsg360
g0
(g1258
g2
Ntp1274
Rp1275
(dp1276
g1262
g1263
sg1264
g360
sg1265
g1266
sg1267
(lp1277
I30
asg1269
I21
sbsg406
g0
(g1258
g2
Ntp1278
Rp1279
(dp1280
g1262
g1263
sg1264
g406
sg1265
g1266
sg1267
(lp1281
I4
aI5
asg1269
I2
sbsg372
g0
(g1258
g2
Ntp1282
Rp1283
(dp1284
g1262
g1263
sg1264
g372
sg1265
g1266
sg1267
(lp1285
I25
asg1269
I16
sbsg468
g0
(g1258
g2
Ntp1286
Rp1287
(dp1288
g1262
g1263
sg1264
g468
sg1265
g1266
sg1267
(lp1289
I27
asg1269
I18
sbsg446
g0
(g1258
g2
Ntp1290
Rp1291
(dp1292
g1262
g1263
sg1264
g446
sg1265
g1266
sg1267
(lp1293
I2
aI3
asg1269
I1
sbsg382
g0
(g1258
g2
Ntp1294
Rp1295
(dp1296
g1262
g1263
sg1264
g382
sg1265
g1266
sg1267
(lp1297
I0
aI1
asg1269
I0
sbsg434
g0
(g1258
g2
Ntp1298
Rp1299
(dp1300
g1262
g1263
sg1264
g434
sg1265
g1266
sg1267
(lp1301
I12
aI13
asg1269
I6
sbsg472
g0
(g1258
g2
Ntp1302
Rp1303
(dp1304
g1262
g1263
sg1264
g472
sg1265
g1266
sg1267
(lp1305
I10
aI11
asg1269
I5
sbsg398
g0
(g1258
g2
Ntp1306
Rp1307
(dp1308
g1262
g1263
sg1264
g398
sg1265
g1266
sg1267
(lp1309
I8
aI9
asg1269
I4
sbsg442
g0
(g1258
g2
Ntp1310
Rp1311
(dp1312
g1262
g1263
sg1264
g442
sg1265
g1266
sg1267
(lp1313
I6
aI7
asg1269
I3
sbsg390
g0
(g1258
g2
Ntp1314
Rp1315
(dp1316
g1262
g1263
sg1264
g390
sg1265
g1266
sg1267
(lp1317
I16
aI17
asg1269
I8
sbsg426
g0
(g1258
g2
Ntp1318
Rp1319
(dp1320
g1262
g1263
sg1264
g426
sg1265
g1266
sg1267
(lp1321
I14
aI15
asg1269
I7
sbsg402
g0
(g1258
g2
Ntp1322
Rp1323
(dp1324
g1262
g1263
sg1264
g402
sg1265
g1266
sg1267
(lp1325
I20
asg1269
I11
sbsg464
g0
(g1258
g2
Ntp1326
Rp1327
(dp1328
g1262
g1263
sg1264
g464
sg1265
g1266
sg1267
(lp1329
I35
asg1269
I26
sbsg414
g0
(g1258
g2
Ntp1330
Rp1331
(dp1332
g1262
g1263
sg1264
g414
sg1265
g1266
sg1267
(lp1333
I32
asg1269
I23
sbsg394
g0
(g1258
g2
Ntp1334
Rp1335
(dp1336
g1262
g1263
sg1264
g394
sg1265
g1266
sg1267
(lp1337
I23
asg1269
I14
sbsg410
g0
(g1258
g2
Ntp1338
Rp1339
(dp1340
g1262
g1263
sg1264
g410
sg1265
g1266
sg1267
(lp1341
I29
asg1269
I20
sbsg430
g0
(g1258
g2
Ntp1342
Rp1343
(dp1344
g1262
g1263
sg1264
g430
sg1265
g1266
sg1267
(lp1345
I18
asg1269
I9
sbsg422
g0
(g1258
g2
Ntp1346
Rp1347
(dp1348
g1262
g1263
sg1264
g422
sg1265
g1266
sg1267
(lp1349
I26
asg1269
I17
sbsg35
g0
(g1258
g2
Ntp1350
Rp1351
(dp1352
g1262
g1263
sg1264
g35
sg1265
S'node'
p1353
sg1267
(lp1354
I59
aI58
aI57
aI56
asg1269
I29
sbsg418
g0
(g1258
g2
Ntp1355
Rp1356
(dp1357
g1262
g1263
sg1264
g418
sg1265
g1266
sg1267
(lp1358
I21
asg1269
I12
sbsg438
g0
(g1258
g2
Ntp1359
Rp1360
(dp1361
g1262
g1263
sg1264
g438
sg1265
g1266
sg1267
(lp1362
I34
asg1269
I25
sbsg386
g0
(g1258
g2
Ntp1363
Rp1364
(dp1365
g1262
g1263
sg1264
g386
sg1265
g1266
sg1267
(lp1366
I31
asg1269
I22
sbsg20
g0
(g1258
g2
Ntp1367
Rp1368
(dp1369
g1262
g1263
sg1264
g20
sg1265
g1353
sg1267
(lp1370
I43
aI42
aI41
aI40
asg1269
I28
sbsg456
g0
(g1258
g2
Ntp1371
Rp1372
(dp1373
g1262
g1263
sg1264
g456
sg1265
g1266
sg1267
(lp1374
I24
asg1269
I15
sbsg376
g0
(g1258
g2
Ntp1375
Rp1376
(dp1377
g1262
g1263
sg1264
g376
sg1265
g1266
sg1267
(lp1378
I28
asg1269
I19
sbsg368
g0
(g1258
g2
Ntp1379
Rp1380
(dp1381
g1262
g1263
sg1264
g368
sg1265
g1266
sg1267
(lp1382
I19
asg1269
I10
sbsg460
g0
(g1258
g2
Ntp1383
Rp1384
(dp1385
g1262
g1263
sg1264
g460
sg1265
g1266
sg1267
(lp1386
I33
asg1269
I24
sbssS'steps'
p1387
(dp1388
g1165
g0
(ccompas_fea.structure.step
GeneralStep
p1389
g2
Ntp1390
Rp1391
(dp1392
g15
I1
sS'__name__'
p1393
S'GeneralStep'
p1394
sS'name'
p1395
g1165
sS'attr_list'
p1396
(lp1397
g499
aS'increments'
p1398
aS'iterations'
p1399
aS'factor'
p1400
aS'nlgeom'
p1401
aS'nlmat'
p1402
aS'displacements'
p1403
aS'loads'
p1404
aS'type'
p1405
aS'tolerance'
p1406
aS'modify'
p1407
asS'increments'
p1408
I1
sS'iterations'
p1409
I100
sS'tolerance'
p1410
F0.01
sS'factor'
p1411
F1.0
sS'nlgeom'
p1412
I00
sS'nlmat'
p1413
I01
sS'displacements'
p1414
(lp1415
sS'loads'
p1416
(lp1417
g547
asS'modify'
p1418
I01
sS'type'
p1419
S'static'
p1420
sbsg1167
g0
(g1389
g2
Ntp1421
Rp1422
(dp1423
g15
I2
sg1393
g1394
sg1395
g1167
sg1396
(lp1424
g499
ag1398
ag1399
ag1400
ag1401
ag1402
ag1403
ag1404
ag1405
ag1406
ag1407
asg1408
I1
sg1409
I100
sg1410
F0.01
sg1411
F1.0
sg1412
I00
sg1413
I01
sg1414
(lp1425
sg1416
(lp1426
g526
ag519
ag512
asg1418
I01
sg1419
g1420
sbsg1168
g0
(g1389
g2
Ntp1427
Rp1428
(dp1429
g15
I3
sg1393
g1394
sg1395
g1168
sg1396
(lp1430
g499
ag1398
ag1399
ag1400
ag1401
ag1402
ag1403
ag1404
ag1405
ag1406
ag1407
asg1408
I1
sg1409
I100
sg1410
F0.01
sg1411
F1.0
sg1412
I00
sg1413
I01
sg1414
(lp1431
sg1416
(lp1432
g540
ag533
ag504
ag481
asg1418
I01
sg1419
g1420
sbsg1169
g0
(g1389
g2
Ntp1433
Rp1434
(dp1435
g15
I0
sg1393
g1394
sg1395
g1169
sg1396
(lp1436
g499
ag1398
ag1399
ag1400
ag1401
ag1402
ag1403
ag1404
ag1405
ag1406
ag1407
asg1408
I1
sg1409
I100
sg1410
F0.01
sg1411
F1.0
sg1412
I00
sg1413
I01
sg1414
(lp1437
g10
ag31
asg1416
(lp1438
sg1418
I01
sg1419
g1420
sbssS'loc_coor'
p1439
(dp1440
sS'steps_order'
p1441
(lp1442
g1169
ag1165
ag1167
ag1168
asS'tol'
p1443
S'3'
p1444
sS'virtual_nodes'
p1445
(dp1446
sS'virtual_node_index'
p1447
(dp1448
sS'virtual_elements'
p1449
(dp1450
sS'virtual_element_index'
p1451
(dp1452
sb.