ccopy_reg
_reconstructor
p0
(ccompas_fea.structure.structure
Structure
p1
c__builtin__
object
p2
Ntp3
Rp4
(dp5
S'constraints'
p6
(dp7
sS'displacements'
p8
(dp9
S'nset_pinned_set_disp_1'
p10
g0
(ccompas_fea.structure.displacement
GeneralDisplacement
p11
g2
Ntp12
Rp13
(dp14
S'index'
p15
I0
sS'__name__'
p16
S'GeneralDisplacement'
p17
sS'name'
p18
g10
sS'nodes'
p19
S'nset_support_wall1'
p20
sS'components'
p21
(dp22
S'z'
p23
I0
sS'xx'
p24
I0
sS'zz'
p25
I0
sS'yy'
p26
I0
sS'y'
p27
I0
sS'x'
p28
I0
ssS'axes'
p29
S'global'
p30
sbsS'nset_pinned_set_disp_2'
p31
g0
(g11
g2
Ntp32
Rp33
(dp34
g15
I1
sg16
g17
sg18
g31
sg19
S'nset_support_wall2'
p35
sg21
(dp36
g23
I0
sg24
I0
sg25
I0
sg26
I0
sg27
I0
sg28
I0
ssg29
g30
sbssS'elements'
p37
(dp38
I0
g0
(ccompas_fea.structure.element
ShellElement
p39
g2
Ntp40
Rp41
(dp42
S'mass'
p43
NsS'__name__'
p44
S'ShellElement'
p45
sS'nodes'
p46
(lp47
I0
aI1
aI3
aI2
asS'number'
p48
I0
sS'thermal'
p49
I00
sS'axes'
p50
(dp51
S'ey'
p52
NsS'ez'
p53
NsS'ex'
p54
NssS'element_property'
p55
S'elset_plate_1_element_prop'
p56
sbsI1
g0
(g39
g2
Ntp57
Rp58
(dp59
g43
Nsg44
g45
sg46
(lp60
I2
aI3
aI5
aI4
asg48
I1
sg49
I00
sg50
g51
sg55
g56
sbsI2
g0
(g39
g2
Ntp61
Rp62
(dp63
g43
Nsg44
g45
sg46
(lp64
I6
aI7
aI9
aI8
asg48
I2
sg49
I00
sg50
(dp65
g52
Nsg53
Nsg54
Nssg55
S'elset_plate_2_element_prop'
p66
sbsI3
g0
(g39
g2
Ntp67
Rp68
(dp69
g43
Nsg44
g45
sg46
(lp70
I8
aI9
aI11
aI10
asg48
I3
sg49
I00
sg50
g65
sg55
g66
sbsI4
g0
(g39
g2
Ntp71
Rp72
(dp73
g43
Nsg44
g45
sg46
(lp74
I1
aI12
aI13
aI3
asg48
I4
sg49
I00
sg50
(dp75
g52
Nsg53
Nsg54
Nssg55
S'elset_plate_3_element_prop'
p76
sbsI5
g0
(g39
g2
Ntp77
Rp78
(dp79
g43
Nsg44
g45
sg46
(lp80
I3
aI13
aI14
aI5
asg48
I5
sg49
I00
sg50
g75
sg55
g76
sbsI6
g0
(g39
g2
Ntp81
Rp82
(dp83
g43
Nsg44
g45
sg46
(lp84
I7
aI15
aI16
aI9
asg48
I6
sg49
I00
sg50
(dp85
g52
Nsg53
Nsg54
Nssg55
S'elset_plate_4_element_prop'
p86
sbsI7
g0
(g39
g2
Ntp87
Rp88
(dp89
g43
Nsg44
g45
sg46
(lp90
I9
aI16
aI17
aI11
asg48
I7
sg49
I00
sg50
g85
sg55
g86
sbsI8
g0
(g39
g2
Ntp91
Rp92
(dp93
g43
Nsg44
g45
sg46
(lp94
I12
aI18
aI19
aI13
asg48
I8
sg49
I00
sg50
(dp95
g52
Nsg53
Nsg54
Nssg55
S'elset_plate_5_element_prop'
p96
sbsI9
g0
(g39
g2
Ntp97
Rp98
(dp99
g43
Nsg44
g45
sg46
(lp100
I13
aI19
aI20
aI14
asg48
I9
sg49
I00
sg50
g95
sg55
g96
sbsI10
g0
(g39
g2
Ntp101
Rp102
(dp103
g43
Nsg44
g45
sg46
(lp104
I15
aI21
aI22
aI16
asg48
I10
sg49
I00
sg50
(dp105
g52
Nsg53
Nsg54
Nssg55
S'elset_plate_6_element_prop'
p106
sbsI11
g0
(g39
g2
Ntp107
Rp108
(dp109
g43
Nsg44
g45
sg46
(lp110
I16
aI22
aI23
aI17
asg48
I11
sg49
I00
sg50
g105
sg55
g106
sbsI12
g0
(g39
g2
Ntp111
Rp112
(dp113
g43
Nsg44
g45
sg46
(lp114
I4
aI5
aI25
aI24
asg48
I12
sg49
I00
sg50
(dp115
g52
Nsg53
Nsg54
Nssg55
S'elset_plate_7_element_prop'
p116
sbsI13
g0
(g39
g2
Ntp117
Rp118
(dp119
g43
Nsg44
g45
sg46
(lp120
I24
aI25
aI7
aI6
asg48
I13
sg49
I00
sg50
g115
sg55
g116
sbsI14
g0
(g39
g2
Ntp121
Rp122
(dp123
g43
Nsg44
g45
sg46
(lp124
I5
aI14
aI26
aI25
asg48
I14
sg49
I00
sg50
(dp125
g52
Nsg53
Nsg54
Nssg55
S'elset_plate_8_element_prop'
p126
sbsI15
g0
(g39
g2
Ntp127
Rp128
(dp129
g43
Nsg44
g45
sg46
(lp130
I25
aI26
aI15
aI7
asg48
I15
sg49
I00
sg50
g125
sg55
g126
sbsI16
g0
(g39
g2
Ntp131
Rp132
(dp133
g43
Nsg44
g45
sg46
(lp134
I14
aI20
aI27
aI26
asg48
I16
sg49
I00
sg50
(dp135
g52
Nsg53
Nsg54
Nssg55
S'elset_plate_9_element_prop'
p136
sbsI17
g0
(g39
g2
Ntp137
Rp138
(dp139
g43
Nsg44
g45
sg46
(lp140
I26
aI27
aI21
aI15
asg48
I17
sg49
I00
sg50
g135
sg55
g136
sbsI18
g0
(g39
g2
Ntp141
Rp142
(dp143
g43
Nsg44
g45
sg46
(lp144
I28
aI29
aI31
aI30
asg48
I18
sg49
I00
sg50
(dp145
g52
Nsg53
Nsg54
Nssg55
S'elset_wall_1_1_element_prop'
p146
sbsI19
g0
(g39
g2
Ntp147
Rp148
(dp149
g43
Nsg44
g45
sg46
(lp150
I29
aI32
aI33
aI31
asg48
I19
sg49
I00
sg50
(dp151
g52
Nsg53
Nsg54
Nssg55
S'elset_wall_1_2_element_prop'
p152
sbsI20
g0
(g39
g2
Ntp153
Rp154
(dp155
g43
Nsg44
g45
sg46
(lp156
I32
aI34
aI35
aI33
asg48
I20
sg49
I00
sg50
(dp157
g52
Nsg53
Nsg54
Nssg55
S'elset_wall_1_3_element_prop'
p158
sbsI21
g0
(g39
g2
Ntp159
Rp160
(dp161
g43
Nsg44
g45
sg46
(lp162
I36
aI37
aI29
aI28
asg48
I21
sg49
I00
sg50
(dp163
g52
Nsg53
Nsg54
Nssg55
S'elset_wall_1_4_element_prop'
p164
sbsI22
g0
(g39
g2
Ntp165
Rp166
(dp167
g43
Nsg44
g45
sg46
(lp168
I37
aI38
aI32
aI29
asg48
I22
sg49
I00
sg50
(dp169
g52
Nsg53
Nsg54
Nssg55
S'elset_wall_1_5_element_prop'
p170
sbsI23
g0
(g39
g2
Ntp171
Rp172
(dp173
g43
Nsg44
g45
sg46
(lp174
I38
aI39
aI34
aI32
asg48
I23
sg49
I00
sg50
(dp175
g52
Nsg53
Nsg54
Nssg55
S'elset_wall_1_6_element_prop'
p176
sbsI24
g0
(g39
g2
Ntp177
Rp178
(dp179
g43
Nsg44
g45
sg46
(lp180
I40
aI41
aI37
aI36
asg48
I24
sg49
I00
sg50
(dp181
g52
Nsg53
Nsg54
Nssg55
S'elset_wall_1_7_element_prop'
p182
sbsI25
g0
(g39
g2
Ntp183
Rp184
(dp185
g43
Nsg44
g45
sg46
(lp186
I41
aI42
aI38
aI37
asg48
I25
sg49
I00
sg50
(dp187
g52
Nsg53
Nsg54
Nssg55
S'elset_wall_1_8_element_prop'
p188
sbsI26
g0
(g39
g2
Ntp189
Rp190
(dp191
g43
Nsg44
g45
sg46
(lp192
I42
aI43
aI39
aI38
asg48
I26
sg49
I00
sg50
(dp193
g52
Nsg53
Nsg54
Nssg55
S'elset_wall_1_9_element_prop'
p194
sbsI27
g0
(g39
g2
Ntp195
Rp196
(dp197
g43
Nsg44
g45
sg46
(lp198
I44
aI46
aI47
aI45
asg48
I27
sg49
I00
sg50
(dp199
g52
Nsg53
Nsg54
Nssg55
S'elset_wall_2_1_element_prop'
p200
sbsI28
g0
(g39
g2
Ntp201
Rp202
(dp203
g43
Nsg44
g45
sg46
(lp204
I45
aI47
aI49
aI48
asg48
I28
sg49
I00
sg50
(dp205
g52
Nsg53
Nsg54
Nssg55
S'elset_wall_2_2_element_prop'
p206
sbsI29
g0
(g39
g2
Ntp207
Rp208
(dp209
g43
Nsg44
g45
sg46
(lp210
I48
aI49
aI51
aI50
asg48
I29
sg49
I00
sg50
(dp211
g52
Nsg53
Nsg54
Nssg55
S'elset_wall_2_3_element_prop'
p212
sbsI30
g0
(g39
g2
Ntp213
Rp214
(dp215
g43
Nsg44
g45
sg46
(lp216
I52
aI44
aI45
aI53
asg48
I30
sg49
I00
sg50
(dp217
g52
Nsg53
Nsg54
Nssg55
S'elset_wall_2_4_element_prop'
p218
sbsI31
g0
(g39
g2
Ntp219
Rp220
(dp221
g43
Nsg44
g45
sg46
(lp222
I53
aI45
aI48
aI54
asg48
I31
sg49
I00
sg50
(dp223
g52
Nsg53
Nsg54
Nssg55
S'elset_wall_2_5_element_prop'
p224
sbsI32
g0
(g39
g2
Ntp225
Rp226
(dp227
g43
Nsg44
g45
sg46
(lp228
I54
aI48
aI50
aI55
asg48
I32
sg49
I00
sg50
(dp229
g52
Nsg53
Nsg54
Nssg55
S'elset_wall_2_6_element_prop'
p230
sbsI33
g0
(g39
g2
Ntp231
Rp232
(dp233
g43
Nsg44
g45
sg46
(lp234
I56
aI52
aI53
aI57
asg48
I33
sg49
I00
sg50
(dp235
g52
Nsg53
Nsg54
Nssg55
S'elset_wall_2_7_element_prop'
p236
sbsI34
g0
(g39
g2
Ntp237
Rp238
(dp239
g43
Nsg44
g45
sg46
(lp240
I57
aI53
aI54
aI58
asg48
I34
sg49
I00
sg50
(dp241
g52
Nsg53
Nsg54
Nssg55
S'elset_wall_2_8_element_prop'
p242
sbsI35
g0
(g39
g2
Ntp243
Rp244
(dp245
g43
Nsg44
g45
sg46
(lp246
I58
aI54
aI55
aI59
asg48
I35
sg49
I00
sg50
(dp247
g52
Nsg53
Nsg54
Nssg55
S'elset_wall_2_9_element_prop'
p248
sbsI36
g0
(ccompas_fea.structure.element
MPCElement
p249
g2
Ntp250
Rp251
(dp252
g43
Nsg44
S'MPCElement'
p253
sg46
(lp254
I51
aI23
asg48
I36
sg49
I00
sg50
(dp255
g52
Nsg53
(lp256
F4.5474735088646412e-12
aF0.0
aF1181.1505155275604
asg54
Nssg55
S'elset_mpc_element_prop'
p257
sbsI37
g0
(g249
g2
Ntp258
Rp259
(dp260
g43
Nsg44
g253
sg46
(lp261
I49
aI17
asg48
I37
sg49
I00
sg50
(dp262
g52
Nsg53
(lp263
F-4.5474735088646412e-12
aF0.0
aF1181.1505155275604
asg54
Nssg55
g257
sbsI38
g0
(g249
g2
Ntp264
Rp265
(dp266
g43
Nsg44
g253
sg46
(lp267
I47
aI11
asg48
I38
sg49
I00
sg50
(dp268
g52
Nsg53
(lp269
F2.7284841053187847e-12
aF0.0
aF1181.1505155275604
asg54
Nssg55
g257
sbsI39
g0
(g249
g2
Ntp270
Rp271
(dp272
g43
Nsg44
g253
sg46
(lp273
I46
aI10
asg48
I39
sg49
I00
sg50
(dp274
g52
Nsg53
(lp275
F0.0
aF0.0
aF1181.1505155275604
asg54
Nssg55
g257
sbsI40
g0
(g249
g2
Ntp276
Rp277
(dp278
g43
Nsg44
g253
sg46
(lp279
I35
aI18
asg48
I40
sg49
I00
sg50
(dp280
g52
Nsg53
(lp281
F4.5474735088646412e-12
aF0.0
aF1181.1505155275604
asg54
Nssg55
g257
sbsI41
g0
(g249
g2
Ntp282
Rp283
(dp284
g43
Nsg44
g253
sg46
(lp285
I33
aI12
asg48
I41
sg49
I00
sg50
(dp286
g52
Nsg53
(lp287
F-4.5474735088646412e-12
aF0.0
aF1181.1505155275604
asg54
Nssg55
g257
sbsI42
g0
(g249
g2
Ntp288
Rp289
(dp290
g43
Nsg44
g253
sg46
(lp291
I31
aI1
asg48
I42
sg49
I00
sg50
(dp292
g52
Nsg53
(lp293
F2.7284841053187847e-12
aF0.0
aF1181.1505155275604
asg54
Nssg55
g257
sbsI43
g0
(g249
g2
Ntp294
Rp295
(dp296
g43
Nsg44
g253
sg46
(lp297
I30
aI0
asg48
I43
sg49
I00
sg50
(dp298
g52
Nsg53
(lp299
F0.0
aF0.0
aF1181.1505155275604
asg54
Nssg55
g257
sbssS'element_index'
p300
(dp301
S'5347.600,12081.499,0.000'
p302
I10
sS'1063.077,6662.886,0.000'
p303
I12
sS'5347.600,3973.649,0.000'
p304
I9
sS'1063.077,0.000,-2850.086'
p305
I21
sS'1063.077,16055.148,-2850.086'
p306
I30
sS'2126.154,0.000,-590.575'
p307
I42
sS'1063.077,14730.598,0.000'
p308
I3
sS'1063.077,3973.649,0.000'
p309
I1
sS'2126.154,16055.148,-590.575'
p310
I38
sS'5347.600,16055.148,-2850.086'
p311
I32
sS'1063.077,16055.148,-3968.273'
p312
I33
sS'6442.891,16055.148,-590.575'
p313
I36
sS'3189.231,16055.148,-2850.086'
p314
I31
sS'3189.231,0.000,-1731.899'
p315
I19
sS'6442.891,0.000,-590.575'
p316
I40
sS'0.000,16055.148,-590.575'
p317
I39
sS'3189.231,6662.886,0.000'
p318
I14
sS'3189.231,3973.649,0.000'
p319
I5
sS'3189.231,14730.598,0.000'
p320
I7
sS'5347.600,0.000,-2850.086'
p321
I23
sS'1063.077,9392.262,0.000'
p322
I13
sS'1063.077,12081.499,0.000'
p323
I2
sS'3189.231,9392.262,0.000'
p324
I15
sS'5347.600,16055.148,-3968.273'
p325
I35
sS'1063.077,16055.148,-1731.899'
p326
I27
sS'3189.231,16055.148,-3968.273'
p327
I34
sS'1063.077,0.000,-1731.899'
p328
I18
sS'1063.077,0.000,-3968.273'
p329
I24
sS'5347.600,0.000,-3968.273'
p330
I26
sS'5347.600,16055.148,-1731.899'
p331
I29
sS'5347.600,6662.886,0.000'
p332
I16
sS'3189.231,16055.148,-1731.899'
p333
I28
sS'3189.231,0.000,-3968.273'
p334
I25
sS'4252.308,0.000,-590.575'
p335
I41
sS'3189.231,1324.550,0.000'
p336
I4
sS'5347.600,9392.262,0.000'
p337
I17
sS'5347.600,1324.550,0.000'
p338
I8
sS'3189.231,0.000,-2850.086'
p339
I22
sS'5347.600,14730.598,0.000'
p340
I11
sS'4252.308,16055.148,-590.575'
p341
I37
sS'3189.231,12081.499,0.000'
p342
I6
sS'1063.077,1324.550,0.000'
p343
I0
sS'5347.600,0.000,-1731.899'
p344
I20
sS'0.000,0.000,-590.575'
p345
I43
ssS'element_properties'
p346
(dp347
g218
g0
(ccompas_fea.structure.element_properties
ElementProperties
p348
g2
Ntp349
Rp350
(dp351
g15
I21
sS'__name__'
p352
S'ElementProperties'
p353
sS'name'
p354
g218
sS'material'
p355
S'wall_element_mat'
p356
sS'section'
p357
S'wall2_element_sec'
p358
sS'elset'
p359
S'elset_wall_2_4'
p360
sS'elements'
p361
NsS'rebar'
p362
(dp363
sbsg152
g0
(g348
g2
Ntp364
Rp365
(dp366
g15
I10
sg352
g353
sg354
g152
sg355
g356
sg357
S'wall1_element_sec'
p367
sg359
S'elset_wall_1_2'
p368
sg361
Nsg362
g363
sbsg188
g0
(g348
g2
Ntp369
Rp370
(dp371
g15
I16
sg352
g353
sg354
g188
sg355
g356
sg357
g367
sg359
S'elset_wall_1_8'
p372
sg361
Nsg362
g363
sbsg206
g0
(g348
g2
Ntp373
Rp374
(dp375
g15
I19
sg352
g353
sg354
g206
sg355
g356
sg357
g358
sg359
S'elset_wall_2_2'
p376
sg361
Nsg362
g363
sbsg56
g0
(g348
g2
Ntp377
Rp378
(dp379
g15
I0
sg352
g353
sg354
g56
sg355
S'plate_element_mat'
p380
sg357
S'plate_element_sec'
p381
sg359
S'elset_plate_1'
p382
sg361
Nsg362
g363
sbsg224
g0
(g348
g2
Ntp383
Rp384
(dp385
g15
I22
sg352
g353
sg354
g224
sg355
g356
sg357
g358
sg359
S'elset_wall_2_5'
p386
sg361
Nsg362
g363
sbsg136
g0
(g348
g2
Ntp387
Rp388
(dp389
g15
I8
sg352
g353
sg354
g136
sg355
g380
sg357
g381
sg359
S'elset_plate_9'
p390
sg361
Nsg362
g363
sbsg176
g0
(g348
g2
Ntp391
Rp392
(dp393
g15
I14
sg352
g353
sg354
g176
sg355
g356
sg357
g367
sg359
S'elset_wall_1_6'
p394
sg361
Nsg362
g363
sbsg96
g0
(g348
g2
Ntp395
Rp396
(dp397
g15
I4
sg352
g353
sg354
g96
sg355
g380
sg357
g381
sg359
S'elset_plate_5'
p398
sg361
Nsg362
g363
sbsg158
g0
(g348
g2
Ntp399
Rp400
(dp401
g15
I11
sg352
g353
sg354
g158
sg355
g356
sg357
g367
sg359
S'elset_wall_1_3'
p402
sg361
Nsg362
g363
sbsg76
g0
(g348
g2
Ntp403
Rp404
(dp405
g15
I2
sg352
g353
sg354
g76
sg355
g380
sg357
g381
sg359
S'elset_plate_3'
p406
sg361
Nsg362
g363
sbsg212
g0
(g348
g2
Ntp407
Rp408
(dp409
g15
I20
sg352
g353
sg354
g212
sg355
g356
sg357
g358
sg359
S'elset_wall_2_3'
p410
sg361
Nsg362
g363
sbsg230
g0
(g348
g2
Ntp411
Rp412
(dp413
g15
I23
sg352
g353
sg354
g230
sg355
g356
sg357
g358
sg359
S'elset_wall_2_6'
p414
sg361
Nsg362
g363
sbsg164
g0
(g348
g2
Ntp415
Rp416
(dp417
g15
I12
sg352
g353
sg354
g164
sg355
g356
sg357
g367
sg359
S'elset_wall_1_4'
p418
sg361
Nsg362
g363
sbsg194
g0
(g348
g2
Ntp419
Rp420
(dp421
g15
I17
sg352
g353
sg354
g194
sg355
g356
sg357
g367
sg359
S'elset_wall_1_9'
p422
sg361
Nsg362
g363
sbsg126
g0
(g348
g2
Ntp423
Rp424
(dp425
g15
I7
sg352
g353
sg354
g126
sg355
g380
sg357
g381
sg359
S'elset_plate_8'
p426
sg361
Nsg362
g363
sbsg146
g0
(g348
g2
Ntp427
Rp428
(dp429
g15
I9
sg352
g353
sg354
g146
sg355
g356
sg357
g367
sg359
S'elset_wall_1_1'
p430
sg361
Nsg362
g363
sbsg116
g0
(g348
g2
Ntp431
Rp432
(dp433
g15
I6
sg352
g353
sg354
g116
sg355
g380
sg357
g381
sg359
S'elset_plate_7'
p434
sg361
Nsg362
g363
sbsg242
g0
(g348
g2
Ntp435
Rp436
(dp437
g15
I25
sg352
g353
sg354
g242
sg355
g356
sg357
g358
sg359
S'elset_wall_2_8'
p438
sg361
Nsg362
g363
sbsg86
g0
(g348
g2
Ntp439
Rp440
(dp441
g15
I3
sg352
g353
sg354
g86
sg355
g380
sg357
g381
sg359
S'elset_plate_4'
p442
sg361
Nsg362
g363
sbsg66
g0
(g348
g2
Ntp443
Rp444
(dp445
g15
I1
sg352
g353
sg354
g66
sg355
g380
sg357
g381
sg359
S'elset_plate_2'
p446
sg361
Nsg362
g363
sbsg257
g0
(g348
g2
Ntp447
Rp448
(dp449
g15
I27
sg352
g353
sg354
g257
sg355
S'elset_mpc_element_mat'
p450
sg357
S'sec_mpc'
p451
sg359
S'elset_mpcs'
p452
sg361
Nsg362
g363
sbsg182
g0
(g348
g2
Ntp453
Rp454
(dp455
g15
I15
sg352
g353
sg354
g182
sg355
g356
sg357
g367
sg359
S'elset_wall_1_7'
p456
sg361
Nsg362
g363
sbsg236
g0
(g348
g2
Ntp457
Rp458
(dp459
g15
I24
sg352
g353
sg354
g236
sg355
g356
sg357
g358
sg359
S'elset_wall_2_7'
p460
sg361
Nsg362
g363
sbsg248
g0
(g348
g2
Ntp461
Rp462
(dp463
g15
I26
sg352
g353
sg354
g248
sg355
g356
sg357
g358
sg359
S'elset_wall_2_9'
p464
sg361
Nsg362
g363
sbsg200
g0
(g348
g2
Ntp465
Rp466
(dp467
g15
I18
sg352
g353
sg354
g200
sg355
g356
sg357
g358
sg359
S'elset_wall_2_1'
p468
sg361
Nsg362
g363
sbsg106
g0
(g348
g2
Ntp469
Rp470
(dp471
g15
I5
sg352
g353
sg354
g106
sg355
g380
sg357
g381
sg359
S'elset_plate_6'
p472
sg361
Nsg362
g363
sbsg170
g0
(g348
g2
Ntp473
Rp474
(dp475
g15
I13
sg352
g353
sg354
g170
sg355
g356
sg357
g367
sg359
S'elset_wall_1_5'
p476
sg361
Nsg362
g363
sbssS'interactions'
p477
(dp478
sS'loads'
p479
(dp480
S'Gleis1_BAHNLASTEN_Lasteinzugsflache_Lastblock_-3'
p481
g0
(ccompas_fea.structure.load
AreaLoad
p482
g2
Ntp483
Rp484
(dp485
g15
I4
sS'__name__'
p486
S'AreaLoad'
p487
sS'name'
p488
g481
sS'axes'
p489
S'global'
p490
sS'components'
p491
(dp492
g23
F0.053618184234086312
sg27
I0
sg28
I0
ssS'nodes'
p493
(lp494
sS'elements'
p495
(lp496
I9
asS'attr_list'
p497
(lp498
S'name'
p499
aS'axes'
p500
aS'components'
p501
aS'nodes'
p502
aS'elements'
p503
asbsS'earthPressure_liveLoad'
p504
g0
(g482
g2
Ntp505
Rp506
(dp507
g15
I5
sg486
g487
sg488
g504
sg489
S'local'
p508
sg491
(dp509
g23
F0.037699999999999997
sg27
I0
sg28
I0
ssg493
g494
sg495
(lp510
I21
aI24
aI27
asg497
(lp511
g499
ag500
ag501
ag502
ag503
asbsS'Gleis1_EIGENGEWICHTE_SCHIENE_Lasteinzugsflache'
p512
g0
(g482
g2
Ntp513
Rp514
(dp515
g15
I3
sg486
g487
sg488
g512
sg489
g490
sg491
(dp516
g23
F0.0020987046429953278
sg27
I0
sg28
I0
ssg493
g494
sg495
(lp517
I9
asg497
(lp518
g499
ag500
ag501
ag502
ag503
asbsS'earthPressure_backfill'
p519
g0
(g482
g2
Ntp520
Rp521
(dp522
g15
I2
sg486
g487
sg488
g519
sg489
g508
sg491
(dp523
g23
F0.059574589917011526
sg27
I0
sg28
I0
ssg493
g494
sg495
(lp524
g430
ag368
ag402
ag418
ag476
ag394
ag456
ag372
ag422
ag468
ag376
ag410
ag360
ag386
ag414
ag460
ag438
ag464
asg497
(lp525
g499
ag500
ag501
ag502
ag503
asbsS'earthPressure_gravel'
p526
g0
(g482
g2
Ntp527
Rp528
(dp529
g15
I1
sg486
g487
sg488
g526
sg489
g490
sg491
(dp530
g23
F0.013500000000000002
sg27
I0
sg28
I0
ssg493
g494
sg495
(lp531
g382
ag446
ag406
ag442
ag398
ag472
ag434
ag426
ag390
asg497
(lp532
g499
ag500
ag501
ag502
ag503
asbsS'load_gravity'
p533
g0
(ccompas_fea.structure.load
GravityLoad
p534
g2
Ntp535
Rp536
(dp537
g15
I0
sg486
S'GravityLoad'
p538
sg488
g533
sg489
g490
sg491
(dp539
g23
F1.3500000000000001
sg27
F0.0
sg28
F0.0
ssg493
g494
sg495
(lp540
g382
ag446
ag406
ag442
ag398
ag472
ag434
ag426
ag390
ag430
ag368
ag402
ag418
ag476
ag394
ag456
ag372
ag422
ag468
ag376
ag410
ag360
ag386
ag414
ag460
ag438
ag464
asg497
(lp541
g499
ag500
ag501
ag502
ag503
aS'g'
p542
asS'g'
p543
F-9.8100000000000005
sbssS'materials'
p544
(dp545
g450
g0
(ccompas_fea.structure.material
MPCStiff
p546
g2
Ntp547
Rp548
(dp549
g15
I2
sS'__name__'
p550
S'MPCStiff'
p551
sS'name'
p552
g450
sS'attr_list'
p553
(lp554
g499
aS'E'
p555
aS'v'
p556
aS'G'
p557
aS'p'
p558
aS'tension'
p559
aS'compression'
p560
asS'E'
p561
(dp562
g555
L10000000000000L
ssS'v'
p563
(dp564
g556
F0.29999999999999999
ssS'G'
p565
(dp566
g557
F3846153846153.8462
ssS'p'
p567
F0.10000000000000001
sS'tension'
p568
I01
sS'compression'
p569
I01
sbsg356
g0
(ccompas_fea.structure.material
CMMUsermat
p570
g2
Ntp571
Rp572
(dp573
g15
I1
sg550
S'CMMUsermat'
p574
sg552
g356
sg553
(lp575
g499
ag555
ag556
ag557
ag558
aS'R_Rohr'
p576
aS'rho'
p577
aS'oo'
p578
aS'uu'
p579
aS'beton'
p580
aS'fcc'
p581
aS'vc'
p582
aS'ecu'
p583
aS'k_E'
p584
aS'theta_b0'
p585
aS'theta_b1'
p586
aS'k_riss'
p587
aS'Entfestigung'
p588
aS'lambdaTS'
p589
aS'srmx'
p590
aS'srmy'
p591
aS'Begrenzung'
p592
aS'KritQ'
p593
aS'winkelD'
p594
aS'k_vr'
p595
aS'fswy'
p596
aS'stahl1'
p597
aS'zm1'
p598
aS'fsy1'
p599
aS'fsu1'
p600
aS'esu1'
p601
aS'esv1'
p602
aS'Es1'
p603
aS'ka1'
p604
aS'kb1'
p605
aS'kc1'
p606
aS'as1'
p607
aS'dm1'
p608
aS'psi1'
p609
aS'stahl2'
p610
aS'zm2'
p611
aS'fsy2'
p612
aS'fsu2'
p613
aS'esu2'
p614
aS'esv2'
p615
aS'Es2'
p616
aS'ka2'
p617
aS'kb2'
p618
aS'kc2'
p619
aS'as2'
p620
aS'dm2'
p621
aS'psi2'
p622
aS'stahl3'
p623
aS'zm3'
p624
aS'fsy3'
p625
aS'fsu3'
p626
aS'esu3'
p627
aS'esv3'
p628
aS'Es3'
p629
aS'ka3'
p630
aS'kb3'
p631
aS'kc3'
p632
aS'as3'
p633
aS'dm3'
p634
aS'psi3'
p635
aS'stahl4'
p636
aS'zm4'
p637
aS'fsy4'
p638
aS'fsu4'
p639
aS'esu4'
p640
aS'esv4'
p641
aS'Es4'
p642
aS'ka4'
p643
aS'kb4'
p644
aS'kc4'
p645
aS'as4'
p646
aS'dm4'
p647
aS'psi4'
p648
asS'E'
p649
(dp650
S'E'
p651
I200000
ssS'v'
p652
(dp653
S'v'
p654
F0.10000000000000001
ssS'G'
p655
(dp656
g557
F90909.090909090897
ssS'p'
p657
F2.5000000000000002e-06
sS'R_Rohr'
p658
(dp659
g576
I-1
ssS'rho'
p660
(dp661
g577
F2.5000000000000002e-06
ssS'oo'
p662
(dp663
g578
I30
ssS'uu'
p664
(dp665
g579
I30
ssS'beton'
p666
(dp667
g580
I2
ssS'fcc'
p668
(dp669
g581
I28
ssS'vc'
p670
(dp671
g582
I0
ssS'ecu'
p672
(dp673
g583
F-0.002
ssS'k_E'
p674
(dp675
g584
I10000
ssS'theta_b0'
p676
(dp677
g585
I2
ssS'theta_b1'
p678
(dp679
g586
I1
ssS'k_riss'
p680
(dp681
g587
I0
ssS'Entfestigung'
p682
(dp683
g588
I0
ssS'lambdaTS'
p684
(dp685
g589
F0.67000000000000004
ssS'srmx'
p686
(dp687
g590
I1
ssS'srmy'
p688
(dp689
g591
I1
ssS'Begrenzung'
p690
(dp691
g592
I2
ssS'KritQ'
p692
(dp693
g593
I0
ssS'winkelD'
p694
(dp695
g594
I45
ssS'k_vr'
p696
(dp697
g595
I1
ssS'fswy'
p698
(dp699
g596
I500
ssS'stahl1'
p700
(dp701
g597
I1
ssS'zm1'
p702
(dp703
g598
I2
ssS'fsy1'
p704
(dp705
g599
I350
ssS'fsu1'
p706
(dp707
g600
I378
ssS'esu1'
p708
(dp709
g601
F0.044999999999999998
ssS'esv1'
p710
(dp711
g602
F0.02
ssS'Es1'
p712
(dp713
g603
I200000
ssS'ka1'
p714
(dp715
g604
I-1
ssS'kb1'
p716
(dp717
g605
I-1
ssS'kc1'
p718
(dp719
g606
I-1
ssS'as1'
p720
(dp721
g607
F0.35379837917234941
ssS'dm1'
p722
(dp723
g608
F11.024676910996901
ssS'psi1'
p724
(dp725
g609
I90
ssS'stahl2'
p726
(dp727
g610
I1
ssS'zm2'
p728
(dp729
g611
I2
ssS'fsy2'
p730
(dp731
g612
I350
ssS'fsu2'
p732
(dp733
g613
I378
ssS'esu2'
p734
(dp735
g614
F0.044999999999999998
ssS'esv2'
p736
(dp737
g615
F0.02
ssS'Es2'
p738
(dp739
g616
I200000
ssS'ka2'
p740
(dp741
g617
I-1
ssS'kb2'
p742
(dp743
g618
I-1
ssS'kc2'
p744
(dp745
g619
I-1
ssS'as2'
p746
(dp747
g620
F0.41916652215100264
ssS'dm2'
p748
(dp749
g621
F12.0
ssS'psi2'
p750
(dp751
g622
I0
ssS'stahl3'
p752
(dp753
g623
I1
ssS'zm3'
p754
(dp755
g624
I2
ssS'fsy3'
p756
(dp757
g625
I350
ssS'fsu3'
p758
(dp759
g626
I378
ssS'esu3'
p760
(dp761
g627
F0.044999999999999998
ssS'esv3'
p762
(dp763
g628
F0.02
ssS'Es3'
p764
(dp765
g629
I200000
ssS'ka3'
p766
(dp767
g630
I-1
ssS'kb3'
p768
(dp769
g631
I-1
ssS'kc3'
p770
(dp771
g632
I-1
ssS'as3'
p772
(dp773
g633
F0.41916652215100264
ssS'dm3'
p774
(dp775
g634
F12.0
ssS'psi3'
p776
(dp777
g635
I0
ssS'stahl4'
p778
(dp779
g636
I1
ssS'zm4'
p780
(dp781
g637
I2
ssS'fsy4'
p782
(dp783
g638
I350
ssS'fsu4'
p784
(dp785
g639
I378
ssS'esu4'
p786
(dp787
g640
F0.044999999999999998
ssS'esv4'
p788
(dp789
g641
F0.02
ssS'Es4'
p790
(dp791
g642
I200000
ssS'ka4'
p792
(dp793
g643
I-1
ssS'kb4'
p794
(dp795
g644
I-1
ssS'kc4'
p796
(dp797
g645
I-1
ssS'as4'
p798
(dp799
g646
F0.36134020305221914
ssS'dm4'
p800
(dp801
g647
F11.141562312563657
ssS'psi4'
p802
(dp803
g648
I90
ssbsg380
g0
(g570
g2
Ntp804
Rp805
(dp806
g15
I0
sg550
g574
sg552
g380
sg553
(lp807
g499
ag555
ag556
ag557
ag558
ag576
ag577
ag578
ag579
ag580
ag581
ag582
ag583
ag584
ag585
ag586
ag587
ag588
ag589
ag590
ag591
ag592
ag593
ag594
ag595
ag596
ag597
ag598
ag599
ag600
ag601
ag602
ag603
ag604
ag605
ag606
ag607
ag608
ag609
ag610
ag611
ag612
ag613
ag614
ag615
ag616
ag617
ag618
ag619
ag620
ag621
ag622
ag623
ag624
ag625
ag626
ag627
ag628
ag629
ag630
ag631
ag632
ag633
ag634
ag635
ag636
ag637
ag638
ag639
ag640
ag641
ag642
ag643
ag644
ag645
ag646
ag647
ag648
asg649
(dp808
g651
I200000
ssg652
(dp809
g654
F0.10000000000000001
ssg655
(dp810
g557
F90909.090909090897
ssg657
F2.5000000000000002e-06
sg658
(dp811
g576
I-1
ssg660
(dp812
g577
F2.5000000000000002e-06
ssg662
(dp813
g578
I30
ssg664
(dp814
g579
I30
ssg666
(dp815
g580
I2
ssg668
(dp816
g581
I28
ssg670
(dp817
g582
I0
ssg672
(dp818
g583
F-0.002
ssg674
(dp819
g584
I10000
ssg676
(dp820
g585
I2
ssg678
(dp821
g586
I1
ssg680
(dp822
g587
I0
ssg682
(dp823
g588
I0
ssg684
(dp824
g589
F0.67000000000000004
ssg686
(dp825
g590
I1
ssg688
(dp826
g591
I1
ssg690
(dp827
g592
I2
ssg692
(dp828
g593
I0
ssg694
(dp829
g594
I45
ssg696
(dp830
g595
I1
ssg698
(dp831
g596
I500
ssg700
(dp832
g597
I1
ssg702
(dp833
g598
I2
ssg704
(dp834
g599
I350
ssg706
(dp835
g600
I378
ssg708
(dp836
g601
F0.044999999999999998
ssg710
(dp837
g602
F0.02
ssg712
(dp838
g603
I200000
ssg714
(dp839
g604
I-1
ssg716
(dp840
g605
I-1
ssg718
(dp841
g606
I-1
ssg720
(dp842
g607
F0.73662702844474748
ssg722
(dp843
g608
F16.956061520815837
ssg724
(dp844
g609
I90
ssg726
(dp845
g610
I1
ssg728
(dp846
g611
I2
ssg730
(dp847
g612
I350
ssg732
(dp848
g613
I378
ssg734
(dp849
g614
F0.044999999999999998
ssg736
(dp850
g615
F0.02
ssg738
(dp851
g616
I200000
ssg740
(dp852
g617
I-1
ssg742
(dp853
g618
I-1
ssg744
(dp854
g619
I-1
ssg746
(dp855
g620
F1.632526553599452
ssg748
(dp856
g621
F25.242437265744574
ssg750
(dp857
g622
I0
ssg752
(dp858
g623
I1
ssg754
(dp859
g624
I2
ssg756
(dp860
g625
I350
ssg758
(dp861
g626
I378
ssg760
(dp862
g627
F0.044999999999999998
ssg762
(dp863
g628
F0.02
ssg764
(dp864
g629
I200000
ssg766
(dp865
g630
I-1
ssg768
(dp866
g631
I-1
ssg770
(dp867
g632
I-1
ssg772
(dp868
g633
F0.36894376458898326
ssg774
(dp869
g634
F12.0
ssg776
(dp870
g635
I0
ssg778
(dp871
g636
I1
ssg780
(dp872
g637
I2
ssg782
(dp873
g638
I350
ssg784
(dp874
g639
I378
ssg786
(dp875
g640
F0.044999999999999998
ssg788
(dp876
g641
F0.02
ssg790
(dp877
g642
I200000
ssg792
(dp878
g643
I-1
ssg794
(dp879
g644
I-1
ssg796
(dp880
g645
I-1
ssg798
(dp881
g646
F0.39740945029150271
ssg800
(dp882
g647
F12.454326696818773
ssg802
(dp883
g648
I90
ssbssS'misc'
p884
(dp885
sS'name'
p886
S'NLFE_CFB2'
p887
sS'nodes'
p888
(dp889
I0
g0
(ccompas_fea.structure.node
Node
p890
g2
Ntp891
Rp892
(dp893
S'__name__'
p894
S'Node'
p895
sS'key'
p896
I0
sS'x'
p897
F0.0
sS'y'
p898
F0.0
sS'z'
p899
F0.0
sS'ex'
p900
(lp901
I1
aI0
aI0
asS'ey'
p902
(lp903
I0
aI1
aI0
asS'ez'
p904
(lp905
I0
aI0
aI1
asS'mass'
p906
NsbsI1
g0
(g890
g2
Ntp907
Rp908
(dp909
g894
g895
sg896
I1
sg897
F2126.1540396395426
sg898
F0.0
sg899
F0.0
sg900
g901
sg902
g903
sg904
g905
sg906
NsbsI2
g0
(g890
g2
Ntp910
Rp911
(dp912
g894
g895
sg896
I2
sg897
F0.0
sg898
F2649.0994417451084
sg899
F0.0
sg900
g901
sg902
g903
sg904
g905
sg906
NsbsI3
g0
(g890
g2
Ntp913
Rp914
(dp915
g894
g895
sg896
I3
sg897
F2126.1540396395426
sg898
F2649.0994417451084
sg899
F0.0
sg900
g901
sg902
g903
sg904
g905
sg906
NsbsI4
g0
(g890
g2
Ntp916
Rp917
(dp918
g894
g895
sg896
I4
sg897
F0.0
sg898
F5298.1988834902168
sg899
F0.0
sg900
g901
sg902
g903
sg904
g905
sg906
NsbsI5
g0
(g890
g2
Ntp919
Rp920
(dp921
g894
g895
sg896
I5
sg897
F2126.1540396395426
sg898
F5298.1988834902168
sg899
F0.0
sg900
g901
sg902
g903
sg904
g905
sg906
NsbsI6
g0
(g890
g2
Ntp922
Rp923
(dp924
g894
g895
sg896
I6
sg897
F0.0
sg898
F10756.949248298317
sg899
F0.0
sg900
g901
sg902
g903
sg904
g905
sg906
NsbsI7
g0
(g890
g2
Ntp925
Rp926
(dp927
g894
g895
sg896
I7
sg897
F2126.1540396395426
sg898
F10756.949248298317
sg899
F0.0
sg900
g901
sg902
g903
sg904
g905
sg906
NsbsI8
g0
(g890
g2
Ntp928
Rp929
(dp930
g894
g895
sg896
I8
sg897
F0.0
sg898
F13406.048690043426
sg899
F0.0
sg900
g901
sg902
g903
sg904
g905
sg906
NsbsI9
g0
(g890
g2
Ntp931
Rp932
(dp933
g894
g895
sg896
I9
sg897
F2126.1540396395426
sg898
F13406.048690043426
sg899
F0.0
sg900
g901
sg902
g903
sg904
g905
sg906
NsbsI10
g0
(g890
g2
Ntp934
Rp935
(dp936
g894
g895
sg896
I10
sg897
F0.0
sg898
F16055.148131788534
sg899
F0.0
sg900
g901
sg902
g903
sg904
g905
sg906
NsbsI11
g0
(g890
g2
Ntp937
Rp938
(dp939
g894
g895
sg896
I11
sg897
F2126.1540396395426
sg898
F16055.148131788534
sg899
F0.0
sg900
g901
sg902
g903
sg904
g905
sg906
NsbsI12
g0
(g890
g2
Ntp940
Rp941
(dp942
g894
g895
sg896
I12
sg897
F4252.3080792790852
sg898
F0.0
sg899
F0.0
sg900
g901
sg902
g903
sg904
g905
sg906
NsbsI13
g0
(g890
g2
Ntp943
Rp944
(dp945
g894
g895
sg896
I13
sg897
F4252.3080792790852
sg898
F2649.0994417451084
sg899
F0.0
sg900
g901
sg902
g903
sg904
g905
sg906
NsbsI14
g0
(g890
g2
Ntp946
Rp947
(dp948
g894
g895
sg896
I14
sg897
F4252.3080792790852
sg898
F5298.1988834902168
sg899
F0.0
sg900
g901
sg902
g903
sg904
g905
sg906
NsbsI15
g0
(g890
g2
Ntp949
Rp950
(dp951
g894
g895
sg896
I15
sg897
F4252.3080792790852
sg898
F10756.949248298317
sg899
F0.0
sg900
g901
sg902
g903
sg904
g905
sg906
NsbsI16
g0
(g890
g2
Ntp952
Rp953
(dp954
g894
g895
sg896
I16
sg897
F4252.3080792790852
sg898
F13406.048690043426
sg899
F0.0
sg900
g901
sg902
g903
sg904
g905
sg906
NsbsI17
g0
(g890
g2
Ntp955
Rp956
(dp957
g894
g895
sg896
I17
sg897
F4252.3080792790852
sg898
F16055.148131788534
sg899
F0.0
sg900
g901
sg902
g903
sg904
g905
sg906
NsbsI18
g0
(g890
g2
Ntp958
Rp959
(dp960
g894
g895
sg896
I18
sg897
F6442.8910292107348
sg898
F0.0
sg899
F0.0
sg900
g901
sg902
g903
sg904
g905
sg906
NsbsI19
g0
(g890
g2
Ntp961
Rp962
(dp963
g894
g895
sg896
I19
sg897
F6442.8910292107348
sg898
F2649.0994417451084
sg899
F0.0
sg900
g901
sg902
g903
sg904
g905
sg906
NsbsI20
g0
(g890
g2
Ntp964
Rp965
(dp966
g894
g895
sg896
I20
sg897
F6442.8910292107348
sg898
F5298.1988834902168
sg899
F0.0
sg900
g901
sg902
g903
sg904
g905
sg906
NsbsI21
g0
(g890
g2
Ntp967
Rp968
(dp969
g894
g895
sg896
I21
sg897
F6442.8910292107348
sg898
F10756.949248298317
sg899
F0.0
sg900
g901
sg902
g903
sg904
g905
sg906
NsbsI22
g0
(g890
g2
Ntp970
Rp971
(dp972
g894
g895
sg896
I22
sg897
F6442.8910292107348
sg898
F13406.048690043426
sg899
F0.0
sg900
g901
sg902
g903
sg904
g905
sg906
NsbsI23
g0
(g890
g2
Ntp973
Rp974
(dp975
g894
g895
sg896
I23
sg897
F6442.8910292107348
sg898
F16055.148131788534
sg899
F0.0
sg900
g901
sg902
g903
sg904
g905
sg906
NsbsI24
g0
(g890
g2
Ntp976
Rp977
(dp978
g894
g895
sg896
I24
sg897
F0.0
sg898
F8027.5740658942668
sg899
F0.0
sg900
g901
sg902
g903
sg904
g905
sg906
NsbsI25
g0
(g890
g2
Ntp979
Rp980
(dp981
g894
g895
sg896
I25
sg897
F2126.1540396395426
sg898
F8027.5740658942668
sg899
F0.0
sg900
g901
sg902
g903
sg904
g905
sg906
NsbsI26
g0
(g890
g2
Ntp982
Rp983
(dp984
g894
g895
sg896
I26
sg897
F4252.3080792790852
sg898
F8027.5740658942668
sg899
F0.0
sg900
g901
sg902
g903
sg904
g905
sg906
NsbsI27
g0
(g890
g2
Ntp985
Rp986
(dp987
g894
g895
sg896
I27
sg897
F6442.8910292107348
sg898
F8027.5740658942668
sg899
F0.0
sg900
g901
sg902
g903
sg904
g905
sg906
NsbsI28
g0
(g890
g2
Ntp988
Rp989
(dp990
g894
g895
sg896
I28
sg897
F0.0
sg898
F0.0
sg899
F-2282.6480830133023
sg900
g901
sg902
g903
sg904
g905
sg906
NsbsI29
g0
(g890
g2
Ntp991
Rp992
(dp993
g894
g895
sg896
I29
sg897
F2126.1540396395399
sg898
F0.0
sg899
F-2282.6480830133023
sg900
g901
sg902
g903
sg904
g905
sg906
NsbsI30
g0
(g890
g2
Ntp994
Rp995
(dp996
g894
g895
sg896
I30
sg897
F0.0
sg898
F0.0
sg899
F-1181.1505155275604
sg900
g901
sg902
g903
sg904
g905
sg906
NsbsI31
g0
(g890
g2
Ntp997
Rp998
(dp999
g894
g895
sg896
I31
sg897
F2126.1540396395399
sg898
F0.0
sg899
F-1181.1505155275604
sg900
g901
sg902
g903
sg904
g905
sg906
NsbsI32
g0
(g890
g2
Ntp1000
Rp1001
(dp1002
g894
g895
sg896
I32
sg897
F4252.3080792790897
sg898
F0.0
sg899
F-2282.6480830133023
sg900
g901
sg902
g903
sg904
g905
sg906
NsbsI33
g0
(g890
g2
Ntp1003
Rp1004
(dp1005
g894
g895
sg896
I33
sg897
F4252.3080792790897
sg898
F0.0
sg899
F-1181.1505155275604
sg900
g901
sg902
g903
sg904
g905
sg906
NsbsI34
g0
(g890
g2
Ntp1006
Rp1007
(dp1008
g894
g895
sg896
I34
sg897
F6442.8910292107303
sg898
F0.0
sg899
F-2282.6480830133023
sg900
g901
sg902
g903
sg904
g905
sg906
NsbsI35
g0
(g890
g2
Ntp1009
Rp1010
(dp1011
g894
g895
sg896
I35
sg897
F6442.8910292107303
sg898
F0.0
sg899
F-1181.1505155275604
sg900
g901
sg902
g903
sg904
g905
sg906
NsbsI36
g0
(g890
g2
Ntp1012
Rp1013
(dp1014
g894
g895
sg896
I36
sg897
F0.0
sg898
F0.0
sg899
F-3417.5243646652793
sg900
g901
sg902
g903
sg904
g905
sg906
NsbsI37
g0
(g890
g2
Ntp1015
Rp1016
(dp1017
g894
g895
sg896
I37
sg897
F2126.1540396395399
sg898
F0.0
sg899
F-3417.5243646652793
sg900
g901
sg902
g903
sg904
g905
sg906
NsbsI38
g0
(g890
g2
Ntp1018
Rp1019
(dp1020
g894
g895
sg896
I38
sg897
F4252.3080792790897
sg898
F0.0
sg899
F-3417.5243646652793
sg900
g901
sg902
g903
sg904
g905
sg906
NsbsI39
g0
(g890
g2
Ntp1021
Rp1022
(dp1023
g894
g895
sg896
I39
sg897
F6442.8910292107303
sg898
F0.0
sg899
F-3417.5243646652793
sg900
g901
sg902
g903
sg904
g905
sg906
NsbsI40
g0
(g890
g2
Ntp1024
Rp1025
(dp1026
g894
g895
sg896
I40
sg897
F0.0
sg898
F0.0
sg899
F-4519.0219321510212
sg900
g901
sg902
g903
sg904
g905
sg906
NsbsI41
g0
(g890
g2
Ntp1027
Rp1028
(dp1029
g894
g895
sg896
I41
sg897
F2126.1540396395399
sg898
F0.0
sg899
F-4519.0219321510212
sg900
g901
sg902
g903
sg904
g905
sg906
NsbsI42
g0
(g890
g2
Ntp1030
Rp1031
(dp1032
g894
g895
sg896
I42
sg897
F4252.3080792790897
sg898
F0.0
sg899
F-4519.0219321510212
sg900
g901
sg902
g903
sg904
g905
sg906
NsbsI43
g0
(g890
g2
Ntp1033
Rp1034
(dp1035
g894
g895
sg896
I43
sg897
F6442.8910292107303
sg898
F0.0
sg899
F-4519.0219321510212
sg900
g901
sg902
g903
sg904
g905
sg906
NsbsI44
g0
(g890
g2
Ntp1036
Rp1037
(dp1038
g894
g895
sg896
I44
sg897
F0.0
sg898
F16055.148131788534
sg899
F-2282.6480830133023
sg900
g901
sg902
g903
sg904
g905
sg906
NsbsI45
g0
(g890
g2
Ntp1039
Rp1040
(dp1041
g894
g895
sg896
I45
sg897
F2126.1540396395399
sg898
F16055.148131788534
sg899
F-2282.6480830133023
sg900
g901
sg902
g903
sg904
g905
sg906
NsbsI46
g0
(g890
g2
Ntp1042
Rp1043
(dp1044
g894
g895
sg896
I46
sg897
F0.0
sg898
F16055.148131788534
sg899
F-1181.1505155275604
sg900
g901
sg902
g903
sg904
g905
sg906
NsbsI47
g0
(g890
g2
Ntp1045
Rp1046
(dp1047
g894
g895
sg896
I47
sg897
F2126.1540396395399
sg898
F16055.148131788534
sg899
F-1181.1505155275604
sg900
g901
sg902
g903
sg904
g905
sg906
NsbsI48
g0
(g890
g2
Ntp1048
Rp1049
(dp1050
g894
g895
sg896
I48
sg897
F4252.3080792790897
sg898
F16055.148131788534
sg899
F-2282.6480830133023
sg900
g901
sg902
g903
sg904
g905
sg906
NsbsI49
g0
(g890
g2
Ntp1051
Rp1052
(dp1053
g894
g895
sg896
I49
sg897
F4252.3080792790897
sg898
F16055.148131788534
sg899
F-1181.1505155275604
sg900
g901
sg902
g903
sg904
g905
sg906
NsbsI50
g0
(g890
g2
Ntp1054
Rp1055
(dp1056
g894
g895
sg896
I50
sg897
F6442.8910292107303
sg898
F16055.148131788534
sg899
F-2282.6480830133023
sg900
g901
sg902
g903
sg904
g905
sg906
NsbsI51
g0
(g890
g2
Ntp1057
Rp1058
(dp1059
g894
g895
sg896
I51
sg897
F6442.8910292107303
sg898
F16055.148131788534
sg899
F-1181.1505155275604
sg900
g901
sg902
g903
sg904
g905
sg906
NsbsI52
g0
(g890
g2
Ntp1060
Rp1061
(dp1062
g894
g895
sg896
I52
sg897
F0.0
sg898
F16055.148131788534
sg899
F-3417.5243646652793
sg900
g901
sg902
g903
sg904
g905
sg906
NsbsI53
g0
(g890
g2
Ntp1063
Rp1064
(dp1065
g894
g895
sg896
I53
sg897
F2126.1540396395399
sg898
F16055.148131788534
sg899
F-3417.5243646652793
sg900
g901
sg902
g903
sg904
g905
sg906
NsbsI54
g0
(g890
g2
Ntp1066
Rp1067
(dp1068
g894
g895
sg896
I54
sg897
F4252.3080792790897
sg898
F16055.148131788534
sg899
F-3417.5243646652793
sg900
g901
sg902
g903
sg904
g905
sg906
NsbsI55
g0
(g890
g2
Ntp1069
Rp1070
(dp1071
g894
g895
sg896
I55
sg897
F6442.8910292107303
sg898
F16055.148131788534
sg899
F-3417.5243646652793
sg900
g901
sg902
g903
sg904
g905
sg906
NsbsI56
g0
(g890
g2
Ntp1072
Rp1073
(dp1074
g894
g895
sg896
I56
sg897
F0.0
sg898
F16055.148131788534
sg899
F-4519.0219321510212
sg900
g901
sg902
g903
sg904
g905
sg906
NsbsI57
g0
(g890
g2
Ntp1075
Rp1076
(dp1077
g894
g895
sg896
I57
sg897
F2126.1540396395399
sg898
F16055.148131788534
sg899
F-4519.0219321510212
sg900
g901
sg902
g903
sg904
g905
sg906
NsbsI58
g0
(g890
g2
Ntp1078
Rp1079
(dp1080
g894
g895
sg896
I58
sg897
F4252.3080792790897
sg898
F16055.148131788534
sg899
F-4519.0219321510212
sg900
g901
sg902
g903
sg904
g905
sg906
NsbsI59
g0
(g890
g2
Ntp1081
Rp1082
(dp1083
g894
g895
sg896
I59
sg897
F6442.8910292107303
sg898
F16055.148131788534
sg899
F-4519.0219321510212
sg900
g901
sg902
g903
sg904
g905
sg906
NsbssS'node_index'
p1084
(dp1085
S'4252.308,16055.148,-2282.648'
p1086
I48
sS'0.000,13406.049,0.000'
p1087
I8
sS'6442.891,13406.049,0.000'
p1088
I22
sS'2126.154,16055.148,-3417.524'
p1089
I53
sS'4252.308,5298.199,0.000'
p1090
I14
sS'6442.891,16055.148,-4519.022'
p1091
I59
sS'4252.308,13406.049,0.000'
p1092
I16
sS'6442.891,16055.148,-1181.151'
p1093
I51
sS'0.000,0.000,-4519.022'
p1094
I40
sS'0.000,0.000,-2282.648'
p1095
I28
sS'4252.308,0.000,-1181.151'
p1096
I33
sS'6442.891,16055.148,-3417.524'
p1097
I55
sS'4252.308,16055.148,0.000'
p1098
I17
sS'6442.891,0.000,-3417.524'
p1099
I39
sS'2126.154,16055.148,0.000'
p1100
I11
sS'2126.154,0.000,-2282.648'
p1101
I29
sS'6442.891,16055.148,0.000'
p1102
I23
sS'4252.308,16055.148,-4519.022'
p1103
I58
sS'6442.891,0.000,-2282.648'
p1104
I34
sS'2126.154,16055.148,-1181.151'
p1105
I47
sS'4252.308,0.000,-3417.524'
p1106
I38
sS'6442.891,5298.199,0.000'
p1107
I20
sS'0.000,8027.574,0.000'
p1108
I24
sS'6442.891,16055.148,-2282.648'
p1109
I50
sS'0.000,0.000,-3417.524'
p1110
I36
sS'2126.154,0.000,-4519.022'
p1111
I41
sS'0.000,0.000,0.000'
p1112
I0
sS'0.000,16055.148,-2282.648'
p1113
I44
sS'4252.308,0.000,0.000'
p1114
I12
sS'0.000,10756.949,0.000'
p1115
I6
sS'4252.308,0.000,-2282.648'
p1116
I32
sS'4252.308,16055.148,-3417.524'
p1117
I54
sS'4252.308,16055.148,-1181.151'
p1118
I49
sS'4252.308,2649.099,0.000'
p1119
I13
sS'4252.308,8027.574,0.000'
p1120
I26
sS'6442.891,10756.949,0.000'
p1121
I21
sS'6442.891,8027.574,0.000'
p1122
I27
sS'4252.308,10756.949,0.000'
p1123
I15
sS'6442.891,0.000,-4519.022'
p1124
I43
sS'2126.154,16055.148,-2282.648'
p1125
I45
sS'2126.154,0.000,-3417.524'
p1126
I37
sS'2126.154,16055.148,-4519.022'
p1127
I57
sS'6442.891,0.000,0.000'
p1128
I18
sS'0.000,0.000,-1181.151'
p1129
I30
sS'0.000,5298.199,0.000'
p1130
I4
sS'4252.308,0.000,-4519.022'
p1131
I42
sS'0.000,16055.148,0.000'
p1132
I10
sS'2126.154,2649.099,0.000'
p1133
I3
sS'2126.154,13406.049,0.000'
p1134
I9
sS'2126.154,0.000,-1181.151'
p1135
I31
sS'6442.891,0.000,-1181.151'
p1136
I35
sS'2126.154,8027.574,0.000'
p1137
I25
sS'2126.154,0.000,0.000'
p1138
I1
sS'2126.154,10756.949,0.000'
p1139
I7
sS'6442.891,2649.099,0.000'
p1140
I19
sS'0.000,16055.148,-1181.151'
p1141
I46
sS'0.000,16055.148,-4519.022'
p1142
I56
sS'0.000,2649.099,0.000'
p1143
I2
sS'0.000,16055.148,-3417.524'
p1144
I52
sS'2126.154,5298.199,0.000'
p1145
I5
ssS'path'
p1146
S'C:\\Temp\\'
p1147
sS'results'
p1148
(dp1149
S'step_2'
p1150
S'ERROR'
p1151
sS'step_3'
p1152
g1151
sS'step_4'
p1153
g1151
sS'step_1'
p1154
g1151
ssS'sections'
p1155
(dp1156
g367
g0
(ccompas_fea.structure.section
ShellSection
p1157
g2
Ntp1158
Rp1159
(dp1160
g15
I1
sS'__name__'
p1161
S'ShellSection'
p1162
sS'name'
p1163
g367
sS'geometry'
p1164
(dp1165
S't'
p1166
F938.86696474682685
ssS'loc_coords_OR'
p1167
(dp1168
S'ORxyz'
p1169
(lp1170
I0
aI0
aF-3337.8714166200002
assS'loc_coords_XA'
p1171
(dp1172
S'XAxyz'
p1173
(lp1174
I1
aI0
aF-3337.8714166200002
assS'loc_coords_YA'
p1175
(dp1176
S'YAxyz'
p1177
(lp1178
F3337.8714166200002
aF-3337.8714166200002
aF-3336.8714166200002
assS'loc_coords_EV_XA'
p1179
(dp1180
S'EV_XA'
p1181
(lp1182
F1.0
aF0.0
aF0.0
assS'loc_coords_EV_YA'
p1183
(dp1184
S'EV_YA'
p1185
(lp1186
F0.70710676531987759
aF-0.70710676531987759
aF0.00021184362039802868
assS'loc_coords_EV_ZA'
p1187
(dp1188
S'EV_ZA'
p1189
(lp1190
F0.0
aF-1.0
aF0.0
assS'nr_layers'
p1191
(dp1192
S'nn'
p1193
F86.0
ssS'offset'
p1194
(dp1195
S'mode'
p1196
S'mid'
p1197
ssbsg381
g0
(g1157
g2
Ntp1198
Rp1199
(dp1200
g15
I0
sg1161
g1162
sg1163
g381
sg1164
(dp1201
g1166
F1181.1505155275604
ssg1167
(dp1202
g1169
(lp1203
I0
aI0
aI0
assg1171
(dp1204
g1173
(lp1205
I1
aI0
aI0
assg1175
(dp1206
g1177
(lp1207
F0.0
aF1.0
aF0.0
assg1179
(dp1208
g1181
(lp1209
F1.0
aF0.0
aF0.0
assg1183
(dp1210
g1185
(lp1211
F0.0
aF1.0
aF0.0
assg1187
(dp1212
g1189
(lp1213
F0.0
aF0.0
aF1.0
assg1191
(dp1214
g1193
F79.0
ssg1194
(dp1215
g1196
S'top'
p1216
ssbsg358
g0
(g1157
g2
Ntp1217
Rp1218
(dp1219
g15
I2
sg1161
g1162
sg1163
g358
sg1164
(dp1220
g1166
F938.86696474682685
ssg1167
(dp1221
g1169
(lp1222
I0
aF16055.148131800001
aF-3337.8714166200002
assg1171
(dp1223
g1173
(lp1224
I1
aF16055.148131800001
aF-3337.8714166200002
assg1175
(dp1225
g1177
(lp1226
F-3337.8714166209102
aF12717.27671518
aF-19394.019548420001
assg1179
(dp1227
g1181
(lp1228
F1.0
aF0.0
aF0.0
assg1183
(dp1229
g1185
(lp1230
F-0.19944653158014997
aF-0.19944653158009562
aF-0.9593967698931023
assg1187
(dp1231
g1189
(lp1232
F0.0
aF1.0
aF0.0
assg1191
(dp1233
g1193
F86.0
ssg1194
(dp1234
g1196
g1197
ssbsg451
g0
(ccompas_fea.structure.section
MPCSection
p1235
g2
Ntp1236
Rp1237
(dp1238
g15
I3
sg1161
S'MPCSection'
p1239
sg1163
g451
sg1164
NsS'nr_layers'
p1240
NsbssS'sets'
p1241
(dp1242
g476
g0
(ccompas_fea.structure.set
Set
p1243
g2
Ntp1244
Rp1245
(dp1246
S'__name__'
p1247
S'Set'
p1248
sS'name'
p1249
g476
sS'type'
p1250
S'element'
p1251
sS'selection'
p1252
(lp1253
I22
asS'index'
p1254
I13
sbsg452
g0
(g1243
g2
Ntp1255
Rp1256
(dp1257
g1247
g1248
sg1249
g452
sg1250
g1251
sg1252
(lp1258
I36
aI37
aI38
aI39
aI40
aI41
aI42
aI43
asg1254
I27
sbsg360
g0
(g1243
g2
Ntp1259
Rp1260
(dp1261
g1247
g1248
sg1249
g360
sg1250
g1251
sg1252
(lp1262
I30
asg1254
I21
sbsg406
g0
(g1243
g2
Ntp1263
Rp1264
(dp1265
g1247
g1248
sg1249
g406
sg1250
g1251
sg1252
(lp1266
I4
aI5
asg1254
I2
sbsg372
g0
(g1243
g2
Ntp1267
Rp1268
(dp1269
g1247
g1248
sg1249
g372
sg1250
g1251
sg1252
(lp1270
I25
asg1254
I16
sbsg468
g0
(g1243
g2
Ntp1271
Rp1272
(dp1273
g1247
g1248
sg1249
g468
sg1250
g1251
sg1252
(lp1274
I27
asg1254
I18
sbsg446
g0
(g1243
g2
Ntp1275
Rp1276
(dp1277
g1247
g1248
sg1249
g446
sg1250
g1251
sg1252
(lp1278
I2
aI3
asg1254
I1
sbsg382
g0
(g1243
g2
Ntp1279
Rp1280
(dp1281
g1247
g1248
sg1249
g382
sg1250
g1251
sg1252
(lp1282
I0
aI1
asg1254
I0
sbsg434
g0
(g1243
g2
Ntp1283
Rp1284
(dp1285
g1247
g1248
sg1249
g434
sg1250
g1251
sg1252
(lp1286
I12
aI13
asg1254
I6
sbsg472
g0
(g1243
g2
Ntp1287
Rp1288
(dp1289
g1247
g1248
sg1249
g472
sg1250
g1251
sg1252
(lp1290
I10
aI11
asg1254
I5
sbsg398
g0
(g1243
g2
Ntp1291
Rp1292
(dp1293
g1247
g1248
sg1249
g398
sg1250
g1251
sg1252
(lp1294
I8
aI9
asg1254
I4
sbsg442
g0
(g1243
g2
Ntp1295
Rp1296
(dp1297
g1247
g1248
sg1249
g442
sg1250
g1251
sg1252
(lp1298
I6
aI7
asg1254
I3
sbsg390
g0
(g1243
g2
Ntp1299
Rp1300
(dp1301
g1247
g1248
sg1249
g390
sg1250
g1251
sg1252
(lp1302
I16
aI17
asg1254
I8
sbsg426
g0
(g1243
g2
Ntp1303
Rp1304
(dp1305
g1247
g1248
sg1249
g426
sg1250
g1251
sg1252
(lp1306
I14
aI15
asg1254
I7
sbsg402
g0
(g1243
g2
Ntp1307
Rp1308
(dp1309
g1247
g1248
sg1249
g402
sg1250
g1251
sg1252
(lp1310
I20
asg1254
I11
sbsg464
g0
(g1243
g2
Ntp1311
Rp1312
(dp1313
g1247
g1248
sg1249
g464
sg1250
g1251
sg1252
(lp1314
I35
asg1254
I26
sbsg414
g0
(g1243
g2
Ntp1315
Rp1316
(dp1317
g1247
g1248
sg1249
g414
sg1250
g1251
sg1252
(lp1318
I32
asg1254
I23
sbsg394
g0
(g1243
g2
Ntp1319
Rp1320
(dp1321
g1247
g1248
sg1249
g394
sg1250
g1251
sg1252
(lp1322
I23
asg1254
I14
sbsg410
g0
(g1243
g2
Ntp1323
Rp1324
(dp1325
g1247
g1248
sg1249
g410
sg1250
g1251
sg1252
(lp1326
I29
asg1254
I20
sbsg430
g0
(g1243
g2
Ntp1327
Rp1328
(dp1329
g1247
g1248
sg1249
g430
sg1250
g1251
sg1252
(lp1330
I18
asg1254
I9
sbsg422
g0
(g1243
g2
Ntp1331
Rp1332
(dp1333
g1247
g1248
sg1249
g422
sg1250
g1251
sg1252
(lp1334
I26
asg1254
I17
sbsg35
g0
(g1243
g2
Ntp1335
Rp1336
(dp1337
g1247
g1248
sg1249
g35
sg1250
S'node'
p1338
sg1252
(lp1339
I59
aI58
aI57
aI56
asg1254
I29
sbsg418
g0
(g1243
g2
Ntp1340
Rp1341
(dp1342
g1247
g1248
sg1249
g418
sg1250
g1251
sg1252
(lp1343
I21
asg1254
I12
sbsg438
g0
(g1243
g2
Ntp1344
Rp1345
(dp1346
g1247
g1248
sg1249
g438
sg1250
g1251
sg1252
(lp1347
I34
asg1254
I25
sbsg386
g0
(g1243
g2
Ntp1348
Rp1349
(dp1350
g1247
g1248
sg1249
g386
sg1250
g1251
sg1252
(lp1351
I31
asg1254
I22
sbsg20
g0
(g1243
g2
Ntp1352
Rp1353
(dp1354
g1247
g1248
sg1249
g20
sg1250
g1338
sg1252
(lp1355
I43
aI42
aI41
aI40
asg1254
I28
sbsg456
g0
(g1243
g2
Ntp1356
Rp1357
(dp1358
g1247
g1248
sg1249
g456
sg1250
g1251
sg1252
(lp1359
I24
asg1254
I15
sbsg376
g0
(g1243
g2
Ntp1360
Rp1361
(dp1362
g1247
g1248
sg1249
g376
sg1250
g1251
sg1252
(lp1363
I28
asg1254
I19
sbsg368
g0
(g1243
g2
Ntp1364
Rp1365
(dp1366
g1247
g1248
sg1249
g368
sg1250
g1251
sg1252
(lp1367
I19
asg1254
I10
sbsg460
g0
(g1243
g2
Ntp1368
Rp1369
(dp1370
g1247
g1248
sg1249
g460
sg1250
g1251
sg1252
(lp1371
I33
asg1254
I24
sbssS'steps'
p1372
(dp1373
g1150
g0
(ccompas_fea.structure.step
GeneralStep
p1374
g2
Ntp1375
Rp1376
(dp1377
g15
I1
sS'__name__'
p1378
S'GeneralStep'
p1379
sS'name'
p1380
g1150
sS'attr_list'
p1381
(lp1382
g499
aS'increments'
p1383
aS'iterations'
p1384
aS'factor'
p1385
aS'nlgeom'
p1386
aS'nlmat'
p1387
aS'displacements'
p1388
aS'loads'
p1389
aS'type'
p1390
aS'tolerance'
p1391
aS'modify'
p1392
asS'increments'
p1393
I1
sS'iterations'
p1394
I100
sS'tolerance'
p1395
F0.01
sS'factor'
p1396
F1.0
sS'nlgeom'
p1397
I00
sS'nlmat'
p1398
I01
sS'displacements'
p1399
(lp1400
sS'loads'
p1401
(lp1402
g533
asS'modify'
p1403
I01
sS'type'
p1404
S'static'
p1405
sbsg1152
g0
(g1374
g2
Ntp1406
Rp1407
(dp1408
g15
I2
sg1378
g1379
sg1380
g1152
sg1381
(lp1409
g499
ag1383
ag1384
ag1385
ag1386
ag1387
ag1388
ag1389
ag1390
ag1391
ag1392
asg1393
I1
sg1394
I100
sg1395
F0.01
sg1396
F1.0
sg1397
I00
sg1398
I01
sg1399
(lp1410
sg1401
(lp1411
g526
ag519
ag512
asg1403
I01
sg1404
g1405
sbsg1153
g0
(g1374
g2
Ntp1412
Rp1413
(dp1414
g15
I3
sg1378
g1379
sg1380
g1153
sg1381
(lp1415
g499
ag1383
ag1384
ag1385
ag1386
ag1387
ag1388
ag1389
ag1390
ag1391
ag1392
asg1393
I1
sg1394
I100
sg1395
F0.01
sg1396
F1.0
sg1397
I00
sg1398
I01
sg1399
(lp1416
sg1401
(lp1417
g481
ag504
asg1403
I01
sg1404
g1405
sbsg1154
g0
(g1374
g2
Ntp1418
Rp1419
(dp1420
g15
I0
sg1378
g1379
sg1380
g1154
sg1381
(lp1421
g499
ag1383
ag1384
ag1385
ag1386
ag1387
ag1388
ag1389
ag1390
ag1391
ag1392
asg1393
I1
sg1394
I100
sg1395
F0.01
sg1396
F1.0
sg1397
I00
sg1398
I01
sg1399
(lp1422
g10
ag31
asg1401
(lp1423
sg1403
I01
sg1404
g1405
sbssS'loc_coor'
p1424
(dp1425
sS'steps_order'
p1426
(lp1427
g1154
ag1150
ag1152
ag1153
asS'tol'
p1428
S'3'
p1429
sS'virtual_nodes'
p1430
(dp1431
sS'virtual_node_index'
p1432
(dp1433
sS'virtual_elements'
p1434
(dp1435
sS'virtual_element_index'
p1436
(dp1437
sb.