ccopy_reg
_reconstructor
p0
(ccompas_fea.structure.structure
Structure
p1
c__builtin__
object
p2
Ntp3
Rp4
(dp5
S'constraints'
p6
(dp7
sS'displacements'
p8
(dp9
S'nset_pinned_set_disp_1'
p10
g0
(ccompas_fea.structure.displacement
GeneralDisplacement
p11
g2
Ntp12
Rp13
(dp14
S'index'
p15
I0
sS'__name__'
p16
S'GeneralDisplacement'
p17
sS'name'
p18
g10
sS'nodes'
p19
S'nset_support_wall1'
p20
sS'components'
p21
(dp22
S'z'
p23
I0
sS'xx'
p24
I0
sS'zz'
p25
I0
sS'yy'
p26
I0
sS'y'
p27
I0
sS'x'
p28
I0
ssS'axes'
p29
S'global'
p30
sbsS'nset_pinned_set_disp_2'
p31
g0
(g11
g2
Ntp32
Rp33
(dp34
g15
I1
sg16
g17
sg18
g31
sg19
S'nset_support_wall2'
p35
sg21
(dp36
g23
I0
sg24
I0
sg25
I0
sg26
I0
sg27
I0
sg28
I0
ssg29
g30
sbssS'elements'
p37
(dp38
I0
g0
(ccompas_fea.structure.element
ShellElement
p39
g2
Ntp40
Rp41
(dp42
S'mass'
p43
NsS'__name__'
p44
S'ShellElement'
p45
sS'nodes'
p46
(lp47
I0
aI1
aI3
aI2
asS'number'
p48
I0
sS'thermal'
p49
I00
sS'axes'
p50
(dp51
S'ey'
p52
NsS'ez'
p53
NsS'ex'
p54
NssS'element_property'
p55
S'elset_plate_1_element_prop'
p56
sbsI1
g0
(g39
g2
Ntp57
Rp58
(dp59
g43
Nsg44
g45
sg46
(lp60
I2
aI3
aI5
aI4
asg48
I1
sg49
I00
sg50
g51
sg55
g56
sbsI2
g0
(g39
g2
Ntp61
Rp62
(dp63
g43
Nsg44
g45
sg46
(lp64
I6
aI7
aI9
aI8
asg48
I2
sg49
I00
sg50
(dp65
g52
Nsg53
Nsg54
Nssg55
S'elset_plate_2_element_prop'
p66
sbsI3
g0
(g39
g2
Ntp67
Rp68
(dp69
g43
Nsg44
g45
sg46
(lp70
I8
aI9
aI11
aI10
asg48
I3
sg49
I00
sg50
g65
sg55
g66
sbsI4
g0
(g39
g2
Ntp71
Rp72
(dp73
g43
Nsg44
g45
sg46
(lp74
I1
aI12
aI13
aI3
asg48
I4
sg49
I00
sg50
(dp75
g52
Nsg53
Nsg54
Nssg55
S'elset_plate_3_element_prop'
p76
sbsI5
g0
(g39
g2
Ntp77
Rp78
(dp79
g43
Nsg44
g45
sg46
(lp80
I3
aI13
aI14
aI5
asg48
I5
sg49
I00
sg50
g75
sg55
g76
sbsI6
g0
(g39
g2
Ntp81
Rp82
(dp83
g43
Nsg44
g45
sg46
(lp84
I7
aI15
aI16
aI9
asg48
I6
sg49
I00
sg50
(dp85
g52
Nsg53
Nsg54
Nssg55
S'elset_plate_4_element_prop'
p86
sbsI7
g0
(g39
g2
Ntp87
Rp88
(dp89
g43
Nsg44
g45
sg46
(lp90
I9
aI16
aI17
aI11
asg48
I7
sg49
I00
sg50
g85
sg55
g86
sbsI8
g0
(g39
g2
Ntp91
Rp92
(dp93
g43
Nsg44
g45
sg46
(lp94
I12
aI18
aI19
aI13
asg48
I8
sg49
I00
sg50
(dp95
g52
Nsg53
Nsg54
Nssg55
S'elset_plate_5_element_prop'
p96
sbsI9
g0
(g39
g2
Ntp97
Rp98
(dp99
g43
Nsg44
g45
sg46
(lp100
I13
aI19
aI20
aI14
asg48
I9
sg49
I00
sg50
g95
sg55
g96
sbsI10
g0
(g39
g2
Ntp101
Rp102
(dp103
g43
Nsg44
g45
sg46
(lp104
I15
aI21
aI22
aI16
asg48
I10
sg49
I00
sg50
(dp105
g52
Nsg53
Nsg54
Nssg55
S'elset_plate_6_element_prop'
p106
sbsI11
g0
(g39
g2
Ntp107
Rp108
(dp109
g43
Nsg44
g45
sg46
(lp110
I16
aI22
aI23
aI17
asg48
I11
sg49
I00
sg50
g105
sg55
g106
sbsI12
g0
(g39
g2
Ntp111
Rp112
(dp113
g43
Nsg44
g45
sg46
(lp114
I4
aI5
aI25
aI24
asg48
I12
sg49
I00
sg50
(dp115
g52
Nsg53
Nsg54
Nssg55
S'elset_plate_7_element_prop'
p116
sbsI13
g0
(g39
g2
Ntp117
Rp118
(dp119
g43
Nsg44
g45
sg46
(lp120
I24
aI25
aI7
aI6
asg48
I13
sg49
I00
sg50
g115
sg55
g116
sbsI14
g0
(g39
g2
Ntp121
Rp122
(dp123
g43
Nsg44
g45
sg46
(lp124
I5
aI14
aI26
aI25
asg48
I14
sg49
I00
sg50
(dp125
g52
Nsg53
Nsg54
Nssg55
S'elset_plate_8_element_prop'
p126
sbsI15
g0
(g39
g2
Ntp127
Rp128
(dp129
g43
Nsg44
g45
sg46
(lp130
I25
aI26
aI15
aI7
asg48
I15
sg49
I00
sg50
g125
sg55
g126
sbsI16
g0
(g39
g2
Ntp131
Rp132
(dp133
g43
Nsg44
g45
sg46
(lp134
I14
aI20
aI27
aI26
asg48
I16
sg49
I00
sg50
(dp135
g52
Nsg53
Nsg54
Nssg55
S'elset_plate_9_element_prop'
p136
sbsI17
g0
(g39
g2
Ntp137
Rp138
(dp139
g43
Nsg44
g45
sg46
(lp140
I26
aI27
aI21
aI15
asg48
I17
sg49
I00
sg50
g135
sg55
g136
sbsI18
g0
(g39
g2
Ntp141
Rp142
(dp143
g43
Nsg44
g45
sg46
(lp144
I28
aI29
aI31
aI30
asg48
I18
sg49
I00
sg50
(dp145
g52
Nsg53
Nsg54
Nssg55
S'elset_wall_1_1_element_prop'
p146
sbsI19
g0
(g39
g2
Ntp147
Rp148
(dp149
g43
Nsg44
g45
sg46
(lp150
I29
aI32
aI33
aI31
asg48
I19
sg49
I00
sg50
(dp151
g52
Nsg53
Nsg54
Nssg55
S'elset_wall_1_2_element_prop'
p152
sbsI20
g0
(g39
g2
Ntp153
Rp154
(dp155
g43
Nsg44
g45
sg46
(lp156
I32
aI34
aI35
aI33
asg48
I20
sg49
I00
sg50
(dp157
g52
Nsg53
Nsg54
Nssg55
S'elset_wall_1_3_element_prop'
p158
sbsI21
g0
(g39
g2
Ntp159
Rp160
(dp161
g43
Nsg44
g45
sg46
(lp162
I36
aI37
aI29
aI28
asg48
I21
sg49
I00
sg50
(dp163
g52
Nsg53
Nsg54
Nssg55
S'elset_wall_1_4_element_prop'
p164
sbsI22
g0
(g39
g2
Ntp165
Rp166
(dp167
g43
Nsg44
g45
sg46
(lp168
I37
aI38
aI32
aI29
asg48
I22
sg49
I00
sg50
(dp169
g52
Nsg53
Nsg54
Nssg55
S'elset_wall_1_5_element_prop'
p170
sbsI23
g0
(g39
g2
Ntp171
Rp172
(dp173
g43
Nsg44
g45
sg46
(lp174
I38
aI39
aI34
aI32
asg48
I23
sg49
I00
sg50
(dp175
g52
Nsg53
Nsg54
Nssg55
S'elset_wall_1_6_element_prop'
p176
sbsI24
g0
(g39
g2
Ntp177
Rp178
(dp179
g43
Nsg44
g45
sg46
(lp180
I40
aI41
aI37
aI36
asg48
I24
sg49
I00
sg50
(dp181
g52
Nsg53
Nsg54
Nssg55
S'elset_wall_1_7_element_prop'
p182
sbsI25
g0
(g39
g2
Ntp183
Rp184
(dp185
g43
Nsg44
g45
sg46
(lp186
I41
aI42
aI38
aI37
asg48
I25
sg49
I00
sg50
(dp187
g52
Nsg53
Nsg54
Nssg55
S'elset_wall_1_8_element_prop'
p188
sbsI26
g0
(g39
g2
Ntp189
Rp190
(dp191
g43
Nsg44
g45
sg46
(lp192
I42
aI43
aI39
aI38
asg48
I26
sg49
I00
sg50
(dp193
g52
Nsg53
Nsg54
Nssg55
S'elset_wall_1_9_element_prop'
p194
sbsI27
g0
(g39
g2
Ntp195
Rp196
(dp197
g43
Nsg44
g45
sg46
(lp198
I44
aI46
aI47
aI45
asg48
I27
sg49
I00
sg50
(dp199
g52
Nsg53
Nsg54
Nssg55
S'elset_wall_2_1_element_prop'
p200
sbsI28
g0
(g39
g2
Ntp201
Rp202
(dp203
g43
Nsg44
g45
sg46
(lp204
I45
aI47
aI49
aI48
asg48
I28
sg49
I00
sg50
(dp205
g52
Nsg53
Nsg54
Nssg55
S'elset_wall_2_2_element_prop'
p206
sbsI29
g0
(g39
g2
Ntp207
Rp208
(dp209
g43
Nsg44
g45
sg46
(lp210
I48
aI49
aI51
aI50
asg48
I29
sg49
I00
sg50
(dp211
g52
Nsg53
Nsg54
Nssg55
S'elset_wall_2_3_element_prop'
p212
sbsI30
g0
(g39
g2
Ntp213
Rp214
(dp215
g43
Nsg44
g45
sg46
(lp216
I52
aI44
aI45
aI53
asg48
I30
sg49
I00
sg50
(dp217
g52
Nsg53
Nsg54
Nssg55
S'elset_wall_2_4_element_prop'
p218
sbsI31
g0
(g39
g2
Ntp219
Rp220
(dp221
g43
Nsg44
g45
sg46
(lp222
I53
aI45
aI48
aI54
asg48
I31
sg49
I00
sg50
(dp223
g52
Nsg53
Nsg54
Nssg55
S'elset_wall_2_5_element_prop'
p224
sbsI32
g0
(g39
g2
Ntp225
Rp226
(dp227
g43
Nsg44
g45
sg46
(lp228
I54
aI48
aI50
aI55
asg48
I32
sg49
I00
sg50
(dp229
g52
Nsg53
Nsg54
Nssg55
S'elset_wall_2_6_element_prop'
p230
sbsI33
g0
(g39
g2
Ntp231
Rp232
(dp233
g43
Nsg44
g45
sg46
(lp234
I56
aI52
aI53
aI57
asg48
I33
sg49
I00
sg50
(dp235
g52
Nsg53
Nsg54
Nssg55
S'elset_wall_2_7_element_prop'
p236
sbsI34
g0
(g39
g2
Ntp237
Rp238
(dp239
g43
Nsg44
g45
sg46
(lp240
I57
aI53
aI54
aI58
asg48
I34
sg49
I00
sg50
(dp241
g52
Nsg53
Nsg54
Nssg55
S'elset_wall_2_8_element_prop'
p242
sbsI35
g0
(g39
g2
Ntp243
Rp244
(dp245
g43
Nsg44
g45
sg46
(lp246
I58
aI54
aI55
aI59
asg48
I35
sg49
I00
sg50
(dp247
g52
Nsg53
Nsg54
Nssg55
S'elset_wall_2_9_element_prop'
p248
sbsI36
g0
(ccompas_fea.structure.element
MPCElement
p249
g2
Ntp250
Rp251
(dp252
g43
Nsg44
S'MPCElement'
p253
sg46
(lp254
I51
aI23
asg48
I36
sg49
I00
sg50
(dp255
g52
Nsg53
(lp256
F4.5474735088646412e-12
aF0.0
aF739.66668904996106
asg54
Nssg55
S'elset_mpc_element_prop'
p257
sbsI37
g0
(g249
g2
Ntp258
Rp259
(dp260
g43
Nsg44
g253
sg46
(lp261
I49
aI17
asg48
I37
sg49
I00
sg50
(dp262
g52
Nsg53
(lp263
F4.0927261579781771e-12
aF0.0
aF739.66668904996106
asg54
Nssg55
g257
sbsI38
g0
(g249
g2
Ntp264
Rp265
(dp266
g43
Nsg44
g253
sg46
(lp267
I47
aI11
asg48
I38
sg49
I00
sg50
(dp268
g52
Nsg53
(lp269
F-2.9558577807620168e-12
aF0.0
aF739.66668904996106
asg54
Nssg55
g257
sbsI39
g0
(g249
g2
Ntp270
Rp271
(dp272
g43
Nsg44
g253
sg46
(lp273
I46
aI10
asg48
I39
sg49
I00
sg50
(dp274
g52
Nsg53
(lp275
F0.0
aF0.0
aF739.66668904996106
asg54
Nssg55
g257
sbsI40
g0
(g249
g2
Ntp276
Rp277
(dp278
g43
Nsg44
g253
sg46
(lp279
I35
aI18
asg48
I40
sg49
I00
sg50
(dp280
g52
Nsg53
(lp281
F4.5474735088646412e-12
aF0.0
aF739.66668904996106
asg54
Nssg55
g257
sbsI41
g0
(g249
g2
Ntp282
Rp283
(dp284
g43
Nsg44
g253
sg46
(lp285
I33
aI12
asg48
I41
sg49
I00
sg50
(dp286
g52
Nsg53
(lp287
F4.0927261579781771e-12
aF0.0
aF739.66668904996106
asg54
Nssg55
g257
sbsI42
g0
(g249
g2
Ntp288
Rp289
(dp290
g43
Nsg44
g253
sg46
(lp291
I31
aI1
asg48
I42
sg49
I00
sg50
(dp292
g52
Nsg53
(lp293
F-2.9558577807620168e-12
aF0.0
aF739.66668904996106
asg54
Nssg55
g257
sbsI43
g0
(g249
g2
Ntp294
Rp295
(dp296
g43
Nsg44
g253
sg46
(lp297
I30
aI0
asg48
I43
sg49
I00
sg50
(dp298
g52
Nsg53
(lp299
F0.0
aF0.0
aF739.66668904996106
asg54
Nssg55
g257
sbssS'element_index'
p300
(dp301
S'3117.473,0.000,-369.833'
p302
I41
sS'3920.458,11216.227,-1438.027'
p303
I29
sS'2338.105,8440.211,0.000'
p304
I6
sS'2338.105,0.000,-4273.795'
p305
I25
sS'779.368,11216.227,-4273.795'
p306
I33
sS'3117.473,11216.227,-369.833'
p307
I37
sS'779.368,0.000,-2855.911'
p308
I21
sS'779.368,4654.734,0.000'
p309
I12
sS'1558.736,11216.227,-369.833'
p310
I38
sS'2338.105,11216.227,-2855.911'
p311
I31
sS'3920.458,10290.889,0.000'
p312
I11
sS'2338.105,4654.734,0.000'
p313
I14
sS'3920.458,2776.016,0.000'
p314
I9
sS'2338.105,0.000,-2855.911'
p315
I22
sS'2338.105,11216.227,-4273.795'
p316
I34
sS'3920.458,6561.493,0.000'
p317
I17
sS'3920.458,925.339,0.000'
p318
I8
sS'779.368,925.339,0.000'
p319
I0
sS'3920.458,0.000,-4273.795'
p320
I26
sS'3920.458,11216.227,-2855.911'
p321
I32
sS'3920.458,11216.227,-4273.795'
p322
I35
sS'779.368,10290.889,0.000'
p323
I3
sS'2338.105,10290.889,0.000'
p324
I7
sS'779.368,11216.227,-2855.911'
p325
I30
sS'2338.105,11216.227,-1438.027'
p326
I28
sS'779.368,2776.016,0.000'
p327
I1
sS'779.368,6561.493,0.000'
p328
I13
sS'1558.736,0.000,-369.833'
p329
I42
sS'779.368,0.000,-1438.027'
p330
I18
sS'3920.458,4654.734,0.000'
p331
I16
sS'2338.105,0.000,-1438.027'
p332
I19
sS'779.368,8440.211,0.000'
p333
I2
sS'779.368,11216.227,-1438.027'
p334
I27
sS'4723.444,11216.227,-369.833'
p335
I36
sS'3920.458,0.000,-2855.911'
p336
I23
sS'2338.105,6561.493,0.000'
p337
I15
sS'3920.458,0.000,-1438.027'
p338
I20
sS'779.368,0.000,-4273.795'
p339
I24
sS'2338.105,925.339,0.000'
p340
I4
sS'0.000,0.000,-369.833'
p341
I43
sS'3920.458,8440.211,0.000'
p342
I10
sS'2338.105,2776.016,0.000'
p343
I5
sS'4723.444,0.000,-369.833'
p344
I40
sS'0.000,11216.227,-369.833'
p345
I39
ssS'element_properties'
p346
(dp347
g218
g0
(ccompas_fea.structure.element_properties
ElementProperties
p348
g2
Ntp349
Rp350
(dp351
g15
I21
sS'__name__'
p352
S'ElementProperties'
p353
sS'name'
p354
g218
sS'material'
p355
S'wall_element_mat'
p356
sS'section'
p357
S'wall2_element_sec'
p358
sS'elset'
p359
S'elset_wall_2_4'
p360
sS'elements'
p361
NsS'rebar'
p362
(dp363
sbsg152
g0
(g348
g2
Ntp364
Rp365
(dp366
g15
I10
sg352
g353
sg354
g152
sg355
g356
sg357
S'wall1_element_sec'
p367
sg359
S'elset_wall_1_2'
p368
sg361
Nsg362
g363
sbsg188
g0
(g348
g2
Ntp369
Rp370
(dp371
g15
I16
sg352
g353
sg354
g188
sg355
g356
sg357
g367
sg359
S'elset_wall_1_8'
p372
sg361
Nsg362
g363
sbsg206
g0
(g348
g2
Ntp373
Rp374
(dp375
g15
I19
sg352
g353
sg354
g206
sg355
g356
sg357
g358
sg359
S'elset_wall_2_2'
p376
sg361
Nsg362
g363
sbsg56
g0
(g348
g2
Ntp377
Rp378
(dp379
g15
I0
sg352
g353
sg354
g56
sg355
S'plate_element_mat'
p380
sg357
S'plate_element_sec'
p381
sg359
S'elset_plate_1'
p382
sg361
Nsg362
g363
sbsg224
g0
(g348
g2
Ntp383
Rp384
(dp385
g15
I22
sg352
g353
sg354
g224
sg355
g356
sg357
g358
sg359
S'elset_wall_2_5'
p386
sg361
Nsg362
g363
sbsg136
g0
(g348
g2
Ntp387
Rp388
(dp389
g15
I8
sg352
g353
sg354
g136
sg355
g380
sg357
g381
sg359
S'elset_plate_9'
p390
sg361
Nsg362
g363
sbsg176
g0
(g348
g2
Ntp391
Rp392
(dp393
g15
I14
sg352
g353
sg354
g176
sg355
g356
sg357
g367
sg359
S'elset_wall_1_6'
p394
sg361
Nsg362
g363
sbsg96
g0
(g348
g2
Ntp395
Rp396
(dp397
g15
I4
sg352
g353
sg354
g96
sg355
g380
sg357
g381
sg359
S'elset_plate_5'
p398
sg361
Nsg362
g363
sbsg158
g0
(g348
g2
Ntp399
Rp400
(dp401
g15
I11
sg352
g353
sg354
g158
sg355
g356
sg357
g367
sg359
S'elset_wall_1_3'
p402
sg361
Nsg362
g363
sbsg76
g0
(g348
g2
Ntp403
Rp404
(dp405
g15
I2
sg352
g353
sg354
g76
sg355
g380
sg357
g381
sg359
S'elset_plate_3'
p406
sg361
Nsg362
g363
sbsg212
g0
(g348
g2
Ntp407
Rp408
(dp409
g15
I20
sg352
g353
sg354
g212
sg355
g356
sg357
g358
sg359
S'elset_wall_2_3'
p410
sg361
Nsg362
g363
sbsg230
g0
(g348
g2
Ntp411
Rp412
(dp413
g15
I23
sg352
g353
sg354
g230
sg355
g356
sg357
g358
sg359
S'elset_wall_2_6'
p414
sg361
Nsg362
g363
sbsg164
g0
(g348
g2
Ntp415
Rp416
(dp417
g15
I12
sg352
g353
sg354
g164
sg355
g356
sg357
g367
sg359
S'elset_wall_1_4'
p418
sg361
Nsg362
g363
sbsg194
g0
(g348
g2
Ntp419
Rp420
(dp421
g15
I17
sg352
g353
sg354
g194
sg355
g356
sg357
g367
sg359
S'elset_wall_1_9'
p422
sg361
Nsg362
g363
sbsg126
g0
(g348
g2
Ntp423
Rp424
(dp425
g15
I7
sg352
g353
sg354
g126
sg355
g380
sg357
g381
sg359
S'elset_plate_8'
p426
sg361
Nsg362
g363
sbsg146
g0
(g348
g2
Ntp427
Rp428
(dp429
g15
I9
sg352
g353
sg354
g146
sg355
g356
sg357
g367
sg359
S'elset_wall_1_1'
p430
sg361
Nsg362
g363
sbsg116
g0
(g348
g2
Ntp431
Rp432
(dp433
g15
I6
sg352
g353
sg354
g116
sg355
g380
sg357
g381
sg359
S'elset_plate_7'
p434
sg361
Nsg362
g363
sbsg242
g0
(g348
g2
Ntp435
Rp436
(dp437
g15
I25
sg352
g353
sg354
g242
sg355
g356
sg357
g358
sg359
S'elset_wall_2_8'
p438
sg361
Nsg362
g363
sbsg86
g0
(g348
g2
Ntp439
Rp440
(dp441
g15
I3
sg352
g353
sg354
g86
sg355
g380
sg357
g381
sg359
S'elset_plate_4'
p442
sg361
Nsg362
g363
sbsg66
g0
(g348
g2
Ntp443
Rp444
(dp445
g15
I1
sg352
g353
sg354
g66
sg355
g380
sg357
g381
sg359
S'elset_plate_2'
p446
sg361
Nsg362
g363
sbsg257
g0
(g348
g2
Ntp447
Rp448
(dp449
g15
I27
sg352
g353
sg354
g257
sg355
S'elset_mpc_element_mat'
p450
sg357
S'sec_mpc'
p451
sg359
S'elset_mpcs'
p452
sg361
Nsg362
g363
sbsg182
g0
(g348
g2
Ntp453
Rp454
(dp455
g15
I15
sg352
g353
sg354
g182
sg355
g356
sg357
g367
sg359
S'elset_wall_1_7'
p456
sg361
Nsg362
g363
sbsg236
g0
(g348
g2
Ntp457
Rp458
(dp459
g15
I24
sg352
g353
sg354
g236
sg355
g356
sg357
g358
sg359
S'elset_wall_2_7'
p460
sg361
Nsg362
g363
sbsg248
g0
(g348
g2
Ntp461
Rp462
(dp463
g15
I26
sg352
g353
sg354
g248
sg355
g356
sg357
g358
sg359
S'elset_wall_2_9'
p464
sg361
Nsg362
g363
sbsg200
g0
(g348
g2
Ntp465
Rp466
(dp467
g15
I18
sg352
g353
sg354
g200
sg355
g356
sg357
g358
sg359
S'elset_wall_2_1'
p468
sg361
Nsg362
g363
sbsg106
g0
(g348
g2
Ntp469
Rp470
(dp471
g15
I5
sg352
g353
sg354
g106
sg355
g380
sg357
g381
sg359
S'elset_plate_6'
p472
sg361
Nsg362
g363
sbsg170
g0
(g348
g2
Ntp473
Rp474
(dp475
g15
I13
sg352
g353
sg354
g170
sg355
g356
sg357
g367
sg359
S'elset_wall_1_5'
p476
sg361
Nsg362
g363
sbssS'interactions'
p477
(dp478
sS'loads'
p479
(dp480
S'earthPressure_liveLoad'
p481
g0
(ccompas_fea.structure.load
AreaLoad
p482
g2
Ntp483
Rp484
(dp485
g15
I7
sS'__name__'
p486
S'AreaLoad'
p487
sS'name'
p488
g481
sS'axes'
p489
S'local'
p490
sS'components'
p491
(dp492
g23
F0.037699999999999997
sg27
I0
sg28
I0
ssS'nodes'
p493
(lp494
sS'elements'
p495
(lp496
I19
aI20
aI22
aI23
aI25
aI26
asS'attr_list'
p497
(lp498
S'name'
p499
aS'axes'
p500
aS'components'
p501
aS'nodes'
p502
aS'elements'
p503
asbsS'Gleis1_BAHNLASTEN_Lasteinzugsflache_Lastblock_-2'
p504
g0
(g482
g2
Ntp505
Rp506
(dp507
g15
I6
sg486
g487
sg488
g504
sg489
S'global'
p508
sg491
(dp509
g23
F0.076580945428445485
sg27
I0
sg28
I0
ssg493
g494
sg495
(lp510
I1
aI5
asg497
(lp511
g499
ag500
ag501
ag502
ag503
asbsS'Gleis1_EIGENGEWICHTE_SCHIENE_Lasteinzugsflache'
p512
g0
(g482
g2
Ntp513
Rp514
(dp515
g15
I3
sg486
g487
sg488
g512
sg489
g508
sg491
(dp516
g23
F0.0023464658028732595
sg27
I0
sg28
I0
ssg493
g494
sg495
(lp517
I1
aI5
aI6
aI9
aI10
aI15
aI17
aI18
asg497
(lp518
g499
ag500
ag501
ag502
ag503
asbsS'earthPressure_backfill'
p519
g0
(g482
g2
Ntp520
Rp521
(dp522
g15
I2
sg486
g487
sg488
g519
sg489
g490
sg491
(dp523
g23
F0.055286579461512983
sg27
I0
sg28
I0
ssg493
g494
sg495
(lp524
g430
ag368
ag402
ag418
ag476
ag394
ag456
ag372
ag422
ag468
ag376
ag410
ag360
ag386
ag414
ag460
ag438
ag464
asg497
(lp525
g499
ag500
ag501
ag502
ag503
asbsS'earthPressure_gravel'
p526
g0
(g482
g2
Ntp527
Rp528
(dp529
g15
I1
sg486
g487
sg488
g526
sg489
g508
sg491
(dp530
g23
F0.013500000000000002
sg27
I0
sg28
I0
ssg493
g494
sg495
(lp531
g382
ag446
ag406
ag442
ag398
ag472
ag434
ag426
ag390
asg497
(lp532
g499
ag500
ag501
ag502
ag503
asbsS'Gleis1_BAHNLASTEN_Lasteinzugsflache_Lastblock_-1'
p533
g0
(g482
g2
Ntp534
Rp535
(dp536
g15
I5
sg486
g487
sg488
g533
sg489
g508
sg491
(dp537
g23
F0.076580945428445485
sg27
I0
sg28
I0
ssg493
g494
sg495
(lp538
I15
aI17
asg497
(lp539
g499
ag500
ag501
ag502
ag503
asbsS'Gleis1_BAHNLASTEN_Lasteinzugsflache_Lastblock_1'
p540
g0
(g482
g2
Ntp541
Rp542
(dp543
g15
I4
sg486
g487
sg488
g540
sg489
g508
sg491
(dp544
g23
F0.076580945428445485
sg27
I0
sg28
I0
ssg493
g494
sg495
(lp545
I18
asg497
(lp546
g499
ag500
ag501
ag502
ag503
asbsS'load_gravity'
p547
g0
(ccompas_fea.structure.load
GravityLoad
p548
g2
Ntp549
Rp550
(dp551
g15
I0
sg486
S'GravityLoad'
p552
sg488
g547
sg489
g508
sg491
(dp553
g23
F1.3500000000000001
sg27
F0.0
sg28
F0.0
ssg493
g494
sg495
(lp554
g382
ag446
ag406
ag442
ag398
ag472
ag434
ag426
ag390
ag430
ag368
ag402
ag418
ag476
ag394
ag456
ag372
ag422
ag468
ag376
ag410
ag360
ag386
ag414
ag460
ag438
ag464
asg497
(lp555
g499
ag500
ag501
ag502
ag503
aS'g'
p556
asS'g'
p557
F-9.8100000000000005
sbssS'materials'
p558
(dp559
g450
g0
(ccompas_fea.structure.material
MPCStiff
p560
g2
Ntp561
Rp562
(dp563
g15
I2
sS'__name__'
p564
S'MPCStiff'
p565
sS'name'
p566
g450
sS'attr_list'
p567
(lp568
g499
aS'E'
p569
aS'v'
p570
aS'G'
p571
aS'p'
p572
aS'tension'
p573
aS'compression'
p574
asS'E'
p575
(dp576
g569
L10000000000000L
ssS'v'
p577
(dp578
g570
F0.29999999999999999
ssS'G'
p579
(dp580
g571
F3846153846153.8462
ssS'p'
p581
F0.10000000000000001
sS'tension'
p582
I01
sS'compression'
p583
I01
sbsg356
g0
(ccompas_fea.structure.material
CMMUsermat
p584
g2
Ntp585
Rp586
(dp587
g15
I1
sg564
S'CMMUsermat'
p588
sg566
g356
sg567
(lp589
g499
ag569
ag570
ag571
ag572
aS'R_Rohr'
p590
aS'rho'
p591
aS'oo'
p592
aS'uu'
p593
aS'beton'
p594
aS'fcc'
p595
aS'vc'
p596
aS'ecu'
p597
aS'k_E'
p598
aS'theta_b0'
p599
aS'theta_b1'
p600
aS'k_riss'
p601
aS'Entfestigung'
p602
aS'lambdaTS'
p603
aS'srmx'
p604
aS'srmy'
p605
aS'Begrenzung'
p606
aS'KritQ'
p607
aS'winkelD'
p608
aS'k_vr'
p609
aS'fswy'
p610
aS'stahl1'
p611
aS'zm1'
p612
aS'fsy1'
p613
aS'fsu1'
p614
aS'esu1'
p615
aS'esv1'
p616
aS'Es1'
p617
aS'ka1'
p618
aS'kb1'
p619
aS'kc1'
p620
aS'as1'
p621
aS'dm1'
p622
aS'psi1'
p623
aS'stahl2'
p624
aS'zm2'
p625
aS'fsy2'
p626
aS'fsu2'
p627
aS'esu2'
p628
aS'esv2'
p629
aS'Es2'
p630
aS'ka2'
p631
aS'kb2'
p632
aS'kc2'
p633
aS'as2'
p634
aS'dm2'
p635
aS'psi2'
p636
aS'stahl3'
p637
aS'zm3'
p638
aS'fsy3'
p639
aS'fsu3'
p640
aS'esu3'
p641
aS'esv3'
p642
aS'Es3'
p643
aS'ka3'
p644
aS'kb3'
p645
aS'kc3'
p646
aS'as3'
p647
aS'dm3'
p648
aS'psi3'
p649
aS'stahl4'
p650
aS'zm4'
p651
aS'fsy4'
p652
aS'fsu4'
p653
aS'esu4'
p654
aS'esv4'
p655
aS'Es4'
p656
aS'ka4'
p657
aS'kb4'
p658
aS'kc4'
p659
aS'as4'
p660
aS'dm4'
p661
aS'psi4'
p662
asS'E'
p663
(dp664
S'E'
p665
I200000
ssS'v'
p666
(dp667
S'v'
p668
F0.10000000000000001
ssS'G'
p669
(dp670
g571
F90909.090909090897
ssS'p'
p671
F2.5000000000000002e-06
sS'R_Rohr'
p672
(dp673
g590
I-1
ssS'rho'
p674
(dp675
g591
F2.5000000000000002e-06
ssS'oo'
p676
(dp677
g592
I30
ssS'uu'
p678
(dp679
g593
I30
ssS'beton'
p680
(dp681
g594
I2
ssS'fcc'
p682
(dp683
g595
I44
ssS'vc'
p684
(dp685
g596
I0
ssS'ecu'
p686
(dp687
g597
F-0.002
ssS'k_E'
p688
(dp689
g598
I10000
ssS'theta_b0'
p690
(dp691
g599
I2
ssS'theta_b1'
p692
(dp693
g600
I1
ssS'k_riss'
p694
(dp695
g601
I0
ssS'Entfestigung'
p696
(dp697
g602
I0
ssS'lambdaTS'
p698
(dp699
g603
F0.67000000000000004
ssS'srmx'
p700
(dp701
g604
I1
ssS'srmy'
p702
(dp703
g605
I1
ssS'Begrenzung'
p704
(dp705
g606
I2
ssS'KritQ'
p706
(dp707
g607
I0
ssS'winkelD'
p708
(dp709
g608
I45
ssS'k_vr'
p710
(dp711
g609
I1
ssS'fswy'
p712
(dp713
g610
I500
ssS'stahl1'
p714
(dp715
g611
I1
ssS'zm1'
p716
(dp717
g612
I2
ssS'fsy1'
p718
(dp719
g613
I378
ssS'fsu1'
p720
(dp721
g614
I408
ssS'esu1'
p722
(dp723
g615
F0.044999999999999998
ssS'esv1'
p724
(dp725
g616
F0.02
ssS'Es1'
p726
(dp727
g617
I200000
ssS'ka1'
p728
(dp729
g618
I-1
ssS'kb1'
p730
(dp731
g619
I-1
ssS'kc1'
p732
(dp733
g620
I-1
ssS'as1'
p734
(dp735
g621
F1.1170286607589968
ssS'dm1'
p736
(dp737
g622
F12.64723488538316
ssS'psi1'
p738
(dp739
g623
I90
ssS'stahl2'
p740
(dp741
g624
I1
ssS'zm2'
p742
(dp743
g625
I2
ssS'fsy2'
p744
(dp745
g626
I378
ssS'fsu2'
p746
(dp747
g627
I408
ssS'esu2'
p748
(dp749
g628
F0.044999999999999998
ssS'esv2'
p750
(dp751
g629
F0.02
ssS'Es2'
p752
(dp753
g630
I200000
ssS'ka2'
p754
(dp755
g631
I-1
ssS'kb2'
p756
(dp757
g632
I-1
ssS'kc2'
p758
(dp759
g633
I-1
ssS'as2'
p760
(dp761
g634
F1.0056240235110909
ssS'dm2'
p762
(dp763
g635
F12.0
ssS'psi2'
p764
(dp765
g636
I0
ssS'stahl3'
p766
(dp767
g637
I1
ssS'zm3'
p768
(dp769
g638
I2
ssS'fsy3'
p770
(dp771
g639
I378
ssS'fsu3'
p772
(dp773
g640
I408
ssS'esu3'
p774
(dp775
g641
F0.044999999999999998
ssS'esv3'
p776
(dp777
g642
F0.02
ssS'Es3'
p778
(dp779
g643
I200000
ssS'ka3'
p780
(dp781
g644
I-1
ssS'kb3'
p782
(dp783
g645
I-1
ssS'kc3'
p784
(dp785
g646
I-1
ssS'as3'
p786
(dp787
g647
F1.0056240235110909
ssS'dm3'
p788
(dp789
g648
F12.0
ssS'psi3'
p790
(dp791
g649
I0
ssS'stahl4'
p792
(dp793
g650
I1
ssS'zm4'
p794
(dp795
g651
I2
ssS'fsy4'
p796
(dp797
g652
I378
ssS'fsu4'
p798
(dp799
g653
I408
ssS'esu4'
p800
(dp801
g654
F0.044999999999999998
ssS'esv4'
p802
(dp803
g655
F0.02
ssS'Es4'
p804
(dp805
g656
I200000
ssS'ka4'
p806
(dp807
g657
I-1
ssS'kb4'
p808
(dp809
g658
I-1
ssS'kc4'
p810
(dp811
g659
I-1
ssS'as4'
p812
(dp813
g660
F1.6143780223453286
ssS'dm4'
p814
(dp815
g661
F15.204286496208329
ssS'psi4'
p816
(dp817
g662
I90
ssbsg380
g0
(g584
g2
Ntp818
Rp819
(dp820
g15
I0
sg564
g588
sg566
g380
sg567
(lp821
g499
ag569
ag570
ag571
ag572
ag590
ag591
ag592
ag593
ag594
ag595
ag596
ag597
ag598
ag599
ag600
ag601
ag602
ag603
ag604
ag605
ag606
ag607
ag608
ag609
ag610
ag611
ag612
ag613
ag614
ag615
ag616
ag617
ag618
ag619
ag620
ag621
ag622
ag623
ag624
ag625
ag626
ag627
ag628
ag629
ag630
ag631
ag632
ag633
ag634
ag635
ag636
ag637
ag638
ag639
ag640
ag641
ag642
ag643
ag644
ag645
ag646
ag647
ag648
ag649
ag650
ag651
ag652
ag653
ag654
ag655
ag656
ag657
ag658
ag659
ag660
ag661
ag662
asg663
(dp822
g665
I200000
ssg666
(dp823
g668
F0.10000000000000001
ssg669
(dp824
g571
F90909.090909090897
ssg671
F2.5000000000000002e-06
sg672
(dp825
g590
I-1
ssg674
(dp826
g591
F2.5000000000000002e-06
ssg676
(dp827
g592
I30
ssg678
(dp828
g593
I30
ssg680
(dp829
g594
I2
ssg682
(dp830
g595
I44
ssg684
(dp831
g596
I0
ssg686
(dp832
g597
F-0.002
ssg688
(dp833
g598
I10000
ssg690
(dp834
g599
I2
ssg692
(dp835
g600
I1
ssg694
(dp836
g601
I0
ssg696
(dp837
g602
I0
ssg698
(dp838
g603
F0.67000000000000004
ssg700
(dp839
g604
I1
ssg702
(dp840
g605
I1
ssg704
(dp841
g606
I2
ssg706
(dp842
g607
I0
ssg708
(dp843
g608
I45
ssg710
(dp844
g609
I1
ssg712
(dp845
g610
I500
ssg714
(dp846
g611
I1
ssg716
(dp847
g612
I2
ssg718
(dp848
g613
I378
ssg720
(dp849
g614
I408
ssg722
(dp850
g615
F0.044999999999999998
ssg724
(dp851
g616
F0.02
ssg726
(dp852
g617
I200000
ssg728
(dp853
g618
I-1
ssg730
(dp854
g619
I-1
ssg732
(dp855
g620
I-1
ssg734
(dp856
g621
F0.19037963397728405
ssg736
(dp857
g622
F10.733194797652367
ssg738
(dp858
g623
I90
ssg740
(dp859
g624
I1
ssg742
(dp860
g625
I2
ssg744
(dp861
g626
I378
ssg746
(dp862
g627
I408
ssg748
(dp863
g628
F0.044999999999999998
ssg750
(dp864
g629
F0.02
ssg752
(dp865
g630
I200000
ssg754
(dp866
g631
I-1
ssg756
(dp867
g632
I-1
ssg758
(dp868
g633
I-1
ssg760
(dp869
g634
F0.44593343551865661
ssg762
(dp870
g635
F16.426830879255498
ssg764
(dp871
g636
I0
ssg766
(dp872
g637
I1
ssg768
(dp873
g638
I2
ssg770
(dp874
g639
I378
ssg772
(dp875
g640
I408
ssg774
(dp876
g641
F0.044999999999999998
ssg776
(dp877
g642
F0.02
ssg778
(dp878
g643
I200000
ssg780
(dp879
g644
I-1
ssg782
(dp880
g645
I-1
ssg784
(dp881
g646
I-1
ssg786
(dp882
g647
F0.23797150469025483
ssg788
(dp883
g648
F12.0
ssg790
(dp884
g649
I0
ssg792
(dp885
g650
I1
ssg794
(dp886
g651
I2
ssg796
(dp887
g652
I378
ssg798
(dp888
g653
I408
ssg800
(dp889
g654
F0.044999999999999998
ssg802
(dp890
g655
F0.02
ssg804
(dp891
g656
I200000
ssg806
(dp892
g657
I-1
ssg808
(dp893
g658
I-1
ssg810
(dp894
g659
I-1
ssg812
(dp895
g660
F0.20449028279756126
ssg814
(dp896
g661
F11.123849526629908
ssg816
(dp897
g662
I90
ssbssS'misc'
p898
(dp899
sS'name'
p900
S'NLFE_CFB3'
p901
sS'nodes'
p902
(dp903
I0
g0
(ccompas_fea.structure.node
Node
p904
g2
Ntp905
Rp906
(dp907
S'__name__'
p908
S'Node'
p909
sS'key'
p910
I0
sS'x'
p911
F0.0
sS'y'
p912
F0.0
sS'z'
p913
F0.0
sS'ex'
p914
(lp915
I1
aI0
aI0
asS'ey'
p916
(lp917
I0
aI1
aI0
asS'ez'
p918
(lp919
I0
aI0
aI1
asS'mass'
p920
NsbsI1
g0
(g904
g2
Ntp921
Rp922
(dp923
g908
g909
sg910
I1
sg911
F1558.7364042648171
sg912
F0.0
sg913
F0.0
sg914
g915
sg916
g917
sg918
g919
sg920
NsbsI2
g0
(g904
g2
Ntp924
Rp925
(dp926
g908
g909
sg910
I2
sg911
F0.0
sg912
F1850.6775130727981
sg913
F0.0
sg914
g915
sg916
g917
sg918
g919
sg920
NsbsI3
g0
(g904
g2
Ntp927
Rp928
(dp929
g908
g909
sg910
I3
sg911
F1558.7364042648169
sg912
F1850.6775130727981
sg913
F0.0
sg914
g915
sg916
g917
sg918
g919
sg920
NsbsI4
g0
(g904
g2
Ntp930
Rp931
(dp932
g908
g909
sg910
I4
sg911
F0.0
sg912
F3701.3550261455966
sg913
F0.0
sg914
g915
sg916
g917
sg918
g919
sg920
NsbsI5
g0
(g904
g2
Ntp933
Rp934
(dp935
g908
g909
sg910
I5
sg911
F1558.7364042648171
sg912
F3701.3550261455966
sg913
F0.0
sg914
g915
sg916
g917
sg918
g919
sg920
NsbsI6
g0
(g904
g2
Ntp936
Rp937
(dp938
g908
g909
sg910
I6
sg911
F0.0
sg912
F7514.8723258107566
sg913
F0.0
sg914
g915
sg916
g917
sg918
g919
sg920
NsbsI7
g0
(g904
g2
Ntp939
Rp940
(dp941
g908
g909
sg910
I7
sg911
F1558.7364042648171
sg912
F7514.8723258107566
sg913
F0.0
sg914
g915
sg916
g917
sg918
g919
sg920
NsbsI8
g0
(g904
g2
Ntp942
Rp943
(dp944
g908
g909
sg910
I8
sg911
F0.0
sg912
F9365.5498388835531
sg913
F0.0
sg914
g915
sg916
g917
sg918
g919
sg920
NsbsI9
g0
(g904
g2
Ntp945
Rp946
(dp947
g908
g909
sg910
I9
sg911
F1558.7364042648169
sg912
F9365.5498388835531
sg913
F0.0
sg914
g915
sg916
g917
sg918
g919
sg920
NsbsI10
g0
(g904
g2
Ntp948
Rp949
(dp950
g908
g909
sg910
I10
sg911
F0.0
sg912
F11216.227351956353
sg913
F0.0
sg914
g915
sg916
g917
sg918
g919
sg920
NsbsI11
g0
(g904
g2
Ntp951
Rp952
(dp953
g908
g909
sg910
I11
sg911
F1558.7364042648171
sg912
F11216.227351956353
sg913
F0.0
sg914
g915
sg916
g917
sg918
g919
sg920
NsbsI12
g0
(g904
g2
Ntp954
Rp955
(dp956
g908
g909
sg910
I12
sg911
F3117.4728085296342
sg912
F0.0
sg913
F0.0
sg914
g915
sg916
g917
sg918
g919
sg920
NsbsI13
g0
(g904
g2
Ntp957
Rp958
(dp959
g908
g909
sg910
I13
sg911
F3117.4728085296338
sg912
F1850.6775130727981
sg913
F0.0
sg914
g915
sg916
g917
sg918
g919
sg920
NsbsI14
g0
(g904
g2
Ntp960
Rp961
(dp962
g908
g909
sg910
I14
sg911
F3117.4728085296342
sg912
F3701.3550261455966
sg913
F0.0
sg914
g915
sg916
g917
sg918
g919
sg920
NsbsI15
g0
(g904
g2
Ntp963
Rp964
(dp965
g908
g909
sg910
I15
sg911
F3117.4728085296342
sg912
F7514.8723258107566
sg913
F0.0
sg914
g915
sg916
g917
sg918
g919
sg920
NsbsI16
g0
(g904
g2
Ntp966
Rp967
(dp968
g908
g909
sg910
I16
sg911
F3117.4728085296338
sg912
F9365.5498388835531
sg913
F0.0
sg914
g915
sg916
g917
sg918
g919
sg920
NsbsI17
g0
(g904
g2
Ntp969
Rp970
(dp971
g908
g909
sg910
I17
sg911
F3117.4728085296342
sg912
F11216.227351956353
sg913
F0.0
sg914
g915
sg916
g917
sg918
g919
sg920
NsbsI18
g0
(g904
g2
Ntp972
Rp973
(dp974
g908
g909
sg910
I18
sg911
F4723.4436492873247
sg912
F0.0
sg913
F0.0
sg914
g915
sg916
g917
sg918
g919
sg920
NsbsI19
g0
(g904
g2
Ntp975
Rp976
(dp977
g908
g909
sg910
I19
sg911
F4723.4436492873238
sg912
F1850.6775130727981
sg913
F0.0
sg914
g915
sg916
g917
sg918
g919
sg920
NsbsI20
g0
(g904
g2
Ntp978
Rp979
(dp980
g908
g909
sg910
I20
sg911
F4723.4436492873247
sg912
F3701.3550261455966
sg913
F0.0
sg914
g915
sg916
g917
sg918
g919
sg920
NsbsI21
g0
(g904
g2
Ntp981
Rp982
(dp983
g908
g909
sg910
I21
sg911
F4723.4436492873247
sg912
F7514.8723258107566
sg913
F0.0
sg914
g915
sg916
g917
sg918
g919
sg920
NsbsI22
g0
(g904
g2
Ntp984
Rp985
(dp986
g908
g909
sg910
I22
sg911
F4723.4436492873238
sg912
F9365.5498388835531
sg913
F0.0
sg914
g915
sg916
g917
sg918
g919
sg920
NsbsI23
g0
(g904
g2
Ntp987
Rp988
(dp989
g908
g909
sg910
I23
sg911
F4723.4436492873247
sg912
F11216.227351956353
sg913
F0.0
sg914
g915
sg916
g917
sg918
g919
sg920
NsbsI24
g0
(g904
g2
Ntp990
Rp991
(dp992
g908
g909
sg910
I24
sg911
F0.0
sg912
F5608.1136759781766
sg913
F0.0
sg914
g915
sg916
g917
sg918
g919
sg920
NsbsI25
g0
(g904
g2
Ntp993
Rp994
(dp995
g908
g909
sg910
I25
sg911
F1558.7364042648171
sg912
F5608.1136759781766
sg913
F0.0
sg914
g915
sg916
g917
sg918
g919
sg920
NsbsI26
g0
(g904
g2
Ntp996
Rp997
(dp998
g908
g909
sg910
I26
sg911
F3117.4728085296342
sg912
F5608.1136759781766
sg913
F0.0
sg914
g915
sg916
g917
sg918
g919
sg920
NsbsI27
g0
(g904
g2
Ntp999
Rp1000
(dp1001
g908
g909
sg910
I27
sg911
F4723.4436492873247
sg912
F5608.1136759781766
sg913
F0.0
sg914
g915
sg916
g917
sg918
g919
sg920
NsbsI28
g0
(g904
g2
Ntp1002
Rp1003
(dp1004
g908
g909
sg910
I28
sg911
F0.0
sg912
F0.0
sg913
F-2136.3879977358479
sg914
g915
sg916
g917
sg918
g919
sg920
NsbsI29
g0
(g904
g2
Ntp1005
Rp1006
(dp1007
g908
g909
sg910
I29
sg911
F1558.7364042648201
sg912
F0.0
sg913
F-2136.3879977358479
sg914
g915
sg916
g917
sg918
g919
sg920
NsbsI30
g0
(g904
g2
Ntp1008
Rp1009
(dp1010
g908
g909
sg910
I30
sg911
F0.0
sg912
F0.0
sg913
F-739.66668904996106
sg914
g915
sg916
g917
sg918
g919
sg920
NsbsI31
g0
(g904
g2
Ntp1011
Rp1012
(dp1013
g908
g909
sg910
I31
sg911
F1558.7364042648201
sg912
F0.0
sg913
F-739.66668904996106
sg914
g915
sg916
g917
sg918
g919
sg920
NsbsI32
g0
(g904
g2
Ntp1014
Rp1015
(dp1016
g908
g909
sg910
I32
sg911
F3117.4728085296301
sg912
F0.0
sg913
F-2136.3879977358479
sg914
g915
sg916
g917
sg918
g919
sg920
NsbsI33
g0
(g904
g2
Ntp1017
Rp1018
(dp1019
g908
g909
sg910
I33
sg911
F3117.4728085296301
sg912
F0.0
sg913
F-739.66668904996106
sg914
g915
sg916
g917
sg918
g919
sg920
NsbsI34
g0
(g904
g2
Ntp1020
Rp1021
(dp1022
g908
g909
sg910
I34
sg911
F4723.4436492873201
sg912
F0.0
sg913
F-2136.3879977358479
sg914
g915
sg916
g917
sg918
g919
sg920
NsbsI35
g0
(g904
g2
Ntp1023
Rp1024
(dp1025
g908
g909
sg910
I35
sg911
F4723.4436492873201
sg912
F0.0
sg913
F-739.66668904996106
sg914
g915
sg916
g917
sg918
g919
sg920
NsbsI36
g0
(g904
g2
Ntp1026
Rp1027
(dp1028
g908
g909
sg910
I36
sg911
F0.0
sg912
F0.0
sg913
F-3575.4341945637307
sg914
g915
sg916
g917
sg918
g919
sg920
NsbsI37
g0
(g904
g2
Ntp1029
Rp1030
(dp1031
g908
g909
sg910
I37
sg911
F1558.7364042648201
sg912
F0.0
sg913
F-3575.4341945637307
sg914
g915
sg916
g917
sg918
g919
sg920
NsbsI38
g0
(g904
g2
Ntp1032
Rp1033
(dp1034
g908
g909
sg910
I38
sg911
F3117.4728085296301
sg912
F0.0
sg913
F-3575.4341945637307
sg914
g915
sg916
g917
sg918
g919
sg920
NsbsI39
g0
(g904
g2
Ntp1035
Rp1036
(dp1037
g908
g909
sg910
I39
sg911
F4723.4436492873201
sg912
F0.0
sg913
F-3575.4341945637307
sg914
g915
sg916
g917
sg918
g919
sg920
NsbsI40
g0
(g904
g2
Ntp1038
Rp1039
(dp1040
g908
g909
sg910
I40
sg911
F0.0
sg912
F0.0
sg913
F-4972.1555032496171
sg914
g915
sg916
g917
sg918
g919
sg920
NsbsI41
g0
(g904
g2
Ntp1041
Rp1042
(dp1043
g908
g909
sg910
I41
sg911
F1558.7364042648201
sg912
F0.0
sg913
F-4972.1555032496171
sg914
g915
sg916
g917
sg918
g919
sg920
NsbsI42
g0
(g904
g2
Ntp1044
Rp1045
(dp1046
g908
g909
sg910
I42
sg911
F3117.4728085296301
sg912
F0.0
sg913
F-4972.1555032496171
sg914
g915
sg916
g917
sg918
g919
sg920
NsbsI43
g0
(g904
g2
Ntp1047
Rp1048
(dp1049
g908
g909
sg910
I43
sg911
F4723.4436492873201
sg912
F0.0
sg913
F-4972.1555032496171
sg914
g915
sg916
g917
sg918
g919
sg920
NsbsI44
g0
(g904
g2
Ntp1050
Rp1051
(dp1052
g908
g909
sg910
I44
sg911
F0.0
sg912
F11216.227351956353
sg913
F-2136.3879977358479
sg914
g915
sg916
g917
sg918
g919
sg920
NsbsI45
g0
(g904
g2
Ntp1053
Rp1054
(dp1055
g908
g909
sg910
I45
sg911
F1558.7364042648201
sg912
F11216.227351956353
sg913
F-2136.3879977358479
sg914
g915
sg916
g917
sg918
g919
sg920
NsbsI46
g0
(g904
g2
Ntp1056
Rp1057
(dp1058
g908
g909
sg910
I46
sg911
F0.0
sg912
F11216.227351956353
sg913
F-739.66668904996106
sg914
g915
sg916
g917
sg918
g919
sg920
NsbsI47
g0
(g904
g2
Ntp1059
Rp1060
(dp1061
g908
g909
sg910
I47
sg911
F1558.7364042648201
sg912
F11216.227351956353
sg913
F-739.66668904996106
sg914
g915
sg916
g917
sg918
g919
sg920
NsbsI48
g0
(g904
g2
Ntp1062
Rp1063
(dp1064
g908
g909
sg910
I48
sg911
F3117.4728085296301
sg912
F11216.227351956353
sg913
F-2136.3879977358479
sg914
g915
sg916
g917
sg918
g919
sg920
NsbsI49
g0
(g904
g2
Ntp1065
Rp1066
(dp1067
g908
g909
sg910
I49
sg911
F3117.4728085296301
sg912
F11216.227351956353
sg913
F-739.66668904996106
sg914
g915
sg916
g917
sg918
g919
sg920
NsbsI50
g0
(g904
g2
Ntp1068
Rp1069
(dp1070
g908
g909
sg910
I50
sg911
F4723.4436492873201
sg912
F11216.227351956353
sg913
F-2136.3879977358479
sg914
g915
sg916
g917
sg918
g919
sg920
NsbsI51
g0
(g904
g2
Ntp1071
Rp1072
(dp1073
g908
g909
sg910
I51
sg911
F4723.4436492873201
sg912
F11216.227351956353
sg913
F-739.66668904996106
sg914
g915
sg916
g917
sg918
g919
sg920
NsbsI52
g0
(g904
g2
Ntp1074
Rp1075
(dp1076
g908
g909
sg910
I52
sg911
F0.0
sg912
F11216.227351956353
sg913
F-3575.4341945637307
sg914
g915
sg916
g917
sg918
g919
sg920
NsbsI53
g0
(g904
g2
Ntp1077
Rp1078
(dp1079
g908
g909
sg910
I53
sg911
F1558.7364042648201
sg912
F11216.227351956353
sg913
F-3575.4341945637307
sg914
g915
sg916
g917
sg918
g919
sg920
NsbsI54
g0
(g904
g2
Ntp1080
Rp1081
(dp1082
g908
g909
sg910
I54
sg911
F3117.4728085296301
sg912
F11216.227351956353
sg913
F-3575.4341945637307
sg914
g915
sg916
g917
sg918
g919
sg920
NsbsI55
g0
(g904
g2
Ntp1083
Rp1084
(dp1085
g908
g909
sg910
I55
sg911
F4723.4436492873201
sg912
F11216.227351956353
sg913
F-3575.4341945637307
sg914
g915
sg916
g917
sg918
g919
sg920
NsbsI56
g0
(g904
g2
Ntp1086
Rp1087
(dp1088
g908
g909
sg910
I56
sg911
F0.0
sg912
F11216.227351956353
sg913
F-4972.1555032496171
sg914
g915
sg916
g917
sg918
g919
sg920
NsbsI57
g0
(g904
g2
Ntp1089
Rp1090
(dp1091
g908
g909
sg910
I57
sg911
F1558.7364042648201
sg912
F11216.227351956353
sg913
F-4972.1555032496171
sg914
g915
sg916
g917
sg918
g919
sg920
NsbsI58
g0
(g904
g2
Ntp1092
Rp1093
(dp1094
g908
g909
sg910
I58
sg911
F3117.4728085296301
sg912
F11216.227351956353
sg913
F-4972.1555032496171
sg914
g915
sg916
g917
sg918
g919
sg920
NsbsI59
g0
(g904
g2
Ntp1095
Rp1096
(dp1097
g908
g909
sg910
I59
sg911
F4723.4436492873201
sg912
F11216.227351956353
sg913
F-4972.1555032496171
sg914
g915
sg916
g917
sg918
g919
sg920
NsbssS'node_index'
p1098
(dp1099
S'0.000,7514.872,0.000'
p1100
I6
sS'1558.736,0.000,-739.667'
p1101
I31
sS'0.000,0.000,-739.667'
p1102
I30
sS'3117.473,9365.550,0.000'
p1103
I16
sS'3117.473,11216.227,-4972.156'
p1104
I58
sS'1558.736,1850.678,0.000'
p1105
I3
sS'1558.736,11216.227,-2136.388'
p1106
I45
sS'3117.473,11216.227,0.000'
p1107
I17
sS'0.000,1850.678,0.000'
p1108
I2
sS'1558.736,0.000,-4972.156'
p1109
I41
sS'4723.444,0.000,-739.667'
p1110
I35
sS'0.000,11216.227,-4972.156'
p1111
I56
sS'3117.473,5608.114,0.000'
p1112
I26
sS'0.000,3701.355,0.000'
p1113
I4
sS'1558.736,11216.227,-3575.434'
p1114
I53
sS'4723.444,1850.678,0.000'
p1115
I19
sS'0.000,0.000,-4972.156'
p1116
I40
sS'3117.473,11216.227,-2136.388'
p1117
I48
sS'4723.444,0.000,-4972.156'
p1118
I43
sS'1558.736,3701.355,0.000'
p1119
I5
sS'0.000,0.000,0.000'
p1120
I0
sS'0.000,9365.550,0.000'
p1121
I8
sS'3117.473,1850.678,0.000'
p1122
I13
sS'1558.736,11216.227,0.000'
p1123
I11
sS'4723.444,5608.114,0.000'
p1124
I27
sS'0.000,0.000,-2136.388'
p1125
I28
sS'3117.473,0.000,-739.667'
p1126
I33
sS'1558.736,9365.550,0.000'
p1127
I9
sS'4723.444,0.000,-3575.434'
p1128
I39
sS'3117.473,11216.227,-3575.434'
p1129
I54
sS'4723.444,11216.227,-3575.434'
p1130
I55
sS'0.000,11216.227,-2136.388'
p1131
I44
sS'4723.444,0.000,0.000'
p1132
I18
sS'3117.473,0.000,-3575.434'
p1133
I38
sS'0.000,11216.227,-739.667'
p1134
I46
sS'4723.444,0.000,-2136.388'
p1135
I34
sS'3117.473,11216.227,-739.667'
p1136
I49
sS'4723.444,3701.355,0.000'
p1137
I20
sS'3117.473,3701.355,0.000'
p1138
I14
sS'1558.736,0.000,-3575.434'
p1139
I37
sS'3117.473,0.000,0.000'
p1140
I12
sS'1558.736,11216.227,-739.667'
p1141
I47
sS'3117.473,0.000,-4972.156'
p1142
I42
sS'3117.473,0.000,-2136.388'
p1143
I32
sS'0.000,11216.227,-3575.434'
p1144
I52
sS'1558.736,0.000,0.000'
p1145
I1
sS'4723.444,7514.872,0.000'
p1146
I21
sS'0.000,11216.227,0.000'
p1147
I10
sS'1558.736,0.000,-2136.388'
p1148
I29
sS'1558.736,11216.227,-4972.156'
p1149
I57
sS'0.000,5608.114,0.000'
p1150
I24
sS'3117.473,7514.872,0.000'
p1151
I15
sS'1558.736,7514.872,0.000'
p1152
I7
sS'4723.444,11216.227,0.000'
p1153
I23
sS'4723.444,11216.227,-2136.388'
p1154
I50
sS'4723.444,11216.227,-4972.156'
p1155
I59
sS'4723.444,9365.550,0.000'
p1156
I22
sS'1558.736,5608.114,0.000'
p1157
I25
sS'0.000,0.000,-3575.434'
p1158
I36
sS'4723.444,11216.227,-739.667'
p1159
I51
ssS'path'
p1160
S'C:\\Temp\\'
p1161
sS'results'
p1162
(dp1163
S'step_2'
p1164
S'ERROR'
p1165
sS'step_3'
p1166
g1165
sS'step_4'
p1167
g1165
sS'step_1'
p1168
g1165
ssS'sections'
p1169
(dp1170
g367
g0
(ccompas_fea.structure.section
ShellSection
p1171
g2
Ntp1172
Rp1173
(dp1174
g15
I1
sS'__name__'
p1175
S'ShellSection'
p1176
sS'name'
p1177
g367
sS'geometry'
p1178
(dp1179
S't'
p1180
F986.94195428408966
ssS'loc_coords_OR'
p1181
(dp1182
S'ORxyz'
p1183
(lp1184
I0
aI0
aF-4232.4888142
assS'loc_coords_XA'
p1185
(dp1186
S'XAxyz'
p1187
(lp1188
I1
aI0
aF-4232.4888142
assS'loc_coords_YA'
p1189
(dp1190
S'YAxyz'
p1191
(lp1192
F4232.4888142
aF-4232.4888142
aF-4231.4888142
assS'loc_coords_EV_XA'
p1193
(dp1194
S'EV_XA'
p1195
(lp1196
F1.0
aF0.0
aF0.0
assS'loc_coords_EV_YA'
p1197
(dp1198
S'EV_YA'
p1199
(lp1200
F0.70710677131845157
aF-0.70710677131845157
aF0.00016706642412050998
assS'loc_coords_EV_ZA'
p1201
(dp1202
S'EV_ZA'
p1203
(lp1204
F0.0
aF-1.0
aF0.0
assS'nr_layers'
p1205
(dp1206
S'nn'
p1207
F62.0
ssS'offset'
p1208
(dp1209
S'mode'
p1210
S'mid'
p1211
ssbsg381
g0
(g1171
g2
Ntp1212
Rp1213
(dp1214
g15
I0
sg1175
g1176
sg1177
g381
sg1178
(dp1215
g1180
F739.66668904996106
ssg1181
(dp1216
g1183
(lp1217
I0
aI0
aI0
assg1185
(dp1218
g1187
(lp1219
I1
aI0
aI0
assg1189
(dp1220
g1191
(lp1221
F0.0
aF1.0
aF0.0
assg1193
(dp1222
g1195
(lp1223
F1.0
aF0.0
aF0.0
assg1197
(dp1224
g1199
(lp1225
F0.0
aF1.0
aF0.0
assg1201
(dp1226
g1203
(lp1227
F0.0
aF0.0
aF1.0
assg1205
(dp1228
g1207
F69.0
ssg1208
(dp1229
g1210
S'top'
p1230
ssbsg358
g0
(g1171
g2
Ntp1231
Rp1232
(dp1233
g15
I2
sg1175
g1176
sg1177
g358
sg1178
(dp1234
g1180
F986.94195428408966
ssg1181
(dp1235
g1183
(lp1236
I0
aF11216.227352
aF-4232.4888142
assg1185
(dp1237
g1187
(lp1238
I1
aF11216.227352
aF-4232.4888142
assg1189
(dp1239
g1191
(lp1240
F-4232.4888141974807
aF6983.7385377999999
aF-15449.7161662
assg1193
(dp1241
g1195
(lp1242
F1.0
aF0.0
aF0.0
assg1197
(dp1243
g1199
(lp1244
F-0.33289129610965745
aF-0.33289129610985563
aF-0.88225096766664568
assg1201
(dp1245
g1203
(lp1246
F0.0
aF1.0
aF0.0
assg1205
(dp1247
g1207
F62.0
ssg1208
(dp1248
g1210
g1211
ssbsg451
g0
(ccompas_fea.structure.section
MPCSection
p1249
g2
Ntp1250
Rp1251
(dp1252
g15
I3
sg1175
S'MPCSection'
p1253
sg1177
g451
sg1178
NsS'nr_layers'
p1254
NsbssS'sets'
p1255
(dp1256
g476
g0
(ccompas_fea.structure.set
Set
p1257
g2
Ntp1258
Rp1259
(dp1260
S'__name__'
p1261
S'Set'
p1262
sS'name'
p1263
g476
sS'type'
p1264
S'element'
p1265
sS'selection'
p1266
(lp1267
I22
asS'index'
p1268
I13
sbsg452
g0
(g1257
g2
Ntp1269
Rp1270
(dp1271
g1261
g1262
sg1263
g452
sg1264
g1265
sg1266
(lp1272
I36
aI37
aI38
aI39
aI40
aI41
aI42
aI43
asg1268
I27
sbsg360
g0
(g1257
g2
Ntp1273
Rp1274
(dp1275
g1261
g1262
sg1263
g360
sg1264
g1265
sg1266
(lp1276
I30
asg1268
I21
sbsg406
g0
(g1257
g2
Ntp1277
Rp1278
(dp1279
g1261
g1262
sg1263
g406
sg1264
g1265
sg1266
(lp1280
I4
aI5
asg1268
I2
sbsg372
g0
(g1257
g2
Ntp1281
Rp1282
(dp1283
g1261
g1262
sg1263
g372
sg1264
g1265
sg1266
(lp1284
I25
asg1268
I16
sbsg468
g0
(g1257
g2
Ntp1285
Rp1286
(dp1287
g1261
g1262
sg1263
g468
sg1264
g1265
sg1266
(lp1288
I27
asg1268
I18
sbsg446
g0
(g1257
g2
Ntp1289
Rp1290
(dp1291
g1261
g1262
sg1263
g446
sg1264
g1265
sg1266
(lp1292
I2
aI3
asg1268
I1
sbsg382
g0
(g1257
g2
Ntp1293
Rp1294
(dp1295
g1261
g1262
sg1263
g382
sg1264
g1265
sg1266
(lp1296
I0
aI1
asg1268
I0
sbsg434
g0
(g1257
g2
Ntp1297
Rp1298
(dp1299
g1261
g1262
sg1263
g434
sg1264
g1265
sg1266
(lp1300
I12
aI13
asg1268
I6
sbsg472
g0
(g1257
g2
Ntp1301
Rp1302
(dp1303
g1261
g1262
sg1263
g472
sg1264
g1265
sg1266
(lp1304
I10
aI11
asg1268
I5
sbsg398
g0
(g1257
g2
Ntp1305
Rp1306
(dp1307
g1261
g1262
sg1263
g398
sg1264
g1265
sg1266
(lp1308
I8
aI9
asg1268
I4
sbsg442
g0
(g1257
g2
Ntp1309
Rp1310
(dp1311
g1261
g1262
sg1263
g442
sg1264
g1265
sg1266
(lp1312
I6
aI7
asg1268
I3
sbsg390
g0
(g1257
g2
Ntp1313
Rp1314
(dp1315
g1261
g1262
sg1263
g390
sg1264
g1265
sg1266
(lp1316
I16
aI17
asg1268
I8
sbsg426
g0
(g1257
g2
Ntp1317
Rp1318
(dp1319
g1261
g1262
sg1263
g426
sg1264
g1265
sg1266
(lp1320
I14
aI15
asg1268
I7
sbsg402
g0
(g1257
g2
Ntp1321
Rp1322
(dp1323
g1261
g1262
sg1263
g402
sg1264
g1265
sg1266
(lp1324
I20
asg1268
I11
sbsg464
g0
(g1257
g2
Ntp1325
Rp1326
(dp1327
g1261
g1262
sg1263
g464
sg1264
g1265
sg1266
(lp1328
I35
asg1268
I26
sbsg414
g0
(g1257
g2
Ntp1329
Rp1330
(dp1331
g1261
g1262
sg1263
g414
sg1264
g1265
sg1266
(lp1332
I32
asg1268
I23
sbsg394
g0
(g1257
g2
Ntp1333
Rp1334
(dp1335
g1261
g1262
sg1263
g394
sg1264
g1265
sg1266
(lp1336
I23
asg1268
I14
sbsg410
g0
(g1257
g2
Ntp1337
Rp1338
(dp1339
g1261
g1262
sg1263
g410
sg1264
g1265
sg1266
(lp1340
I29
asg1268
I20
sbsg430
g0
(g1257
g2
Ntp1341
Rp1342
(dp1343
g1261
g1262
sg1263
g430
sg1264
g1265
sg1266
(lp1344
I18
asg1268
I9
sbsg422
g0
(g1257
g2
Ntp1345
Rp1346
(dp1347
g1261
g1262
sg1263
g422
sg1264
g1265
sg1266
(lp1348
I26
asg1268
I17
sbsg35
g0
(g1257
g2
Ntp1349
Rp1350
(dp1351
g1261
g1262
sg1263
g35
sg1264
S'node'
p1352
sg1266
(lp1353
I59
aI58
aI57
aI56
asg1268
I29
sbsg418
g0
(g1257
g2
Ntp1354
Rp1355
(dp1356
g1261
g1262
sg1263
g418
sg1264
g1265
sg1266
(lp1357
I21
asg1268
I12
sbsg438
g0
(g1257
g2
Ntp1358
Rp1359
(dp1360
g1261
g1262
sg1263
g438
sg1264
g1265
sg1266
(lp1361
I34
asg1268
I25
sbsg386
g0
(g1257
g2
Ntp1362
Rp1363
(dp1364
g1261
g1262
sg1263
g386
sg1264
g1265
sg1266
(lp1365
I31
asg1268
I22
sbsg20
g0
(g1257
g2
Ntp1366
Rp1367
(dp1368
g1261
g1262
sg1263
g20
sg1264
g1352
sg1266
(lp1369
I43
aI42
aI41
aI40
asg1268
I28
sbsg456
g0
(g1257
g2
Ntp1370
Rp1371
(dp1372
g1261
g1262
sg1263
g456
sg1264
g1265
sg1266
(lp1373
I24
asg1268
I15
sbsg376
g0
(g1257
g2
Ntp1374
Rp1375
(dp1376
g1261
g1262
sg1263
g376
sg1264
g1265
sg1266
(lp1377
I28
asg1268
I19
sbsg368
g0
(g1257
g2
Ntp1378
Rp1379
(dp1380
g1261
g1262
sg1263
g368
sg1264
g1265
sg1266
(lp1381
I19
asg1268
I10
sbsg460
g0
(g1257
g2
Ntp1382
Rp1383
(dp1384
g1261
g1262
sg1263
g460
sg1264
g1265
sg1266
(lp1385
I33
asg1268
I24
sbssS'steps'
p1386
(dp1387
g1164
g0
(ccompas_fea.structure.step
GeneralStep
p1388
g2
Ntp1389
Rp1390
(dp1391
g15
I1
sS'__name__'
p1392
S'GeneralStep'
p1393
sS'name'
p1394
g1164
sS'attr_list'
p1395
(lp1396
g499
aS'increments'
p1397
aS'iterations'
p1398
aS'factor'
p1399
aS'nlgeom'
p1400
aS'nlmat'
p1401
aS'displacements'
p1402
aS'loads'
p1403
aS'type'
p1404
aS'tolerance'
p1405
aS'modify'
p1406
asS'increments'
p1407
I1
sS'iterations'
p1408
I100
sS'tolerance'
p1409
F0.01
sS'factor'
p1410
F1.0
sS'nlgeom'
p1411
I00
sS'nlmat'
p1412
I01
sS'displacements'
p1413
(lp1414
sS'loads'
p1415
(lp1416
g547
asS'modify'
p1417
I01
sS'type'
p1418
S'static'
p1419
sbsg1166
g0
(g1388
g2
Ntp1420
Rp1421
(dp1422
g15
I2
sg1392
g1393
sg1394
g1166
sg1395
(lp1423
g499
ag1397
ag1398
ag1399
ag1400
ag1401
ag1402
ag1403
ag1404
ag1405
ag1406
asg1407
I1
sg1408
I100
sg1409
F0.01
sg1410
F1.0
sg1411
I00
sg1412
I01
sg1413
(lp1424
sg1415
(lp1425
g526
ag519
ag512
asg1417
I01
sg1418
g1419
sbsg1167
g0
(g1388
g2
Ntp1426
Rp1427
(dp1428
g15
I3
sg1392
g1393
sg1394
g1167
sg1395
(lp1429
g499
ag1397
ag1398
ag1399
ag1400
ag1401
ag1402
ag1403
ag1404
ag1405
ag1406
asg1407
I1
sg1408
I100
sg1409
F0.01
sg1410
F1.0
sg1411
I00
sg1412
I01
sg1413
(lp1430
sg1415
(lp1431
g540
ag533
ag504
ag481
asg1417
I01
sg1418
g1419
sbsg1168
g0
(g1388
g2
Ntp1432
Rp1433
(dp1434
g15
I0
sg1392
g1393
sg1394
g1168
sg1395
(lp1435
g499
ag1397
ag1398
ag1399
ag1400
ag1401
ag1402
ag1403
ag1404
ag1405
ag1406
asg1407
I1
sg1408
I100
sg1409
F0.01
sg1410
F1.0
sg1411
I00
sg1412
I01
sg1413
(lp1436
g10
ag31
asg1415
(lp1437
sg1417
I01
sg1418
g1419
sbssS'loc_coor'
p1438
(dp1439
sS'steps_order'
p1440
(lp1441
g1168
ag1164
ag1166
ag1167
asS'tol'
p1442
S'3'
p1443
sS'virtual_nodes'
p1444
(dp1445
sS'virtual_node_index'
p1446
(dp1447
sS'virtual_elements'
p1448
(dp1449
sS'virtual_element_index'
p1450
(dp1451
sb.