ccopy_reg
_reconstructor
p0
(ccompas_fea.structure.structure
Structure
p1
c__builtin__
object
p2
Ntp3
Rp4
(dp5
S'constraints'
p6
(dp7
sS'displacements'
p8
(dp9
S'nset_pinned_set_disp_1'
p10
g0
(ccompas_fea.structure.displacement
GeneralDisplacement
p11
g2
Ntp12
Rp13
(dp14
S'index'
p15
I0
sS'__name__'
p16
S'GeneralDisplacement'
p17
sS'name'
p18
g10
sS'nodes'
p19
S'nset_support_wall1'
p20
sS'components'
p21
(dp22
S'z'
p23
I0
sS'xx'
p24
I0
sS'zz'
p25
I0
sS'yy'
p26
I0
sS'y'
p27
I0
sS'x'
p28
I0
ssS'axes'
p29
S'global'
p30
sbsS'nset_pinned_set_disp_2'
p31
g0
(g11
g2
Ntp32
Rp33
(dp34
g15
I1
sg16
g17
sg18
g31
sg19
S'nset_support_wall2'
p35
sg21
(dp36
g23
I0
sg24
I0
sg25
I0
sg26
I0
sg27
I0
sg28
I0
ssg29
g30
sbssS'elements'
p37
(dp38
I0
g0
(ccompas_fea.structure.element
ShellElement
p39
g2
Ntp40
Rp41
(dp42
S'mass'
p43
NsS'__name__'
p44
S'ShellElement'
p45
sS'nodes'
p46
(lp47
I0
aI1
aI3
aI2
asS'number'
p48
I0
sS'thermal'
p49
I00
sS'axes'
p50
(dp51
S'ey'
p52
NsS'ez'
p53
NsS'ex'
p54
NssS'element_property'
p55
S'elset_plate_1_element_prop'
p56
sbsI1
g0
(g39
g2
Ntp57
Rp58
(dp59
g43
Nsg44
g45
sg46
(lp60
I2
aI3
aI5
aI4
asg48
I1
sg49
I00
sg50
g51
sg55
g56
sbsI2
g0
(g39
g2
Ntp61
Rp62
(dp63
g43
Nsg44
g45
sg46
(lp64
I4
aI5
aI7
aI6
asg48
I2
sg49
I00
sg50
g51
sg55
g56
sbsI3
g0
(g39
g2
Ntp65
Rp66
(dp67
g43
Nsg44
g45
sg46
(lp68
I8
aI9
aI11
aI10
asg48
I3
sg49
I00
sg50
(dp69
g52
Nsg53
Nsg54
Nssg55
S'elset_plate_2_element_prop'
p70
sbsI4
g0
(g39
g2
Ntp71
Rp72
(dp73
g43
Nsg44
g45
sg46
(lp74
I10
aI11
aI13
aI12
asg48
I4
sg49
I00
sg50
g69
sg55
g70
sbsI5
g0
(g39
g2
Ntp75
Rp76
(dp77
g43
Nsg44
g45
sg46
(lp78
I12
aI13
aI15
aI14
asg48
I5
sg49
I00
sg50
g69
sg55
g70
sbsI6
g0
(g39
g2
Ntp79
Rp80
(dp81
g43
Nsg44
g45
sg46
(lp82
I1
aI16
aI17
aI3
asg48
I6
sg49
I00
sg50
(dp83
g52
Nsg53
Nsg54
Nssg55
S'elset_plate_3_element_prop'
p84
sbsI7
g0
(g39
g2
Ntp85
Rp86
(dp87
g43
Nsg44
g45
sg46
(lp88
I3
aI17
aI18
aI5
asg48
I7
sg49
I00
sg50
g83
sg55
g84
sbsI8
g0
(g39
g2
Ntp89
Rp90
(dp91
g43
Nsg44
g45
sg46
(lp92
I5
aI18
aI19
aI7
asg48
I8
sg49
I00
sg50
g83
sg55
g84
sbsI9
g0
(g39
g2
Ntp93
Rp94
(dp95
g43
Nsg44
g45
sg46
(lp96
I9
aI20
aI21
aI11
asg48
I9
sg49
I00
sg50
(dp97
g52
Nsg53
Nsg54
Nssg55
S'elset_plate_4_element_prop'
p98
sbsI10
g0
(g39
g2
Ntp99
Rp100
(dp101
g43
Nsg44
g45
sg46
(lp102
I11
aI21
aI22
aI13
asg48
I10
sg49
I00
sg50
g97
sg55
g98
sbsI11
g0
(g39
g2
Ntp103
Rp104
(dp105
g43
Nsg44
g45
sg46
(lp106
I13
aI22
aI23
aI15
asg48
I11
sg49
I00
sg50
g97
sg55
g98
sbsI12
g0
(g39
g2
Ntp107
Rp108
(dp109
g43
Nsg44
g45
sg46
(lp110
I16
aI24
aI25
aI17
asg48
I12
sg49
I00
sg50
(dp111
g52
Nsg53
Nsg54
Nssg55
S'elset_plate_5_element_prop'
p112
sbsI13
g0
(g39
g2
Ntp113
Rp114
(dp115
g43
Nsg44
g45
sg46
(lp116
I17
aI25
aI26
aI18
asg48
I13
sg49
I00
sg50
g111
sg55
g112
sbsI14
g0
(g39
g2
Ntp117
Rp118
(dp119
g43
Nsg44
g45
sg46
(lp120
I18
aI26
aI27
aI19
asg48
I14
sg49
I00
sg50
g111
sg55
g112
sbsI15
g0
(g39
g2
Ntp121
Rp122
(dp123
g43
Nsg44
g45
sg46
(lp124
I20
aI28
aI29
aI21
asg48
I15
sg49
I00
sg50
(dp125
g52
Nsg53
Nsg54
Nssg55
S'elset_plate_6_element_prop'
p126
sbsI16
g0
(g39
g2
Ntp127
Rp128
(dp129
g43
Nsg44
g45
sg46
(lp130
I21
aI29
aI30
aI22
asg48
I16
sg49
I00
sg50
g125
sg55
g126
sbsI17
g0
(g39
g2
Ntp131
Rp132
(dp133
g43
Nsg44
g45
sg46
(lp134
I22
aI30
aI31
aI23
asg48
I17
sg49
I00
sg50
g125
sg55
g126
sbsI18
g0
(g39
g2
Ntp135
Rp136
(dp137
g43
Nsg44
g45
sg46
(lp138
I6
aI7
aI33
aI32
asg48
I18
sg49
I00
sg50
(dp139
g52
Nsg53
Nsg54
Nssg55
S'elset_plate_7_element_prop'
p140
sbsI19
g0
(g39
g2
Ntp141
Rp142
(dp143
g43
Nsg44
g45
sg46
(lp144
I32
aI33
aI35
aI34
asg48
I19
sg49
I00
sg50
g139
sg55
g140
sbsI20
g0
(g39
g2
Ntp145
Rp146
(dp147
g43
Nsg44
g45
sg46
(lp148
I34
aI35
aI37
aI36
asg48
I20
sg49
I00
sg50
g139
sg55
g140
sbsI21
g0
(g39
g2
Ntp149
Rp150
(dp151
g43
Nsg44
g45
sg46
(lp152
I36
aI37
aI9
aI8
asg48
I21
sg49
I00
sg50
g139
sg55
g140
sbsI22
g0
(g39
g2
Ntp153
Rp154
(dp155
g43
Nsg44
g45
sg46
(lp156
I7
aI19
aI38
aI33
asg48
I22
sg49
I00
sg50
(dp157
g52
Nsg53
Nsg54
Nssg55
S'elset_plate_8_element_prop'
p158
sbsI23
g0
(g39
g2
Ntp159
Rp160
(dp161
g43
Nsg44
g45
sg46
(lp162
I33
aI38
aI39
aI35
asg48
I23
sg49
I00
sg50
g157
sg55
g158
sbsI24
g0
(g39
g2
Ntp163
Rp164
(dp165
g43
Nsg44
g45
sg46
(lp166
I35
aI39
aI40
aI37
asg48
I24
sg49
I00
sg50
g157
sg55
g158
sbsI25
g0
(g39
g2
Ntp167
Rp168
(dp169
g43
Nsg44
g45
sg46
(lp170
I37
aI40
aI20
aI9
asg48
I25
sg49
I00
sg50
g157
sg55
g158
sbsI26
g0
(g39
g2
Ntp171
Rp172
(dp173
g43
Nsg44
g45
sg46
(lp174
I19
aI27
aI41
aI38
asg48
I26
sg49
I00
sg50
(dp175
g52
Nsg53
Nsg54
Nssg55
S'elset_plate_9_element_prop'
p176
sbsI27
g0
(g39
g2
Ntp177
Rp178
(dp179
g43
Nsg44
g45
sg46
(lp180
I38
aI41
aI42
aI39
asg48
I27
sg49
I00
sg50
g175
sg55
g176
sbsI28
g0
(g39
g2
Ntp181
Rp182
(dp183
g43
Nsg44
g45
sg46
(lp184
I39
aI42
aI43
aI40
asg48
I28
sg49
I00
sg50
g175
sg55
g176
sbsI29
g0
(g39
g2
Ntp185
Rp186
(dp187
g43
Nsg44
g45
sg46
(lp188
I40
aI43
aI28
aI20
asg48
I29
sg49
I00
sg50
g175
sg55
g176
sbsI30
g0
(g39
g2
Ntp189
Rp190
(dp191
g43
Nsg44
g45
sg46
(lp192
I44
aI45
aI47
aI46
asg48
I30
sg49
I00
sg50
(dp193
g52
Nsg53
Nsg54
Nssg55
S'elset_wall_1_1_element_prop'
p194
sbsI31
g0
(g39
g2
Ntp195
Rp196
(dp197
g43
Nsg44
g45
sg46
(lp198
I46
aI47
aI49
aI48
asg48
I31
sg49
I00
sg50
g193
sg55
g194
sbsI32
g0
(g39
g2
Ntp199
Rp200
(dp201
g43
Nsg44
g45
sg46
(lp202
I45
aI50
aI51
aI47
asg48
I32
sg49
I00
sg50
(dp203
g52
Nsg53
Nsg54
Nssg55
S'elset_wall_1_2_element_prop'
p204
sbsI33
g0
(g39
g2
Ntp205
Rp206
(dp207
g43
Nsg44
g45
sg46
(lp208
I47
aI51
aI52
aI49
asg48
I33
sg49
I00
sg50
g203
sg55
g204
sbsI34
g0
(g39
g2
Ntp209
Rp210
(dp211
g43
Nsg44
g45
sg46
(lp212
I50
aI53
aI54
aI51
asg48
I34
sg49
I00
sg50
(dp213
g52
Nsg53
Nsg54
Nssg55
S'elset_wall_1_3_element_prop'
p214
sbsI35
g0
(g39
g2
Ntp215
Rp216
(dp217
g43
Nsg44
g45
sg46
(lp218
I51
aI54
aI55
aI52
asg48
I35
sg49
I00
sg50
g213
sg55
g214
sbsI36
g0
(g39
g2
Ntp219
Rp220
(dp221
g43
Nsg44
g45
sg46
(lp222
I56
aI57
aI59
aI58
asg48
I36
sg49
I00
sg50
(dp223
g52
Nsg53
Nsg54
Nssg55
S'elset_wall_1_4_element_prop'
p224
sbsI37
g0
(g39
g2
Ntp225
Rp226
(dp227
g43
Nsg44
g45
sg46
(lp228
I58
aI59
aI45
aI44
asg48
I37
sg49
I00
sg50
g223
sg55
g224
sbsI38
g0
(g39
g2
Ntp229
Rp230
(dp231
g43
Nsg44
g45
sg46
(lp232
I57
aI60
aI61
aI59
asg48
I38
sg49
I00
sg50
(dp233
g52
Nsg53
Nsg54
Nssg55
S'elset_wall_1_5_element_prop'
p234
sbsI39
g0
(g39
g2
Ntp235
Rp236
(dp237
g43
Nsg44
g45
sg46
(lp238
I59
aI61
aI50
aI45
asg48
I39
sg49
I00
sg50
g233
sg55
g234
sbsI40
g0
(g39
g2
Ntp239
Rp240
(dp241
g43
Nsg44
g45
sg46
(lp242
I60
aI62
aI63
aI61
asg48
I40
sg49
I00
sg50
(dp243
g52
Nsg53
Nsg54
Nssg55
S'elset_wall_1_6_element_prop'
p244
sbsI41
g0
(g39
g2
Ntp245
Rp246
(dp247
g43
Nsg44
g45
sg46
(lp248
I61
aI63
aI53
aI50
asg48
I41
sg49
I00
sg50
g243
sg55
g244
sbsI42
g0
(g39
g2
Ntp249
Rp250
(dp251
g43
Nsg44
g45
sg46
(lp252
I64
aI65
aI67
aI66
asg48
I42
sg49
I00
sg50
(dp253
g52
Nsg53
Nsg54
Nssg55
S'elset_wall_1_7_element_prop'
p254
sbsI43
g0
(g39
g2
Ntp255
Rp256
(dp257
g43
Nsg44
g45
sg46
(lp258
I66
aI67
aI57
aI56
asg48
I43
sg49
I00
sg50
g253
sg55
g254
sbsI44
g0
(g39
g2
Ntp259
Rp260
(dp261
g43
Nsg44
g45
sg46
(lp262
I65
aI68
aI69
aI67
asg48
I44
sg49
I00
sg50
(dp263
g52
Nsg53
Nsg54
Nssg55
S'elset_wall_1_8_element_prop'
p264
sbsI45
g0
(g39
g2
Ntp265
Rp266
(dp267
g43
Nsg44
g45
sg46
(lp268
I67
aI69
aI60
aI57
asg48
I45
sg49
I00
sg50
g263
sg55
g264
sbsI46
g0
(g39
g2
Ntp269
Rp270
(dp271
g43
Nsg44
g45
sg46
(lp272
I68
aI70
aI71
aI69
asg48
I46
sg49
I00
sg50
(dp273
g52
Nsg53
Nsg54
Nssg55
S'elset_wall_1_9_element_prop'
p274
sbsI47
g0
(g39
g2
Ntp275
Rp276
(dp277
g43
Nsg44
g45
sg46
(lp278
I69
aI71
aI62
aI60
asg48
I47
sg49
I00
sg50
g273
sg55
g274
sbsI48
g0
(g39
g2
Ntp279
Rp280
(dp281
g43
Nsg44
g45
sg46
(lp282
I72
aI74
aI75
aI73
asg48
I48
sg49
I00
sg50
(dp283
g52
Nsg53
Nsg54
Nssg55
S'elset_wall_2_1_element_prop'
p284
sbsI49
g0
(g39
g2
Ntp285
Rp286
(dp287
g43
Nsg44
g45
sg46
(lp288
I74
aI76
aI77
aI75
asg48
I49
sg49
I00
sg50
g283
sg55
g284
sbsI50
g0
(g39
g2
Ntp289
Rp290
(dp291
g43
Nsg44
g45
sg46
(lp292
I73
aI75
aI79
aI78
asg48
I50
sg49
I00
sg50
(dp293
g52
Nsg53
Nsg54
Nssg55
S'elset_wall_2_2_element_prop'
p294
sbsI51
g0
(g39
g2
Ntp295
Rp296
(dp297
g43
Nsg44
g45
sg46
(lp298
I75
aI77
aI80
aI79
asg48
I51
sg49
I00
sg50
g293
sg55
g294
sbsI52
g0
(g39
g2
Ntp299
Rp300
(dp301
g43
Nsg44
g45
sg46
(lp302
I78
aI79
aI82
aI81
asg48
I52
sg49
I00
sg50
(dp303
g52
Nsg53
Nsg54
Nssg55
S'elset_wall_2_3_element_prop'
p304
sbsI53
g0
(g39
g2
Ntp305
Rp306
(dp307
g43
Nsg44
g45
sg46
(lp308
I79
aI80
aI83
aI82
asg48
I53
sg49
I00
sg50
g303
sg55
g304
sbsI54
g0
(g39
g2
Ntp309
Rp310
(dp311
g43
Nsg44
g45
sg46
(lp312
I84
aI86
aI87
aI85
asg48
I54
sg49
I00
sg50
(dp313
g52
Nsg53
Nsg54
Nssg55
S'elset_wall_2_4_element_prop'
p314
sbsI55
g0
(g39
g2
Ntp315
Rp316
(dp317
g43
Nsg44
g45
sg46
(lp318
I86
aI72
aI73
aI87
asg48
I55
sg49
I00
sg50
g313
sg55
g314
sbsI56
g0
(g39
g2
Ntp319
Rp320
(dp321
g43
Nsg44
g45
sg46
(lp322
I85
aI87
aI89
aI88
asg48
I56
sg49
I00
sg50
(dp323
g52
Nsg53
Nsg54
Nssg55
S'elset_wall_2_5_element_prop'
p324
sbsI57
g0
(g39
g2
Ntp325
Rp326
(dp327
g43
Nsg44
g45
sg46
(lp328
I87
aI73
aI78
aI89
asg48
I57
sg49
I00
sg50
g323
sg55
g324
sbsI58
g0
(g39
g2
Ntp329
Rp330
(dp331
g43
Nsg44
g45
sg46
(lp332
I88
aI89
aI91
aI90
asg48
I58
sg49
I00
sg50
(dp333
g52
Nsg53
Nsg54
Nssg55
S'elset_wall_2_6_element_prop'
p334
sbsI59
g0
(g39
g2
Ntp335
Rp336
(dp337
g43
Nsg44
g45
sg46
(lp338
I89
aI78
aI81
aI91
asg48
I59
sg49
I00
sg50
g333
sg55
g334
sbsI60
g0
(g39
g2
Ntp339
Rp340
(dp341
g43
Nsg44
g45
sg46
(lp342
I92
aI94
aI95
aI93
asg48
I60
sg49
I00
sg50
(dp343
g52
Nsg53
Nsg54
Nssg55
S'elset_wall_2_7_element_prop'
p344
sbsI61
g0
(g39
g2
Ntp345
Rp346
(dp347
g43
Nsg44
g45
sg46
(lp348
I94
aI84
aI85
aI95
asg48
I61
sg49
I00
sg50
g343
sg55
g344
sbsI62
g0
(g39
g2
Ntp349
Rp350
(dp351
g43
Nsg44
g45
sg46
(lp352
I93
aI95
aI97
aI96
asg48
I62
sg49
I00
sg50
(dp353
g52
Nsg53
Nsg54
Nssg55
S'elset_wall_2_8_element_prop'
p354
sbsI63
g0
(g39
g2
Ntp355
Rp356
(dp357
g43
Nsg44
g45
sg46
(lp358
I95
aI85
aI88
aI97
asg48
I63
sg49
I00
sg50
g353
sg55
g354
sbsI64
g0
(g39
g2
Ntp359
Rp360
(dp361
g43
Nsg44
g45
sg46
(lp362
I96
aI97
aI99
aI98
asg48
I64
sg49
I00
sg50
(dp363
g52
Nsg53
Nsg54
Nssg55
S'elset_wall_2_9_element_prop'
p364
sbsI65
g0
(g39
g2
Ntp365
Rp366
(dp367
g43
Nsg44
g45
sg46
(lp368
I97
aI88
aI90
aI99
asg48
I65
sg49
I00
sg50
g363
sg55
g364
sbsI66
g0
(ccompas_fea.structure.element
MPCElement
p369
g2
Ntp370
Rp371
(dp372
g43
Nsg44
S'MPCElement'
p373
sg46
(lp374
I83
aI31
asg48
I66
sg49
I00
sg50
(dp375
g52
Nsg53
(lp376
F2.7284841053187847e-12
aF0.0
aF471.15179749804832
asg54
Nssg55
S'elset_mpc_element_prop'
p377
sbsI67
g0
(g369
g2
Ntp378
Rp379
(dp380
g43
Nsg44
g373
sg46
(lp381
I80
aI23
asg48
I67
sg49
I00
sg50
(dp382
g52
Nsg53
(lp383
F3.865352482534945e-12
aF0.0
aF471.15179749804832
asg54
Nssg55
g377
sbsI68
g0
(g369
g2
Ntp384
Rp385
(dp386
g43
Nsg44
g373
sg46
(lp387
I77
aI15
asg48
I68
sg49
I00
sg50
(dp388
g52
Nsg53
(lp389
F-3.0695446184836328e-12
aF0.0
aF471.15179749804832
asg54
Nssg55
g377
sbsI69
g0
(g369
g2
Ntp390
Rp391
(dp392
g43
Nsg44
g373
sg46
(lp393
I76
aI14
asg48
I69
sg49
I00
sg50
(dp394
g52
Nsg53
(lp395
F0.0
aF0.0
aF471.15179749804832
asg54
Nssg55
g377
sbsI70
g0
(g369
g2
Ntp396
Rp397
(dp398
g43
Nsg44
g373
sg46
(lp399
I55
aI24
asg48
I70
sg49
I00
sg50
(dp400
g52
Nsg53
(lp401
F2.7284841053187847e-12
aF0.0
aF471.15179749804832
asg54
Nssg55
g377
sbsI71
g0
(g369
g2
Ntp402
Rp403
(dp404
g43
Nsg44
g373
sg46
(lp405
I52
aI16
asg48
I71
sg49
I00
sg50
(dp406
g52
Nsg53
(lp407
F3.865352482534945e-12
aF0.0
aF471.15179749804832
asg54
Nssg55
g377
sbsI72
g0
(g369
g2
Ntp408
Rp409
(dp410
g43
Nsg44
g373
sg46
(lp411
I49
aI1
asg48
I72
sg49
I00
sg50
(dp412
g52
Nsg53
(lp413
F-3.0695446184836328e-12
aF0.0
aF471.15179749804832
asg54
Nssg55
g377
sbsI73
g0
(g369
g2
Ntp414
Rp415
(dp416
g43
Nsg44
g373
sg46
(lp417
I48
aI0
asg48
I73
sg49
I00
sg50
(dp418
g52
Nsg53
(lp419
F0.0
aF0.0
aF471.15179749804832
asg54
Nssg55
g377
sbssS'element_index'
p420
(dp421
S'2541.024,3475.432,0.000'
p422
I14
sS'1515.430,12637.935,-4553.409'
p423
I62
sS'2541.024,0.000,-3819.270'
p424
I47
sS'1515.430,11942.849,0.000'
p425
I11
sS'505.143,4707.631,0.000'
p426
I18
sS'1515.430,9162.503,0.000'
p427
I9
sS'1515.430,4707.631,0.000'
p428
I22
sS'1515.430,10552.676,0.000'
p429
I10
sS'505.143,10552.676,0.000'
p430
I4
sS'1515.430,5781.855,0.000'
p431
I23
sS'2541.024,4707.631,0.000'
p432
I26
sS'2020.573,0.000,-235.576'
p433
I71
sS'2541.024,0.000,-838.221'
p434
I35
sS'1515.430,2085.259,0.000'
p435
I7
sS'505.143,0.000,-3819.270'
p436
I43
sS'1515.430,0.000,-4553.409'
p437
I44
sS'505.143,0.000,-4553.409'
p438
I42
sS'2541.024,12637.935,-2317.622'
p439
I59
sS'505.143,3475.432,0.000'
p440
I2
sS'2541.024,695.086,0.000'
p441
I12
sS'2541.024,6856.080,0.000'
p442
I28
sS'1515.430,6856.080,0.000'
p443
I24
sS'1515.430,3475.432,0.000'
p444
I8
sS'505.143,11942.849,0.000'
p445
I5
sS'1515.430,0.000,-3074.008'
p446
I38
sS'2020.573,12637.935,-235.576'
p447
I67
sS'2541.024,2085.259,0.000'
p448
I13
sS'1515.430,695.086,0.000'
p449
I6
sS'2541.024,12637.935,-1572.360'
p450
I52
sS'2541.024,9162.503,0.000'
p451
I15
sS'1515.430,0.000,-838.221'
p452
I33
sS'3061.475,12637.935,-235.576'
p453
I66
sS'0.000,12637.935,-235.576'
p454
I69
sS'505.143,0.000,-2317.622'
p455
I37
sS'505.143,12637.935,-3074.008'
p456
I54
sS'2541.024,10552.676,0.000'
p457
I16
sS'2541.024,0.000,-1572.360'
p458
I34
sS'1010.287,12637.935,-235.576'
p459
I68
sS'2541.024,12637.935,-3074.008'
p460
I58
sS'1515.430,12637.935,-3074.008'
p461
I56
sS'505.143,2085.259,0.000'
p462
I1
sS'505.143,695.086,0.000'
p463
I0
sS'2541.024,0.000,-3074.008'
p464
I40
sS'505.143,12637.935,-2317.622'
p465
I55
sS'505.143,0.000,-838.221'
p466
I31
sS'505.143,12637.935,-4553.409'
p467
I60
sS'1515.430,12637.935,-1572.360'
p468
I50
sS'505.143,12637.935,-838.221'
p469
I49
sS'1515.430,12637.935,-2317.622'
p470
I57
sS'2541.024,12637.935,-3819.270'
p471
I65
sS'1515.430,0.000,-3819.270'
p472
I45
sS'1010.287,0.000,-235.576'
p473
I72
sS'505.143,7930.304,0.000'
p474
I21
sS'1515.430,7930.304,0.000'
p475
I25
sS'505.143,12637.935,-3819.270'
p476
I61
sS'1515.430,12637.935,-3819.270'
p477
I63
sS'505.143,6856.080,0.000'
p478
I20
sS'2541.024,11942.849,0.000'
p479
I17
sS'505.143,0.000,-1572.360'
p480
I30
sS'2541.024,0.000,-2317.622'
p481
I41
sS'505.143,0.000,-3074.008'
p482
I36
sS'505.143,12637.935,-1572.360'
p483
I48
sS'505.143,5781.855,0.000'
p484
I19
sS'1515.430,12637.935,-838.221'
p485
I51
sS'2541.024,12637.935,-4553.409'
p486
I64
sS'3061.475,0.000,-235.576'
p487
I70
sS'2541.024,0.000,-4553.409'
p488
I46
sS'0.000,0.000,-235.576'
p489
I73
sS'505.143,9162.503,0.000'
p490
I3
sS'1515.430,0.000,-2317.622'
p491
I39
sS'1515.430,0.000,-1572.360'
p492
I32
sS'2541.024,12637.935,-838.221'
p493
I53
sS'2541.024,7930.304,0.000'
p494
I29
sS'2541.024,5781.855,0.000'
p495
I27
ssS'element_properties'
p496
(dp497
g314
g0
(ccompas_fea.structure.element_properties
ElementProperties
p498
g2
Ntp499
Rp500
(dp501
g15
I21
sS'__name__'
p502
S'ElementProperties'
p503
sS'name'
p504
g314
sS'material'
p505
S'wall_element_mat'
p506
sS'section'
p507
S'wall2_element_sec'
p508
sS'elset'
p509
S'elset_wall_2_4'
p510
sS'elements'
p511
NsS'rebar'
p512
(dp513
sbsg204
g0
(g498
g2
Ntp514
Rp515
(dp516
g15
I10
sg502
g503
sg504
g204
sg505
g506
sg507
S'wall1_element_sec'
p517
sg509
S'elset_wall_1_2'
p518
sg511
Nsg512
g513
sbsg264
g0
(g498
g2
Ntp519
Rp520
(dp521
g15
I16
sg502
g503
sg504
g264
sg505
g506
sg507
g517
sg509
S'elset_wall_1_8'
p522
sg511
Nsg512
g513
sbsg294
g0
(g498
g2
Ntp523
Rp524
(dp525
g15
I19
sg502
g503
sg504
g294
sg505
g506
sg507
g508
sg509
S'elset_wall_2_2'
p526
sg511
Nsg512
g513
sbsg56
g0
(g498
g2
Ntp527
Rp528
(dp529
g15
I0
sg502
g503
sg504
g56
sg505
S'plate_element_mat'
p530
sg507
S'plate_element_sec'
p531
sg509
S'elset_plate_1'
p532
sg511
Nsg512
g513
sbsg324
g0
(g498
g2
Ntp533
Rp534
(dp535
g15
I22
sg502
g503
sg504
g324
sg505
g506
sg507
g508
sg509
S'elset_wall_2_5'
p536
sg511
Nsg512
g513
sbsg176
g0
(g498
g2
Ntp537
Rp538
(dp539
g15
I8
sg502
g503
sg504
g176
sg505
g530
sg507
g531
sg509
S'elset_plate_9'
p540
sg511
Nsg512
g513
sbsg244
g0
(g498
g2
Ntp541
Rp542
(dp543
g15
I14
sg502
g503
sg504
g244
sg505
g506
sg507
g517
sg509
S'elset_wall_1_6'
p544
sg511
Nsg512
g513
sbsg112
g0
(g498
g2
Ntp545
Rp546
(dp547
g15
I4
sg502
g503
sg504
g112
sg505
g530
sg507
g531
sg509
S'elset_plate_5'
p548
sg511
Nsg512
g513
sbsg214
g0
(g498
g2
Ntp549
Rp550
(dp551
g15
I11
sg502
g503
sg504
g214
sg505
g506
sg507
g517
sg509
S'elset_wall_1_3'
p552
sg511
Nsg512
g513
sbsg84
g0
(g498
g2
Ntp553
Rp554
(dp555
g15
I2
sg502
g503
sg504
g84
sg505
g530
sg507
g531
sg509
S'elset_plate_3'
p556
sg511
Nsg512
g513
sbsg304
g0
(g498
g2
Ntp557
Rp558
(dp559
g15
I20
sg502
g503
sg504
g304
sg505
g506
sg507
g508
sg509
S'elset_wall_2_3'
p560
sg511
Nsg512
g513
sbsg334
g0
(g498
g2
Ntp561
Rp562
(dp563
g15
I23
sg502
g503
sg504
g334
sg505
g506
sg507
g508
sg509
S'elset_wall_2_6'
p564
sg511
Nsg512
g513
sbsg224
g0
(g498
g2
Ntp565
Rp566
(dp567
g15
I12
sg502
g503
sg504
g224
sg505
g506
sg507
g517
sg509
S'elset_wall_1_4'
p568
sg511
Nsg512
g513
sbsg274
g0
(g498
g2
Ntp569
Rp570
(dp571
g15
I17
sg502
g503
sg504
g274
sg505
g506
sg507
g517
sg509
S'elset_wall_1_9'
p572
sg511
Nsg512
g513
sbsg158
g0
(g498
g2
Ntp573
Rp574
(dp575
g15
I7
sg502
g503
sg504
g158
sg505
g530
sg507
g531
sg509
S'elset_plate_8'
p576
sg511
Nsg512
g513
sbsg194
g0
(g498
g2
Ntp577
Rp578
(dp579
g15
I9
sg502
g503
sg504
g194
sg505
g506
sg507
g517
sg509
S'elset_wall_1_1'
p580
sg511
Nsg512
g513
sbsg140
g0
(g498
g2
Ntp581
Rp582
(dp583
g15
I6
sg502
g503
sg504
g140
sg505
g530
sg507
g531
sg509
S'elset_plate_7'
p584
sg511
Nsg512
g513
sbsg354
g0
(g498
g2
Ntp585
Rp586
(dp587
g15
I25
sg502
g503
sg504
g354
sg505
g506
sg507
g508
sg509
S'elset_wall_2_8'
p588
sg511
Nsg512
g513
sbsg98
g0
(g498
g2
Ntp589
Rp590
(dp591
g15
I3
sg502
g503
sg504
g98
sg505
g530
sg507
g531
sg509
S'elset_plate_4'
p592
sg511
Nsg512
g513
sbsg70
g0
(g498
g2
Ntp593
Rp594
(dp595
g15
I1
sg502
g503
sg504
g70
sg505
g530
sg507
g531
sg509
S'elset_plate_2'
p596
sg511
Nsg512
g513
sbsg377
g0
(g498
g2
Ntp597
Rp598
(dp599
g15
I27
sg502
g503
sg504
g377
sg505
S'elset_mpc_element_mat'
p600
sg507
S'sec_mpc'
p601
sg509
S'elset_mpcs'
p602
sg511
Nsg512
g513
sbsg254
g0
(g498
g2
Ntp603
Rp604
(dp605
g15
I15
sg502
g503
sg504
g254
sg505
g506
sg507
g517
sg509
S'elset_wall_1_7'
p606
sg511
Nsg512
g513
sbsg344
g0
(g498
g2
Ntp607
Rp608
(dp609
g15
I24
sg502
g503
sg504
g344
sg505
g506
sg507
g508
sg509
S'elset_wall_2_7'
p610
sg511
Nsg512
g513
sbsg364
g0
(g498
g2
Ntp611
Rp612
(dp613
g15
I26
sg502
g503
sg504
g364
sg505
g506
sg507
g508
sg509
S'elset_wall_2_9'
p614
sg511
Nsg512
g513
sbsg284
g0
(g498
g2
Ntp615
Rp616
(dp617
g15
I18
sg502
g503
sg504
g284
sg505
g506
sg507
g508
sg509
S'elset_wall_2_1'
p618
sg511
Nsg512
g513
sbsg126
g0
(g498
g2
Ntp619
Rp620
(dp621
g15
I5
sg502
g503
sg504
g126
sg505
g530
sg507
g531
sg509
S'elset_plate_6'
p622
sg511
Nsg512
g513
sbsg234
g0
(g498
g2
Ntp623
Rp624
(dp625
g15
I13
sg502
g503
sg504
g234
sg505
g506
sg507
g517
sg509
S'elset_wall_1_5'
p626
sg511
Nsg512
g513
sbssS'interactions'
p627
(dp628
sS'loads'
p629
(dp630
S'earthPressure_liveLoad'
p631
g0
(ccompas_fea.structure.load
AreaLoad
p632
g2
Ntp633
Rp634
(dp635
g15
I9
sS'__name__'
p636
S'AreaLoad'
p637
sS'name'
p638
g631
sS'axes'
p639
S'local'
p640
sS'components'
p641
(dp642
g23
F0.037699999999999997
sg27
I0
sg28
I0
ssS'nodes'
p643
(lp644
sS'elements'
p645
(lp646
I31
aI32
aI33
aI34
aI35
aI36
aI37
aI38
aI39
aI40
aI41
aI42
aI43
aI44
aI45
aI46
aI47
aI48
asS'attr_list'
p647
(lp648
S'name'
p649
aS'axes'
p650
aS'components'
p651
aS'nodes'
p652
aS'elements'
p653
asbsS'Gleis1_BAHNLASTEN_Lasteinzugsflache_Lastblock_-2'
p654
g0
(g632
g2
Ntp655
Rp656
(dp657
g15
I8
sg636
g637
sg638
g654
sg639
S'global'
p658
sg641
(dp659
g23
F0.096255243745980545
sg27
I0
sg28
I0
ssg643
g644
sg645
(lp660
I1
asg647
(lp661
g649
ag650
ag651
ag652
ag653
asbsS'Gleis1_EIGENGEWICHTE_SCHIENE_Lasteinzugsflache'
p662
g0
(g632
g2
Ntp663
Rp664
(dp665
g15
I3
sg636
g637
sg638
g662
sg639
g658
sg641
(dp666
g23
F0.002527979331334597
sg27
I0
sg28
I0
ssg643
g644
sg645
(lp667
I1
aI2
aI3
aI7
aI8
aI9
aI10
aI11
aI12
aI13
aI14
aI15
aI16
aI17
aI18
aI19
aI20
aI21
aI22
aI23
aI24
aI25
aI26
aI27
aI28
aI29
aI30
asg647
(lp668
g649
ag650
ag651
ag652
ag653
asbsS'earthPressure_backfill'
p669
g0
(g632
g2
Ntp670
Rp671
(dp672
g15
I2
sg636
g637
sg638
g669
sg639
g640
sg641
(dp673
g23
F0.051659822706493275
sg27
I0
sg28
I0
ssg643
g644
sg645
(lp674
g580
ag518
ag552
ag568
ag626
ag544
ag606
ag522
ag572
ag618
ag526
ag560
ag510
ag536
ag564
ag610
ag588
ag614
asg647
(lp675
g649
ag650
ag651
ag652
ag653
asbsS'Gleis1_BAHNLASTEN_Lasteinzugsflache_Lastblock_2'
p676
g0
(g632
g2
Ntp677
Rp678
(dp679
g15
I5
sg636
g637
sg638
g676
sg639
g658
sg641
(dp680
g23
F0.096255243745980545
sg27
I0
sg28
I0
ssg643
g644
sg645
(lp681
I10
aI16
asg647
(lp682
g649
ag650
ag651
ag652
ag653
asbsS'earthPressure_gravel'
p683
g0
(g632
g2
Ntp684
Rp685
(dp686
g15
I1
sg636
g637
sg638
g683
sg639
g658
sg641
(dp687
g23
F0.013500000000000002
sg27
I0
sg28
I0
ssg643
g644
sg645
(lp688
g532
ag596
ag556
ag592
ag548
ag622
ag584
ag576
ag540
asg647
(lp689
g649
ag650
ag651
ag652
ag653
asbsS'Gleis1_BAHNLASTEN_Lasteinzugsflache_Lastblock_3'
p690
g0
(g632
g2
Ntp691
Rp692
(dp693
g15
I6
sg636
g637
sg638
g690
sg639
g658
sg641
(dp694
g23
F0.096255243745980545
sg27
I0
sg28
I0
ssg643
g644
sg645
(lp695
I11
aI12
aI17
asg647
(lp696
g649
ag650
ag651
ag652
ag653
asbsS'Gleis1_BAHNLASTEN_Lasteinzugsflache_Lastblock_1'
p697
g0
(g632
g2
Ntp698
Rp699
(dp700
g15
I4
sg636
g637
sg638
g697
sg639
g658
sg641
(dp701
g23
F0.096255243745980545
sg27
I0
sg28
I0
ssg643
g644
sg645
(lp702
I20
aI21
aI24
aI25
aI28
aI29
asg647
(lp703
g649
ag650
ag651
ag652
ag653
asbsS'load_gravity'
p704
g0
(ccompas_fea.structure.load
GravityLoad
p705
g2
Ntp706
Rp707
(dp708
g15
I0
sg636
S'GravityLoad'
p709
sg638
g704
sg639
g658
sg641
(dp710
g23
F1.3500000000000001
sg27
F0.0
sg28
F0.0
ssg643
g644
sg645
(lp711
g532
ag596
ag556
ag592
ag548
ag622
ag584
ag576
ag540
ag580
ag518
ag552
ag568
ag626
ag544
ag606
ag522
ag572
ag618
ag526
ag560
ag510
ag536
ag564
ag610
ag588
ag614
asg647
(lp712
g649
ag650
ag651
ag652
ag653
aS'g'
p713
asS'g'
p714
F-9.8100000000000005
sbsS'Gleis1_BAHNLASTEN_Lasteinzugsflache_Lastblock_-1'
p715
g0
(g632
g2
Ntp716
Rp717
(dp718
g15
I7
sg636
g637
sg638
g715
sg639
g658
sg641
(dp719
g23
F0.096255243745980545
sg27
I0
sg28
I0
ssg643
g644
sg645
(lp720
I19
aI23
aI27
asg647
(lp721
g649
ag650
ag651
ag652
ag653
asbssS'materials'
p722
(dp723
g600
g0
(ccompas_fea.structure.material
MPCStiff
p724
g2
Ntp725
Rp726
(dp727
g15
I2
sS'__name__'
p728
S'MPCStiff'
p729
sS'name'
p730
g600
sS'attr_list'
p731
(lp732
g649
aS'E'
p733
aS'v'
p734
aS'G'
p735
aS'p'
p736
aS'tension'
p737
aS'compression'
p738
asS'E'
p739
(dp740
g733
L10000000000000L
ssS'v'
p741
(dp742
g734
F0.29999999999999999
ssS'G'
p743
(dp744
g735
F3846153846153.8462
ssS'p'
p745
F0.10000000000000001
sS'tension'
p746
I01
sS'compression'
p747
I01
sbsg506
g0
(ccompas_fea.structure.material
CMMUsermat
p748
g2
Ntp749
Rp750
(dp751
g15
I1
sg728
S'CMMUsermat'
p752
sg730
g506
sg731
(lp753
g649
ag733
ag734
ag735
ag736
aS'R_Rohr'
p754
aS'rho'
p755
aS'oo'
p756
aS'uu'
p757
aS'beton'
p758
aS'fcc'
p759
aS'vc'
p760
aS'ecu'
p761
aS'k_E'
p762
aS'theta_b0'
p763
aS'theta_b1'
p764
aS'k_riss'
p765
aS'Entfestigung'
p766
aS'lambdaTS'
p767
aS'srmx'
p768
aS'srmy'
p769
aS'Begrenzung'
p770
aS'KritQ'
p771
aS'winkelD'
p772
aS'k_vr'
p773
aS'fswy'
p774
aS'stahl1'
p775
aS'zm1'
p776
aS'fsy1'
p777
aS'fsu1'
p778
aS'esu1'
p779
aS'esv1'
p780
aS'Es1'
p781
aS'ka1'
p782
aS'kb1'
p783
aS'kc1'
p784
aS'as1'
p785
aS'dm1'
p786
aS'psi1'
p787
aS'stahl2'
p788
aS'zm2'
p789
aS'fsy2'
p790
aS'fsu2'
p791
aS'esu2'
p792
aS'esv2'
p793
aS'Es2'
p794
aS'ka2'
p795
aS'kb2'
p796
aS'kc2'
p797
aS'as2'
p798
aS'dm2'
p799
aS'psi2'
p800
aS'stahl3'
p801
aS'zm3'
p802
aS'fsy3'
p803
aS'fsu3'
p804
aS'esu3'
p805
aS'esv3'
p806
aS'Es3'
p807
aS'ka3'
p808
aS'kb3'
p809
aS'kc3'
p810
aS'as3'
p811
aS'dm3'
p812
aS'psi3'
p813
aS'stahl4'
p814
aS'zm4'
p815
aS'fsy4'
p816
aS'fsu4'
p817
aS'esu4'
p818
aS'esv4'
p819
aS'Es4'
p820
aS'ka4'
p821
aS'kb4'
p822
aS'kc4'
p823
aS'as4'
p824
aS'dm4'
p825
aS'psi4'
p826
asS'E'
p827
(dp828
S'E'
p829
I200000
ssS'v'
p830
(dp831
S'v'
p832
F0.10000000000000001
ssS'G'
p833
(dp834
g735
F90909.090909090897
ssS'p'
p835
F2.5000000000000002e-06
sS'R_Rohr'
p836
(dp837
g754
I-1
ssS'rho'
p838
(dp839
g755
F2.5000000000000002e-06
ssS'oo'
p840
(dp841
g756
I30
ssS'uu'
p842
(dp843
g757
I30
ssS'beton'
p844
(dp845
g758
I2
ssS'fcc'
p846
(dp847
g759
I48
ssS'vc'
p848
(dp849
g760
I0
ssS'ecu'
p850
(dp851
g761
F-0.002
ssS'k_E'
p852
(dp853
g762
I10000
ssS'theta_b0'
p854
(dp855
g763
I2
ssS'theta_b1'
p856
(dp857
g764
I1
ssS'k_riss'
p858
(dp859
g765
I0
ssS'Entfestigung'
p860
(dp861
g766
I0
ssS'lambdaTS'
p862
(dp863
g767
F0.67000000000000004
ssS'srmx'
p864
(dp865
g768
I1
ssS'srmy'
p866
(dp867
g769
I1
ssS'Begrenzung'
p868
(dp869
g770
I2
ssS'KritQ'
p870
(dp871
g771
I0
ssS'winkelD'
p872
(dp873
g772
I45
ssS'k_vr'
p874
(dp875
g773
I1
ssS'fswy'
p876
(dp877
g774
I500
ssS'stahl1'
p878
(dp879
g775
I1
ssS'zm1'
p880
(dp881
g776
I2
ssS'fsy1'
p882
(dp883
g777
I315
ssS'fsu1'
p884
(dp885
g778
I340
ssS'esu1'
p886
(dp887
g779
F0.044999999999999998
ssS'esv1'
p888
(dp889
g780
F0.02
ssS'Es1'
p890
(dp891
g781
I200000
ssS'ka1'
p892
(dp893
g782
I-1
ssS'kb1'
p894
(dp895
g783
I-1
ssS'kc1'
p896
(dp897
g784
I-1
ssS'as1'
p898
(dp899
g785
F0.71839822185366931
ssS'dm1'
p900
(dp901
g786
F20.783772000180537
ssS'psi1'
p902
(dp903
g787
I90
ssS'stahl2'
p904
(dp905
g788
I1
ssS'zm2'
p906
(dp907
g789
I2
ssS'fsy2'
p908
(dp909
g790
I315
ssS'fsu2'
p910
(dp911
g791
I340
ssS'esu2'
p912
(dp913
g792
F0.044999999999999998
ssS'esv2'
p914
(dp915
g793
F0.02
ssS'Es2'
p916
(dp917
g794
I200000
ssS'ka2'
p918
(dp919
g795
I-1
ssS'kb2'
p920
(dp921
g796
I-1
ssS'kc2'
p922
(dp923
g797
I-1
ssS'as2'
p924
(dp925
g798
F0.23948537771694414
ssS'dm2'
p926
(dp927
g799
F12.0
ssS'psi2'
p928
(dp929
g800
I0
ssS'stahl3'
p930
(dp931
g801
I1
ssS'zm3'
p932
(dp933
g802
I2
ssS'fsy3'
p934
(dp935
g803
I315
ssS'fsu3'
p936
(dp937
g804
I340
ssS'esu3'
p938
(dp939
g805
F0.044999999999999998
ssS'esv3'
p940
(dp941
g806
F0.02
ssS'Es3'
p942
(dp943
g807
I200000
ssS'ka3'
p944
(dp945
g808
I-1
ssS'kb3'
p946
(dp947
g809
I-1
ssS'kc3'
p948
(dp949
g810
I-1
ssS'as3'
p950
(dp951
g811
F0.23948537771694414
ssS'dm3'
p952
(dp953
g812
F12.0
ssS'psi3'
p954
(dp955
g813
I0
ssS'stahl4'
p956
(dp957
g814
I1
ssS'zm4'
p958
(dp959
g815
I2
ssS'fsy4'
p960
(dp961
g816
I315
ssS'fsu4'
p962
(dp963
g817
I340
ssS'esu4'
p964
(dp965
g818
F0.044999999999999998
ssS'esv4'
p966
(dp967
g819
F0.02
ssS'Es4'
p968
(dp969
g820
I200000
ssS'ka4'
p970
(dp971
g821
I-1
ssS'kb4'
p972
(dp973
g822
I-1
ssS'kc4'
p974
(dp975
g823
I-1
ssS'as4'
p976
(dp977
g824
F0.18190013112439268
ssS'dm4'
p978
(dp979
g825
F10.458231505109378
ssS'psi4'
p980
(dp981
g826
I90
ssbsg530
g0
(g748
g2
Ntp982
Rp983
(dp984
g15
I0
sg728
g752
sg730
g530
sg731
(lp985
g649
ag733
ag734
ag735
ag736
ag754
ag755
ag756
ag757
ag758
ag759
ag760
ag761
ag762
ag763
ag764
ag765
ag766
ag767
ag768
ag769
ag770
ag771
ag772
ag773
ag774
ag775
ag776
ag777
ag778
ag779
ag780
ag781
ag782
ag783
ag784
ag785
ag786
ag787
ag788
ag789
ag790
ag791
ag792
ag793
ag794
ag795
ag796
ag797
ag798
ag799
ag800
ag801
ag802
ag803
ag804
ag805
ag806
ag807
ag808
ag809
ag810
ag811
ag812
ag813
ag814
ag815
ag816
ag817
ag818
ag819
ag820
ag821
ag822
ag823
ag824
ag825
ag826
asg827
(dp986
g829
I200000
ssg830
(dp987
g832
F0.10000000000000001
ssg833
(dp988
g735
F90909.090909090897
ssg835
F2.5000000000000002e-06
sg836
(dp989
g754
I-1
ssg838
(dp990
g755
F2.5000000000000002e-06
ssg840
(dp991
g756
I30
ssg842
(dp992
g757
I30
ssg844
(dp993
g758
I2
ssg846
(dp994
g759
I48
ssg848
(dp995
g760
I0
ssg850
(dp996
g761
F-0.002
ssg852
(dp997
g762
I10000
ssg854
(dp998
g763
I2
ssg856
(dp999
g764
I1
ssg858
(dp1000
g765
I0
ssg860
(dp1001
g766
I0
ssg862
(dp1002
g767
F0.67000000000000004
ssg864
(dp1003
g768
I1
ssg866
(dp1004
g769
I1
ssg868
(dp1005
g770
I2
ssg870
(dp1006
g771
I0
ssg872
(dp1007
g772
I45
ssg874
(dp1008
g773
I1
ssg876
(dp1009
g774
I500
ssg878
(dp1010
g775
I1
ssg880
(dp1011
g776
I2
ssg882
(dp1012
g777
I315
ssg884
(dp1013
g778
I340
ssg886
(dp1014
g779
F0.044999999999999998
ssg888
(dp1015
g780
F0.02
ssg890
(dp1016
g781
I200000
ssg892
(dp1017
g782
I-1
ssg894
(dp1018
g783
I-1
ssg896
(dp1019
g784
I-1
ssg898
(dp1020
g785
F1.6382761260347776
ssg900
(dp1021
g786
F22.320415320198745
ssg902
(dp1022
g787
I90
ssg904
(dp1023
g788
I1
ssg906
(dp1024
g789
I2
ssg908
(dp1025
g790
I315
ssg910
(dp1026
g791
I340
ssg912
(dp1027
g792
F0.044999999999999998
ssg914
(dp1028
g793
F0.02
ssg916
(dp1029
g794
I200000
ssg918
(dp1030
g795
I-1
ssg920
(dp1031
g796
I-1
ssg922
(dp1032
g797
I-1
ssg924
(dp1033
g798
F1.0080629002129993
ssg926
(dp1034
g799
F17.508644949391773
ssg928
(dp1035
g800
I0
ssg930
(dp1036
g801
I1
ssg932
(dp1037
g802
I2
ssg934
(dp1038
g803
I315
ssg936
(dp1039
g804
I340
ssg938
(dp1040
g805
F0.044999999999999998
ssg940
(dp1041
g806
F0.02
ssg942
(dp1042
g807
I200000
ssg944
(dp1043
g808
I-1
ssg946
(dp1044
g809
I-1
ssg948
(dp1045
g810
I-1
ssg950
(dp1046
g811
F0.4735273324006134
ssg952
(dp1047
g812
F12.0
ssg954
(dp1048
g813
I0
ssg956
(dp1049
g814
I1
ssg958
(dp1050
g815
I2
ssg960
(dp1051
g816
I315
ssg962
(dp1052
g817
I340
ssg964
(dp1053
g818
F0.044999999999999998
ssg966
(dp1054
g819
F0.02
ssg968
(dp1055
g820
I200000
ssg970
(dp1056
g821
I-1
ssg972
(dp1057
g822
I-1
ssg974
(dp1058
g823
I-1
ssg976
(dp1059
g824
F0.42749758751506983
ssg978
(dp1060
g825
F11.401856063972808
ssg980
(dp1061
g826
I90
ssbssS'misc'
p1062
(dp1063
sS'name'
p1064
S'NLFE_CFB1'
p1065
sS'nodes'
p1066
(dp1067
I0
g0
(ccompas_fea.structure.node
Node
p1068
g2
Ntp1069
Rp1070
(dp1071
S'__name__'
p1072
S'Node'
p1073
sS'key'
p1074
I0
sS'x'
p1075
F0.0
sS'y'
p1076
F0.0
sS'z'
p1077
F0.0
sS'ex'
p1078
(lp1079
I1
aI0
aI0
asS'ey'
p1080
(lp1081
I0
aI1
aI0
asS'ez'
p1082
(lp1083
I0
aI0
aI1
asS'mass'
p1084
NsbsI1
g0
(g1068
g2
Ntp1085
Rp1086
(dp1087
g1072
g1073
sg1074
I1
sg1075
F1010.2865970117469
sg1076
F0.0
sg1077
F0.0
sg1078
g1079
sg1080
g1081
sg1082
g1083
sg1084
NsbsI2
g0
(g1068
g2
Ntp1088
Rp1089
(dp1090
g1072
g1073
sg1074
I2
sg1075
F0.0
sg1076
F1390.1728904238789
sg1077
F0.0
sg1078
g1079
sg1080
g1081
sg1082
g1083
sg1084
NsbsI3
g0
(g1068
g2
Ntp1091
Rp1092
(dp1093
g1072
g1073
sg1074
I3
sg1075
F1010.2865970117468
sg1076
F1390.1728904238789
sg1077
F0.0
sg1078
g1079
sg1080
g1081
sg1082
g1083
sg1084
NsbsI4
g0
(g1068
g2
Ntp1094
Rp1095
(dp1096
g1072
g1073
sg1074
I4
sg1075
F0.0
sg1076
F2780.3457808477579
sg1077
F0.0
sg1078
g1079
sg1080
g1081
sg1082
g1083
sg1084
NsbsI5
g0
(g1068
g2
Ntp1097
Rp1098
(dp1099
g1072
g1073
sg1074
I5
sg1075
F1010.2865970117468
sg1076
F2780.3457808477579
sg1077
F0.0
sg1078
g1079
sg1080
g1081
sg1082
g1083
sg1084
NsbsI6
g0
(g1068
g2
Ntp1100
Rp1101
(dp1102
g1072
g1073
sg1074
I6
sg1075
F0.0
sg1076
F4170.5186712716368
sg1077
F0.0
sg1078
g1079
sg1080
g1081
sg1082
g1083
sg1084
NsbsI7
g0
(g1068
g2
Ntp1103
Rp1104
(dp1105
g1072
g1073
sg1074
I7
sg1075
F1010.2865970117469
sg1076
F4170.5186712716368
sg1077
F0.0
sg1078
g1079
sg1080
g1081
sg1082
g1083
sg1084
NsbsI8
g0
(g1068
g2
Ntp1106
Rp1107
(dp1108
g1072
g1073
sg1074
I8
sg1075
F0.0
sg1076
F8467.4166962181716
sg1077
F0.0
sg1078
g1079
sg1080
g1081
sg1082
g1083
sg1084
NsbsI9
g0
(g1068
g2
Ntp1109
Rp1110
(dp1111
g1072
g1073
sg1074
I9
sg1075
F1010.2865970117469
sg1076
F8467.4166962181716
sg1077
F0.0
sg1078
g1079
sg1080
g1081
sg1082
g1083
sg1084
NsbsI10
g0
(g1068
g2
Ntp1112
Rp1113
(dp1114
g1072
g1073
sg1074
I10
sg1075
F0.0
sg1076
F9857.5895866420506
sg1077
F0.0
sg1078
g1079
sg1080
g1081
sg1082
g1083
sg1084
NsbsI11
g0
(g1068
g2
Ntp1115
Rp1116
(dp1117
g1072
g1073
sg1074
I11
sg1075
F1010.2865970117468
sg1076
F9857.5895866420506
sg1077
F0.0
sg1078
g1079
sg1080
g1081
sg1082
g1083
sg1084
NsbsI12
g0
(g1068
g2
Ntp1118
Rp1119
(dp1120
g1072
g1073
sg1074
I12
sg1075
F0.0
sg1076
F11247.762477065928
sg1077
F0.0
sg1078
g1079
sg1080
g1081
sg1082
g1083
sg1084
NsbsI13
g0
(g1068
g2
Ntp1121
Rp1122
(dp1123
g1072
g1073
sg1074
I13
sg1075
F1010.2865970117468
sg1076
F11247.762477065928
sg1077
F0.0
sg1078
g1079
sg1080
g1081
sg1082
g1083
sg1084
NsbsI14
g0
(g1068
g2
Ntp1124
Rp1125
(dp1126
g1072
g1073
sg1074
I14
sg1075
F0.0
sg1076
F12637.935367489808
sg1077
F0.0
sg1078
g1079
sg1080
g1081
sg1082
g1083
sg1084
NsbsI15
g0
(g1068
g2
Ntp1127
Rp1128
(dp1129
g1072
g1073
sg1074
I15
sg1075
F1010.2865970117469
sg1076
F12637.935367489808
sg1077
F0.0
sg1078
g1079
sg1080
g1081
sg1082
g1083
sg1084
NsbsI16
g0
(g1068
g2
Ntp1130
Rp1131
(dp1132
g1072
g1073
sg1074
I16
sg1075
F2020.5731940234939
sg1076
F0.0
sg1077
F0.0
sg1078
g1079
sg1080
g1081
sg1082
g1083
sg1084
NsbsI17
g0
(g1068
g2
Ntp1133
Rp1134
(dp1135
g1072
g1073
sg1074
I17
sg1075
F2020.5731940234937
sg1076
F1390.1728904238789
sg1077
F0.0
sg1078
g1079
sg1080
g1081
sg1082
g1083
sg1084
NsbsI18
g0
(g1068
g2
Ntp1136
Rp1137
(dp1138
g1072
g1073
sg1074
I18
sg1075
F2020.5731940234937
sg1076
F2780.3457808477579
sg1077
F0.0
sg1078
g1079
sg1080
g1081
sg1082
g1083
sg1084
NsbsI19
g0
(g1068
g2
Ntp1139
Rp1140
(dp1141
g1072
g1073
sg1074
I19
sg1075
F2020.5731940234939
sg1076
F4170.5186712716368
sg1077
F0.0
sg1078
g1079
sg1080
g1081
sg1082
g1083
sg1084
NsbsI20
g0
(g1068
g2
Ntp1142
Rp1143
(dp1144
g1072
g1073
sg1074
I20
sg1075
F2020.5731940234939
sg1076
F8467.4166962181716
sg1077
F0.0
sg1078
g1079
sg1080
g1081
sg1082
g1083
sg1084
NsbsI21
g0
(g1068
g2
Ntp1145
Rp1146
(dp1147
g1072
g1073
sg1074
I21
sg1075
F2020.5731940234937
sg1076
F9857.5895866420506
sg1077
F0.0
sg1078
g1079
sg1080
g1081
sg1082
g1083
sg1084
NsbsI22
g0
(g1068
g2
Ntp1148
Rp1149
(dp1150
g1072
g1073
sg1074
I22
sg1075
F2020.5731940234937
sg1076
F11247.762477065928
sg1077
F0.0
sg1078
g1079
sg1080
g1081
sg1082
g1083
sg1084
NsbsI23
g0
(g1068
g2
Ntp1151
Rp1152
(dp1153
g1072
g1073
sg1074
I23
sg1075
F2020.5731940234939
sg1076
F12637.935367489808
sg1077
F0.0
sg1078
g1079
sg1080
g1081
sg1082
g1083
sg1084
NsbsI24
g0
(g1068
g2
Ntp1154
Rp1155
(dp1156
g1072
g1073
sg1074
I24
sg1075
F3061.4745363992329
sg1076
F0.0
sg1077
F0.0
sg1078
g1079
sg1080
g1081
sg1082
g1083
sg1084
NsbsI25
g0
(g1068
g2
Ntp1157
Rp1158
(dp1159
g1072
g1073
sg1074
I25
sg1075
F3061.4745363992324
sg1076
F1390.1728904238789
sg1077
F0.0
sg1078
g1079
sg1080
g1081
sg1082
g1083
sg1084
NsbsI26
g0
(g1068
g2
Ntp1160
Rp1161
(dp1162
g1072
g1073
sg1074
I26
sg1075
F3061.4745363992324
sg1076
F2780.3457808477579
sg1077
F0.0
sg1078
g1079
sg1080
g1081
sg1082
g1083
sg1084
NsbsI27
g0
(g1068
g2
Ntp1163
Rp1164
(dp1165
g1072
g1073
sg1074
I27
sg1075
F3061.4745363992329
sg1076
F4170.5186712716368
sg1077
F0.0
sg1078
g1079
sg1080
g1081
sg1082
g1083
sg1084
NsbsI28
g0
(g1068
g2
Ntp1166
Rp1167
(dp1168
g1072
g1073
sg1074
I28
sg1075
F3061.4745363992329
sg1076
F8467.4166962181716
sg1077
F0.0
sg1078
g1079
sg1080
g1081
sg1082
g1083
sg1084
NsbsI29
g0
(g1068
g2
Ntp1169
Rp1170
(dp1171
g1072
g1073
sg1074
I29
sg1075
F3061.4745363992324
sg1076
F9857.5895866420506
sg1077
F0.0
sg1078
g1079
sg1080
g1081
sg1082
g1083
sg1084
NsbsI30
g0
(g1068
g2
Ntp1172
Rp1173
(dp1174
g1072
g1073
sg1074
I30
sg1075
F3061.4745363992324
sg1076
F11247.762477065928
sg1077
F0.0
sg1078
g1079
sg1080
g1081
sg1082
g1083
sg1084
NsbsI31
g0
(g1068
g2
Ntp1175
Rp1176
(dp1177
g1072
g1073
sg1074
I31
sg1075
F3061.4745363992329
sg1076
F12637.935367489808
sg1077
F0.0
sg1078
g1079
sg1080
g1081
sg1082
g1083
sg1084
NsbsI32
g0
(g1068
g2
Ntp1178
Rp1179
(dp1180
g1072
g1073
sg1074
I32
sg1075
F0.0
sg1076
F5244.7431775082705
sg1077
F0.0
sg1078
g1079
sg1080
g1081
sg1082
g1083
sg1084
NsbsI33
g0
(g1068
g2
Ntp1181
Rp1182
(dp1183
g1072
g1073
sg1074
I33
sg1075
F1010.2865970117469
sg1076
F5244.7431775082705
sg1077
F0.0
sg1078
g1079
sg1080
g1081
sg1082
g1083
sg1084
NsbsI34
g0
(g1068
g2
Ntp1184
Rp1185
(dp1186
g1072
g1073
sg1074
I34
sg1075
F0.0
sg1076
F6318.9676837449042
sg1077
F0.0
sg1078
g1079
sg1080
g1081
sg1082
g1083
sg1084
NsbsI35
g0
(g1068
g2
Ntp1187
Rp1188
(dp1189
g1072
g1073
sg1074
I35
sg1075
F1010.2865970117469
sg1076
F6318.9676837449042
sg1077
F0.0
sg1078
g1079
sg1080
g1081
sg1082
g1083
sg1084
NsbsI36
g0
(g1068
g2
Ntp1190
Rp1191
(dp1192
g1072
g1073
sg1074
I36
sg1075
F0.0
sg1076
F7393.1921899815388
sg1077
F0.0
sg1078
g1079
sg1080
g1081
sg1082
g1083
sg1084
NsbsI37
g0
(g1068
g2
Ntp1193
Rp1194
(dp1195
g1072
g1073
sg1074
I37
sg1075
F1010.2865970117469
sg1076
F7393.1921899815388
sg1077
F0.0
sg1078
g1079
sg1080
g1081
sg1082
g1083
sg1084
NsbsI38
g0
(g1068
g2
Ntp1196
Rp1197
(dp1198
g1072
g1073
sg1074
I38
sg1075
F2020.5731940234939
sg1076
F5244.7431775082705
sg1077
F0.0
sg1078
g1079
sg1080
g1081
sg1082
g1083
sg1084
NsbsI39
g0
(g1068
g2
Ntp1199
Rp1200
(dp1201
g1072
g1073
sg1074
I39
sg1075
F2020.5731940234939
sg1076
F6318.9676837449042
sg1077
F0.0
sg1078
g1079
sg1080
g1081
sg1082
g1083
sg1084
NsbsI40
g0
(g1068
g2
Ntp1202
Rp1203
(dp1204
g1072
g1073
sg1074
I40
sg1075
F2020.5731940234939
sg1076
F7393.1921899815388
sg1077
F0.0
sg1078
g1079
sg1080
g1081
sg1082
g1083
sg1084
NsbsI41
g0
(g1068
g2
Ntp1205
Rp1206
(dp1207
g1072
g1073
sg1074
I41
sg1075
F3061.4745363992329
sg1076
F5244.7431775082705
sg1077
F0.0
sg1078
g1079
sg1080
g1081
sg1082
g1083
sg1084
NsbsI42
g0
(g1068
g2
Ntp1208
Rp1209
(dp1210
g1072
g1073
sg1074
I42
sg1075
F3061.4745363992329
sg1076
F6318.9676837449042
sg1077
F0.0
sg1078
g1079
sg1080
g1081
sg1082
g1083
sg1084
NsbsI43
g0
(g1068
g2
Ntp1211
Rp1212
(dp1213
g1072
g1073
sg1074
I43
sg1075
F3061.4745363992329
sg1076
F7393.1921899815388
sg1077
F0.0
sg1078
g1079
sg1080
g1081
sg1082
g1083
sg1084
NsbsI44
g0
(g1068
g2
Ntp1214
Rp1215
(dp1216
g1072
g1073
sg1074
I44
sg1075
F0.0
sg1076
F0.0
sg1077
F-1939.4294382802348
sg1078
g1079
sg1080
g1081
sg1082
g1083
sg1084
NsbsI45
g0
(g1068
g2
Ntp1217
Rp1218
(dp1219
g1072
g1073
sg1074
I45
sg1075
F1010.28659701175
sg1076
F0.0
sg1077
F-1939.4294382802348
sg1078
g1079
sg1080
g1081
sg1082
g1083
sg1084
NsbsI46
g0
(g1068
g2
Ntp1220
Rp1221
(dp1222
g1072
g1073
sg1074
I46
sg1075
F0.0
sg1076
F0.0
sg1077
F-1205.2906178891415
sg1078
g1079
sg1080
g1081
sg1082
g1083
sg1084
NsbsI47
g0
(g1068
g2
Ntp1223
Rp1224
(dp1225
g1072
g1073
sg1074
I47
sg1075
F1010.28659701175
sg1076
F0.0
sg1077
F-1205.2906178891415
sg1078
g1079
sg1080
g1081
sg1082
g1083
sg1084
NsbsI48
g0
(g1068
g2
Ntp1226
Rp1227
(dp1228
g1072
g1073
sg1074
I48
sg1075
F0.0
sg1076
F0.0
sg1077
F-471.15179749804832
sg1078
g1079
sg1080
g1081
sg1082
g1083
sg1084
NsbsI49
g0
(g1068
g2
Ntp1229
Rp1230
(dp1231
g1072
g1073
sg1074
I49
sg1075
F1010.28659701175
sg1076
F0.0
sg1077
F-471.15179749804832
sg1078
g1079
sg1080
g1081
sg1082
g1083
sg1084
NsbsI50
g0
(g1068
g2
Ntp1232
Rp1233
(dp1234
g1072
g1073
sg1074
I50
sg1075
F2020.57319402349
sg1076
F0.0
sg1077
F-1939.4294382802348
sg1078
g1079
sg1080
g1081
sg1082
g1083
sg1084
NsbsI51
g0
(g1068
g2
Ntp1235
Rp1236
(dp1237
g1072
g1073
sg1074
I51
sg1075
F2020.57319402349
sg1076
F0.0
sg1077
F-1205.2906178891415
sg1078
g1079
sg1080
g1081
sg1082
g1083
sg1084
NsbsI52
g0
(g1068
g2
Ntp1238
Rp1239
(dp1240
g1072
g1073
sg1074
I52
sg1075
F2020.57319402349
sg1076
F0.0
sg1077
F-471.15179749804832
sg1078
g1079
sg1080
g1081
sg1082
g1083
sg1084
NsbsI53
g0
(g1068
g2
Ntp1241
Rp1242
(dp1243
g1072
g1073
sg1074
I53
sg1075
F3061.4745363992301
sg1076
F0.0
sg1077
F-1939.4294382802348
sg1078
g1079
sg1080
g1081
sg1082
g1083
sg1084
NsbsI54
g0
(g1068
g2
Ntp1244
Rp1245
(dp1246
g1072
g1073
sg1074
I54
sg1075
F3061.4745363992301
sg1076
F0.0
sg1077
F-1205.2906178891415
sg1078
g1079
sg1080
g1081
sg1082
g1083
sg1084
NsbsI55
g0
(g1068
g2
Ntp1247
Rp1248
(dp1249
g1072
g1073
sg1074
I55
sg1075
F3061.4745363992301
sg1076
F0.0
sg1077
F-471.15179749804832
sg1078
g1079
sg1080
g1081
sg1082
g1083
sg1084
NsbsI56
g0
(g1068
g2
Ntp1250
Rp1251
(dp1252
g1072
g1073
sg1074
I56
sg1075
F0.0
sg1076
F0.0
sg1077
F-3452.2003409043045
sg1078
g1079
sg1080
g1081
sg1082
g1083
sg1084
NsbsI57
g0
(g1068
g2
Ntp1253
Rp1254
(dp1255
g1072
g1073
sg1074
I57
sg1075
F1010.28659701175
sg1076
F0.0
sg1077
F-3452.2003409043045
sg1078
g1079
sg1080
g1081
sg1082
g1083
sg1084
NsbsI58
g0
(g1068
g2
Ntp1256
Rp1257
(dp1258
g1072
g1073
sg1074
I58
sg1075
F0.0
sg1076
F0.0
sg1077
F-2695.8148895922695
sg1078
g1079
sg1080
g1081
sg1082
g1083
sg1084
NsbsI59
g0
(g1068
g2
Ntp1259
Rp1260
(dp1261
g1072
g1073
sg1074
I59
sg1075
F1010.2865970117499
sg1076
F0.0
sg1077
F-2695.8148895922695
sg1078
g1079
sg1080
g1081
sg1082
g1083
sg1084
NsbsI60
g0
(g1068
g2
Ntp1262
Rp1263
(dp1264
g1072
g1073
sg1074
I60
sg1075
F2020.57319402349
sg1076
F0.0
sg1077
F-3452.2003409043045
sg1078
g1079
sg1080
g1081
sg1082
g1083
sg1084
NsbsI61
g0
(g1068
g2
Ntp1265
Rp1266
(dp1267
g1072
g1073
sg1074
I61
sg1075
F2020.5731940234898
sg1076
F0.0
sg1077
F-2695.8148895922695
sg1078
g1079
sg1080
g1081
sg1082
g1083
sg1084
NsbsI62
g0
(g1068
g2
Ntp1268
Rp1269
(dp1270
g1072
g1073
sg1074
I62
sg1075
F3061.4745363992301
sg1076
F0.0
sg1077
F-3452.2003409043045
sg1078
g1079
sg1080
g1081
sg1082
g1083
sg1084
NsbsI63
g0
(g1068
g2
Ntp1271
Rp1272
(dp1273
g1072
g1073
sg1074
I63
sg1075
F3061.4745363992297
sg1076
F0.0
sg1077
F-2695.8148895922695
sg1078
g1079
sg1080
g1081
sg1082
g1083
sg1084
NsbsI64
g0
(g1068
g2
Ntp1274
Rp1275
(dp1276
g1072
g1073
sg1074
I64
sg1075
F0.0
sg1076
F0.0
sg1077
F-4920.4779816864911
sg1078
g1079
sg1080
g1081
sg1082
g1083
sg1084
NsbsI65
g0
(g1068
g2
Ntp1277
Rp1278
(dp1279
g1072
g1073
sg1074
I65
sg1075
F1010.28659701175
sg1076
F0.0
sg1077
F-4920.4779816864911
sg1078
g1079
sg1080
g1081
sg1082
g1083
sg1084
NsbsI66
g0
(g1068
g2
Ntp1280
Rp1281
(dp1282
g1072
g1073
sg1074
I66
sg1075
F0.0
sg1076
F0.0
sg1077
F-4186.3391612953983
sg1078
g1079
sg1080
g1081
sg1082
g1083
sg1084
NsbsI67
g0
(g1068
g2
Ntp1283
Rp1284
(dp1285
g1072
g1073
sg1074
I67
sg1075
F1010.28659701175
sg1076
F0.0
sg1077
F-4186.3391612953983
sg1078
g1079
sg1080
g1081
sg1082
g1083
sg1084
NsbsI68
g0
(g1068
g2
Ntp1286
Rp1287
(dp1288
g1072
g1073
sg1074
I68
sg1075
F2020.57319402349
sg1076
F0.0
sg1077
F-4920.4779816864911
sg1078
g1079
sg1080
g1081
sg1082
g1083
sg1084
NsbsI69
g0
(g1068
g2
Ntp1289
Rp1290
(dp1291
g1072
g1073
sg1074
I69
sg1075
F2020.57319402349
sg1076
F0.0
sg1077
F-4186.3391612953983
sg1078
g1079
sg1080
g1081
sg1082
g1083
sg1084
NsbsI70
g0
(g1068
g2
Ntp1292
Rp1293
(dp1294
g1072
g1073
sg1074
I70
sg1075
F3061.4745363992301
sg1076
F0.0
sg1077
F-4920.4779816864911
sg1078
g1079
sg1080
g1081
sg1082
g1083
sg1084
NsbsI71
g0
(g1068
g2
Ntp1295
Rp1296
(dp1297
g1072
g1073
sg1074
I71
sg1075
F3061.4745363992301
sg1076
F0.0
sg1077
F-4186.3391612953983
sg1078
g1079
sg1080
g1081
sg1082
g1083
sg1084
NsbsI72
g0
(g1068
g2
Ntp1298
Rp1299
(dp1300
g1072
g1073
sg1074
I72
sg1075
F0.0
sg1076
F12637.935367489808
sg1077
F-1939.4294382802348
sg1078
g1079
sg1080
g1081
sg1082
g1083
sg1084
NsbsI73
g0
(g1068
g2
Ntp1301
Rp1302
(dp1303
g1072
g1073
sg1074
I73
sg1075
F1010.28659701175
sg1076
F12637.935367489808
sg1077
F-1939.4294382802348
sg1078
g1079
sg1080
g1081
sg1082
g1083
sg1084
NsbsI74
g0
(g1068
g2
Ntp1304
Rp1305
(dp1306
g1072
g1073
sg1074
I74
sg1075
F0.0
sg1076
F12637.935367489808
sg1077
F-1205.2906178891415
sg1078
g1079
sg1080
g1081
sg1082
g1083
sg1084
NsbsI75
g0
(g1068
g2
Ntp1307
Rp1308
(dp1309
g1072
g1073
sg1074
I75
sg1075
F1010.28659701175
sg1076
F12637.935367489808
sg1077
F-1205.2906178891415
sg1078
g1079
sg1080
g1081
sg1082
g1083
sg1084
NsbsI76
g0
(g1068
g2
Ntp1310
Rp1311
(dp1312
g1072
g1073
sg1074
I76
sg1075
F0.0
sg1076
F12637.935367489808
sg1077
F-471.15179749804832
sg1078
g1079
sg1080
g1081
sg1082
g1083
sg1084
NsbsI77
g0
(g1068
g2
Ntp1313
Rp1314
(dp1315
g1072
g1073
sg1074
I77
sg1075
F1010.28659701175
sg1076
F12637.935367489808
sg1077
F-471.15179749804832
sg1078
g1079
sg1080
g1081
sg1082
g1083
sg1084
NsbsI78
g0
(g1068
g2
Ntp1316
Rp1317
(dp1318
g1072
g1073
sg1074
I78
sg1075
F2020.57319402349
sg1076
F12637.935367489808
sg1077
F-1939.4294382802348
sg1078
g1079
sg1080
g1081
sg1082
g1083
sg1084
NsbsI79
g0
(g1068
g2
Ntp1319
Rp1320
(dp1321
g1072
g1073
sg1074
I79
sg1075
F2020.57319402349
sg1076
F12637.935367489808
sg1077
F-1205.2906178891415
sg1078
g1079
sg1080
g1081
sg1082
g1083
sg1084
NsbsI80
g0
(g1068
g2
Ntp1322
Rp1323
(dp1324
g1072
g1073
sg1074
I80
sg1075
F2020.57319402349
sg1076
F12637.935367489808
sg1077
F-471.15179749804832
sg1078
g1079
sg1080
g1081
sg1082
g1083
sg1084
NsbsI81
g0
(g1068
g2
Ntp1325
Rp1326
(dp1327
g1072
g1073
sg1074
I81
sg1075
F3061.4745363992301
sg1076
F12637.935367489808
sg1077
F-1939.4294382802348
sg1078
g1079
sg1080
g1081
sg1082
g1083
sg1084
NsbsI82
g0
(g1068
g2
Ntp1328
Rp1329
(dp1330
g1072
g1073
sg1074
I82
sg1075
F3061.4745363992301
sg1076
F12637.935367489808
sg1077
F-1205.2906178891415
sg1078
g1079
sg1080
g1081
sg1082
g1083
sg1084
NsbsI83
g0
(g1068
g2
Ntp1331
Rp1332
(dp1333
g1072
g1073
sg1074
I83
sg1075
F3061.4745363992301
sg1076
F12637.935367489808
sg1077
F-471.15179749804832
sg1078
g1079
sg1080
g1081
sg1082
g1083
sg1084
NsbsI84
g0
(g1068
g2
Ntp1334
Rp1335
(dp1336
g1072
g1073
sg1074
I84
sg1075
F0.0
sg1076
F12637.935367489808
sg1077
F-3452.2003409043045
sg1078
g1079
sg1080
g1081
sg1082
g1083
sg1084
NsbsI85
g0
(g1068
g2
Ntp1337
Rp1338
(dp1339
g1072
g1073
sg1074
I85
sg1075
F1010.28659701175
sg1076
F12637.935367489808
sg1077
F-3452.2003409043045
sg1078
g1079
sg1080
g1081
sg1082
g1083
sg1084
NsbsI86
g0
(g1068
g2
Ntp1340
Rp1341
(dp1342
g1072
g1073
sg1074
I86
sg1075
F0.0
sg1076
F12637.935367489808
sg1077
F-2695.8148895922695
sg1078
g1079
sg1080
g1081
sg1082
g1083
sg1084
NsbsI87
g0
(g1068
g2
Ntp1343
Rp1344
(dp1345
g1072
g1073
sg1074
I87
sg1075
F1010.2865970117499
sg1076
F12637.935367489808
sg1077
F-2695.8148895922695
sg1078
g1079
sg1080
g1081
sg1082
g1083
sg1084
NsbsI88
g0
(g1068
g2
Ntp1346
Rp1347
(dp1348
g1072
g1073
sg1074
I88
sg1075
F2020.57319402349
sg1076
F12637.935367489808
sg1077
F-3452.2003409043045
sg1078
g1079
sg1080
g1081
sg1082
g1083
sg1084
NsbsI89
g0
(g1068
g2
Ntp1349
Rp1350
(dp1351
g1072
g1073
sg1074
I89
sg1075
F2020.5731940234898
sg1076
F12637.935367489808
sg1077
F-2695.8148895922695
sg1078
g1079
sg1080
g1081
sg1082
g1083
sg1084
NsbsI90
g0
(g1068
g2
Ntp1352
Rp1353
(dp1354
g1072
g1073
sg1074
I90
sg1075
F3061.4745363992301
sg1076
F12637.935367489808
sg1077
F-3452.2003409043045
sg1078
g1079
sg1080
g1081
sg1082
g1083
sg1084
NsbsI91
g0
(g1068
g2
Ntp1355
Rp1356
(dp1357
g1072
g1073
sg1074
I91
sg1075
F3061.4745363992297
sg1076
F12637.935367489808
sg1077
F-2695.8148895922695
sg1078
g1079
sg1080
g1081
sg1082
g1083
sg1084
NsbsI92
g0
(g1068
g2
Ntp1358
Rp1359
(dp1360
g1072
g1073
sg1074
I92
sg1075
F0.0
sg1076
F12637.935367489808
sg1077
F-4920.4779816864911
sg1078
g1079
sg1080
g1081
sg1082
g1083
sg1084
NsbsI93
g0
(g1068
g2
Ntp1361
Rp1362
(dp1363
g1072
g1073
sg1074
I93
sg1075
F1010.28659701175
sg1076
F12637.935367489808
sg1077
F-4920.4779816864911
sg1078
g1079
sg1080
g1081
sg1082
g1083
sg1084
NsbsI94
g0
(g1068
g2
Ntp1364
Rp1365
(dp1366
g1072
g1073
sg1074
I94
sg1075
F0.0
sg1076
F12637.935367489808
sg1077
F-4186.3391612953983
sg1078
g1079
sg1080
g1081
sg1082
g1083
sg1084
NsbsI95
g0
(g1068
g2
Ntp1367
Rp1368
(dp1369
g1072
g1073
sg1074
I95
sg1075
F1010.28659701175
sg1076
F12637.935367489808
sg1077
F-4186.3391612953983
sg1078
g1079
sg1080
g1081
sg1082
g1083
sg1084
NsbsI96
g0
(g1068
g2
Ntp1370
Rp1371
(dp1372
g1072
g1073
sg1074
I96
sg1075
F2020.57319402349
sg1076
F12637.935367489808
sg1077
F-4920.4779816864911
sg1078
g1079
sg1080
g1081
sg1082
g1083
sg1084
NsbsI97
g0
(g1068
g2
Ntp1373
Rp1374
(dp1375
g1072
g1073
sg1074
I97
sg1075
F2020.57319402349
sg1076
F12637.935367489808
sg1077
F-4186.3391612953983
sg1078
g1079
sg1080
g1081
sg1082
g1083
sg1084
NsbsI98
g0
(g1068
g2
Ntp1376
Rp1377
(dp1378
g1072
g1073
sg1074
I98
sg1075
F3061.4745363992301
sg1076
F12637.935367489808
sg1077
F-4920.4779816864911
sg1078
g1079
sg1080
g1081
sg1082
g1083
sg1084
NsbsI99
g0
(g1068
g2
Ntp1379
Rp1380
(dp1381
g1072
g1073
sg1074
I99
sg1075
F3061.4745363992301
sg1076
F12637.935367489808
sg1077
F-4186.3391612953983
sg1078
g1079
sg1080
g1081
sg1082
g1083
sg1084
NsbssS'node_index'
p1382
(dp1383
S'1010.287,0.000,-1205.291'
p1384
I47
sS'3061.475,12637.935,-4186.339'
p1385
I99
sS'3061.475,0.000,-2695.815'
p1386
I63
sS'0.000,12637.935,-471.152'
p1387
I76
sS'3061.475,9857.590,0.000'
p1388
I29
sS'3061.475,12637.935,-2695.815'
p1389
I91
sS'0.000,12637.935,-4920.478'
p1390
I92
sS'0.000,12637.935,-4186.339'
p1391
I94
sS'3061.475,12637.935,0.000'
p1392
I31
sS'1010.287,0.000,-4186.339'
p1393
I67
sS'1010.287,4170.519,0.000'
p1394
I7
sS'0.000,0.000,-471.152'
p1395
I48
sS'0.000,0.000,-4186.339'
p1396
I66
sS'3061.475,0.000,0.000'
p1397
I24
sS'3061.475,5244.743,0.000'
p1398
I41
sS'1010.287,0.000,-4920.478'
p1399
I65
sS'3061.475,0.000,-471.152'
p1400
I55
sS'3061.475,12637.935,-1205.291'
p1401
I82
sS'0.000,0.000,0.000'
p1402
I0
sS'0.000,6318.968,0.000'
p1403
I34
sS'2020.573,12637.935,-3452.200'
p1404
I88
sS'0.000,12637.935,-2695.815'
p1405
I86
sS'2020.573,11247.762,0.000'
p1406
I22
sS'2020.573,0.000,-3452.200'
p1407
I60
sS'2020.573,12637.935,-4186.339'
p1408
I97
sS'2020.573,0.000,-2695.815'
p1409
I61
sS'0.000,8467.417,0.000'
p1410
I8
sS'1010.287,5244.743,0.000'
p1411
I33
sS'1010.287,0.000,-3452.200'
p1412
I57
sS'0.000,1390.173,0.000'
p1413
I2
sS'2020.573,8467.417,0.000'
p1414
I20
sS'3061.475,4170.519,0.000'
p1415
I27
sS'3061.475,8467.417,0.000'
p1416
I28
sS'3061.475,12637.935,-4920.478'
p1417
I98
sS'3061.475,2780.346,0.000'
p1418
I26
sS'1010.287,12637.935,-471.152'
p1419
I77
sS'0.000,2780.346,0.000'
p1420
I4
sS'1010.287,12637.935,-1205.291'
p1421
I75
sS'2020.573,2780.346,0.000'
p1422
I18
sS'1010.287,0.000,-1939.429'
p1423
I45
sS'0.000,12637.935,-1939.429'
p1424
I72
sS'1010.287,0.000,-471.152'
p1425
I49
sS'2020.573,0.000,0.000'
p1426
I16
sS'1010.287,11247.762,0.000'
p1427
I13
sS'3061.475,0.000,-4186.339'
p1428
I71
sS'3061.475,6318.968,0.000'
p1429
I42
sS'0.000,0.000,-1205.291'
p1430
I46
sS'0.000,12637.935,-3452.200'
p1431
I84
sS'1010.287,0.000,-2695.815'
p1432
I59
sS'2020.573,1390.173,0.000'
p1433
I17
sS'2020.573,0.000,-1939.429'
p1434
I50
sS'0.000,9857.590,0.000'
p1435
I10
sS'3061.475,1390.173,0.000'
p1436
I25
sS'3061.475,12637.935,-3452.200'
p1437
I90
sS'2020.573,0.000,-471.152'
p1438
I52
sS'0.000,0.000,-2695.815'
p1439
I58
sS'1010.287,0.000,0.000'
p1440
I1
sS'1010.287,9857.590,0.000'
p1441
I11
sS'3061.475,0.000,-1939.429'
p1442
I53
sS'0.000,0.000,-1939.429'
p1443
I44
sS'2020.573,12637.935,-1205.291'
p1444
I79
sS'1010.287,12637.935,0.000'
p1445
I15
sS'2020.573,5244.743,0.000'
p1446
I38
sS'2020.573,9857.590,0.000'
p1447
I21
sS'2020.573,4170.519,0.000'
p1448
I19
sS'0.000,7393.192,0.000'
p1449
I36
sS'3061.475,0.000,-4920.478'
p1450
I70
sS'0.000,5244.743,0.000'
p1451
I32
sS'2020.573,7393.192,0.000'
p1452
I40
sS'3061.475,12637.935,-1939.429'
p1453
I81
sS'2020.573,0.000,-1205.291'
p1454
I51
sS'2020.573,12637.935,-1939.429'
p1455
I78
sS'0.000,4170.519,0.000'
p1456
I6
sS'1010.287,8467.417,0.000'
p1457
I9
sS'3061.475,12637.935,-471.152'
p1458
I83
sS'1010.287,12637.935,-2695.815'
p1459
I87
sS'0.000,0.000,-3452.200'
p1460
I56
sS'2020.573,0.000,-4920.478'
p1461
I68
sS'3061.475,0.000,-1205.291'
p1462
I54
sS'0.000,12637.935,-1205.291'
p1463
I74
sS'1010.287,12637.935,-3452.200'
p1464
I85
sS'0.000,12637.935,0.000'
p1465
I14
sS'0.000,0.000,-4920.478'
p1466
I64
sS'1010.287,6318.968,0.000'
p1467
I35
sS'3061.475,0.000,-3452.200'
p1468
I62
sS'2020.573,12637.935,-4920.478'
p1469
I96
sS'1010.287,12637.935,-1939.429'
p1470
I73
sS'1010.287,7393.192,0.000'
p1471
I37
sS'3061.475,7393.192,0.000'
p1472
I43
sS'2020.573,6318.968,0.000'
p1473
I39
sS'0.000,11247.762,0.000'
p1474
I12
sS'1010.287,12637.935,-4186.339'
p1475
I95
sS'2020.573,12637.935,-471.152'
p1476
I80
sS'2020.573,12637.935,0.000'
p1477
I23
sS'1010.287,1390.173,0.000'
p1478
I3
sS'2020.573,0.000,-4186.339'
p1479
I69
sS'1010.287,12637.935,-4920.478'
p1480
I93
sS'1010.287,2780.346,0.000'
p1481
I5
sS'3061.475,11247.762,0.000'
p1482
I30
sS'2020.573,12637.935,-2695.815'
p1483
I89
ssS'path'
p1484
S'C:\\Temp\\'
p1485
sS'results'
p1486
(dp1487
S'step_2'
p1488
S'ERROR'
p1489
sS'step_3'
p1490
g1489
sS'step_4'
p1491
g1489
sS'step_1'
p1492
g1489
ssS'sections'
p1493
(dp1494
g517
g0
(ccompas_fea.structure.section
ShellSection
p1495
g2
Ntp1496
Rp1497
(dp1498
g15
I1
sS'__name__'
p1499
S'ShellSection'
p1500
sS'name'
p1501
g517
sS'geometry'
p1502
(dp1503
S't'
p1504
F463.43989345351974
ssS'loc_coords_OR'
p1505
(dp1506
S'ORxyz'
p1507
(lp1508
I0
aI0
aF-4449.3261841900003
assS'loc_coords_XA'
p1509
(dp1510
S'XAxyz'
p1511
(lp1512
I1
aI0
aF-4449.3261841900003
assS'loc_coords_YA'
p1513
(dp1514
S'YAxyz'
p1515
(lp1516
F4449.3261841900003
aF-4449.3261841900003
aF-4448.3261841900003
assS'loc_coords_EV_XA'
p1517
(dp1518
S'EV_XA'
p1519
(lp1520
F1.0
aF0.0
aF0.0
assS'loc_coords_EV_YA'
p1521
(dp1522
S'EV_YA'
p1523
(lp1524
F0.70710677225685481
aF-0.70710677225685481
aF0.00015892446248815168
assS'loc_coords_EV_ZA'
p1525
(dp1526
S'EV_ZA'
p1527
(lp1528
F0.0
aF-1.0
aF0.0
assS'nr_layers'
p1529
(dp1530
S'nn'
p1531
F45.0
ssS'offset'
p1532
(dp1533
S'mode'
p1534
S'mid'
p1535
ssbsg531
g0
(g1495
g2
Ntp1536
Rp1537
(dp1538
g15
I0
sg1499
g1500
sg1501
g531
sg1502
(dp1539
g1504
F471.15179749804832
ssg1505
(dp1540
g1507
(lp1541
I0
aI0
aI0
assg1509
(dp1542
g1511
(lp1543
I1
aI0
aI0
assg1513
(dp1544
g1515
(lp1545
F0.0
aF1.0
aF0.0
assg1517
(dp1546
g1519
(lp1547
F1.0
aF0.0
aF0.0
assg1521
(dp1548
g1523
(lp1549
F0.0
aF1.0
aF0.0
assg1525
(dp1550
g1527
(lp1551
F0.0
aF0.0
aF1.0
assg1529
(dp1552
g1531
F41.0
ssg1532
(dp1553
g1534
S'top'
p1554
ssbsg508
g0
(g1495
g2
Ntp1555
Rp1556
(dp1557
g15
I2
sg1499
g1500
sg1501
g508
sg1502
(dp1558
g1504
F463.43989345351974
ssg1505
(dp1559
g1507
(lp1560
I0
aF12637.9353675
aF-4449.3261841900003
assg1509
(dp1561
g1511
(lp1562
I1
aF12637.9353675
aF-4449.3261841900003
assg1513
(dp1563
g1515
(lp1564
F-4449.3261841908097
aF8188.6091833099999
aF-17088.26155169
assg1517
(dp1565
g1519
(lp1566
F1.0
aF0.0
aF0.0
assg1521
(dp1567
g1523
(lp1568
F-0.31513867809746671
aF-0.31513867809740936
aF-0.89519563623489506
assg1525
(dp1569
g1527
(lp1570
F0.0
aF1.0
aF0.0
assg1529
(dp1571
g1531
F45.0
ssg1532
(dp1572
g1534
g1535
ssbsg601
g0
(ccompas_fea.structure.section
MPCSection
p1573
g2
Ntp1574
Rp1575
(dp1576
g15
I3
sg1499
S'MPCSection'
p1577
sg1501
g601
sg1502
NsS'nr_layers'
p1578
NsbssS'sets'
p1579
(dp1580
g626
g0
(ccompas_fea.structure.set
Set
p1581
g2
Ntp1582
Rp1583
(dp1584
S'__name__'
p1585
S'Set'
p1586
sS'name'
p1587
g626
sS'type'
p1588
S'element'
p1589
sS'selection'
p1590
(lp1591
I38
aI39
asS'index'
p1592
I13
sbsg602
g0
(g1581
g2
Ntp1593
Rp1594
(dp1595
g1585
g1586
sg1587
g602
sg1588
g1589
sg1590
(lp1596
I66
aI67
aI68
aI69
aI70
aI71
aI72
aI73
asg1592
I27
sbsg510
g0
(g1581
g2
Ntp1597
Rp1598
(dp1599
g1585
g1586
sg1587
g510
sg1588
g1589
sg1590
(lp1600
I54
aI55
asg1592
I21
sbsg556
g0
(g1581
g2
Ntp1601
Rp1602
(dp1603
g1585
g1586
sg1587
g556
sg1588
g1589
sg1590
(lp1604
I8
aI6
aI7
asg1592
I2
sbsg522
g0
(g1581
g2
Ntp1605
Rp1606
(dp1607
g1585
g1586
sg1587
g522
sg1588
g1589
sg1590
(lp1608
I44
aI45
asg1592
I16
sbsg618
g0
(g1581
g2
Ntp1609
Rp1610
(dp1611
g1585
g1586
sg1587
g618
sg1588
g1589
sg1590
(lp1612
I48
aI49
asg1592
I18
sbsg596
g0
(g1581
g2
Ntp1613
Rp1614
(dp1615
g1585
g1586
sg1587
g596
sg1588
g1589
sg1590
(lp1616
I3
aI4
aI5
asg1592
I1
sbsg532
g0
(g1581
g2
Ntp1617
Rp1618
(dp1619
g1585
g1586
sg1587
g532
sg1588
g1589
sg1590
(lp1620
I0
aI1
aI2
asg1592
I0
sbsg584
g0
(g1581
g2
Ntp1621
Rp1622
(dp1623
g1585
g1586
sg1587
g584
sg1588
g1589
sg1590
(lp1624
I18
aI19
aI20
aI21
asg1592
I6
sbsg622
g0
(g1581
g2
Ntp1625
Rp1626
(dp1627
g1585
g1586
sg1587
g622
sg1588
g1589
sg1590
(lp1628
I16
aI17
aI15
asg1592
I5
sbsg548
g0
(g1581
g2
Ntp1629
Rp1630
(dp1631
g1585
g1586
sg1587
g548
sg1588
g1589
sg1590
(lp1632
I12
aI13
aI14
asg1592
I4
sbsg592
g0
(g1581
g2
Ntp1633
Rp1634
(dp1635
g1585
g1586
sg1587
g592
sg1588
g1589
sg1590
(lp1636
I9
aI10
aI11
asg1592
I3
sbsg540
g0
(g1581
g2
Ntp1637
Rp1638
(dp1639
g1585
g1586
sg1587
g540
sg1588
g1589
sg1590
(lp1640
I26
aI27
aI28
aI29
asg1592
I8
sbsg576
g0
(g1581
g2
Ntp1641
Rp1642
(dp1643
g1585
g1586
sg1587
g576
sg1588
g1589
sg1590
(lp1644
I24
aI25
aI22
aI23
asg1592
I7
sbsg552
g0
(g1581
g2
Ntp1645
Rp1646
(dp1647
g1585
g1586
sg1587
g552
sg1588
g1589
sg1590
(lp1648
I34
aI35
asg1592
I11
sbsg614
g0
(g1581
g2
Ntp1649
Rp1650
(dp1651
g1585
g1586
sg1587
g614
sg1588
g1589
sg1590
(lp1652
I64
aI65
asg1592
I26
sbsg564
g0
(g1581
g2
Ntp1653
Rp1654
(dp1655
g1585
g1586
sg1587
g564
sg1588
g1589
sg1590
(lp1656
I58
aI59
asg1592
I23
sbsg544
g0
(g1581
g2
Ntp1657
Rp1658
(dp1659
g1585
g1586
sg1587
g544
sg1588
g1589
sg1590
(lp1660
I40
aI41
asg1592
I14
sbsg560
g0
(g1581
g2
Ntp1661
Rp1662
(dp1663
g1585
g1586
sg1587
g560
sg1588
g1589
sg1590
(lp1664
I52
aI53
asg1592
I20
sbsg580
g0
(g1581
g2
Ntp1665
Rp1666
(dp1667
g1585
g1586
sg1587
g580
sg1588
g1589
sg1590
(lp1668
I30
aI31
asg1592
I9
sbsg572
g0
(g1581
g2
Ntp1669
Rp1670
(dp1671
g1585
g1586
sg1587
g572
sg1588
g1589
sg1590
(lp1672
I46
aI47
asg1592
I17
sbsg35
g0
(g1581
g2
Ntp1673
Rp1674
(dp1675
g1585
g1586
sg1587
g35
sg1588
S'node'
p1676
sg1590
(lp1677
I98
aI96
aI93
aI92
asg1592
I29
sbsg568
g0
(g1581
g2
Ntp1678
Rp1679
(dp1680
g1585
g1586
sg1587
g568
sg1588
g1589
sg1590
(lp1681
I36
aI37
asg1592
I12
sbsg588
g0
(g1581
g2
Ntp1682
Rp1683
(dp1684
g1585
g1586
sg1587
g588
sg1588
g1589
sg1590
(lp1685
I62
aI63
asg1592
I25
sbsg536
g0
(g1581
g2
Ntp1686
Rp1687
(dp1688
g1585
g1586
sg1587
g536
sg1588
g1589
sg1590
(lp1689
I56
aI57
asg1592
I22
sbsg20
g0
(g1581
g2
Ntp1690
Rp1691
(dp1692
g1585
g1586
sg1587
g20
sg1588
g1676
sg1590
(lp1693
I70
aI68
aI65
aI64
asg1592
I28
sbsg606
g0
(g1581
g2
Ntp1694
Rp1695
(dp1696
g1585
g1586
sg1587
g606
sg1588
g1589
sg1590
(lp1697
I42
aI43
asg1592
I15
sbsg526
g0
(g1581
g2
Ntp1698
Rp1699
(dp1700
g1585
g1586
sg1587
g526
sg1588
g1589
sg1590
(lp1701
I50
aI51
asg1592
I19
sbsg518
g0
(g1581
g2
Ntp1702
Rp1703
(dp1704
g1585
g1586
sg1587
g518
sg1588
g1589
sg1590
(lp1705
I32
aI33
asg1592
I10
sbsg610
g0
(g1581
g2
Ntp1706
Rp1707
(dp1708
g1585
g1586
sg1587
g610
sg1588
g1589
sg1590
(lp1709
I60
aI61
asg1592
I24
sbssS'steps'
p1710
(dp1711
g1488
g0
(ccompas_fea.structure.step
GeneralStep
p1712
g2
Ntp1713
Rp1714
(dp1715
g15
I1
sS'__name__'
p1716
S'GeneralStep'
p1717
sS'name'
p1718
g1488
sS'attr_list'
p1719
(lp1720
g649
aS'increments'
p1721
aS'iterations'
p1722
aS'factor'
p1723
aS'nlgeom'
p1724
aS'nlmat'
p1725
aS'displacements'
p1726
aS'loads'
p1727
aS'type'
p1728
aS'tolerance'
p1729
aS'modify'
p1730
asS'increments'
p1731
I1
sS'iterations'
p1732
I100
sS'tolerance'
p1733
F0.01
sS'factor'
p1734
F1.0
sS'nlgeom'
p1735
I00
sS'nlmat'
p1736
I01
sS'displacements'
p1737
(lp1738
sS'loads'
p1739
(lp1740
g704
asS'modify'
p1741
I01
sS'type'
p1742
S'static'
p1743
sbsg1490
g0
(g1712
g2
Ntp1744
Rp1745
(dp1746
g15
I2
sg1716
g1717
sg1718
g1490
sg1719
(lp1747
g649
ag1721
ag1722
ag1723
ag1724
ag1725
ag1726
ag1727
ag1728
ag1729
ag1730
asg1731
I1
sg1732
I100
sg1733
F0.01
sg1734
F1.0
sg1735
I00
sg1736
I01
sg1737
(lp1748
sg1739
(lp1749
g683
ag669
ag662
asg1741
I01
sg1742
g1743
sbsg1491
g0
(g1712
g2
Ntp1750
Rp1751
(dp1752
g15
I3
sg1716
g1717
sg1718
g1491
sg1719
(lp1753
g649
ag1721
ag1722
ag1723
ag1724
ag1725
ag1726
ag1727
ag1728
ag1729
ag1730
asg1731
I1
sg1732
I100
sg1733
F0.01
sg1734
F1.0
sg1735
I00
sg1736
I01
sg1737
(lp1754
sg1739
(lp1755
g697
ag676
ag690
ag715
ag654
ag631
asg1741
I01
sg1742
g1743
sbsg1492
g0
(g1712
g2
Ntp1756
Rp1757
(dp1758
g15
I0
sg1716
g1717
sg1718
g1492
sg1719
(lp1759
g649
ag1721
ag1722
ag1723
ag1724
ag1725
ag1726
ag1727
ag1728
ag1729
ag1730
asg1731
I1
sg1732
I100
sg1733
F0.01
sg1734
F1.0
sg1735
I00
sg1736
I01
sg1737
(lp1760
g10
ag31
asg1739
(lp1761
sg1741
I01
sg1742
g1743
sbssS'loc_coor'
p1762
(dp1763
sS'steps_order'
p1764
(lp1765
g1492
ag1488
ag1490
ag1491
asS'tol'
p1766
S'3'
p1767
sS'virtual_nodes'
p1768
(dp1769
sS'virtual_node_index'
p1770
(dp1771
sS'virtual_elements'
p1772
(dp1773
sS'virtual_element_index'
p1774
(dp1775
sb.