ccopy_reg
_reconstructor
p0
(ccompas_fea.structure.structure
Structure
p1
c__builtin__
object
p2
Ntp3
Rp4
(dp5
S'constraints'
p6
(dp7
sS'displacements'
p8
(dp9
S'nset_pinned_set_disp_1'
p10
g0
(ccompas_fea.structure.displacement
GeneralDisplacement
p11
g2
Ntp12
Rp13
(dp14
S'index'
p15
I0
sS'__name__'
p16
S'GeneralDisplacement'
p17
sS'name'
p18
g10
sS'nodes'
p19
S'nset_support_wall1'
p20
sS'components'
p21
(dp22
S'z'
p23
I0
sS'xx'
p24
I0
sS'zz'
p25
I0
sS'yy'
p26
I0
sS'y'
p27
I0
sS'x'
p28
I0
ssS'axes'
p29
S'global'
p30
sbsS'nset_pinned_set_disp_2'
p31
g0
(g11
g2
Ntp32
Rp33
(dp34
g15
I1
sg16
g17
sg18
g31
sg19
S'nset_support_wall2'
p35
sg21
(dp36
g23
I0
sg24
I0
sg25
I0
sg26
I0
sg27
I0
sg28
I0
ssg29
g30
sbssS'elements'
p37
(dp38
I0
g0
(ccompas_fea.structure.element
ShellElement
p39
g2
Ntp40
Rp41
(dp42
S'mass'
p43
NsS'__name__'
p44
S'ShellElement'
p45
sS'nodes'
p46
(lp47
I0
aI1
aI3
aI2
asS'number'
p48
I0
sS'thermal'
p49
I00
sS'axes'
p50
(dp51
S'ey'
p52
NsS'ez'
p53
NsS'ex'
p54
NssS'element_property'
p55
S'elset_plate_1_element_prop'
p56
sbsI1
g0
(g39
g2
Ntp57
Rp58
(dp59
g43
Nsg44
g45
sg46
(lp60
I2
aI3
aI5
aI4
asg48
I1
sg49
I00
sg50
g51
sg55
g56
sbsI2
g0
(g39
g2
Ntp61
Rp62
(dp63
g43
Nsg44
g45
sg46
(lp64
I6
aI7
aI9
aI8
asg48
I2
sg49
I00
sg50
(dp65
g52
Nsg53
Nsg54
Nssg55
S'elset_plate_2_element_prop'
p66
sbsI3
g0
(g39
g2
Ntp67
Rp68
(dp69
g43
Nsg44
g45
sg46
(lp70
I8
aI9
aI11
aI10
asg48
I3
sg49
I00
sg50
g65
sg55
g66
sbsI4
g0
(g39
g2
Ntp71
Rp72
(dp73
g43
Nsg44
g45
sg46
(lp74
I1
aI12
aI13
aI3
asg48
I4
sg49
I00
sg50
(dp75
g52
Nsg53
Nsg54
Nssg55
S'elset_plate_3_element_prop'
p76
sbsI5
g0
(g39
g2
Ntp77
Rp78
(dp79
g43
Nsg44
g45
sg46
(lp80
I3
aI13
aI14
aI5
asg48
I5
sg49
I00
sg50
g75
sg55
g76
sbsI6
g0
(g39
g2
Ntp81
Rp82
(dp83
g43
Nsg44
g45
sg46
(lp84
I7
aI15
aI16
aI9
asg48
I6
sg49
I00
sg50
(dp85
g52
Nsg53
Nsg54
Nssg55
S'elset_plate_4_element_prop'
p86
sbsI7
g0
(g39
g2
Ntp87
Rp88
(dp89
g43
Nsg44
g45
sg46
(lp90
I9
aI16
aI17
aI11
asg48
I7
sg49
I00
sg50
g85
sg55
g86
sbsI8
g0
(g39
g2
Ntp91
Rp92
(dp93
g43
Nsg44
g45
sg46
(lp94
I12
aI18
aI19
aI13
asg48
I8
sg49
I00
sg50
(dp95
g52
Nsg53
Nsg54
Nssg55
S'elset_plate_5_element_prop'
p96
sbsI9
g0
(g39
g2
Ntp97
Rp98
(dp99
g43
Nsg44
g45
sg46
(lp100
I13
aI19
aI20
aI14
asg48
I9
sg49
I00
sg50
g95
sg55
g96
sbsI10
g0
(g39
g2
Ntp101
Rp102
(dp103
g43
Nsg44
g45
sg46
(lp104
I15
aI21
aI22
aI16
asg48
I10
sg49
I00
sg50
(dp105
g52
Nsg53
Nsg54
Nssg55
S'elset_plate_6_element_prop'
p106
sbsI11
g0
(g39
g2
Ntp107
Rp108
(dp109
g43
Nsg44
g45
sg46
(lp110
I16
aI22
aI23
aI17
asg48
I11
sg49
I00
sg50
g105
sg55
g106
sbsI12
g0
(g39
g2
Ntp111
Rp112
(dp113
g43
Nsg44
g45
sg46
(lp114
I4
aI5
aI25
aI24
asg48
I12
sg49
I00
sg50
(dp115
g52
Nsg53
Nsg54
Nssg55
S'elset_plate_7_element_prop'
p116
sbsI13
g0
(g39
g2
Ntp117
Rp118
(dp119
g43
Nsg44
g45
sg46
(lp120
I24
aI25
aI7
aI6
asg48
I13
sg49
I00
sg50
g115
sg55
g116
sbsI14
g0
(g39
g2
Ntp121
Rp122
(dp123
g43
Nsg44
g45
sg46
(lp124
I5
aI14
aI26
aI25
asg48
I14
sg49
I00
sg50
(dp125
g52
Nsg53
Nsg54
Nssg55
S'elset_plate_8_element_prop'
p126
sbsI15
g0
(g39
g2
Ntp127
Rp128
(dp129
g43
Nsg44
g45
sg46
(lp130
I25
aI26
aI15
aI7
asg48
I15
sg49
I00
sg50
g125
sg55
g126
sbsI16
g0
(g39
g2
Ntp131
Rp132
(dp133
g43
Nsg44
g45
sg46
(lp134
I14
aI20
aI27
aI26
asg48
I16
sg49
I00
sg50
(dp135
g52
Nsg53
Nsg54
Nssg55
S'elset_plate_9_element_prop'
p136
sbsI17
g0
(g39
g2
Ntp137
Rp138
(dp139
g43
Nsg44
g45
sg46
(lp140
I26
aI27
aI21
aI15
asg48
I17
sg49
I00
sg50
g135
sg55
g136
sbsI18
g0
(g39
g2
Ntp141
Rp142
(dp143
g43
Nsg44
g45
sg46
(lp144
I28
aI29
aI31
aI30
asg48
I18
sg49
I00
sg50
(dp145
g52
Nsg53
Nsg54
Nssg55
S'elset_wall_1_1_element_prop'
p146
sbsI19
g0
(g39
g2
Ntp147
Rp148
(dp149
g43
Nsg44
g45
sg46
(lp150
I29
aI32
aI33
aI31
asg48
I19
sg49
I00
sg50
(dp151
g52
Nsg53
Nsg54
Nssg55
S'elset_wall_1_2_element_prop'
p152
sbsI20
g0
(g39
g2
Ntp153
Rp154
(dp155
g43
Nsg44
g45
sg46
(lp156
I32
aI34
aI35
aI33
asg48
I20
sg49
I00
sg50
(dp157
g52
Nsg53
Nsg54
Nssg55
S'elset_wall_1_3_element_prop'
p158
sbsI21
g0
(g39
g2
Ntp159
Rp160
(dp161
g43
Nsg44
g45
sg46
(lp162
I36
aI37
aI29
aI28
asg48
I21
sg49
I00
sg50
(dp163
g52
Nsg53
Nsg54
Nssg55
S'elset_wall_1_4_element_prop'
p164
sbsI22
g0
(g39
g2
Ntp165
Rp166
(dp167
g43
Nsg44
g45
sg46
(lp168
I37
aI38
aI32
aI29
asg48
I22
sg49
I00
sg50
(dp169
g52
Nsg53
Nsg54
Nssg55
S'elset_wall_1_5_element_prop'
p170
sbsI23
g0
(g39
g2
Ntp171
Rp172
(dp173
g43
Nsg44
g45
sg46
(lp174
I38
aI39
aI34
aI32
asg48
I23
sg49
I00
sg50
(dp175
g52
Nsg53
Nsg54
Nssg55
S'elset_wall_1_6_element_prop'
p176
sbsI24
g0
(g39
g2
Ntp177
Rp178
(dp179
g43
Nsg44
g45
sg46
(lp180
I40
aI41
aI37
aI36
asg48
I24
sg49
I00
sg50
(dp181
g52
Nsg53
Nsg54
Nssg55
S'elset_wall_1_7_element_prop'
p182
sbsI25
g0
(g39
g2
Ntp183
Rp184
(dp185
g43
Nsg44
g45
sg46
(lp186
I41
aI42
aI38
aI37
asg48
I25
sg49
I00
sg50
(dp187
g52
Nsg53
Nsg54
Nssg55
S'elset_wall_1_8_element_prop'
p188
sbsI26
g0
(g39
g2
Ntp189
Rp190
(dp191
g43
Nsg44
g45
sg46
(lp192
I42
aI43
aI39
aI38
asg48
I26
sg49
I00
sg50
(dp193
g52
Nsg53
Nsg54
Nssg55
S'elset_wall_1_9_element_prop'
p194
sbsI27
g0
(g39
g2
Ntp195
Rp196
(dp197
g43
Nsg44
g45
sg46
(lp198
I44
aI46
aI47
aI45
asg48
I27
sg49
I00
sg50
(dp199
g52
Nsg53
Nsg54
Nssg55
S'elset_wall_2_1_element_prop'
p200
sbsI28
g0
(g39
g2
Ntp201
Rp202
(dp203
g43
Nsg44
g45
sg46
(lp204
I45
aI47
aI49
aI48
asg48
I28
sg49
I00
sg50
(dp205
g52
Nsg53
Nsg54
Nssg55
S'elset_wall_2_2_element_prop'
p206
sbsI29
g0
(g39
g2
Ntp207
Rp208
(dp209
g43
Nsg44
g45
sg46
(lp210
I48
aI49
aI51
aI50
asg48
I29
sg49
I00
sg50
(dp211
g52
Nsg53
Nsg54
Nssg55
S'elset_wall_2_3_element_prop'
p212
sbsI30
g0
(g39
g2
Ntp213
Rp214
(dp215
g43
Nsg44
g45
sg46
(lp216
I52
aI44
aI45
aI53
asg48
I30
sg49
I00
sg50
(dp217
g52
Nsg53
Nsg54
Nssg55
S'elset_wall_2_4_element_prop'
p218
sbsI31
g0
(g39
g2
Ntp219
Rp220
(dp221
g43
Nsg44
g45
sg46
(lp222
I53
aI45
aI48
aI54
asg48
I31
sg49
I00
sg50
(dp223
g52
Nsg53
Nsg54
Nssg55
S'elset_wall_2_5_element_prop'
p224
sbsI32
g0
(g39
g2
Ntp225
Rp226
(dp227
g43
Nsg44
g45
sg46
(lp228
I54
aI48
aI50
aI55
asg48
I32
sg49
I00
sg50
(dp229
g52
Nsg53
Nsg54
Nssg55
S'elset_wall_2_6_element_prop'
p230
sbsI33
g0
(g39
g2
Ntp231
Rp232
(dp233
g43
Nsg44
g45
sg46
(lp234
I56
aI52
aI53
aI57
asg48
I33
sg49
I00
sg50
(dp235
g52
Nsg53
Nsg54
Nssg55
S'elset_wall_2_7_element_prop'
p236
sbsI34
g0
(g39
g2
Ntp237
Rp238
(dp239
g43
Nsg44
g45
sg46
(lp240
I57
aI53
aI54
aI58
asg48
I34
sg49
I00
sg50
(dp241
g52
Nsg53
Nsg54
Nssg55
S'elset_wall_2_8_element_prop'
p242
sbsI35
g0
(g39
g2
Ntp243
Rp244
(dp245
g43
Nsg44
g45
sg46
(lp246
I58
aI54
aI55
aI59
asg48
I35
sg49
I00
sg50
(dp247
g52
Nsg53
Nsg54
Nssg55
S'elset_wall_2_9_element_prop'
p248
sbsI36
g0
(ccompas_fea.structure.element
MPCElement
p249
g2
Ntp250
Rp251
(dp252
g43
Nsg44
S'MPCElement'
p253
sg46
(lp254
I51
aI23
asg48
I36
sg49
I00
sg50
(dp255
g52
Nsg53
(lp256
F1.8189894035458565e-12
aF0.0
aF1149.2202847483761
asg54
Nssg55
S'elset_mpc_element_prop'
p257
sbsI37
g0
(g249
g2
Ntp258
Rp259
(dp260
g43
Nsg44
g253
sg46
(lp261
I49
aI17
asg48
I37
sg49
I00
sg50
(dp262
g52
Nsg53
(lp263
F4.5474735088646412e-12
aF0.0
aF1149.2202847483761
asg54
Nssg55
g257
sbsI38
g0
(g249
g2
Ntp264
Rp265
(dp266
g43
Nsg44
g253
sg46
(lp267
I47
aI11
asg48
I38
sg49
I00
sg50
(dp268
g52
Nsg53
(lp269
F-2.7284841053187847e-12
aF0.0
aF1149.2202847483761
asg54
Nssg55
g257
sbsI39
g0
(g249
g2
Ntp270
Rp271
(dp272
g43
Nsg44
g253
sg46
(lp273
I46
aI10
asg48
I39
sg49
I00
sg50
(dp274
g52
Nsg53
(lp275
F0.0
aF0.0
aF1149.2202847483761
asg54
Nssg55
g257
sbsI40
g0
(g249
g2
Ntp276
Rp277
(dp278
g43
Nsg44
g253
sg46
(lp279
I35
aI18
asg48
I40
sg49
I00
sg50
(dp280
g52
Nsg53
(lp281
F1.8189894035458565e-12
aF0.0
aF1149.2202847483761
asg54
Nssg55
g257
sbsI41
g0
(g249
g2
Ntp282
Rp283
(dp284
g43
Nsg44
g253
sg46
(lp285
I33
aI12
asg48
I41
sg49
I00
sg50
(dp286
g52
Nsg53
(lp287
F4.5474735088646412e-12
aF0.0
aF1149.2202847483761
asg54
Nssg55
g257
sbsI42
g0
(g249
g2
Ntp288
Rp289
(dp290
g43
Nsg44
g253
sg46
(lp291
I31
aI1
asg48
I42
sg49
I00
sg50
(dp292
g52
Nsg53
(lp293
F-2.7284841053187847e-12
aF0.0
aF1149.2202847483761
asg54
Nssg55
g257
sbsI43
g0
(g249
g2
Ntp294
Rp295
(dp296
g43
Nsg44
g253
sg46
(lp297
I30
aI0
asg48
I43
sg49
I00
sg50
(dp298
g52
Nsg53
(lp299
F0.0
aF0.0
aF1149.2202847483761
asg54
Nssg55
g257
sbssS'element_index'
p300
(dp301
S'3710.831,16333.701,-3584.465'
p302
I31
sS'6222.201,1347.530,0.000'
p303
I8
sS'1236.944,0.000,-3584.465'
p304
I21
sS'6222.201,0.000,-5216.080'
p305
I26
sS'1236.944,14986.171,0.000'
p306
I3
sS'3710.831,0.000,-1952.851'
p307
I19
sS'1236.944,16333.701,-5216.080'
p308
I33
sS'3710.831,16333.701,-1952.851'
p309
I28
sS'6222.201,12291.110,0.000'
p310
I10
sS'1236.944,6778.486,0.000'
p311
I12
sS'6222.201,16333.701,-3584.465'
p312
I32
sS'6222.201,16333.701,-5216.080'
p313
I35
sS'3710.831,4042.591,0.000'
p314
I5
sS'6222.201,6778.486,0.000'
p315
I16
sS'1236.944,9555.215,0.000'
p316
I13
sS'3710.831,0.000,-3584.465'
p317
I22
sS'6222.201,0.000,-3584.465'
p318
I23
sS'6222.201,14986.171,0.000'
p319
I11
sS'1236.944,4042.591,0.000'
p320
I1
sS'3710.831,12291.110,0.000'
p321
I6
sS'1236.944,1347.530,0.000'
p322
I0
sS'1236.944,0.000,-1952.851'
p323
I18
sS'3710.831,0.000,-5216.080'
p324
I25
sS'0.000,16333.701,-574.610'
p325
I39
sS'1236.944,12291.110,0.000'
p326
I2
sS'6222.201,4042.591,0.000'
p327
I9
sS'6222.201,9555.215,0.000'
p328
I17
sS'1236.944,16333.701,-1952.851'
p329
I27
sS'2473.887,0.000,-574.610'
p330
I42
sS'3710.831,6778.486,0.000'
p331
I14
sS'3710.831,1347.530,0.000'
p332
I4
sS'1236.944,16333.701,-3584.465'
p333
I30
sS'6222.201,16333.701,-1952.851'
p334
I29
sS'3710.831,16333.701,-5216.080'
p335
I34
sS'0.000,0.000,-574.610'
p336
I43
sS'4947.774,0.000,-574.610'
p337
I41
sS'3710.831,14986.171,0.000'
p338
I7
sS'1236.944,0.000,-5216.080'
p339
I24
sS'3710.831,9555.215,0.000'
p340
I15
sS'4947.774,16333.701,-574.610'
p341
I37
sS'2473.887,16333.701,-574.610'
p342
I38
sS'6222.201,0.000,-1952.851'
p343
I20
sS'7496.628,0.000,-574.610'
p344
I40
sS'7496.628,16333.701,-574.610'
p345
I36
ssS'element_properties'
p346
(dp347
g218
g0
(ccompas_fea.structure.element_properties
ElementProperties
p348
g2
Ntp349
Rp350
(dp351
g15
I21
sS'__name__'
p352
S'ElementProperties'
p353
sS'name'
p354
g218
sS'material'
p355
S'wall_element_mat'
p356
sS'section'
p357
S'wall2_element_sec'
p358
sS'elset'
p359
S'elset_wall_2_4'
p360
sS'elements'
p361
NsS'rebar'
p362
(dp363
sbsg152
g0
(g348
g2
Ntp364
Rp365
(dp366
g15
I10
sg352
g353
sg354
g152
sg355
g356
sg357
S'wall1_element_sec'
p367
sg359
S'elset_wall_1_2'
p368
sg361
Nsg362
g363
sbsg188
g0
(g348
g2
Ntp369
Rp370
(dp371
g15
I16
sg352
g353
sg354
g188
sg355
g356
sg357
g367
sg359
S'elset_wall_1_8'
p372
sg361
Nsg362
g363
sbsg206
g0
(g348
g2
Ntp373
Rp374
(dp375
g15
I19
sg352
g353
sg354
g206
sg355
g356
sg357
g358
sg359
S'elset_wall_2_2'
p376
sg361
Nsg362
g363
sbsg56
g0
(g348
g2
Ntp377
Rp378
(dp379
g15
I0
sg352
g353
sg354
g56
sg355
S'plate_element_mat'
p380
sg357
S'plate_element_sec'
p381
sg359
S'elset_plate_1'
p382
sg361
Nsg362
g363
sbsg224
g0
(g348
g2
Ntp383
Rp384
(dp385
g15
I22
sg352
g353
sg354
g224
sg355
g356
sg357
g358
sg359
S'elset_wall_2_5'
p386
sg361
Nsg362
g363
sbsg136
g0
(g348
g2
Ntp387
Rp388
(dp389
g15
I8
sg352
g353
sg354
g136
sg355
g380
sg357
g381
sg359
S'elset_plate_9'
p390
sg361
Nsg362
g363
sbsg176
g0
(g348
g2
Ntp391
Rp392
(dp393
g15
I14
sg352
g353
sg354
g176
sg355
g356
sg357
g367
sg359
S'elset_wall_1_6'
p394
sg361
Nsg362
g363
sbsg96
g0
(g348
g2
Ntp395
Rp396
(dp397
g15
I4
sg352
g353
sg354
g96
sg355
g380
sg357
g381
sg359
S'elset_plate_5'
p398
sg361
Nsg362
g363
sbsg158
g0
(g348
g2
Ntp399
Rp400
(dp401
g15
I11
sg352
g353
sg354
g158
sg355
g356
sg357
g367
sg359
S'elset_wall_1_3'
p402
sg361
Nsg362
g363
sbsg76
g0
(g348
g2
Ntp403
Rp404
(dp405
g15
I2
sg352
g353
sg354
g76
sg355
g380
sg357
g381
sg359
S'elset_plate_3'
p406
sg361
Nsg362
g363
sbsg212
g0
(g348
g2
Ntp407
Rp408
(dp409
g15
I20
sg352
g353
sg354
g212
sg355
g356
sg357
g358
sg359
S'elset_wall_2_3'
p410
sg361
Nsg362
g363
sbsg230
g0
(g348
g2
Ntp411
Rp412
(dp413
g15
I23
sg352
g353
sg354
g230
sg355
g356
sg357
g358
sg359
S'elset_wall_2_6'
p414
sg361
Nsg362
g363
sbsg164
g0
(g348
g2
Ntp415
Rp416
(dp417
g15
I12
sg352
g353
sg354
g164
sg355
g356
sg357
g367
sg359
S'elset_wall_1_4'
p418
sg361
Nsg362
g363
sbsg194
g0
(g348
g2
Ntp419
Rp420
(dp421
g15
I17
sg352
g353
sg354
g194
sg355
g356
sg357
g367
sg359
S'elset_wall_1_9'
p422
sg361
Nsg362
g363
sbsg126
g0
(g348
g2
Ntp423
Rp424
(dp425
g15
I7
sg352
g353
sg354
g126
sg355
g380
sg357
g381
sg359
S'elset_plate_8'
p426
sg361
Nsg362
g363
sbsg146
g0
(g348
g2
Ntp427
Rp428
(dp429
g15
I9
sg352
g353
sg354
g146
sg355
g356
sg357
g367
sg359
S'elset_wall_1_1'
p430
sg361
Nsg362
g363
sbsg116
g0
(g348
g2
Ntp431
Rp432
(dp433
g15
I6
sg352
g353
sg354
g116
sg355
g380
sg357
g381
sg359
S'elset_plate_7'
p434
sg361
Nsg362
g363
sbsg242
g0
(g348
g2
Ntp435
Rp436
(dp437
g15
I25
sg352
g353
sg354
g242
sg355
g356
sg357
g358
sg359
S'elset_wall_2_8'
p438
sg361
Nsg362
g363
sbsg86
g0
(g348
g2
Ntp439
Rp440
(dp441
g15
I3
sg352
g353
sg354
g86
sg355
g380
sg357
g381
sg359
S'elset_plate_4'
p442
sg361
Nsg362
g363
sbsg66
g0
(g348
g2
Ntp443
Rp444
(dp445
g15
I1
sg352
g353
sg354
g66
sg355
g380
sg357
g381
sg359
S'elset_plate_2'
p446
sg361
Nsg362
g363
sbsg257
g0
(g348
g2
Ntp447
Rp448
(dp449
g15
I27
sg352
g353
sg354
g257
sg355
S'elset_mpc_element_mat'
p450
sg357
S'sec_mpc'
p451
sg359
S'elset_mpcs'
p452
sg361
Nsg362
g363
sbsg182
g0
(g348
g2
Ntp453
Rp454
(dp455
g15
I15
sg352
g353
sg354
g182
sg355
g356
sg357
g367
sg359
S'elset_wall_1_7'
p456
sg361
Nsg362
g363
sbsg236
g0
(g348
g2
Ntp457
Rp458
(dp459
g15
I24
sg352
g353
sg354
g236
sg355
g356
sg357
g358
sg359
S'elset_wall_2_7'
p460
sg361
Nsg362
g363
sbsg248
g0
(g348
g2
Ntp461
Rp462
(dp463
g15
I26
sg352
g353
sg354
g248
sg355
g356
sg357
g358
sg359
S'elset_wall_2_9'
p464
sg361
Nsg362
g363
sbsg200
g0
(g348
g2
Ntp465
Rp466
(dp467
g15
I18
sg352
g353
sg354
g200
sg355
g356
sg357
g358
sg359
S'elset_wall_2_1'
p468
sg361
Nsg362
g363
sbsg106
g0
(g348
g2
Ntp469
Rp470
(dp471
g15
I5
sg352
g353
sg354
g106
sg355
g380
sg357
g381
sg359
S'elset_plate_6'
p472
sg361
Nsg362
g363
sbsg170
g0
(g348
g2
Ntp473
Rp474
(dp475
g15
I13
sg352
g353
sg354
g170
sg355
g356
sg357
g367
sg359
S'elset_wall_1_5'
p476
sg361
Nsg362
g363
sbssS'interactions'
p477
(dp478
sS'loads'
p479
(dp480
S'Gleis1_BAHNLASTEN_Lasteinzugsflache_Lastblock_-3'
p481
g0
(ccompas_fea.structure.load
AreaLoad
p482
g2
Ntp483
Rp484
(dp485
g15
I8
sS'__name__'
p486
S'AreaLoad'
p487
sS'name'
p488
g481
sS'axes'
p489
S'global'
p490
sS'components'
p491
(dp492
g23
F0.054784427775927472
sg27
I0
sg28
I0
ssS'nodes'
p493
(lp494
sS'elements'
p495
(lp496
I5
asS'attr_list'
p497
(lp498
S'name'
p499
aS'axes'
p500
aS'components'
p501
aS'nodes'
p502
aS'elements'
p503
asbsS'earthPressure_liveLoad'
p504
g0
(g482
g2
Ntp505
Rp506
(dp507
g15
I9
sg486
g487
sg488
g504
sg489
S'local'
p508
sg491
(dp509
g23
F0.037699999999999997
sg27
I0
sg28
I0
ssg493
g494
sg495
(lp510
I20
aI21
aI23
aI24
aI26
aI27
asg497
(lp511
g499
ag500
ag501
ag502
ag503
asbsS'Gleis1_BAHNLASTEN_Lasteinzugsflache_Lastblock_-2'
p512
g0
(g482
g2
Ntp513
Rp514
(dp515
g15
I7
sg486
g487
sg488
g512
sg489
g490
sg491
(dp516
g23
F0.054784427775927472
sg27
I0
sg28
I0
ssg493
g494
sg495
(lp517
I5
aI9
asg497
(lp518
g499
ag500
ag501
ag502
ag503
asbsS'Gleis1_EIGENGEWICHTE_SCHIENE_Lasteinzugsflache'
p519
g0
(g482
g2
Ntp520
Rp521
(dp522
g15
I3
sg486
g487
sg488
g519
sg489
g490
sg491
(dp523
g23
F0.0021148551770690453
sg27
I0
sg28
I0
ssg493
g494
sg495
(lp524
I5
aI9
aI10
aI11
aI17
aI18
asg497
(lp525
g499
ag500
ag501
ag502
ag503
asbsS'earthPressure_backfill'
p526
g0
(g482
g2
Ntp527
Rp528
(dp529
g15
I2
sg486
g487
sg488
g526
sg489
g508
sg491
(dp530
g23
F0.066906051559506532
sg27
I0
sg28
I0
ssg493
g494
sg495
(lp531
g430
ag368
ag402
ag418
ag476
ag394
ag456
ag372
ag422
ag468
ag376
ag410
ag360
ag386
ag414
ag460
ag438
ag464
asg497
(lp532
g499
ag500
ag501
ag502
ag503
asbsS'Gleis1_BAHNLASTEN_Lasteinzugsflache_Lastblock_2'
p533
g0
(g482
g2
Ntp534
Rp535
(dp536
g15
I4
sg486
g487
sg488
g533
sg489
g490
sg491
(dp537
g23
F0.054784427775927472
sg27
I0
sg28
I0
ssg493
g494
sg495
(lp538
I11
asg497
(lp539
g499
ag500
ag501
ag502
ag503
asbsS'earthPressure_gravel'
p540
g0
(g482
g2
Ntp541
Rp542
(dp543
g15
I1
sg486
g487
sg488
g540
sg489
g490
sg491
(dp544
g23
F0.013500000000000002
sg27
I0
sg28
I0
ssg493
g494
sg495
(lp545
g382
ag446
ag406
ag442
ag398
ag472
ag434
ag426
ag390
asg497
(lp546
g499
ag500
ag501
ag502
ag503
asbsS'Gleis1_BAHNLASTEN_Lasteinzugsflache_Lastblock_3'
p547
g0
(g482
g2
Ntp548
Rp549
(dp550
g15
I5
sg486
g487
sg488
g547
sg489
g490
sg491
(dp551
g23
F0.054784427775927472
sg27
I0
sg28
I0
ssg493
g494
sg495
(lp552
I11
asg497
(lp553
g499
ag500
ag501
ag502
ag503
asbsS'load_gravity'
p554
g0
(ccompas_fea.structure.load
GravityLoad
p555
g2
Ntp556
Rp557
(dp558
g15
I0
sg486
S'GravityLoad'
p559
sg488
g554
sg489
g490
sg491
(dp560
g23
F1.3500000000000001
sg27
F0.0
sg28
F0.0
ssg493
g494
sg495
(lp561
g382
ag446
ag406
ag442
ag398
ag472
ag434
ag426
ag390
ag430
ag368
ag402
ag418
ag476
ag394
ag456
ag372
ag422
ag468
ag376
ag410
ag360
ag386
ag414
ag460
ag438
ag464
asg497
(lp562
g499
ag500
ag501
ag502
ag503
aS'g'
p563
asS'g'
p564
F-9.8100000000000005
sbsS'Gleis1_BAHNLASTEN_Lasteinzugsflache_Lastblock_-1'
p565
g0
(g482
g2
Ntp566
Rp567
(dp568
g15
I6
sg486
g487
sg488
g565
sg489
g490
sg491
(dp569
g23
F0.054784427775927472
sg27
I0
sg28
I0
ssg493
g494
sg495
(lp570
I17
asg497
(lp571
g499
ag500
ag501
ag502
ag503
asbssS'materials'
p572
(dp573
g450
g0
(ccompas_fea.structure.material
MPCStiff
p574
g2
Ntp575
Rp576
(dp577
g15
I2
sS'__name__'
p578
S'MPCStiff'
p579
sS'name'
p580
g450
sS'attr_list'
p581
(lp582
g499
aS'E'
p583
aS'v'
p584
aS'G'
p585
aS'p'
p586
aS'tension'
p587
aS'compression'
p588
asS'E'
p589
(dp590
g583
L10000000000000L
ssS'v'
p591
(dp592
g584
F0.29999999999999999
ssS'G'
p593
(dp594
g585
F3846153846153.8462
ssS'p'
p595
F0.10000000000000001
sS'tension'
p596
I01
sS'compression'
p597
I01
sbsg356
g0
(ccompas_fea.structure.material
CMMUsermat
p598
g2
Ntp599
Rp600
(dp601
g15
I1
sg578
S'CMMUsermat'
p602
sg580
g356
sg581
(lp603
g499
ag583
ag584
ag585
ag586
aS'R_Rohr'
p604
aS'rho'
p605
aS'oo'
p606
aS'uu'
p607
aS'beton'
p608
aS'fcc'
p609
aS'vc'
p610
aS'ecu'
p611
aS'k_E'
p612
aS'theta_b0'
p613
aS'theta_b1'
p614
aS'k_riss'
p615
aS'Entfestigung'
p616
aS'lambdaTS'
p617
aS'srmx'
p618
aS'srmy'
p619
aS'Begrenzung'
p620
aS'KritQ'
p621
aS'winkelD'
p622
aS'k_vr'
p623
aS'fswy'
p624
aS'stahl1'
p625
aS'zm1'
p626
aS'fsy1'
p627
aS'fsu1'
p628
aS'esu1'
p629
aS'esv1'
p630
aS'Es1'
p631
aS'ka1'
p632
aS'kb1'
p633
aS'kc1'
p634
aS'as1'
p635
aS'dm1'
p636
aS'psi1'
p637
aS'stahl2'
p638
aS'zm2'
p639
aS'fsy2'
p640
aS'fsu2'
p641
aS'esu2'
p642
aS'esv2'
p643
aS'Es2'
p644
aS'ka2'
p645
aS'kb2'
p646
aS'kc2'
p647
aS'as2'
p648
aS'dm2'
p649
aS'psi2'
p650
aS'stahl3'
p651
aS'zm3'
p652
aS'fsy3'
p653
aS'fsu3'
p654
aS'esu3'
p655
aS'esv3'
p656
aS'Es3'
p657
aS'ka3'
p658
aS'kb3'
p659
aS'kc3'
p660
aS'as3'
p661
aS'dm3'
p662
aS'psi3'
p663
aS'stahl4'
p664
aS'zm4'
p665
aS'fsy4'
p666
aS'fsu4'
p667
aS'esu4'
p668
aS'esv4'
p669
aS'Es4'
p670
aS'ka4'
p671
aS'kb4'
p672
aS'kc4'
p673
aS'as4'
p674
aS'dm4'
p675
aS'psi4'
p676
asS'E'
p677
(dp678
S'E'
p679
I200000
ssS'v'
p680
(dp681
S'v'
p682
F0.10000000000000001
ssS'G'
p683
(dp684
g585
F90909.090909090897
ssS'p'
p685
F2.5000000000000002e-06
sS'R_Rohr'
p686
(dp687
g604
I-1
ssS'rho'
p688
(dp689
g605
F2.5000000000000002e-06
ssS'oo'
p690
(dp691
g606
I30
ssS'uu'
p692
(dp693
g607
I30
ssS'beton'
p694
(dp695
g608
I2
ssS'fcc'
p696
(dp697
g609
I40
ssS'vc'
p698
(dp699
g610
I0
ssS'ecu'
p700
(dp701
g611
F-0.002
ssS'k_E'
p702
(dp703
g612
I10000
ssS'theta_b0'
p704
(dp705
g613
I2
ssS'theta_b1'
p706
(dp707
g614
I1
ssS'k_riss'
p708
(dp709
g615
I0
ssS'Entfestigung'
p710
(dp711
g616
I0
ssS'lambdaTS'
p712
(dp713
g617
F0.67000000000000004
ssS'srmx'
p714
(dp715
g618
I1
ssS'srmy'
p716
(dp717
g619
I1
ssS'Begrenzung'
p718
(dp719
g620
I2
ssS'KritQ'
p720
(dp721
g621
I0
ssS'winkelD'
p722
(dp723
g622
I45
ssS'k_vr'
p724
(dp725
g623
I1
ssS'fswy'
p726
(dp727
g624
I500
ssS'stahl1'
p728
(dp729
g625
I1
ssS'zm1'
p730
(dp731
g626
I2
ssS'fsy1'
p732
(dp733
g627
I397
ssS'fsu1'
p734
(dp735
g628
I429
ssS'esu1'
p736
(dp737
g629
F0.044999999999999998
ssS'esv1'
p738
(dp739
g630
F0.02
ssS'Es1'
p740
(dp741
g631
I200000
ssS'ka1'
p742
(dp743
g632
I-1
ssS'kb1'
p744
(dp745
g633
I-1
ssS'kc1'
p746
(dp747
g634
I-1
ssS'as1'
p748
(dp749
g635
F0.46819273383465992
ssS'dm1'
p750
(dp751
g636
F16.41910895681481
ssS'psi1'
p752
(dp753
g637
I90
ssS'stahl2'
p754
(dp755
g638
I1
ssS'zm2'
p756
(dp757
g639
I2
ssS'fsy2'
p758
(dp759
g640
I397
ssS'fsu2'
p760
(dp761
g641
I429
ssS'esu2'
p762
(dp763
g642
F0.044999999999999998
ssS'esv2'
p764
(dp765
g643
F0.02
ssS'Es2'
p766
(dp767
g644
I200000
ssS'ka2'
p768
(dp769
g645
I-1
ssS'kb2'
p770
(dp771
g646
I-1
ssS'kc2'
p772
(dp773
g647
I-1
ssS'as2'
p774
(dp775
g648
F0.25008520042292304
ssS'dm2'
p776
(dp777
g649
F12.0
ssS'psi2'
p778
(dp779
g650
I0
ssS'stahl3'
p780
(dp781
g651
I1
ssS'zm3'
p782
(dp783
g652
I2
ssS'fsy3'
p784
(dp785
g653
I397
ssS'fsu3'
p786
(dp787
g654
I429
ssS'esu3'
p788
(dp789
g655
F0.044999999999999998
ssS'esv3'
p790
(dp791
g656
F0.02
ssS'Es3'
p792
(dp793
g657
I200000
ssS'ka3'
p794
(dp795
g658
I-1
ssS'kb3'
p796
(dp797
g659
I-1
ssS'kc3'
p798
(dp799
g660
I-1
ssS'as3'
p800
(dp801
g661
F0.25008520042292304
ssS'dm3'
p802
(dp803
g662
F12.0
ssS'psi3'
p804
(dp805
g663
I0
ssS'stahl4'
p806
(dp807
g664
I1
ssS'zm4'
p808
(dp809
g665
I2
ssS'fsy4'
p810
(dp811
g666
I397
ssS'fsu4'
p812
(dp813
g667
I429
ssS'esu4'
p814
(dp815
g668
F0.044999999999999998
ssS'esv4'
p816
(dp817
g669
F0.02
ssS'Es4'
p818
(dp819
g670
I200000
ssS'ka4'
p820
(dp821
g671
I-1
ssS'kb4'
p822
(dp823
g672
I-1
ssS'kc4'
p824
(dp825
g673
I-1
ssS'as4'
p826
(dp827
g674
F0.26601597028232982
ssS'dm4'
p828
(dp829
g675
F12.376307901229355
ssS'psi4'
p830
(dp831
g676
I90
ssbsg380
g0
(g598
g2
Ntp832
Rp833
(dp834
g15
I0
sg578
g602
sg580
g380
sg581
(lp835
g499
ag583
ag584
ag585
ag586
ag604
ag605
ag606
ag607
ag608
ag609
ag610
ag611
ag612
ag613
ag614
ag615
ag616
ag617
ag618
ag619
ag620
ag621
ag622
ag623
ag624
ag625
ag626
ag627
ag628
ag629
ag630
ag631
ag632
ag633
ag634
ag635
ag636
ag637
ag638
ag639
ag640
ag641
ag642
ag643
ag644
ag645
ag646
ag647
ag648
ag649
ag650
ag651
ag652
ag653
ag654
ag655
ag656
ag657
ag658
ag659
ag660
ag661
ag662
ag663
ag664
ag665
ag666
ag667
ag668
ag669
ag670
ag671
ag672
ag673
ag674
ag675
ag676
asg677
(dp836
g679
I200000
ssg680
(dp837
g682
F0.10000000000000001
ssg683
(dp838
g585
F90909.090909090897
ssg685
F2.5000000000000002e-06
sg686
(dp839
g604
I-1
ssg688
(dp840
g605
F2.5000000000000002e-06
ssg690
(dp841
g606
I30
ssg692
(dp842
g607
I30
ssg694
(dp843
g608
I2
ssg696
(dp844
g609
I40
ssg698
(dp845
g610
I0
ssg700
(dp846
g611
F-0.002
ssg702
(dp847
g612
I10000
ssg704
(dp848
g613
I2
ssg706
(dp849
g614
I1
ssg708
(dp850
g615
I0
ssg710
(dp851
g616
I0
ssg712
(dp852
g617
F0.67000000000000004
ssg714
(dp853
g618
I1
ssg716
(dp854
g619
I1
ssg718
(dp855
g620
I2
ssg720
(dp856
g621
I0
ssg722
(dp857
g622
I45
ssg724
(dp858
g623
I1
ssg726
(dp859
g624
I500
ssg728
(dp860
g625
I1
ssg730
(dp861
g626
I2
ssg732
(dp862
g627
I397
ssg734
(dp863
g628
I429
ssg736
(dp864
g629
F0.044999999999999998
ssg738
(dp865
g630
F0.02
ssg740
(dp866
g631
I200000
ssg742
(dp867
g632
I-1
ssg744
(dp868
g633
I-1
ssg746
(dp869
g634
I-1
ssg748
(dp870
g635
F0.64252174906690596
ssg750
(dp871
g636
F19.866891182203108
ssg752
(dp872
g637
I90
ssg754
(dp873
g638
I1
ssg756
(dp874
g639
I2
ssg758
(dp875
g640
I397
ssg760
(dp876
g641
I429
ssg762
(dp877
g642
F0.044999999999999998
ssg764
(dp878
g643
F0.02
ssg766
(dp879
g644
I200000
ssg768
(dp880
g645
I-1
ssg770
(dp881
g646
I-1
ssg772
(dp882
g647
I-1
ssg774
(dp883
g648
F0.17419216998436907
ssg776
(dp884
g649
F10.344281040335186
ssg778
(dp885
g650
I0
ssg780
(dp886
g651
I1
ssg782
(dp887
g652
I2
ssg784
(dp888
g653
I397
ssg786
(dp889
g654
I429
ssg788
(dp890
g655
F0.044999999999999998
ssg790
(dp891
g656
F0.02
ssg792
(dp892
g657
I200000
ssg794
(dp893
g658
I-1
ssg796
(dp894
g659
I-1
ssg798
(dp895
g660
I-1
ssg800
(dp896
g661
F0.23441775315398319
ssg802
(dp897
g662
F12.0
ssg804
(dp898
g663
I0
ssg806
(dp899
g664
I1
ssg808
(dp900
g665
I2
ssg810
(dp901
g666
I397
ssg812
(dp902
g667
I429
ssg814
(dp903
g668
F0.044999999999999998
ssg816
(dp904
g669
F0.02
ssg818
(dp905
g670
I200000
ssg820
(dp906
g671
I-1
ssg822
(dp907
g672
I-1
ssg824
(dp908
g673
I-1
ssg826
(dp909
g674
F0.96095905236706336
ssg828
(dp910
g675
F24.296204685013223
ssg830
(dp911
g676
I90
ssbssS'misc'
p912
(dp913
sS'name'
p914
S'NLFE_CFB1'
p915
sS'nodes'
p916
(dp917
I0
g0
(ccompas_fea.structure.node
Node
p918
g2
Ntp919
Rp920
(dp921
S'__name__'
p922
S'Node'
p923
sS'key'
p924
I0
sS'x'
p925
F0.0
sS'y'
p926
F0.0
sS'z'
p927
F0.0
sS'ex'
p928
(lp929
I1
aI0
aI0
asS'ey'
p930
(lp931
I0
aI1
aI0
asS'ez'
p932
(lp933
I0
aI0
aI1
asS'mass'
p934
NsbsI1
g0
(g918
g2
Ntp935
Rp936
(dp937
g922
g923
sg924
I1
sg925
F2473.8870924533871
sg926
F0.0
sg927
F0.0
sg928
g929
sg930
g931
sg932
g933
sg934
NsbsI2
g0
(g918
g2
Ntp938
Rp939
(dp940
g922
g923
sg924
I2
sg925
F0.0
sg926
F2695.0607070210958
sg927
F0.0
sg928
g929
sg930
g931
sg932
g933
sg934
NsbsI3
g0
(g918
g2
Ntp941
Rp942
(dp943
g922
g923
sg924
I3
sg925
F2473.8870924533867
sg926
F2695.0607070210958
sg927
F0.0
sg928
g929
sg930
g931
sg932
g933
sg934
NsbsI4
g0
(g918
g2
Ntp944
Rp945
(dp946
g922
g923
sg924
I4
sg925
F0.0
sg926
F5390.1214140421926
sg927
F0.0
sg928
g929
sg930
g931
sg932
g933
sg934
NsbsI5
g0
(g918
g2
Ntp947
Rp948
(dp949
g922
g923
sg924
I5
sg925
F2473.8870924533871
sg926
F5390.1214140421926
sg927
F0.0
sg928
g929
sg930
g931
sg932
g933
sg934
NsbsI6
g0
(g918
g2
Ntp950
Rp951
(dp952
g922
g923
sg924
I6
sg925
F0.0
sg926
F10943.579840631117
sg927
F0.0
sg928
g929
sg930
g931
sg932
g933
sg934
NsbsI7
g0
(g918
g2
Ntp953
Rp954
(dp955
g922
g923
sg924
I7
sg925
F2473.8870924533871
sg926
F10943.579840631117
sg927
F0.0
sg928
g929
sg930
g931
sg932
g933
sg934
NsbsI8
g0
(g918
g2
Ntp956
Rp957
(dp958
g922
g923
sg924
I8
sg925
F0.0
sg926
F13638.640547652212
sg927
F0.0
sg928
g929
sg930
g931
sg932
g933
sg934
NsbsI9
g0
(g918
g2
Ntp959
Rp960
(dp961
g922
g923
sg924
I9
sg925
F2473.8870924533867
sg926
F13638.640547652212
sg927
F0.0
sg928
g929
sg930
g931
sg932
g933
sg934
NsbsI10
g0
(g918
g2
Ntp962
Rp963
(dp964
g922
g923
sg924
I10
sg925
F0.0
sg926
F16333.701254673309
sg927
F0.0
sg928
g929
sg930
g931
sg932
g933
sg934
NsbsI11
g0
(g918
g2
Ntp965
Rp966
(dp967
g922
g923
sg924
I11
sg925
F2473.8870924533871
sg926
F16333.701254673309
sg927
F0.0
sg928
g929
sg930
g931
sg932
g933
sg934
NsbsI12
g0
(g918
g2
Ntp968
Rp969
(dp970
g922
g923
sg924
I12
sg925
F4947.7741849067743
sg926
F0.0
sg927
F0.0
sg928
g929
sg930
g931
sg932
g933
sg934
NsbsI13
g0
(g918
g2
Ntp971
Rp972
(dp973
g922
g923
sg924
I13
sg925
F4947.7741849067734
sg926
F2695.0607070210958
sg927
F0.0
sg928
g929
sg930
g931
sg932
g933
sg934
NsbsI14
g0
(g918
g2
Ntp974
Rp975
(dp976
g922
g923
sg924
I14
sg925
F4947.7741849067743
sg926
F5390.1214140421926
sg927
F0.0
sg928
g929
sg930
g931
sg932
g933
sg934
NsbsI15
g0
(g918
g2
Ntp977
Rp978
(dp979
g922
g923
sg924
I15
sg925
F4947.7741849067743
sg926
F10943.579840631117
sg927
F0.0
sg928
g929
sg930
g931
sg932
g933
sg934
NsbsI16
g0
(g918
g2
Ntp980
Rp981
(dp982
g922
g923
sg924
I16
sg925
F4947.7741849067734
sg926
F13638.640547652212
sg927
F0.0
sg928
g929
sg930
g931
sg932
g933
sg934
NsbsI17
g0
(g918
g2
Ntp983
Rp984
(dp985
g922
g923
sg924
I17
sg925
F4947.7741849067743
sg926
F16333.701254673309
sg927
F0.0
sg928
g929
sg930
g931
sg932
g933
sg934
NsbsI18
g0
(g918
g2
Ntp986
Rp987
(dp988
g922
g923
sg924
I18
sg925
F7496.6275528890519
sg926
F0.0
sg927
F0.0
sg928
g929
sg930
g931
sg932
g933
sg934
NsbsI19
g0
(g918
g2
Ntp989
Rp990
(dp991
g922
g923
sg924
I19
sg925
F7496.627552889051
sg926
F2695.0607070210958
sg927
F0.0
sg928
g929
sg930
g931
sg932
g933
sg934
NsbsI20
g0
(g918
g2
Ntp992
Rp993
(dp994
g922
g923
sg924
I20
sg925
F7496.6275528890519
sg926
F5390.1214140421926
sg927
F0.0
sg928
g929
sg930
g931
sg932
g933
sg934
NsbsI21
g0
(g918
g2
Ntp995
Rp996
(dp997
g922
g923
sg924
I21
sg925
F7496.6275528890519
sg926
F10943.579840631117
sg927
F0.0
sg928
g929
sg930
g931
sg932
g933
sg934
NsbsI22
g0
(g918
g2
Ntp998
Rp999
(dp1000
g922
g923
sg924
I22
sg925
F7496.627552889051
sg926
F13638.640547652212
sg927
F0.0
sg928
g929
sg930
g931
sg932
g933
sg934
NsbsI23
g0
(g918
g2
Ntp1001
Rp1002
(dp1003
g922
g923
sg924
I23
sg925
F7496.6275528890519
sg926
F16333.701254673309
sg927
F0.0
sg928
g929
sg930
g931
sg932
g933
sg934
NsbsI24
g0
(g918
g2
Ntp1004
Rp1005
(dp1006
g922
g923
sg924
I24
sg925
F0.0
sg926
F8166.8506273366547
sg927
F0.0
sg928
g929
sg930
g931
sg932
g933
sg934
NsbsI25
g0
(g918
g2
Ntp1007
Rp1008
(dp1009
g922
g923
sg924
I25
sg925
F2473.8870924533871
sg926
F8166.8506273366547
sg927
F0.0
sg928
g929
sg930
g931
sg932
g933
sg934
NsbsI26
g0
(g918
g2
Ntp1010
Rp1011
(dp1012
g922
g923
sg924
I26
sg925
F4947.7741849067743
sg926
F8166.8506273366547
sg927
F0.0
sg928
g929
sg930
g931
sg932
g933
sg934
NsbsI27
g0
(g918
g2
Ntp1013
Rp1014
(dp1015
g922
g923
sg924
I27
sg925
F7496.6275528890519
sg926
F8166.8506273366547
sg927
F0.0
sg928
g929
sg930
g931
sg932
g933
sg934
NsbsI28
g0
(g918
g2
Ntp1016
Rp1017
(dp1018
g922
g923
sg924
I28
sg925
F0.0
sg926
F0.0
sg927
F-2756.4821127670684
sg928
g929
sg930
g931
sg932
g933
sg934
NsbsI29
g0
(g918
g2
Ntp1019
Rp1020
(dp1021
g922
g923
sg924
I29
sg925
F2473.8870924533899
sg926
F0.0
sg927
F-2756.4821127670684
sg928
g929
sg930
g931
sg932
g933
sg934
NsbsI30
g0
(g918
g2
Ntp1022
Rp1023
(dp1024
g922
g923
sg924
I30
sg925
F0.0
sg926
F0.0
sg927
F-1149.2202847483761
sg928
g929
sg930
g931
sg932
g933
sg934
NsbsI31
g0
(g918
g2
Ntp1025
Rp1026
(dp1027
g922
g923
sg924
I31
sg925
F2473.8870924533899
sg926
F0.0
sg927
F-1149.2202847483761
sg928
g929
sg930
g931
sg932
g933
sg934
NsbsI32
g0
(g918
g2
Ntp1028
Rp1029
(dp1030
g922
g923
sg924
I32
sg925
F4947.7741849067697
sg926
F0.0
sg927
F-2756.4821127670684
sg928
g929
sg930
g931
sg932
g933
sg934
NsbsI33
g0
(g918
g2
Ntp1031
Rp1032
(dp1033
g922
g923
sg924
I33
sg925
F4947.7741849067697
sg926
F0.0
sg927
F-1149.2202847483761
sg928
g929
sg930
g931
sg932
g933
sg934
NsbsI34
g0
(g918
g2
Ntp1034
Rp1035
(dp1036
g922
g923
sg924
I34
sg925
F7496.6275528890501
sg926
F0.0
sg927
F-2756.4821127670684
sg928
g929
sg930
g931
sg932
g933
sg934
NsbsI35
g0
(g918
g2
Ntp1037
Rp1038
(dp1039
g922
g923
sg924
I35
sg925
F7496.6275528890501
sg926
F0.0
sg927
F-1149.2202847483761
sg928
g929
sg930
g931
sg932
g933
sg934
NsbsI36
g0
(g918
g2
Ntp1040
Rp1041
(dp1042
g922
g923
sg924
I36
sg925
F0.0
sg926
F0.0
sg927
F-4412.4488446651148
sg928
g929
sg930
g931
sg932
g933
sg934
NsbsI37
g0
(g918
g2
Ntp1043
Rp1044
(dp1045
g922
g923
sg924
I37
sg925
F2473.8870924533899
sg926
F0.0
sg927
F-4412.4488446651148
sg928
g929
sg930
g931
sg932
g933
sg934
NsbsI38
g0
(g918
g2
Ntp1046
Rp1047
(dp1048
g922
g923
sg924
I38
sg925
F4947.7741849067697
sg926
F0.0
sg927
F-4412.4488446651148
sg928
g929
sg930
g931
sg932
g933
sg934
NsbsI39
g0
(g918
g2
Ntp1049
Rp1050
(dp1051
g922
g923
sg924
I39
sg925
F7496.6275528890501
sg926
F0.0
sg927
F-4412.4488446651148
sg928
g929
sg930
g931
sg932
g933
sg934
NsbsI40
g0
(g918
g2
Ntp1052
Rp1053
(dp1054
g922
g923
sg924
I40
sg925
F0.0
sg926
F0.0
sg927
F-6019.7106726838074
sg928
g929
sg930
g931
sg932
g933
sg934
NsbsI41
g0
(g918
g2
Ntp1055
Rp1056
(dp1057
g922
g923
sg924
I41
sg925
F2473.8870924533899
sg926
F0.0
sg927
F-6019.7106726838074
sg928
g929
sg930
g931
sg932
g933
sg934
NsbsI42
g0
(g918
g2
Ntp1058
Rp1059
(dp1060
g922
g923
sg924
I42
sg925
F4947.7741849067697
sg926
F0.0
sg927
F-6019.7106726838074
sg928
g929
sg930
g931
sg932
g933
sg934
NsbsI43
g0
(g918
g2
Ntp1061
Rp1062
(dp1063
g922
g923
sg924
I43
sg925
F7496.6275528890501
sg926
F0.0
sg927
F-6019.7106726838074
sg928
g929
sg930
g931
sg932
g933
sg934
NsbsI44
g0
(g918
g2
Ntp1064
Rp1065
(dp1066
g922
g923
sg924
I44
sg925
F0.0
sg926
F16333.701254673309
sg927
F-2756.4821127670684
sg928
g929
sg930
g931
sg932
g933
sg934
NsbsI45
g0
(g918
g2
Ntp1067
Rp1068
(dp1069
g922
g923
sg924
I45
sg925
F2473.8870924533899
sg926
F16333.701254673309
sg927
F-2756.4821127670684
sg928
g929
sg930
g931
sg932
g933
sg934
NsbsI46
g0
(g918
g2
Ntp1070
Rp1071
(dp1072
g922
g923
sg924
I46
sg925
F0.0
sg926
F16333.701254673309
sg927
F-1149.2202847483761
sg928
g929
sg930
g931
sg932
g933
sg934
NsbsI47
g0
(g918
g2
Ntp1073
Rp1074
(dp1075
g922
g923
sg924
I47
sg925
F2473.8870924533899
sg926
F16333.701254673309
sg927
F-1149.2202847483761
sg928
g929
sg930
g931
sg932
g933
sg934
NsbsI48
g0
(g918
g2
Ntp1076
Rp1077
(dp1078
g922
g923
sg924
I48
sg925
F4947.7741849067697
sg926
F16333.701254673309
sg927
F-2756.4821127670684
sg928
g929
sg930
g931
sg932
g933
sg934
NsbsI49
g0
(g918
g2
Ntp1079
Rp1080
(dp1081
g922
g923
sg924
I49
sg925
F4947.7741849067697
sg926
F16333.701254673309
sg927
F-1149.2202847483761
sg928
g929
sg930
g931
sg932
g933
sg934
NsbsI50
g0
(g918
g2
Ntp1082
Rp1083
(dp1084
g922
g923
sg924
I50
sg925
F7496.6275528890501
sg926
F16333.701254673309
sg927
F-2756.4821127670684
sg928
g929
sg930
g931
sg932
g933
sg934
NsbsI51
g0
(g918
g2
Ntp1085
Rp1086
(dp1087
g922
g923
sg924
I51
sg925
F7496.6275528890501
sg926
F16333.701254673309
sg927
F-1149.2202847483761
sg928
g929
sg930
g931
sg932
g933
sg934
NsbsI52
g0
(g918
g2
Ntp1088
Rp1089
(dp1090
g922
g923
sg924
I52
sg925
F0.0
sg926
F16333.701254673309
sg927
F-4412.4488446651148
sg928
g929
sg930
g931
sg932
g933
sg934
NsbsI53
g0
(g918
g2
Ntp1091
Rp1092
(dp1093
g922
g923
sg924
I53
sg925
F2473.8870924533899
sg926
F16333.701254673309
sg927
F-4412.4488446651148
sg928
g929
sg930
g931
sg932
g933
sg934
NsbsI54
g0
(g918
g2
Ntp1094
Rp1095
(dp1096
g922
g923
sg924
I54
sg925
F4947.7741849067697
sg926
F16333.701254673309
sg927
F-4412.4488446651148
sg928
g929
sg930
g931
sg932
g933
sg934
NsbsI55
g0
(g918
g2
Ntp1097
Rp1098
(dp1099
g922
g923
sg924
I55
sg925
F7496.6275528890501
sg926
F16333.701254673309
sg927
F-4412.4488446651148
sg928
g929
sg930
g931
sg932
g933
sg934
NsbsI56
g0
(g918
g2
Ntp1100
Rp1101
(dp1102
g922
g923
sg924
I56
sg925
F0.0
sg926
F16333.701254673309
sg927
F-6019.7106726838074
sg928
g929
sg930
g931
sg932
g933
sg934
NsbsI57
g0
(g918
g2
Ntp1103
Rp1104
(dp1105
g922
g923
sg924
I57
sg925
F2473.8870924533899
sg926
F16333.701254673309
sg927
F-6019.7106726838074
sg928
g929
sg930
g931
sg932
g933
sg934
NsbsI58
g0
(g918
g2
Ntp1106
Rp1107
(dp1108
g922
g923
sg924
I58
sg925
F4947.7741849067697
sg926
F16333.701254673309
sg927
F-6019.7106726838074
sg928
g929
sg930
g931
sg932
g933
sg934
NsbsI59
g0
(g918
g2
Ntp1109
Rp1110
(dp1111
g922
g923
sg924
I59
sg925
F7496.6275528890501
sg926
F16333.701254673309
sg927
F-6019.7106726838074
sg928
g929
sg930
g931
sg932
g933
sg934
NsbssS'node_index'
p1112
(dp1113
S'2473.887,0.000,-2756.482'
p1114
I29
sS'7496.628,8166.851,0.000'
p1115
I27
sS'0.000,0.000,-6019.711'
p1116
I40
sS'4947.774,0.000,-6019.711'
p1117
I42
sS'2473.887,0.000,0.000'
p1118
I1
sS'2473.887,8166.851,0.000'
p1119
I25
sS'7496.628,0.000,-1149.220'
p1120
I35
sS'4947.774,0.000,-4412.449'
p1121
I38
sS'4947.774,10943.580,0.000'
p1122
I15
sS'7496.628,2695.061,0.000'
p1123
I19
sS'4947.774,16333.701,0.000'
p1124
I17
sS'7496.628,0.000,0.000'
p1125
I18
sS'0.000,0.000,-1149.220'
p1126
I30
sS'2473.887,10943.580,0.000'
p1127
I7
sS'7496.628,0.000,-6019.711'
p1128
I43
sS'2473.887,16333.701,-1149.220'
p1129
I47
sS'0.000,16333.701,0.000'
p1130
I10
sS'0.000,0.000,-2756.482'
p1131
I28
sS'7496.628,0.000,-4412.449'
p1132
I39
sS'2473.887,16333.701,-6019.711'
p1133
I57
sS'4947.774,2695.061,0.000'
p1134
I13
sS'0.000,16333.701,-1149.220'
p1135
I46
sS'7496.628,0.000,-2756.482'
p1136
I34
sS'0.000,0.000,0.000'
p1137
I0
sS'7496.628,10943.580,0.000'
p1138
I21
sS'4947.774,16333.701,-1149.220'
p1139
I49
sS'7496.628,16333.701,-2756.482'
p1140
I50
sS'2473.887,16333.701,-4412.449'
p1141
I53
sS'7496.628,16333.701,-4412.449'
p1142
I55
sS'0.000,8166.851,0.000'
p1143
I24
sS'2473.887,0.000,-4412.449'
p1144
I37
sS'0.000,16333.701,-4412.449'
p1145
I52
sS'4947.774,13638.641,0.000'
p1146
I16
sS'0.000,16333.701,-2756.482'
p1147
I44
sS'7496.628,16333.701,0.000'
p1148
I23
sS'2473.887,16333.701,0.000'
p1149
I11
sS'0.000,5390.121,0.000'
p1150
I4
sS'2473.887,5390.121,0.000'
p1151
I5
sS'4947.774,16333.701,-2756.482'
p1152
I48
sS'2473.887,13638.641,0.000'
p1153
I9
sS'4947.774,0.000,-1149.220'
p1154
I33
sS'7496.628,13638.641,0.000'
p1155
I22
sS'4947.774,16333.701,-6019.711'
p1156
I58
sS'4947.774,5390.121,0.000'
p1157
I14
sS'0.000,13638.641,0.000'
p1158
I8
sS'0.000,10943.580,0.000'
p1159
I6
sS'2473.887,2695.061,0.000'
p1160
I3
sS'2473.887,0.000,-1149.220'
p1161
I31
sS'4947.774,0.000,-2756.482'
p1162
I32
sS'0.000,2695.061,0.000'
p1163
I2
sS'7496.628,16333.701,-1149.220'
p1164
I51
sS'0.000,0.000,-4412.449'
p1165
I36
sS'0.000,16333.701,-6019.711'
p1166
I56
sS'4947.774,16333.701,-4412.449'
p1167
I54
sS'7496.628,16333.701,-6019.711'
p1168
I59
sS'2473.887,0.000,-6019.711'
p1169
I41
sS'4947.774,8166.851,0.000'
p1170
I26
sS'2473.887,16333.701,-2756.482'
p1171
I45
sS'7496.628,5390.121,0.000'
p1172
I20
sS'4947.774,0.000,0.000'
p1173
I12
ssS'path'
p1174
S'C:\\Temp\\'
p1175
sS'results'
p1176
(dp1177
S'step_2'
p1178
S'ERROR'
p1179
sS'step_3'
p1180
g1179
sS'step_4'
p1181
g1179
sS'step_1'
p1182
g1179
ssS'sections'
p1183
(dp1184
g367
g0
(ccompas_fea.structure.section
ShellSection
p1185
g2
Ntp1186
Rp1187
(dp1188
g15
I1
sS'__name__'
p1189
S'ShellSection'
p1190
sS'name'
p1191
g367
sS'geometry'
p1192
(dp1193
S't'
p1194
F1130.0262886933847
ssS'loc_coords_OR'
p1195
(dp1196
S'ORxyz'
p1197
(lp1198
I0
aI0
aF-4870.4903879399999
assS'loc_coords_XA'
p1199
(dp1200
S'XAxyz'
p1201
(lp1202
I1
aI0
aF-4870.4903879399999
assS'loc_coords_YA'
p1203
(dp1204
S'YAxyz'
p1205
(lp1206
F4870.4903879399999
aF-4870.4903879399999
aF-4869.4903879399999
assS'loc_coords_EV_XA'
p1207
(dp1208
S'EV_XA'
p1209
(lp1210
F1.0
aF0.0
aF0.0
assS'loc_coords_EV_YA'
p1211
(dp1212
S'EV_YA'
p1213
(lp1214
F0.7071067737344312
aF-0.7071067737344312
aF0.00014518184359532343
assS'loc_coords_EV_ZA'
p1215
(dp1216
S'EV_ZA'
p1217
(lp1218
F0.0
aF-1.0
aF0.0
assS'nr_layers'
p1219
(dp1220
S'nn'
p1221
F95.0
ssS'offset'
p1222
(dp1223
S'mode'
p1224
S'mid'
p1225
ssbsg381
g0
(g1185
g2
Ntp1226
Rp1227
(dp1228
g15
I0
sg1189
g1190
sg1191
g381
sg1192
(dp1229
g1194
F1149.2202847483761
ssg1195
(dp1230
g1197
(lp1231
I0
aI0
aI0
assg1199
(dp1232
g1201
(lp1233
I1
aI0
aI0
assg1203
(dp1234
g1205
(lp1235
F0.0
aF1.0
aF0.0
assg1207
(dp1236
g1209
(lp1237
F1.0
aF0.0
aF0.0
assg1211
(dp1238
g1213
(lp1239
F0.0
aF1.0
aF0.0
assg1215
(dp1240
g1217
(lp1241
F0.0
aF0.0
aF1.0
assg1219
(dp1242
g1221
F110.0
ssg1222
(dp1243
g1224
S'top'
p1244
ssbsg358
g0
(g1185
g2
Ntp1245
Rp1246
(dp1247
g15
I2
sg1189
g1190
sg1191
g358
sg1192
(dp1248
g1194
F1130.0262886933847
ssg1195
(dp1249
g1197
(lp1250
I0
aF16333.701254699999
aF-4870.4903879399999
assg1199
(dp1251
g1201
(lp1252
I1
aF16333.701254699999
aF-4870.4903879399999
assg1203
(dp1253
g1205
(lp1254
F-4870.4903879314661
aF11463.21086676
aF-21205.191642639998
assg1207
(dp1255
g1209
(lp1256
F1.0
aF0.0
aF0.0
assg1211
(dp1257
g1213
(lp1258
F-0.27474140648442957
aF-0.27474140648491091
aF-0.92143058291205548
assg1215
(dp1259
g1217
(lp1260
F0.0
aF1.0
aF0.0
assg1219
(dp1261
g1221
F95.0
ssg1222
(dp1262
g1224
g1225
ssbsg451
g0
(ccompas_fea.structure.section
MPCSection
p1263
g2
Ntp1264
Rp1265
(dp1266
g15
I3
sg1189
S'MPCSection'
p1267
sg1191
g451
sg1192
NsS'nr_layers'
p1268
NsbssS'sets'
p1269
(dp1270
g476
g0
(ccompas_fea.structure.set
Set
p1271
g2
Ntp1272
Rp1273
(dp1274
S'__name__'
p1275
S'Set'
p1276
sS'name'
p1277
g476
sS'type'
p1278
S'element'
p1279
sS'selection'
p1280
(lp1281
I22
asS'index'
p1282
I13
sbsg452
g0
(g1271
g2
Ntp1283
Rp1284
(dp1285
g1275
g1276
sg1277
g452
sg1278
g1279
sg1280
(lp1286
I36
aI37
aI38
aI39
aI40
aI41
aI42
aI43
asg1282
I27
sbsg360
g0
(g1271
g2
Ntp1287
Rp1288
(dp1289
g1275
g1276
sg1277
g360
sg1278
g1279
sg1280
(lp1290
I30
asg1282
I21
sbsg406
g0
(g1271
g2
Ntp1291
Rp1292
(dp1293
g1275
g1276
sg1277
g406
sg1278
g1279
sg1280
(lp1294
I4
aI5
asg1282
I2
sbsg372
g0
(g1271
g2
Ntp1295
Rp1296
(dp1297
g1275
g1276
sg1277
g372
sg1278
g1279
sg1280
(lp1298
I25
asg1282
I16
sbsg468
g0
(g1271
g2
Ntp1299
Rp1300
(dp1301
g1275
g1276
sg1277
g468
sg1278
g1279
sg1280
(lp1302
I27
asg1282
I18
sbsg446
g0
(g1271
g2
Ntp1303
Rp1304
(dp1305
g1275
g1276
sg1277
g446
sg1278
g1279
sg1280
(lp1306
I2
aI3
asg1282
I1
sbsg382
g0
(g1271
g2
Ntp1307
Rp1308
(dp1309
g1275
g1276
sg1277
g382
sg1278
g1279
sg1280
(lp1310
I0
aI1
asg1282
I0
sbsg434
g0
(g1271
g2
Ntp1311
Rp1312
(dp1313
g1275
g1276
sg1277
g434
sg1278
g1279
sg1280
(lp1314
I12
aI13
asg1282
I6
sbsg472
g0
(g1271
g2
Ntp1315
Rp1316
(dp1317
g1275
g1276
sg1277
g472
sg1278
g1279
sg1280
(lp1318
I10
aI11
asg1282
I5
sbsg398
g0
(g1271
g2
Ntp1319
Rp1320
(dp1321
g1275
g1276
sg1277
g398
sg1278
g1279
sg1280
(lp1322
I8
aI9
asg1282
I4
sbsg442
g0
(g1271
g2
Ntp1323
Rp1324
(dp1325
g1275
g1276
sg1277
g442
sg1278
g1279
sg1280
(lp1326
I6
aI7
asg1282
I3
sbsg390
g0
(g1271
g2
Ntp1327
Rp1328
(dp1329
g1275
g1276
sg1277
g390
sg1278
g1279
sg1280
(lp1330
I16
aI17
asg1282
I8
sbsg426
g0
(g1271
g2
Ntp1331
Rp1332
(dp1333
g1275
g1276
sg1277
g426
sg1278
g1279
sg1280
(lp1334
I14
aI15
asg1282
I7
sbsg402
g0
(g1271
g2
Ntp1335
Rp1336
(dp1337
g1275
g1276
sg1277
g402
sg1278
g1279
sg1280
(lp1338
I20
asg1282
I11
sbsg464
g0
(g1271
g2
Ntp1339
Rp1340
(dp1341
g1275
g1276
sg1277
g464
sg1278
g1279
sg1280
(lp1342
I35
asg1282
I26
sbsg414
g0
(g1271
g2
Ntp1343
Rp1344
(dp1345
g1275
g1276
sg1277
g414
sg1278
g1279
sg1280
(lp1346
I32
asg1282
I23
sbsg394
g0
(g1271
g2
Ntp1347
Rp1348
(dp1349
g1275
g1276
sg1277
g394
sg1278
g1279
sg1280
(lp1350
I23
asg1282
I14
sbsg410
g0
(g1271
g2
Ntp1351
Rp1352
(dp1353
g1275
g1276
sg1277
g410
sg1278
g1279
sg1280
(lp1354
I29
asg1282
I20
sbsg430
g0
(g1271
g2
Ntp1355
Rp1356
(dp1357
g1275
g1276
sg1277
g430
sg1278
g1279
sg1280
(lp1358
I18
asg1282
I9
sbsg422
g0
(g1271
g2
Ntp1359
Rp1360
(dp1361
g1275
g1276
sg1277
g422
sg1278
g1279
sg1280
(lp1362
I26
asg1282
I17
sbsg35
g0
(g1271
g2
Ntp1363
Rp1364
(dp1365
g1275
g1276
sg1277
g35
sg1278
S'node'
p1366
sg1280
(lp1367
I59
aI58
aI57
aI56
asg1282
I29
sbsg418
g0
(g1271
g2
Ntp1368
Rp1369
(dp1370
g1275
g1276
sg1277
g418
sg1278
g1279
sg1280
(lp1371
I21
asg1282
I12
sbsg438
g0
(g1271
g2
Ntp1372
Rp1373
(dp1374
g1275
g1276
sg1277
g438
sg1278
g1279
sg1280
(lp1375
I34
asg1282
I25
sbsg386
g0
(g1271
g2
Ntp1376
Rp1377
(dp1378
g1275
g1276
sg1277
g386
sg1278
g1279
sg1280
(lp1379
I31
asg1282
I22
sbsg20
g0
(g1271
g2
Ntp1380
Rp1381
(dp1382
g1275
g1276
sg1277
g20
sg1278
g1366
sg1280
(lp1383
I43
aI42
aI41
aI40
asg1282
I28
sbsg456
g0
(g1271
g2
Ntp1384
Rp1385
(dp1386
g1275
g1276
sg1277
g456
sg1278
g1279
sg1280
(lp1387
I24
asg1282
I15
sbsg376
g0
(g1271
g2
Ntp1388
Rp1389
(dp1390
g1275
g1276
sg1277
g376
sg1278
g1279
sg1280
(lp1391
I28
asg1282
I19
sbsg368
g0
(g1271
g2
Ntp1392
Rp1393
(dp1394
g1275
g1276
sg1277
g368
sg1278
g1279
sg1280
(lp1395
I19
asg1282
I10
sbsg460
g0
(g1271
g2
Ntp1396
Rp1397
(dp1398
g1275
g1276
sg1277
g460
sg1278
g1279
sg1280
(lp1399
I33
asg1282
I24
sbssS'steps'
p1400
(dp1401
g1178
g0
(ccompas_fea.structure.step
GeneralStep
p1402
g2
Ntp1403
Rp1404
(dp1405
g15
I1
sS'__name__'
p1406
S'GeneralStep'
p1407
sS'name'
p1408
g1178
sS'attr_list'
p1409
(lp1410
g499
aS'increments'
p1411
aS'iterations'
p1412
aS'factor'
p1413
aS'nlgeom'
p1414
aS'nlmat'
p1415
aS'displacements'
p1416
aS'loads'
p1417
aS'type'
p1418
aS'tolerance'
p1419
aS'modify'
p1420
asS'increments'
p1421
I1
sS'iterations'
p1422
I100
sS'tolerance'
p1423
F0.01
sS'factor'
p1424
F1.0
sS'nlgeom'
p1425
I00
sS'nlmat'
p1426
I01
sS'displacements'
p1427
(lp1428
sS'loads'
p1429
(lp1430
g554
asS'modify'
p1431
I01
sS'type'
p1432
S'static'
p1433
sbsg1180
g0
(g1402
g2
Ntp1434
Rp1435
(dp1436
g15
I2
sg1406
g1407
sg1408
g1180
sg1409
(lp1437
g499
ag1411
ag1412
ag1413
ag1414
ag1415
ag1416
ag1417
ag1418
ag1419
ag1420
asg1421
I1
sg1422
I100
sg1423
F0.01
sg1424
F1.0
sg1425
I00
sg1426
I01
sg1427
(lp1438
sg1429
(lp1439
g540
ag526
ag519
asg1431
I01
sg1432
g1433
sbsg1181
g0
(g1402
g2
Ntp1440
Rp1441
(dp1442
g15
I3
sg1406
g1407
sg1408
g1181
sg1409
(lp1443
g499
ag1411
ag1412
ag1413
ag1414
ag1415
ag1416
ag1417
ag1418
ag1419
ag1420
asg1421
I1
sg1422
I100
sg1423
F0.01
sg1424
F1.0
sg1425
I00
sg1426
I01
sg1427
(lp1444
sg1429
(lp1445
g533
ag547
ag565
ag512
ag481
ag504
asg1431
I01
sg1432
g1433
sbsg1182
g0
(g1402
g2
Ntp1446
Rp1447
(dp1448
g15
I0
sg1406
g1407
sg1408
g1182
sg1409
(lp1449
g499
ag1411
ag1412
ag1413
ag1414
ag1415
ag1416
ag1417
ag1418
ag1419
ag1420
asg1421
I1
sg1422
I100
sg1423
F0.01
sg1424
F1.0
sg1425
I00
sg1426
I01
sg1427
(lp1450
g10
ag31
asg1429
(lp1451
sg1431
I01
sg1432
g1433
sbssS'loc_coor'
p1452
(dp1453
sS'steps_order'
p1454
(lp1455
g1182
ag1178
ag1180
ag1181
asS'tol'
p1456
S'3'
p1457
sS'virtual_nodes'
p1458
(dp1459
sS'virtual_node_index'
p1460
(dp1461
sS'virtual_elements'
p1462
(dp1463
sS'virtual_element_index'
p1464
(dp1465
sb.