ccopy_reg
_reconstructor
p0
(ccompas_fea.structure.structure
Structure
p1
c__builtin__
object
p2
Ntp3
Rp4
(dp5
S'constraints'
p6
(dp7
sS'displacements'
p8
(dp9
S'nset_pinned_set_disp_1'
p10
g0
(ccompas_fea.structure.displacement
GeneralDisplacement
p11
g2
Ntp12
Rp13
(dp14
S'index'
p15
I0
sS'__name__'
p16
S'GeneralDisplacement'
p17
sS'name'
p18
g10
sS'nodes'
p19
S'nset_support_wall1'
p20
sS'components'
p21
(dp22
S'z'
p23
I0
sS'xx'
p24
I0
sS'zz'
p25
I0
sS'yy'
p26
I0
sS'y'
p27
I0
sS'x'
p28
I0
ssS'axes'
p29
S'global'
p30
sbsS'nset_pinned_set_disp_2'
p31
g0
(g11
g2
Ntp32
Rp33
(dp34
g15
I1
sg16
g17
sg18
g31
sg19
S'nset_support_wall2'
p35
sg21
(dp36
g23
I0
sg24
I0
sg25
I0
sg26
I0
sg27
I0
sg28
I0
ssg29
g30
sbssS'elements'
p37
(dp38
I0
g0
(ccompas_fea.structure.element
ShellElement
p39
g2
Ntp40
Rp41
(dp42
S'mass'
p43
NsS'__name__'
p44
S'ShellElement'
p45
sS'nodes'
p46
(lp47
I0
aI1
aI3
aI2
asS'number'
p48
I0
sS'thermal'
p49
I00
sS'axes'
p50
(dp51
S'ey'
p52
NsS'ez'
p53
NsS'ex'
p54
NssS'element_property'
p55
S'elset_plate_1_element_prop'
p56
sbsI1
g0
(g39
g2
Ntp57
Rp58
(dp59
g43
Nsg44
g45
sg46
(lp60
I2
aI3
aI5
aI4
asg48
I1
sg49
I00
sg50
g51
sg55
g56
sbsI2
g0
(g39
g2
Ntp61
Rp62
(dp63
g43
Nsg44
g45
sg46
(lp64
I4
aI5
aI7
aI6
asg48
I2
sg49
I00
sg50
g51
sg55
g56
sbsI3
g0
(g39
g2
Ntp65
Rp66
(dp67
g43
Nsg44
g45
sg46
(lp68
I6
aI7
aI9
aI8
asg48
I3
sg49
I00
sg50
g51
sg55
g56
sbsI4
g0
(g39
g2
Ntp69
Rp70
(dp71
g43
Nsg44
g45
sg46
(lp72
I10
aI11
aI13
aI12
asg48
I4
sg49
I00
sg50
(dp73
g52
Nsg53
Nsg54
Nssg55
S'elset_plate_2_element_prop'
p74
sbsI5
g0
(g39
g2
Ntp75
Rp76
(dp77
g43
Nsg44
g45
sg46
(lp78
I12
aI13
aI15
aI14
asg48
I5
sg49
I00
sg50
g73
sg55
g74
sbsI6
g0
(g39
g2
Ntp79
Rp80
(dp81
g43
Nsg44
g45
sg46
(lp82
I14
aI15
aI17
aI16
asg48
I6
sg49
I00
sg50
g73
sg55
g74
sbsI7
g0
(g39
g2
Ntp83
Rp84
(dp85
g43
Nsg44
g45
sg46
(lp86
I16
aI17
aI19
aI18
asg48
I7
sg49
I00
sg50
g73
sg55
g74
sbsI8
g0
(g39
g2
Ntp87
Rp88
(dp89
g43
Nsg44
g45
sg46
(lp90
I1
aI20
aI21
aI3
asg48
I8
sg49
I00
sg50
(dp91
g52
Nsg53
Nsg54
Nssg55
S'elset_plate_3_element_prop'
p92
sbsI9
g0
(g39
g2
Ntp93
Rp94
(dp95
g43
Nsg44
g45
sg46
(lp96
I3
aI21
aI22
aI5
asg48
I9
sg49
I00
sg50
g91
sg55
g92
sbsI10
g0
(g39
g2
Ntp97
Rp98
(dp99
g43
Nsg44
g45
sg46
(lp100
I5
aI22
aI23
aI7
asg48
I10
sg49
I00
sg50
g91
sg55
g92
sbsI11
g0
(g39
g2
Ntp101
Rp102
(dp103
g43
Nsg44
g45
sg46
(lp104
I7
aI23
aI24
aI9
asg48
I11
sg49
I00
sg50
g91
sg55
g92
sbsI12
g0
(g39
g2
Ntp105
Rp106
(dp107
g43
Nsg44
g45
sg46
(lp108
I11
aI25
aI26
aI13
asg48
I12
sg49
I00
sg50
(dp109
g52
Nsg53
Nsg54
Nssg55
S'elset_plate_4_element_prop'
p110
sbsI13
g0
(g39
g2
Ntp111
Rp112
(dp113
g43
Nsg44
g45
sg46
(lp114
I13
aI26
aI27
aI15
asg48
I13
sg49
I00
sg50
g109
sg55
g110
sbsI14
g0
(g39
g2
Ntp115
Rp116
(dp117
g43
Nsg44
g45
sg46
(lp118
I15
aI27
aI28
aI17
asg48
I14
sg49
I00
sg50
g109
sg55
g110
sbsI15
g0
(g39
g2
Ntp119
Rp120
(dp121
g43
Nsg44
g45
sg46
(lp122
I17
aI28
aI29
aI19
asg48
I15
sg49
I00
sg50
g109
sg55
g110
sbsI16
g0
(g39
g2
Ntp123
Rp124
(dp125
g43
Nsg44
g45
sg46
(lp126
I20
aI30
aI31
aI21
asg48
I16
sg49
I00
sg50
(dp127
g52
Nsg53
Nsg54
Nssg55
S'elset_plate_5_element_prop'
p128
sbsI17
g0
(g39
g2
Ntp129
Rp130
(dp131
g43
Nsg44
g45
sg46
(lp132
I21
aI31
aI32
aI22
asg48
I17
sg49
I00
sg50
g127
sg55
g128
sbsI18
g0
(g39
g2
Ntp133
Rp134
(dp135
g43
Nsg44
g45
sg46
(lp136
I22
aI32
aI33
aI23
asg48
I18
sg49
I00
sg50
g127
sg55
g128
sbsI19
g0
(g39
g2
Ntp137
Rp138
(dp139
g43
Nsg44
g45
sg46
(lp140
I23
aI33
aI34
aI24
asg48
I19
sg49
I00
sg50
g127
sg55
g128
sbsI20
g0
(g39
g2
Ntp141
Rp142
(dp143
g43
Nsg44
g45
sg46
(lp144
I25
aI35
aI36
aI26
asg48
I20
sg49
I00
sg50
(dp145
g52
Nsg53
Nsg54
Nssg55
S'elset_plate_6_element_prop'
p146
sbsI21
g0
(g39
g2
Ntp147
Rp148
(dp149
g43
Nsg44
g45
sg46
(lp150
I26
aI36
aI37
aI27
asg48
I21
sg49
I00
sg50
g145
sg55
g146
sbsI22
g0
(g39
g2
Ntp151
Rp152
(dp153
g43
Nsg44
g45
sg46
(lp154
I27
aI37
aI38
aI28
asg48
I22
sg49
I00
sg50
g145
sg55
g146
sbsI23
g0
(g39
g2
Ntp155
Rp156
(dp157
g43
Nsg44
g45
sg46
(lp158
I28
aI38
aI39
aI29
asg48
I23
sg49
I00
sg50
g145
sg55
g146
sbsI24
g0
(g39
g2
Ntp159
Rp160
(dp161
g43
Nsg44
g45
sg46
(lp162
I8
aI9
aI41
aI40
asg48
I24
sg49
I00
sg50
(dp163
g52
Nsg53
Nsg54
Nssg55
S'elset_plate_7_element_prop'
p164
sbsI25
g0
(g39
g2
Ntp165
Rp166
(dp167
g43
Nsg44
g45
sg46
(lp168
I40
aI41
aI43
aI42
asg48
I25
sg49
I00
sg50
g163
sg55
g164
sbsI26
g0
(g39
g2
Ntp169
Rp170
(dp171
g43
Nsg44
g45
sg46
(lp172
I42
aI43
aI45
aI44
asg48
I26
sg49
I00
sg50
g163
sg55
g164
sbsI27
g0
(g39
g2
Ntp173
Rp174
(dp175
g43
Nsg44
g45
sg46
(lp176
I44
aI45
aI11
aI10
asg48
I27
sg49
I00
sg50
g163
sg55
g164
sbsI28
g0
(g39
g2
Ntp177
Rp178
(dp179
g43
Nsg44
g45
sg46
(lp180
I9
aI24
aI46
aI41
asg48
I28
sg49
I00
sg50
(dp181
g52
Nsg53
Nsg54
Nssg55
S'elset_plate_8_element_prop'
p182
sbsI29
g0
(g39
g2
Ntp183
Rp184
(dp185
g43
Nsg44
g45
sg46
(lp186
I41
aI46
aI47
aI43
asg48
I29
sg49
I00
sg50
g181
sg55
g182
sbsI30
g0
(g39
g2
Ntp187
Rp188
(dp189
g43
Nsg44
g45
sg46
(lp190
I43
aI47
aI48
aI45
asg48
I30
sg49
I00
sg50
g181
sg55
g182
sbsI31
g0
(g39
g2
Ntp191
Rp192
(dp193
g43
Nsg44
g45
sg46
(lp194
I45
aI48
aI25
aI11
asg48
I31
sg49
I00
sg50
g181
sg55
g182
sbsI32
g0
(g39
g2
Ntp195
Rp196
(dp197
g43
Nsg44
g45
sg46
(lp198
I24
aI34
aI49
aI46
asg48
I32
sg49
I00
sg50
(dp199
g52
Nsg53
Nsg54
Nssg55
S'elset_plate_9_element_prop'
p200
sbsI33
g0
(g39
g2
Ntp201
Rp202
(dp203
g43
Nsg44
g45
sg46
(lp204
I46
aI49
aI50
aI47
asg48
I33
sg49
I00
sg50
g199
sg55
g200
sbsI34
g0
(g39
g2
Ntp205
Rp206
(dp207
g43
Nsg44
g45
sg46
(lp208
I47
aI50
aI51
aI48
asg48
I34
sg49
I00
sg50
g199
sg55
g200
sbsI35
g0
(g39
g2
Ntp209
Rp210
(dp211
g43
Nsg44
g45
sg46
(lp212
I48
aI51
aI35
aI25
asg48
I35
sg49
I00
sg50
g199
sg55
g200
sbsI36
g0
(g39
g2
Ntp213
Rp214
(dp215
g43
Nsg44
g45
sg46
(lp216
I52
aI53
aI55
aI54
asg48
I36
sg49
I00
sg50
(dp217
g52
Nsg53
Nsg54
Nssg55
S'elset_wall_1_1_element_prop'
p218
sbsI37
g0
(g39
g2
Ntp219
Rp220
(dp221
g43
Nsg44
g45
sg46
(lp222
I53
aI56
aI57
aI55
asg48
I37
sg49
I00
sg50
(dp223
g52
Nsg53
Nsg54
Nssg55
S'elset_wall_1_2_element_prop'
p224
sbsI38
g0
(g39
g2
Ntp225
Rp226
(dp227
g43
Nsg44
g45
sg46
(lp228
I56
aI58
aI59
aI57
asg48
I38
sg49
I00
sg50
(dp229
g52
Nsg53
Nsg54
Nssg55
S'elset_wall_1_3_element_prop'
p230
sbsI39
g0
(g39
g2
Ntp231
Rp232
(dp233
g43
Nsg44
g45
sg46
(lp234
I60
aI61
aI53
aI52
asg48
I39
sg49
I00
sg50
(dp235
g52
Nsg53
Nsg54
Nssg55
S'elset_wall_1_4_element_prop'
p236
sbsI40
g0
(g39
g2
Ntp237
Rp238
(dp239
g43
Nsg44
g45
sg46
(lp240
I61
aI62
aI56
aI53
asg48
I40
sg49
I00
sg50
(dp241
g52
Nsg53
Nsg54
Nssg55
S'elset_wall_1_5_element_prop'
p242
sbsI41
g0
(g39
g2
Ntp243
Rp244
(dp245
g43
Nsg44
g45
sg46
(lp246
I62
aI63
aI58
aI56
asg48
I41
sg49
I00
sg50
(dp247
g52
Nsg53
Nsg54
Nssg55
S'elset_wall_1_6_element_prop'
p248
sbsI42
g0
(g39
g2
Ntp249
Rp250
(dp251
g43
Nsg44
g45
sg46
(lp252
I64
aI65
aI61
aI60
asg48
I42
sg49
I00
sg50
(dp253
g52
Nsg53
Nsg54
Nssg55
S'elset_wall_1_7_element_prop'
p254
sbsI43
g0
(g39
g2
Ntp255
Rp256
(dp257
g43
Nsg44
g45
sg46
(lp258
I65
aI66
aI62
aI61
asg48
I43
sg49
I00
sg50
(dp259
g52
Nsg53
Nsg54
Nssg55
S'elset_wall_1_8_element_prop'
p260
sbsI44
g0
(g39
g2
Ntp261
Rp262
(dp263
g43
Nsg44
g45
sg46
(lp264
I66
aI67
aI63
aI62
asg48
I44
sg49
I00
sg50
(dp265
g52
Nsg53
Nsg54
Nssg55
S'elset_wall_1_9_element_prop'
p266
sbsI45
g0
(g39
g2
Ntp267
Rp268
(dp269
g43
Nsg44
g45
sg46
(lp270
I68
aI70
aI71
aI69
asg48
I45
sg49
I00
sg50
(dp271
g52
Nsg53
Nsg54
Nssg55
S'elset_wall_2_1_element_prop'
p272
sbsI46
g0
(g39
g2
Ntp273
Rp274
(dp275
g43
Nsg44
g45
sg46
(lp276
I69
aI71
aI73
aI72
asg48
I46
sg49
I00
sg50
(dp277
g52
Nsg53
Nsg54
Nssg55
S'elset_wall_2_2_element_prop'
p278
sbsI47
g0
(g39
g2
Ntp279
Rp280
(dp281
g43
Nsg44
g45
sg46
(lp282
I72
aI73
aI75
aI74
asg48
I47
sg49
I00
sg50
(dp283
g52
Nsg53
Nsg54
Nssg55
S'elset_wall_2_3_element_prop'
p284
sbsI48
g0
(g39
g2
Ntp285
Rp286
(dp287
g43
Nsg44
g45
sg46
(lp288
I76
aI68
aI69
aI77
asg48
I48
sg49
I00
sg50
(dp289
g52
Nsg53
Nsg54
Nssg55
S'elset_wall_2_4_element_prop'
p290
sbsI49
g0
(g39
g2
Ntp291
Rp292
(dp293
g43
Nsg44
g45
sg46
(lp294
I77
aI69
aI72
aI78
asg48
I49
sg49
I00
sg50
(dp295
g52
Nsg53
Nsg54
Nssg55
S'elset_wall_2_5_element_prop'
p296
sbsI50
g0
(g39
g2
Ntp297
Rp298
(dp299
g43
Nsg44
g45
sg46
(lp300
I78
aI72
aI74
aI79
asg48
I50
sg49
I00
sg50
(dp301
g52
Nsg53
Nsg54
Nssg55
S'elset_wall_2_6_element_prop'
p302
sbsI51
g0
(g39
g2
Ntp303
Rp304
(dp305
g43
Nsg44
g45
sg46
(lp306
I80
aI76
aI77
aI81
asg48
I51
sg49
I00
sg50
(dp307
g52
Nsg53
Nsg54
Nssg55
S'elset_wall_2_7_element_prop'
p308
sbsI52
g0
(g39
g2
Ntp309
Rp310
(dp311
g43
Nsg44
g45
sg46
(lp312
I81
aI77
aI78
aI82
asg48
I52
sg49
I00
sg50
(dp313
g52
Nsg53
Nsg54
Nssg55
S'elset_wall_2_8_element_prop'
p314
sbsI53
g0
(g39
g2
Ntp315
Rp316
(dp317
g43
Nsg44
g45
sg46
(lp318
I82
aI78
aI79
aI83
asg48
I53
sg49
I00
sg50
(dp319
g52
Nsg53
Nsg54
Nssg55
S'elset_wall_2_9_element_prop'
p320
sbsI54
g0
(ccompas_fea.structure.element
MPCElement
p321
g2
Ntp322
Rp323
(dp324
g43
Nsg44
S'MPCElement'
p325
sg46
(lp326
I75
aI39
asg48
I54
sg49
I00
sg50
(dp327
g52
Nsg53
(lp328
F-4.5474735088646412e-13
aF0.0
aF570.68528706482971
asg54
Nssg55
S'elset_mpc_element_prop'
p329
sbsI55
g0
(g321
g2
Ntp330
Rp331
(dp332
g43
Nsg44
g325
sg46
(lp333
I73
aI29
asg48
I55
sg49
I00
sg50
(dp334
g52
Nsg53
(lp335
F2.7284841053187847e-12
aF0.0
aF570.68528706482971
asg54
Nssg55
g329
sbsI56
g0
(g321
g2
Ntp336
Rp337
(dp338
g43
Nsg44
g325
sg46
(lp339
I71
aI19
asg48
I56
sg49
I00
sg50
(dp340
g52
Nsg53
(lp341
F1.3642420526593924e-12
aF0.0
aF570.68528706482971
asg54
Nssg55
g329
sbsI57
g0
(g321
g2
Ntp342
Rp343
(dp344
g43
Nsg44
g325
sg46
(lp345
I70
aI18
asg48
I57
sg49
I00
sg50
(dp346
g52
Nsg53
(lp347
F0.0
aF0.0
aF570.68528706482971
asg54
Nssg55
g329
sbsI58
g0
(g321
g2
Ntp348
Rp349
(dp350
g43
Nsg44
g325
sg46
(lp351
I59
aI30
asg48
I58
sg49
I00
sg50
(dp352
g52
Nsg53
(lp353
F-4.5474735088646412e-13
aF0.0
aF570.68528706482971
asg54
Nssg55
g329
sbsI59
g0
(g321
g2
Ntp354
Rp355
(dp356
g43
Nsg44
g325
sg46
(lp357
I57
aI20
asg48
I59
sg49
I00
sg50
(dp358
g52
Nsg53
(lp359
F2.7284841053187847e-12
aF0.0
aF570.68528706482971
asg54
Nssg55
g329
sbsI60
g0
(g321
g2
Ntp360
Rp361
(dp362
g43
Nsg44
g325
sg46
(lp363
I55
aI1
asg48
I60
sg49
I00
sg50
(dp364
g52
Nsg53
(lp365
F1.3642420526593924e-12
aF0.0
aF570.68528706482971
asg54
Nssg55
g329
sbsI61
g0
(g321
g2
Ntp366
Rp367
(dp368
g43
Nsg44
g325
sg46
(lp369
I54
aI0
asg48
I61
sg49
I00
sg50
(dp370
g52
Nsg53
(lp371
F0.0
aF0.0
aF570.68528706482971
asg54
Nssg55
g329
sbssS'element_index'
p372
(dp373
S'1905.945,12063.255,0.000'
p374
I12
sS'1905.945,0.000,-983.601'
p375
I37
sS'3195.827,14861.760,0.000'
p376
I22
sS'1905.945,6317.838,0.000'
p377
I28
sS'2541.260,16960.640,-285.343'
p378
I55
sS'1905.945,16960.640,-2660.290'
p379
I52
sS'1905.945,699.626,0.000'
p380
I8
sS'3195.827,16960.640,-1821.946'
p381
I50
sS'1905.945,0.000,-2660.290'
p382
I43
sS'635.315,7759.493,0.000'
p383
I25
sS'3195.827,4897.385,0.000'
p384
I19
sS'635.315,2098.879,0.000'
p385
I1
sS'3195.827,12063.255,0.000'
p386
I20
sS'1905.945,14861.760,0.000'
p387
I14
sS'3195.827,6317.838,0.000'
p388
I32
sS'0.000,16960.640,-285.343'
p389
I57
sS'3195.827,699.626,0.000'
p390
I16
sS'1905.945,13462.508,0.000'
p391
I13
sS'1905.945,16261.013,0.000'
p392
I15
sS'3195.827,0.000,-1821.946'
p393
I41
sS'1270.630,0.000,-285.343'
p394
I60
sS'635.315,3498.132,0.000'
p395
I2
sS'635.315,13462.508,0.000'
p396
I5
sS'3195.827,16960.640,-983.601'
p397
I47
sS'635.315,0.000,-2660.290'
p398
I42
sS'635.315,16960.640,-983.601'
p399
I45
sS'635.315,14861.760,0.000'
p400
I6
sS'3195.827,10642.801,0.000'
p401
I35
sS'635.315,16960.640,-1821.946'
p402
I48
sS'1905.945,10642.801,0.000'
p403
I31
sS'2541.260,0.000,-285.343'
p404
I59
sS'635.315,699.626,0.000'
p405
I0
sS'3195.827,16261.013,0.000'
p406
I23
sS'635.315,16261.013,0.000'
p407
I7
sS'1905.945,7759.493,0.000'
p408
I29
sS'1905.945,0.000,-1821.946'
p409
I40
sS'1905.945,3498.132,0.000'
p410
I10
sS'3195.827,0.000,-983.601'
p411
I38
sS'635.315,0.000,-1821.946'
p412
I39
sS'635.315,16960.640,-2660.290'
p413
I51
sS'1905.945,9201.147,0.000'
p414
I30
sS'635.315,0.000,-983.601'
p415
I36
sS'635.315,12063.255,0.000'
p416
I4
sS'1905.945,4897.385,0.000'
p417
I11
sS'0.000,0.000,-285.343'
p418
I61
sS'1905.945,16960.640,-983.601'
p419
I46
sS'3195.827,9201.147,0.000'
p420
I34
sS'3195.827,0.000,-2660.290'
p421
I44
sS'3195.827,2098.879,0.000'
p422
I17
sS'1905.945,16960.640,-1821.946'
p423
I49
sS'3195.827,7759.493,0.000'
p424
I33
sS'1905.945,2098.879,0.000'
p425
I9
sS'3850.395,0.000,-285.343'
p426
I58
sS'635.315,6317.838,0.000'
p427
I24
sS'635.315,9201.147,0.000'
p428
I26
sS'635.315,10642.801,0.000'
p429
I27
sS'3195.827,13462.508,0.000'
p430
I21
sS'635.315,4897.385,0.000'
p431
I3
sS'3850.395,16960.640,-285.343'
p432
I54
sS'3195.827,16960.640,-2660.290'
p433
I53
sS'1270.630,16960.640,-285.343'
p434
I56
sS'3195.827,3498.132,0.000'
p435
I18
ssS'element_properties'
p436
(dp437
g290
g0
(ccompas_fea.structure.element_properties
ElementProperties
p438
g2
Ntp439
Rp440
(dp441
S'index'
p442
I21
sS'__name__'
p443
S'ElementProperties'
p444
sS'name'
p445
g290
sS'material'
p446
S'wall_element_mat'
p447
sS'section'
p448
S'wall2_element_sec'
p449
sS'elset'
p450
S'elset_wall_2_4'
p451
sS'elements'
p452
NsS'rebar'
p453
(dp454
sbsg224
g0
(g438
g2
Ntp455
Rp456
(dp457
g442
I10
sg443
g444
sg445
g224
sg446
g447
sg448
S'wall1_element_sec'
p458
sg450
S'elset_wall_1_2'
p459
sg452
Nsg453
g454
sbsg260
g0
(g438
g2
Ntp460
Rp461
(dp462
g442
I16
sg443
g444
sg445
g260
sg446
g447
sg448
g458
sg450
S'elset_wall_1_8'
p463
sg452
Nsg453
g454
sbsg278
g0
(g438
g2
Ntp464
Rp465
(dp466
g442
I19
sg443
g444
sg445
g278
sg446
g447
sg448
g449
sg450
S'elset_wall_2_2'
p467
sg452
Nsg453
g454
sbsg56
g0
(g438
g2
Ntp468
Rp469
(dp470
g442
I0
sg443
g444
sg445
g56
sg446
S'plate_element_mat'
p471
sg448
S'plate_element_sec'
p472
sg450
S'elset_plate_1'
p473
sg452
Nsg453
g454
sbsg296
g0
(g438
g2
Ntp474
Rp475
(dp476
g442
I22
sg443
g444
sg445
g296
sg446
g447
sg448
g449
sg450
S'elset_wall_2_5'
p477
sg452
Nsg453
g454
sbsg200
g0
(g438
g2
Ntp478
Rp479
(dp480
g442
I8
sg443
g444
sg445
g200
sg446
g471
sg448
g472
sg450
S'elset_plate_9'
p481
sg452
Nsg453
g454
sbsg248
g0
(g438
g2
Ntp482
Rp483
(dp484
g442
I14
sg443
g444
sg445
g248
sg446
g447
sg448
g458
sg450
S'elset_wall_1_6'
p485
sg452
Nsg453
g454
sbsg128
g0
(g438
g2
Ntp486
Rp487
(dp488
g442
I4
sg443
g444
sg445
g128
sg446
g471
sg448
g472
sg450
S'elset_plate_5'
p489
sg452
Nsg453
g454
sbsg230
g0
(g438
g2
Ntp490
Rp491
(dp492
g442
I11
sg443
g444
sg445
g230
sg446
g447
sg448
g458
sg450
S'elset_wall_1_3'
p493
sg452
Nsg453
g454
sbsg92
g0
(g438
g2
Ntp494
Rp495
(dp496
g442
I2
sg443
g444
sg445
g92
sg446
g471
sg448
g472
sg450
S'elset_plate_3'
p497
sg452
Nsg453
g454
sbsg284
g0
(g438
g2
Ntp498
Rp499
(dp500
g442
I20
sg443
g444
sg445
g284
sg446
g447
sg448
g449
sg450
S'elset_wall_2_3'
p501
sg452
Nsg453
g454
sbsg302
g0
(g438
g2
Ntp502
Rp503
(dp504
g442
I23
sg443
g444
sg445
g302
sg446
g447
sg448
g449
sg450
S'elset_wall_2_6'
p505
sg452
Nsg453
g454
sbsg236
g0
(g438
g2
Ntp506
Rp507
(dp508
g442
I12
sg443
g444
sg445
g236
sg446
g447
sg448
g458
sg450
S'elset_wall_1_4'
p509
sg452
Nsg453
g454
sbsg266
g0
(g438
g2
Ntp510
Rp511
(dp512
g442
I17
sg443
g444
sg445
g266
sg446
g447
sg448
g458
sg450
S'elset_wall_1_9'
p513
sg452
Nsg453
g454
sbsg182
g0
(g438
g2
Ntp514
Rp515
(dp516
g442
I7
sg443
g444
sg445
g182
sg446
g471
sg448
g472
sg450
S'elset_plate_8'
p517
sg452
Nsg453
g454
sbsg218
g0
(g438
g2
Ntp518
Rp519
(dp520
g442
I9
sg443
g444
sg445
g218
sg446
g447
sg448
g458
sg450
S'elset_wall_1_1'
p521
sg452
Nsg453
g454
sbsg164
g0
(g438
g2
Ntp522
Rp523
(dp524
g442
I6
sg443
g444
sg445
g164
sg446
g471
sg448
g472
sg450
S'elset_plate_7'
p525
sg452
Nsg453
g454
sbsg314
g0
(g438
g2
Ntp526
Rp527
(dp528
g442
I25
sg443
g444
sg445
g314
sg446
g447
sg448
g449
sg450
S'elset_wall_2_8'
p529
sg452
Nsg453
g454
sbsg110
g0
(g438
g2
Ntp530
Rp531
(dp532
g442
I3
sg443
g444
sg445
g110
sg446
g471
sg448
g472
sg450
S'elset_plate_4'
p533
sg452
Nsg453
g454
sbsg74
g0
(g438
g2
Ntp534
Rp535
(dp536
g442
I1
sg443
g444
sg445
g74
sg446
g471
sg448
g472
sg450
S'elset_plate_2'
p537
sg452
Nsg453
g454
sbsg329
g0
(g438
g2
Ntp538
Rp539
(dp540
g442
I27
sg443
g444
sg445
g329
sg446
S'elset_mpc_element_mat'
p541
sg448
S'sec_mpc'
p542
sg450
S'elset_mpcs'
p543
sg452
Nsg453
g454
sbsg254
g0
(g438
g2
Ntp544
Rp545
(dp546
g442
I15
sg443
g444
sg445
g254
sg446
g447
sg448
g458
sg450
S'elset_wall_1_7'
p547
sg452
Nsg453
g454
sbsg308
g0
(g438
g2
Ntp548
Rp549
(dp550
g442
I24
sg443
g444
sg445
g308
sg446
g447
sg448
g449
sg450
S'elset_wall_2_7'
p551
sg452
Nsg453
g454
sbsg320
g0
(g438
g2
Ntp552
Rp553
(dp554
g442
I26
sg443
g444
sg445
g320
sg446
g447
sg448
g449
sg450
S'elset_wall_2_9'
p555
sg452
Nsg453
g454
sbsg272
g0
(g438
g2
Ntp556
Rp557
(dp558
g442
I18
sg443
g444
sg445
g272
sg446
g447
sg448
g449
sg450
S'elset_wall_2_1'
p559
sg452
Nsg453
g454
sbsg146
g0
(g438
g2
Ntp560
Rp561
(dp562
g442
I5
sg443
g444
sg445
g146
sg446
g471
sg448
g472
sg450
S'elset_plate_6'
p563
sg452
Nsg453
g454
sbsg242
g0
(g438
g2
Ntp564
Rp565
(dp566
g442
I13
sg443
g444
sg445
g242
sg446
g447
sg448
g458
sg450
S'elset_wall_1_5'
p567
sg452
Nsg453
g454
sbssS'interactions'
p568
(dp569
sS'loads'
p570
(dp571
S'Gleis1_BAHNLASTEN_Lasteinzugsflache_Lastblock_-3'
p572
g0
(ccompas_fea.structure.load
AreaLoad
p573
g2
Ntp574
Rp575
(dp576
g442
I9
sS'__name__'
p577
S'AreaLoad'
p578
sS'name'
p579
g572
sS'axes'
p580
S'global'
p581
sS'components'
p582
(dp583
g23
F0.088127767871849991
sg27
I0
sg28
I0
ssS'nodes'
p584
(lp585
sS'elements'
p586
(lp587
I1
aI9
aI17
asS'attr_list'
p588
(lp589
S'name'
p590
aS'axes'
p591
aS'components'
p592
aS'nodes'
p593
aS'elements'
p594
asbsS'earthPressure_liveLoad'
p595
g0
(g573
g2
Ntp596
Rp597
(dp598
g442
I10
sg577
g578
sg579
g595
sg580
S'local'
p599
sg582
(dp600
g23
F0.037699999999999997
sg27
I0
sg28
I0
ssg584
g585
sg586
(lp601
I37
aI38
aI39
aI40
aI41
aI42
aI43
aI44
aI45
asg588
(lp602
g590
ag591
ag592
ag593
ag594
asbsS'Gleis1_BAHNLASTEN_Lasteinzugsflache_Lastblock_-2'
p603
g0
(g573
g2
Ntp604
Rp605
(dp606
g442
I8
sg577
g578
sg579
g603
sg580
g581
sg582
(dp607
g23
F0.088127767871849991
sg27
I0
sg28
I0
ssg584
g585
sg586
(lp608
I2
aI10
aI18
asg588
(lp609
g590
ag591
ag592
ag593
ag594
asbsS'Gleis1_EIGENGEWICHTE_SCHIENE_Lasteinzugsflache'
p610
g0
(g573
g2
Ntp611
Rp612
(dp613
g442
I3
sg577
g578
sg579
g610
sg580
g581
sg582
(dp614
g23
F0.0024575114563549828
sg27
I0
sg28
I0
ssg584
g585
sg586
(lp615
I1
aI2
aI3
aI4
aI5
aI6
aI7
aI9
aI10
aI11
aI12
aI17
aI18
aI25
aI26
aI27
aI28
aI29
aI30
aI31
asg588
(lp616
g590
ag591
ag592
ag593
ag594
asbsS'earthPressure_backfill'
p617
g0
(g573
g2
Ntp618
Rp619
(dp620
g442
I2
sg577
g578
sg579
g617
sg580
g599
sg582
(dp621
g23
F0.042053317956882268
sg27
I0
sg28
I0
ssg584
g585
sg586
(lp622
g521
ag459
ag493
ag509
ag567
ag485
ag547
ag463
ag513
ag559
ag467
ag501
ag451
ag477
ag505
ag551
ag529
ag555
asg588
(lp623
g590
ag591
ag592
ag593
ag594
asbsS'Gleis1_BAHNLASTEN_Lasteinzugsflache_Lastblock_2'
p624
g0
(g573
g2
Ntp625
Rp626
(dp627
g442
I5
sg577
g578
sg579
g624
sg580
g581
sg582
(dp628
g23
F0.088127767871849991
sg27
I0
sg28
I0
ssg584
g585
sg586
(lp629
I5
asg588
(lp630
g590
ag591
ag592
ag593
ag594
asbsS'earthPressure_gravel'
p631
g0
(g573
g2
Ntp632
Rp633
(dp634
g442
I1
sg577
g578
sg579
g631
sg580
g581
sg582
(dp635
g23
F0.013500000000000002
sg27
I0
sg28
I0
ssg584
g585
sg586
(lp636
g473
ag537
ag497
ag533
ag489
ag563
ag525
ag517
ag481
asg588
(lp637
g590
ag591
ag592
ag593
ag594
asbsS'Gleis1_BAHNLASTEN_Lasteinzugsflache_Lastblock_3'
p638
g0
(g573
g2
Ntp639
Rp640
(dp641
g442
I6
sg577
g578
sg579
g638
sg580
g581
sg582
(dp642
g23
F0.088127767871849991
sg27
I0
sg28
I0
ssg584
g585
sg586
(lp643
I6
asg588
(lp644
g590
ag591
ag592
ag593
ag594
asbsS'Gleis1_BAHNLASTEN_Lasteinzugsflache_Lastblock_1'
p645
g0
(g573
g2
Ntp646
Rp647
(dp648
g442
I4
sg577
g578
sg579
g645
sg580
g581
sg582
(dp649
g23
F0.088127767871849991
sg27
I0
sg28
I0
ssg584
g585
sg586
(lp650
I26
aI27
aI31
asg588
(lp651
g590
ag591
ag592
ag593
ag594
asbsS'load_gravity'
p652
g0
(ccompas_fea.structure.load
GravityLoad
p653
g2
Ntp654
Rp655
(dp656
g15
I0
sg577
S'GravityLoad'
p657
sg579
g652
sg580
g581
sg582
(dp658
g23
F1.3500000000000001
sg27
F0.0
sg28
F0.0
ssg584
g585
sg586
(lp659
g473
ag537
ag497
ag533
ag489
ag563
ag525
ag517
ag481
ag521
ag459
ag493
ag509
ag567
ag485
ag547
ag463
ag513
ag559
ag467
ag501
ag451
ag477
ag505
ag551
ag529
ag555
asg588
(lp660
g590
ag591
ag592
ag593
ag594
aS'g'
p661
asS'g'
p662
F-9.8100000000000005
sbsS'Gleis1_BAHNLASTEN_Lasteinzugsflache_Lastblock_-1'
p663
g0
(g573
g2
Ntp664
Rp665
(dp666
g442
I7
sg577
g578
sg579
g663
sg580
g581
sg582
(dp667
g23
F0.088127767871849991
sg27
I0
sg28
I0
ssg584
g585
sg586
(lp668
I25
aI29
aI30
asg588
(lp669
g590
ag591
ag592
ag593
ag594
asbssS'materials'
p670
(dp671
g541
g0
(ccompas_fea.structure.material
MPCStiff
p672
g2
Ntp673
Rp674
(dp675
g15
I2
sS'__name__'
p676
S'MPCStiff'
p677
sS'name'
p678
g541
sS'attr_list'
p679
(lp680
g590
aS'E'
p681
aS'v'
p682
aS'G'
p683
aS'p'
p684
aS'tension'
p685
aS'compression'
p686
asS'E'
p687
(dp688
g681
L10000000000000L
ssS'v'
p689
(dp690
g682
F0.29999999999999999
ssS'G'
p691
(dp692
g683
F3846153846153.8462
ssS'p'
p693
F0.10000000000000001
sS'tension'
p694
I01
sS'compression'
p695
I01
sbsg447
g0
(ccompas_fea.structure.material
CMMUsermat
p696
g2
Ntp697
Rp698
(dp699
g15
I1
sg676
S'CMMUsermat'
p700
sg678
g447
sg679
(lp701
g590
ag681
ag682
ag683
ag684
aS'R_Rohr'
p702
aS'rho'
p703
aS'oo'
p704
aS'uu'
p705
aS'beton'
p706
aS'fcc'
p707
aS'vc'
p708
aS'ecu'
p709
aS'k_E'
p710
aS'theta_b0'
p711
aS'theta_b1'
p712
aS'k_riss'
p713
aS'Entfestigung'
p714
aS'lambdaTS'
p715
aS'srmx'
p716
aS'srmy'
p717
aS'Begrenzung'
p718
aS'KritQ'
p719
aS'winkelD'
p720
aS'k_vr'
p721
aS'fswy'
p722
aS'stahl1'
p723
aS'zm1'
p724
aS'fsy1'
p725
aS'fsu1'
p726
aS'esu1'
p727
aS'esv1'
p728
aS'Es1'
p729
aS'ka1'
p730
aS'kb1'
p731
aS'kc1'
p732
aS'as1'
p733
aS'dm1'
p734
aS'psi1'
p735
aS'stahl2'
p736
aS'zm2'
p737
aS'fsy2'
p738
aS'fsu2'
p739
aS'esu2'
p740
aS'esv2'
p741
aS'Es2'
p742
aS'ka2'
p743
aS'kb2'
p744
aS'kc2'
p745
aS'as2'
p746
aS'dm2'
p747
aS'psi2'
p748
aS'stahl3'
p749
aS'zm3'
p750
aS'fsy3'
p751
aS'fsu3'
p752
aS'esu3'
p753
aS'esv3'
p754
aS'Es3'
p755
aS'ka3'
p756
aS'kb3'
p757
aS'kc3'
p758
aS'as3'
p759
aS'dm3'
p760
aS'psi3'
p761
aS'stahl4'
p762
aS'zm4'
p763
aS'fsy4'
p764
aS'fsu4'
p765
aS'esu4'
p766
aS'esv4'
p767
aS'Es4'
p768
aS'ka4'
p769
aS'kb4'
p770
aS'kc4'
p771
aS'as4'
p772
aS'dm4'
p773
aS'psi4'
p774
asS'E'
p775
(dp776
S'E'
p777
I200000
ssS'v'
p778
(dp779
S'v'
p780
F0.10000000000000001
ssS'G'
p781
(dp782
g683
F90909.090909090897
ssS'p'
p783
F2.5000000000000002e-06
sS'R_Rohr'
p784
(dp785
g702
I-1
ssS'rho'
p786
(dp787
g703
F2.5000000000000002e-06
ssS'oo'
p788
(dp789
g704
I30
ssS'uu'
p790
(dp791
g705
I30
ssS'beton'
p792
(dp793
g706
I2
ssS'fcc'
p794
(dp795
g707
I29
ssS'vc'
p796
(dp797
g708
I0
ssS'ecu'
p798
(dp799
g709
F-0.002
ssS'k_E'
p800
(dp801
g710
I10000
ssS'theta_b0'
p802
(dp803
g711
I2
ssS'theta_b1'
p804
(dp805
g712
I1
ssS'k_riss'
p806
(dp807
g713
I0
ssS'Entfestigung'
p808
(dp809
g714
I0
ssS'lambdaTS'
p810
(dp811
g715
F0.67000000000000004
ssS'srmx'
p812
(dp813
g716
I1
ssS'srmy'
p814
(dp815
g717
I1
ssS'Begrenzung'
p816
(dp817
g718
I2
ssS'KritQ'
p818
(dp819
g719
I0
ssS'winkelD'
p820
(dp821
g720
I45
ssS'k_vr'
p822
(dp823
g721
I1
ssS'fswy'
p824
(dp825
g722
I500
ssS'stahl1'
p826
(dp827
g723
I1
ssS'zm1'
p828
(dp829
g724
I2
ssS'fsy1'
p830
(dp831
g725
I432
ssS'fsu1'
p832
(dp833
g726
I467
ssS'esu1'
p834
(dp835
g727
F0.044999999999999998
ssS'esv1'
p836
(dp837
g728
F0.02
ssS'Es1'
p838
(dp839
g729
I200000
ssS'ka1'
p840
(dp841
g730
I-1
ssS'kb1'
p842
(dp843
g731
I-1
ssS'kc1'
p844
(dp845
g732
I-1
ssS'as1'
p846
(dp847
g733
F1.1961589977909597
ssS'dm1'
p848
(dp849
g734
F21.890563141505304
ssS'psi1'
p850
(dp851
g735
I90
ssS'stahl2'
p852
(dp853
g736
I1
ssS'zm2'
p854
(dp855
g737
I2
ssS'fsy2'
p856
(dp857
g738
I432
ssS'fsu2'
p858
(dp859
g739
I467
ssS'esu2'
p860
(dp861
g740
F0.044999999999999998
ssS'esv2'
p862
(dp863
g741
F0.02
ssS'Es2'
p864
(dp865
g742
I200000
ssS'ka2'
p866
(dp867
g743
I-1
ssS'kb2'
p868
(dp869
g744
I-1
ssS'kc2'
p870
(dp871
g745
I-1
ssS'as2'
p872
(dp873
g746
F0.35944921164356314
ssS'dm2'
p874
(dp875
g747
F12.0
ssS'psi2'
p876
(dp877
g748
I0
ssS'stahl3'
p878
(dp879
g749
I1
ssS'zm3'
p880
(dp881
g750
I2
ssS'fsy3'
p882
(dp883
g751
I432
ssS'fsu3'
p884
(dp885
g752
I467
ssS'esu3'
p886
(dp887
g753
F0.044999999999999998
ssS'esv3'
p888
(dp889
g754
F0.02
ssS'Es3'
p890
(dp891
g755
I200000
ssS'ka3'
p892
(dp893
g756
I-1
ssS'kb3'
p894
(dp895
g757
I-1
ssS'kc3'
p896
(dp897
g758
I-1
ssS'as3'
p898
(dp899
g759
F0.35944921164356314
ssS'dm3'
p900
(dp901
g760
F12.0
ssS'psi3'
p902
(dp903
g761
I0
ssS'stahl4'
p904
(dp905
g762
I1
ssS'zm4'
p906
(dp907
g763
I2
ssS'fsy4'
p908
(dp909
g764
I432
ssS'fsu4'
p910
(dp911
g765
I467
ssS'esu4'
p912
(dp913
g766
F0.044999999999999998
ssS'esv4'
p914
(dp915
g767
F0.02
ssS'Es4'
p916
(dp917
g768
I200000
ssS'ka4'
p918
(dp919
g769
I-1
ssS'kb4'
p920
(dp921
g770
I-1
ssS'kc4'
p922
(dp923
g771
I-1
ssS'as4'
p924
(dp925
g772
F0.91682263181938806
ssS'dm4'
p926
(dp927
g773
F19.164837491415586
ssS'psi4'
p928
(dp929
g774
I90
ssbsg471
g0
(g696
g2
Ntp930
Rp931
(dp932
g15
I0
sg676
g700
sg678
g471
sg679
(lp933
g590
ag681
ag682
ag683
ag684
ag702
ag703
ag704
ag705
ag706
ag707
ag708
ag709
ag710
ag711
ag712
ag713
ag714
ag715
ag716
ag717
ag718
ag719
ag720
ag721
ag722
ag723
ag724
ag725
ag726
ag727
ag728
ag729
ag730
ag731
ag732
ag733
ag734
ag735
ag736
ag737
ag738
ag739
ag740
ag741
ag742
ag743
ag744
ag745
ag746
ag747
ag748
ag749
ag750
ag751
ag752
ag753
ag754
ag755
ag756
ag757
ag758
ag759
ag760
ag761
ag762
ag763
ag764
ag765
ag766
ag767
ag768
ag769
ag770
ag771
ag772
ag773
ag774
asg775
(dp934
g777
I200000
ssg778
(dp935
g780
F0.10000000000000001
ssg781
(dp936
g683
F90909.090909090897
ssg783
F2.5000000000000002e-06
sg784
(dp937
g702
I-1
ssg786
(dp938
g703
F2.5000000000000002e-06
ssg788
(dp939
g704
I30
ssg790
(dp940
g705
I30
ssg792
(dp941
g706
I2
ssg794
(dp942
g707
I29
ssg796
(dp943
g708
I0
ssg798
(dp944
g709
F-0.002
ssg800
(dp945
g710
I10000
ssg802
(dp946
g711
I2
ssg804
(dp947
g712
I1
ssg806
(dp948
g713
I0
ssg808
(dp949
g714
I0
ssg810
(dp950
g715
F0.67000000000000004
ssg812
(dp951
g716
I1
ssg814
(dp952
g717
I1
ssg816
(dp953
g718
I2
ssg818
(dp954
g719
I0
ssg820
(dp955
g720
I45
ssg822
(dp956
g721
I1
ssg824
(dp957
g722
I500
ssg826
(dp958
g723
I1
ssg828
(dp959
g724
I2
ssg830
(dp960
g725
I432
ssg832
(dp961
g726
I467
ssg834
(dp962
g727
F0.044999999999999998
ssg836
(dp963
g728
F0.02
ssg838
(dp964
g729
I200000
ssg840
(dp965
g730
I-1
ssg842
(dp966
g731
I-1
ssg844
(dp967
g732
I-1
ssg846
(dp968
g733
F0.6008583648576219
ssg848
(dp969
g734
F17.412981999516266
ssg850
(dp970
g735
I90
ssg852
(dp971
g736
I1
ssg854
(dp972
g737
I2
ssg856
(dp973
g738
I432
ssg858
(dp974
g739
I467
ssg860
(dp975
g740
F0.044999999999999998
ssg862
(dp976
g741
F0.02
ssg864
(dp977
g742
I200000
ssg866
(dp978
g743
I-1
ssg868
(dp979
g744
I-1
ssg870
(dp980
g745
I-1
ssg872
(dp981
g746
F0.49822352671242393
ssg874
(dp982
g747
F15.856203504477001
ssg876
(dp983
g748
I0
ssg878
(dp984
g749
I1
ssg880
(dp985
g750
I2
ssg882
(dp986
g751
I432
ssg884
(dp987
g752
I467
ssg886
(dp988
g753
F0.044999999999999998
ssg888
(dp989
g754
F0.02
ssg890
(dp990
g755
I200000
ssg892
(dp991
g756
I-1
ssg894
(dp992
g757
I-1
ssg896
(dp993
g758
I-1
ssg898
(dp994
g759
F0.28535684952192703
ssg900
(dp995
g760
F12.0
ssg902
(dp996
g761
I0
ssg904
(dp997
g762
I1
ssg906
(dp998
g763
I2
ssg908
(dp999
g764
I432
ssg910
(dp1000
g765
I467
ssg912
(dp1001
g766
F0.044999999999999998
ssg914
(dp1002
g767
F0.02
ssg916
(dp1003
g768
I200000
ssg918
(dp1004
g769
I-1
ssg920
(dp1005
g770
I-1
ssg922
(dp1006
g771
I-1
ssg924
(dp1007
g772
F0.51348227527444523
ssg926
(dp1008
g773
F16.097180865259194
ssg928
(dp1009
g774
I90
ssbssS'misc'
p1010
(dp1011
sS'name'
p1012
S'NLFE_CFB7'
p1013
sS'nodes'
p1014
(dp1015
I0
g0
(ccompas_fea.structure.node
Node
p1016
g2
Ntp1017
Rp1018
(dp1019
S'__name__'
p1020
S'Node'
p1021
sS'key'
p1022
I0
sS'x'
p1023
F0.0
sS'y'
p1024
F0.0
sS'z'
p1025
F0.0
sS'ex'
p1026
(lp1027
I1
aI0
aI0
asS'ey'
p1028
(lp1029
I0
aI1
aI0
asS'ez'
p1030
(lp1031
I0
aI0
aI1
asS'mass'
p1032
NsbsI1
g0
(g1016
g2
Ntp1033
Rp1034
(dp1035
g1020
g1021
sg1022
I1
sg1023
F1270.6301895947813
sg1024
F0.0
sg1025
F0.0
sg1026
g1027
sg1028
g1029
sg1030
g1031
sg1032
NsbsI2
g0
(g1016
g2
Ntp1036
Rp1037
(dp1038
g1020
g1021
sg1022
I2
sg1023
F0.0
sg1024
F1399.2527624358368
sg1025
F0.0
sg1026
g1027
sg1028
g1029
sg1030
g1031
sg1032
NsbsI3
g0
(g1016
g2
Ntp1039
Rp1040
(dp1041
g1020
g1021
sg1022
I3
sg1023
F1270.6301895947813
sg1024
F1399.2527624358368
sg1025
F0.0
sg1026
g1027
sg1028
g1029
sg1030
g1031
sg1032
NsbsI4
g0
(g1016
g2
Ntp1042
Rp1043
(dp1044
g1020
g1021
sg1022
I4
sg1023
F0.0
sg1024
F2798.5055248716735
sg1025
F0.0
sg1026
g1027
sg1028
g1029
sg1030
g1031
sg1032
NsbsI5
g0
(g1016
g2
Ntp1045
Rp1046
(dp1047
g1020
g1021
sg1022
I5
sg1023
F1270.6301895947813
sg1024
F2798.5055248716735
sg1025
F0.0
sg1026
g1027
sg1028
g1029
sg1030
g1031
sg1032
NsbsI6
g0
(g1016
g2
Ntp1048
Rp1049
(dp1050
g1020
g1021
sg1022
I6
sg1023
F0.0
sg1024
F4197.7582873075098
sg1025
F0.0
sg1026
g1027
sg1028
g1029
sg1030
g1031
sg1032
NsbsI7
g0
(g1016
g2
Ntp1051
Rp1052
(dp1053
g1020
g1021
sg1022
I7
sg1023
F1270.6301895947813
sg1024
F4197.7582873075098
sg1025
F0.0
sg1026
g1027
sg1028
g1029
sg1030
g1031
sg1032
NsbsI8
g0
(g1016
g2
Ntp1054
Rp1055
(dp1056
g1020
g1021
sg1022
I8
sg1023
F0.0
sg1024
F5597.011049743347
sg1025
F0.0
sg1026
g1027
sg1028
g1029
sg1030
g1031
sg1032
NsbsI9
g0
(g1016
g2
Ntp1057
Rp1058
(dp1059
g1020
g1021
sg1022
I9
sg1023
F1270.6301895947813
sg1024
F5597.011049743347
sg1025
F0.0
sg1026
g1027
sg1028
g1029
sg1030
g1031
sg1032
NsbsI10
g0
(g1016
g2
Ntp1060
Rp1061
(dp1062
g1020
g1021
sg1022
I10
sg1023
F0.0
sg1024
F11363.62849493346
sg1025
F0.0
sg1026
g1027
sg1028
g1029
sg1030
g1031
sg1032
NsbsI11
g0
(g1016
g2
Ntp1063
Rp1064
(dp1065
g1020
g1021
sg1022
I11
sg1023
F1270.6301895947813
sg1024
F11363.62849493346
sg1025
F0.0
sg1026
g1027
sg1028
g1029
sg1030
g1031
sg1032
NsbsI12
g0
(g1016
g2
Ntp1066
Rp1067
(dp1068
g1020
g1021
sg1022
I12
sg1023
F0.0
sg1024
F12762.881257369296
sg1025
F0.0
sg1026
g1027
sg1028
g1029
sg1030
g1031
sg1032
NsbsI13
g0
(g1016
g2
Ntp1069
Rp1070
(dp1071
g1020
g1021
sg1022
I13
sg1023
F1270.6301895947813
sg1024
F12762.881257369296
sg1025
F0.0
sg1026
g1027
sg1028
g1029
sg1030
g1031
sg1032
NsbsI14
g0
(g1016
g2
Ntp1072
Rp1073
(dp1074
g1020
g1021
sg1022
I14
sg1023
F0.0
sg1024
F14162.134019805133
sg1025
F0.0
sg1026
g1027
sg1028
g1029
sg1030
g1031
sg1032
NsbsI15
g0
(g1016
g2
Ntp1075
Rp1076
(dp1077
g1020
g1021
sg1022
I15
sg1023
F1270.6301895947813
sg1024
F14162.134019805133
sg1025
F0.0
sg1026
g1027
sg1028
g1029
sg1030
g1031
sg1032
NsbsI16
g0
(g1016
g2
Ntp1078
Rp1079
(dp1080
g1020
g1021
sg1022
I16
sg1023
F0.0
sg1024
F15561.38678224097
sg1025
F0.0
sg1026
g1027
sg1028
g1029
sg1030
g1031
sg1032
NsbsI17
g0
(g1016
g2
Ntp1081
Rp1082
(dp1083
g1020
g1021
sg1022
I17
sg1023
F1270.6301895947813
sg1024
F15561.38678224097
sg1025
F0.0
sg1026
g1027
sg1028
g1029
sg1030
g1031
sg1032
NsbsI18
g0
(g1016
g2
Ntp1084
Rp1085
(dp1086
g1020
g1021
sg1022
I18
sg1023
F0.0
sg1024
F16960.639544676807
sg1025
F0.0
sg1026
g1027
sg1028
g1029
sg1030
g1031
sg1032
NsbsI19
g0
(g1016
g2
Ntp1087
Rp1088
(dp1089
g1020
g1021
sg1022
I19
sg1023
F1270.6301895947813
sg1024
F16960.639544676807
sg1025
F0.0
sg1026
g1027
sg1028
g1029
sg1030
g1031
sg1032
NsbsI20
g0
(g1016
g2
Ntp1090
Rp1091
(dp1092
g1020
g1021
sg1022
I20
sg1023
F2541.2603791895626
sg1024
F0.0
sg1025
F0.0
sg1026
g1027
sg1028
g1029
sg1030
g1031
sg1032
NsbsI21
g0
(g1016
g2
Ntp1093
Rp1094
(dp1095
g1020
g1021
sg1022
I21
sg1023
F2541.2603791895626
sg1024
F1399.2527624358368
sg1025
F0.0
sg1026
g1027
sg1028
g1029
sg1030
g1031
sg1032
NsbsI22
g0
(g1016
g2
Ntp1096
Rp1097
(dp1098
g1020
g1021
sg1022
I22
sg1023
F2541.2603791895626
sg1024
F2798.5055248716735
sg1025
F0.0
sg1026
g1027
sg1028
g1029
sg1030
g1031
sg1032
NsbsI23
g0
(g1016
g2
Ntp1099
Rp1100
(dp1101
g1020
g1021
sg1022
I23
sg1023
F2541.2603791895626
sg1024
F4197.7582873075098
sg1025
F0.0
sg1026
g1027
sg1028
g1029
sg1030
g1031
sg1032
NsbsI24
g0
(g1016
g2
Ntp1102
Rp1103
(dp1104
g1020
g1021
sg1022
I24
sg1023
F2541.2603791895626
sg1024
F5597.011049743347
sg1025
F0.0
sg1026
g1027
sg1028
g1029
sg1030
g1031
sg1032
NsbsI25
g0
(g1016
g2
Ntp1105
Rp1106
(dp1107
g1020
g1021
sg1022
I25
sg1023
F2541.2603791895626
sg1024
F11363.62849493346
sg1025
F0.0
sg1026
g1027
sg1028
g1029
sg1030
g1031
sg1032
NsbsI26
g0
(g1016
g2
Ntp1108
Rp1109
(dp1110
g1020
g1021
sg1022
I26
sg1023
F2541.2603791895626
sg1024
F12762.881257369296
sg1025
F0.0
sg1026
g1027
sg1028
g1029
sg1030
g1031
sg1032
NsbsI27
g0
(g1016
g2
Ntp1111
Rp1112
(dp1113
g1020
g1021
sg1022
I27
sg1023
F2541.2603791895626
sg1024
F14162.134019805133
sg1025
F0.0
sg1026
g1027
sg1028
g1029
sg1030
g1031
sg1032
NsbsI28
g0
(g1016
g2
Ntp1114
Rp1115
(dp1116
g1020
g1021
sg1022
I28
sg1023
F2541.2603791895626
sg1024
F15561.38678224097
sg1025
F0.0
sg1026
g1027
sg1028
g1029
sg1030
g1031
sg1032
NsbsI29
g0
(g1016
g2
Ntp1117
Rp1118
(dp1119
g1020
g1021
sg1022
I29
sg1023
F2541.2603791895626
sg1024
F16960.639544676807
sg1025
F0.0
sg1026
g1027
sg1028
g1029
sg1030
g1031
sg1032
NsbsI30
g0
(g1016
g2
Ntp1120
Rp1121
(dp1122
g1020
g1021
sg1022
I30
sg1023
F3850.3945139235793
sg1024
F0.0
sg1025
F0.0
sg1026
g1027
sg1028
g1029
sg1030
g1031
sg1032
NsbsI31
g0
(g1016
g2
Ntp1123
Rp1124
(dp1125
g1020
g1021
sg1022
I31
sg1023
F3850.3945139235793
sg1024
F1399.2527624358368
sg1025
F0.0
sg1026
g1027
sg1028
g1029
sg1030
g1031
sg1032
NsbsI32
g0
(g1016
g2
Ntp1126
Rp1127
(dp1128
g1020
g1021
sg1022
I32
sg1023
F3850.3945139235793
sg1024
F2798.5055248716735
sg1025
F0.0
sg1026
g1027
sg1028
g1029
sg1030
g1031
sg1032
NsbsI33
g0
(g1016
g2
Ntp1129
Rp1130
(dp1131
g1020
g1021
sg1022
I33
sg1023
F3850.3945139235793
sg1024
F4197.7582873075098
sg1025
F0.0
sg1026
g1027
sg1028
g1029
sg1030
g1031
sg1032
NsbsI34
g0
(g1016
g2
Ntp1132
Rp1133
(dp1134
g1020
g1021
sg1022
I34
sg1023
F3850.3945139235793
sg1024
F5597.011049743347
sg1025
F0.0
sg1026
g1027
sg1028
g1029
sg1030
g1031
sg1032
NsbsI35
g0
(g1016
g2
Ntp1135
Rp1136
(dp1137
g1020
g1021
sg1022
I35
sg1023
F3850.3945139235793
sg1024
F11363.62849493346
sg1025
F0.0
sg1026
g1027
sg1028
g1029
sg1030
g1031
sg1032
NsbsI36
g0
(g1016
g2
Ntp1138
Rp1139
(dp1140
g1020
g1021
sg1022
I36
sg1023
F3850.3945139235793
sg1024
F12762.881257369296
sg1025
F0.0
sg1026
g1027
sg1028
g1029
sg1030
g1031
sg1032
NsbsI37
g0
(g1016
g2
Ntp1141
Rp1142
(dp1143
g1020
g1021
sg1022
I37
sg1023
F3850.3945139235793
sg1024
F14162.134019805133
sg1025
F0.0
sg1026
g1027
sg1028
g1029
sg1030
g1031
sg1032
NsbsI38
g0
(g1016
g2
Ntp1144
Rp1145
(dp1146
g1020
g1021
sg1022
I38
sg1023
F3850.3945139235793
sg1024
F15561.38678224097
sg1025
F0.0
sg1026
g1027
sg1028
g1029
sg1030
g1031
sg1032
NsbsI39
g0
(g1016
g2
Ntp1147
Rp1148
(dp1149
g1020
g1021
sg1022
I39
sg1023
F3850.3945139235793
sg1024
F16960.639544676807
sg1025
F0.0
sg1026
g1027
sg1028
g1029
sg1030
g1031
sg1032
NsbsI40
g0
(g1016
g2
Ntp1150
Rp1151
(dp1152
g1020
g1021
sg1022
I40
sg1023
F0.0
sg1024
F7038.6654110408745
sg1025
F0.0
sg1026
g1027
sg1028
g1029
sg1030
g1031
sg1032
NsbsI41
g0
(g1016
g2
Ntp1153
Rp1154
(dp1155
g1020
g1021
sg1022
I41
sg1023
F1270.6301895947813
sg1024
F7038.6654110408745
sg1025
F0.0
sg1026
g1027
sg1028
g1029
sg1030
g1031
sg1032
NsbsI42
g0
(g1016
g2
Ntp1156
Rp1157
(dp1158
g1020
g1021
sg1022
I42
sg1023
F0.0
sg1024
F8480.3197723384037
sg1025
F0.0
sg1026
g1027
sg1028
g1029
sg1030
g1031
sg1032
NsbsI43
g0
(g1016
g2
Ntp1159
Rp1160
(dp1161
g1020
g1021
sg1022
I43
sg1023
F1270.6301895947813
sg1024
F8480.3197723384037
sg1025
F0.0
sg1026
g1027
sg1028
g1029
sg1030
g1031
sg1032
NsbsI44
g0
(g1016
g2
Ntp1162
Rp1163
(dp1164
g1020
g1021
sg1022
I44
sg1023
F0.0
sg1024
F9921.974133635933
sg1025
F0.0
sg1026
g1027
sg1028
g1029
sg1030
g1031
sg1032
NsbsI45
g0
(g1016
g2
Ntp1165
Rp1166
(dp1167
g1020
g1021
sg1022
I45
sg1023
F1270.6301895947813
sg1024
F9921.974133635933
sg1025
F0.0
sg1026
g1027
sg1028
g1029
sg1030
g1031
sg1032
NsbsI46
g0
(g1016
g2
Ntp1168
Rp1169
(dp1170
g1020
g1021
sg1022
I46
sg1023
F2541.2603791895626
sg1024
F7038.6654110408745
sg1025
F0.0
sg1026
g1027
sg1028
g1029
sg1030
g1031
sg1032
NsbsI47
g0
(g1016
g2
Ntp1171
Rp1172
(dp1173
g1020
g1021
sg1022
I47
sg1023
F2541.2603791895626
sg1024
F8480.3197723384037
sg1025
F0.0
sg1026
g1027
sg1028
g1029
sg1030
g1031
sg1032
NsbsI48
g0
(g1016
g2
Ntp1174
Rp1175
(dp1176
g1020
g1021
sg1022
I48
sg1023
F2541.2603791895626
sg1024
F9921.974133635933
sg1025
F0.0
sg1026
g1027
sg1028
g1029
sg1030
g1031
sg1032
NsbsI49
g0
(g1016
g2
Ntp1177
Rp1178
(dp1179
g1020
g1021
sg1022
I49
sg1023
F3850.3945139235793
sg1024
F7038.6654110408745
sg1025
F0.0
sg1026
g1027
sg1028
g1029
sg1030
g1031
sg1032
NsbsI50
g0
(g1016
g2
Ntp1180
Rp1181
(dp1182
g1020
g1021
sg1022
I50
sg1023
F3850.3945139235793
sg1024
F8480.3197723384037
sg1025
F0.0
sg1026
g1027
sg1028
g1029
sg1030
g1031
sg1032
NsbsI51
g0
(g1016
g2
Ntp1183
Rp1184
(dp1185
g1020
g1021
sg1022
I51
sg1023
F3850.3945139235793
sg1024
F9921.974133635933
sg1025
F0.0
sg1026
g1027
sg1028
g1029
sg1030
g1031
sg1032
NsbsI52
g0
(g1016
g2
Ntp1186
Rp1187
(dp1188
g1020
g1021
sg1022
I52
sg1023
F0.0
sg1024
F0.0
sg1025
F-1396.5171525731898
sg1026
g1027
sg1028
g1029
sg1030
g1031
sg1032
NsbsI53
g0
(g1016
g2
Ntp1189
Rp1190
(dp1191
g1020
g1021
sg1022
I53
sg1023
F1270.6301895947799
sg1024
F0.0
sg1025
F-1396.5171525731898
sg1026
g1027
sg1028
g1029
sg1030
g1031
sg1032
NsbsI54
g0
(g1016
g2
Ntp1192
Rp1193
(dp1194
g1020
g1021
sg1022
I54
sg1023
F0.0
sg1024
F0.0
sg1025
F-570.68528706482971
sg1026
g1027
sg1028
g1029
sg1030
g1031
sg1032
NsbsI55
g0
(g1016
g2
Ntp1195
Rp1196
(dp1197
g1020
g1021
sg1022
I55
sg1023
F1270.6301895947799
sg1024
F0.0
sg1025
F-570.68528706482971
sg1026
g1027
sg1028
g1029
sg1030
g1031
sg1032
NsbsI56
g0
(g1016
g2
Ntp1198
Rp1199
(dp1200
g1020
g1021
sg1022
I56
sg1023
F2541.2603791895599
sg1024
F0.0
sg1025
F-1396.5171525731898
sg1026
g1027
sg1028
g1029
sg1030
g1031
sg1032
NsbsI57
g0
(g1016
g2
Ntp1201
Rp1202
(dp1203
g1020
g1021
sg1022
I57
sg1023
F2541.2603791895599
sg1024
F0.0
sg1025
F-570.68528706482971
sg1026
g1027
sg1028
g1029
sg1030
g1031
sg1032
NsbsI58
g0
(g1016
g2
Ntp1204
Rp1205
(dp1206
g1020
g1021
sg1022
I58
sg1023
F3850.3945139235798
sg1024
F0.0
sg1025
F-1396.5171525731898
sg1026
g1027
sg1028
g1029
sg1030
g1031
sg1032
NsbsI59
g0
(g1016
g2
Ntp1207
Rp1208
(dp1209
g1020
g1021
sg1022
I59
sg1023
F3850.3945139235798
sg1024
F0.0
sg1025
F-570.68528706482971
sg1026
g1027
sg1028
g1029
sg1030
g1031
sg1032
NsbsI60
g0
(g1016
g2
Ntp1210
Rp1211
(dp1212
g1020
g1021
sg1022
I60
sg1023
F0.0
sg1024
F0.0
sg1025
F-2247.3742261272578
sg1026
g1027
sg1028
g1029
sg1030
g1031
sg1032
NsbsI61
g0
(g1016
g2
Ntp1213
Rp1214
(dp1215
g1020
g1021
sg1022
I61
sg1023
F1270.6301895947799
sg1024
F0.0
sg1025
F-2247.3742261272578
sg1026
g1027
sg1028
g1029
sg1030
g1031
sg1032
NsbsI62
g0
(g1016
g2
Ntp1216
Rp1217
(dp1218
g1020
g1021
sg1022
I62
sg1023
F2541.2603791895599
sg1024
F0.0
sg1025
F-2247.3742261272578
sg1026
g1027
sg1028
g1029
sg1030
g1031
sg1032
NsbsI63
g0
(g1016
g2
Ntp1219
Rp1220
(dp1221
g1020
g1021
sg1022
I63
sg1023
F3850.3945139235798
sg1024
F0.0
sg1025
F-2247.3742261272578
sg1026
g1027
sg1028
g1029
sg1030
g1031
sg1032
NsbsI64
g0
(g1016
g2
Ntp1222
Rp1223
(dp1224
g1020
g1021
sg1022
I64
sg1023
F0.0
sg1024
F0.0
sg1025
F-3073.2060916356177
sg1026
g1027
sg1028
g1029
sg1030
g1031
sg1032
NsbsI65
g0
(g1016
g2
Ntp1225
Rp1226
(dp1227
g1020
g1021
sg1022
I65
sg1023
F1270.6301895947799
sg1024
F0.0
sg1025
F-3073.2060916356177
sg1026
g1027
sg1028
g1029
sg1030
g1031
sg1032
NsbsI66
g0
(g1016
g2
Ntp1228
Rp1229
(dp1230
g1020
g1021
sg1022
I66
sg1023
F2541.2603791895599
sg1024
F0.0
sg1025
F-3073.2060916356177
sg1026
g1027
sg1028
g1029
sg1030
g1031
sg1032
NsbsI67
g0
(g1016
g2
Ntp1231
Rp1232
(dp1233
g1020
g1021
sg1022
I67
sg1023
F3850.3945139235798
sg1024
F0.0
sg1025
F-3073.2060916356177
sg1026
g1027
sg1028
g1029
sg1030
g1031
sg1032
NsbsI68
g0
(g1016
g2
Ntp1234
Rp1235
(dp1236
g1020
g1021
sg1022
I68
sg1023
F0.0
sg1024
F16960.639544676807
sg1025
F-1396.5171525731898
sg1026
g1027
sg1028
g1029
sg1030
g1031
sg1032
NsbsI69
g0
(g1016
g2
Ntp1237
Rp1238
(dp1239
g1020
g1021
sg1022
I69
sg1023
F1270.6301895947799
sg1024
F16960.639544676807
sg1025
F-1396.5171525731898
sg1026
g1027
sg1028
g1029
sg1030
g1031
sg1032
NsbsI70
g0
(g1016
g2
Ntp1240
Rp1241
(dp1242
g1020
g1021
sg1022
I70
sg1023
F0.0
sg1024
F16960.639544676807
sg1025
F-570.68528706482971
sg1026
g1027
sg1028
g1029
sg1030
g1031
sg1032
NsbsI71
g0
(g1016
g2
Ntp1243
Rp1244
(dp1245
g1020
g1021
sg1022
I71
sg1023
F1270.6301895947799
sg1024
F16960.639544676807
sg1025
F-570.68528706482971
sg1026
g1027
sg1028
g1029
sg1030
g1031
sg1032
NsbsI72
g0
(g1016
g2
Ntp1246
Rp1247
(dp1248
g1020
g1021
sg1022
I72
sg1023
F2541.2603791895599
sg1024
F16960.639544676807
sg1025
F-1396.5171525731898
sg1026
g1027
sg1028
g1029
sg1030
g1031
sg1032
NsbsI73
g0
(g1016
g2
Ntp1249
Rp1250
(dp1251
g1020
g1021
sg1022
I73
sg1023
F2541.2603791895599
sg1024
F16960.639544676807
sg1025
F-570.68528706482971
sg1026
g1027
sg1028
g1029
sg1030
g1031
sg1032
NsbsI74
g0
(g1016
g2
Ntp1252
Rp1253
(dp1254
g1020
g1021
sg1022
I74
sg1023
F3850.3945139235798
sg1024
F16960.639544676807
sg1025
F-1396.5171525731898
sg1026
g1027
sg1028
g1029
sg1030
g1031
sg1032
NsbsI75
g0
(g1016
g2
Ntp1255
Rp1256
(dp1257
g1020
g1021
sg1022
I75
sg1023
F3850.3945139235798
sg1024
F16960.639544676807
sg1025
F-570.68528706482971
sg1026
g1027
sg1028
g1029
sg1030
g1031
sg1032
NsbsI76
g0
(g1016
g2
Ntp1258
Rp1259
(dp1260
g1020
g1021
sg1022
I76
sg1023
F0.0
sg1024
F16960.639544676807
sg1025
F-2247.3742261272578
sg1026
g1027
sg1028
g1029
sg1030
g1031
sg1032
NsbsI77
g0
(g1016
g2
Ntp1261
Rp1262
(dp1263
g1020
g1021
sg1022
I77
sg1023
F1270.6301895947799
sg1024
F16960.639544676807
sg1025
F-2247.3742261272578
sg1026
g1027
sg1028
g1029
sg1030
g1031
sg1032
NsbsI78
g0
(g1016
g2
Ntp1264
Rp1265
(dp1266
g1020
g1021
sg1022
I78
sg1023
F2541.2603791895599
sg1024
F16960.639544676807
sg1025
F-2247.3742261272578
sg1026
g1027
sg1028
g1029
sg1030
g1031
sg1032
NsbsI79
g0
(g1016
g2
Ntp1267
Rp1268
(dp1269
g1020
g1021
sg1022
I79
sg1023
F3850.3945139235798
sg1024
F16960.639544676807
sg1025
F-2247.3742261272578
sg1026
g1027
sg1028
g1029
sg1030
g1031
sg1032
NsbsI80
g0
(g1016
g2
Ntp1270
Rp1271
(dp1272
g1020
g1021
sg1022
I80
sg1023
F0.0
sg1024
F16960.639544676807
sg1025
F-3073.2060916356177
sg1026
g1027
sg1028
g1029
sg1030
g1031
sg1032
NsbsI81
g0
(g1016
g2
Ntp1273
Rp1274
(dp1275
g1020
g1021
sg1022
I81
sg1023
F1270.6301895947799
sg1024
F16960.639544676807
sg1025
F-3073.2060916356177
sg1026
g1027
sg1028
g1029
sg1030
g1031
sg1032
NsbsI82
g0
(g1016
g2
Ntp1276
Rp1277
(dp1278
g1020
g1021
sg1022
I82
sg1023
F2541.2603791895599
sg1024
F16960.639544676807
sg1025
F-3073.2060916356177
sg1026
g1027
sg1028
g1029
sg1030
g1031
sg1032
NsbsI83
g0
(g1016
g2
Ntp1279
Rp1280
(dp1281
g1020
g1021
sg1022
I83
sg1023
F3850.3945139235798
sg1024
F16960.639544676807
sg1025
F-3073.2060916356177
sg1026
g1027
sg1028
g1029
sg1030
g1031
sg1032
NsbssS'node_index'
p1282
(dp1283
S'2541.260,16960.640,-2247.374'
p1284
I78
sS'2541.260,5597.011,0.000'
p1285
I24
sS'3850.395,1399.253,0.000'
p1286
I31
sS'0.000,16960.640,0.000'
p1287
I18
sS'2541.260,4197.758,0.000'
p1288
I23
sS'3850.395,16960.640,-570.685'
p1289
I75
sS'3850.395,11363.628,0.000'
p1290
I35
sS'3850.395,0.000,-3073.206'
p1291
I67
sS'0.000,11363.628,0.000'
p1292
I10
sS'1270.630,11363.628,0.000'
p1293
I11
sS'0.000,9921.974,0.000'
p1294
I44
sS'1270.630,16960.640,0.000'
p1295
I19
sS'1270.630,7038.665,0.000'
p1296
I41
sS'1270.630,16960.640,-2247.374'
p1297
I77
sS'1270.630,12762.881,0.000'
p1298
I13
sS'3850.395,5597.011,0.000'
p1299
I34
sS'2541.260,7038.665,0.000'
p1300
I46
sS'0.000,16960.640,-1396.517'
p1301
I68
sS'1270.630,9921.974,0.000'
p1302
I45
sS'3850.395,16960.640,-3073.206'
p1303
I83
sS'2541.260,0.000,-570.685'
p1304
I57
sS'3850.395,16960.640,-2247.374'
p1305
I79
sS'2541.260,8480.320,0.000'
p1306
I47
sS'2541.260,15561.387,0.000'
p1307
I28
sS'1270.630,0.000,0.000'
p1308
I1
sS'0.000,2798.506,0.000'
p1309
I4
sS'0.000,0.000,0.000'
p1310
I0
sS'1270.630,0.000,-1396.517'
p1311
I53
sS'2541.260,16960.640,-1396.517'
p1312
I72
sS'3850.395,2798.506,0.000'
p1313
I32
sS'3850.395,0.000,-1396.517'
p1314
I58
sS'2541.260,0.000,-2247.374'
p1315
I62
sS'3850.395,0.000,0.000'
p1316
I30
sS'1270.630,2798.506,0.000'
p1317
I5
sS'1270.630,0.000,-3073.206'
p1318
I65
sS'1270.630,4197.758,0.000'
p1319
I7
sS'0.000,0.000,-1396.517'
p1320
I52
sS'3850.395,16960.640,-1396.517'
p1321
I74
sS'1270.630,0.000,-2247.374'
p1322
I61
sS'2541.260,16960.640,-3073.206'
p1323
I82
sS'3850.395,15561.387,0.000'
p1324
I38
sS'2541.260,0.000,-1396.517'
p1325
I56
sS'3850.395,0.000,-570.685'
p1326
I59
sS'1270.630,16960.640,-1396.517'
p1327
I69
sS'2541.260,14162.134,0.000'
p1328
I27
sS'1270.630,14162.134,0.000'
p1329
I15
sS'2541.260,1399.253,0.000'
p1330
I21
sS'3850.395,0.000,-2247.374'
p1331
I63
sS'0.000,16960.640,-570.685'
p1332
I70
sS'1270.630,5597.011,0.000'
p1333
I9
sS'0.000,0.000,-570.685'
p1334
I54
sS'3850.395,16960.640,0.000'
p1335
I39
sS'0.000,5597.011,0.000'
p1336
I8
sS'0.000,16960.640,-3073.206'
p1337
I80
sS'0.000,7038.665,0.000'
p1338
I40
sS'3850.395,8480.320,0.000'
p1339
I50
sS'1270.630,15561.387,0.000'
p1340
I17
sS'0.000,15561.387,0.000'
p1341
I16
sS'1270.630,0.000,-570.685'
p1342
I55
sS'3850.395,9921.974,0.000'
p1343
I51
sS'0.000,0.000,-3073.206'
p1344
I64
sS'2541.260,0.000,-3073.206'
p1345
I66
sS'1270.630,16960.640,-570.685'
p1346
I71
sS'0.000,1399.253,0.000'
p1347
I2
sS'2541.260,2798.506,0.000'
p1348
I22
sS'0.000,8480.320,0.000'
p1349
I42
sS'0.000,4197.758,0.000'
p1350
I6
sS'0.000,12762.881,0.000'
p1351
I12
sS'2541.260,12762.881,0.000'
p1352
I26
sS'2541.260,0.000,0.000'
p1353
I20
sS'2541.260,9921.974,0.000'
p1354
I48
sS'3850.395,12762.881,0.000'
p1355
I36
sS'0.000,0.000,-2247.374'
p1356
I60
sS'2541.260,16960.640,-570.685'
p1357
I73
sS'0.000,16960.640,-2247.374'
p1358
I76
sS'1270.630,8480.320,0.000'
p1359
I43
sS'1270.630,1399.253,0.000'
p1360
I3
sS'1270.630,16960.640,-3073.206'
p1361
I81
sS'3850.395,14162.134,0.000'
p1362
I37
sS'2541.260,11363.628,0.000'
p1363
I25
sS'3850.395,7038.665,0.000'
p1364
I49
sS'0.000,14162.134,0.000'
p1365
I14
sS'2541.260,16960.640,0.000'
p1366
I29
sS'3850.395,4197.758,0.000'
p1367
I33
ssS'path'
p1368
S'C:\\Temp\\'
p1369
sS'results'
p1370
(dp1371
S'step_2'
p1372
S'ERROR'
p1373
sS'step_3'
p1374
g1373
sS'step_4'
p1375
g1373
sS'step_1'
p1376
g1373
ssS'sections'
p1377
(dp1378
g458
g0
(ccompas_fea.structure.section
ShellSection
p1379
g2
Ntp1380
Rp1381
(dp1382
g442
I1
sS'__name__'
p1383
S'ShellSection'
p1384
sS'name'
p1385
g458
sS'geometry'
p1386
(dp1387
S't'
p1388
F750.34159508789401
ssS'loc_coords_OR'
p1389
(dp1390
S'ORxyz'
p1391
(lp1392
I0
aI0
aF-2502.5208045700001
assS'loc_coords_XA'
p1393
(dp1394
S'XAxyz'
p1395
(lp1396
I1
aI0
aF-2502.5208045700001
assS'loc_coords_YA'
p1397
(dp1398
S'YAxyz'
p1399
(lp1400
F2502.5208045700001
aF-2502.5208045700001
aF-2501.5208045700001
assS'loc_coords_EV_XA'
p1401
(dp1402
S'EV_XA'
p1403
(lp1404
F1.0
aF0.0
aF0.0
assS'loc_coords_EV_YA'
p1405
(dp1406
S'EV_YA'
p1407
(lp1408
F0.70710675295923109
aF-0.70710675295923109
aF0.00028255779199435303
assS'loc_coords_EV_ZA'
p1409
(dp1410
S'EV_ZA'
p1411
(lp1412
F0.0
aF-1.0
aF0.0
assS'nr_layers'
p1413
(dp1414
S'nn'
p1415
F48.0
ssS'offset'
p1416
(dp1417
S'mode'
p1418
S'mid'
p1419
ssbsg472
g0
(g1379
g2
Ntp1420
Rp1421
(dp1422
g442
I0
sg1383
g1384
sg1385
g472
sg1386
(dp1423
g1388
F570.68528706482971
ssg1389
(dp1424
g1391
(lp1425
I0
aI0
aI0
assg1393
(dp1426
g1395
(lp1427
I1
aI0
aI0
assg1397
(dp1428
g1399
(lp1429
F0.0
aF1.0
aF0.0
assg1401
(dp1430
g1403
(lp1431
F1.0
aF0.0
aF0.0
assg1405
(dp1432
g1407
(lp1433
F0.0
aF1.0
aF0.0
assg1409
(dp1434
g1411
(lp1435
F0.0
aF0.0
aF1.0
assg1413
(dp1436
g1415
F48.0
ssg1416
(dp1437
g1418
S'top'
p1438
ssbsg449
g0
(g1379
g2
Ntp1439
Rp1440
(dp1441
g442
I2
sg1383
g1384
sg1385
g449
sg1386
(dp1442
g1388
F750.34159508789401
ssg1389
(dp1443
g1391
(lp1444
I0
aF16960.6395447
aF-2502.5208045700001
assg1393
(dp1445
g1395
(lp1446
I1
aF16960.6395447
aF-2502.5208045700001
assg1397
(dp1447
g1399
(lp1448
F-2502.5208045691252
aF14458.118740129999
aF-19464.160349270001
assg1401
(dp1449
g1403
(lp1450
F1.0
aF0.0
aF0.0
assg1405
(dp1451
g1407
(lp1452
F-0.14442957185247235
aF-0.14442957185252286
aF-0.97891787068630454
assg1409
(dp1453
g1411
(lp1454
F0.0
aF1.0
aF0.0
assg1413
(dp1455
g1415
F48.0
ssg1416
(dp1456
g1418
g1419
ssbsg542
g0
(ccompas_fea.structure.section
MPCSection
p1457
g2
Ntp1458
Rp1459
(dp1460
g15
I3
sg1383
S'MPCSection'
p1461
sg1385
g542
sg1386
NsS'nr_layers'
p1462
NsbssS'sets'
p1463
(dp1464
g567
g0
(ccompas_fea.structure.set
Set
p1465
g2
Ntp1466
Rp1467
(dp1468
S'__name__'
p1469
S'Set'
p1470
sS'name'
p1471
g567
sS'type'
p1472
S'element'
p1473
sS'selection'
p1474
(lp1475
I40
asS'index'
p1476
I13
sbsg543
g0
(g1465
g2
Ntp1477
Rp1478
(dp1479
g1469
g1470
sg1471
g543
sg1472
g1473
sg1474
(lp1480
I54
aI55
aI56
aI57
aI58
aI59
aI60
aI61
asg1476
I27
sbsg451
g0
(g1465
g2
Ntp1481
Rp1482
(dp1483
g1469
g1470
sg1471
g451
sg1472
g1473
sg1474
(lp1484
I48
asg1476
I21
sbsg497
g0
(g1465
g2
Ntp1485
Rp1486
(dp1487
g1469
g1470
sg1471
g497
sg1472
g1473
sg1474
(lp1488
I8
aI9
aI10
aI11
asg1476
I2
sbsg463
g0
(g1465
g2
Ntp1489
Rp1490
(dp1491
g1469
g1470
sg1471
g463
sg1472
g1473
sg1474
(lp1492
I43
asg1476
I16
sbsg559
g0
(g1465
g2
Ntp1493
Rp1494
(dp1495
g1469
g1470
sg1471
g559
sg1472
g1473
sg1474
(lp1496
I45
asg1476
I18
sbsg537
g0
(g1465
g2
Ntp1497
Rp1498
(dp1499
g1469
g1470
sg1471
g537
sg1472
g1473
sg1474
(lp1500
I4
aI5
aI6
aI7
asg1476
I1
sbsg473
g0
(g1465
g2
Ntp1501
Rp1502
(dp1503
g1469
g1470
sg1471
g473
sg1472
g1473
sg1474
(lp1504
I0
aI1
aI2
aI3
asg1476
I0
sbsg525
g0
(g1465
g2
Ntp1505
Rp1506
(dp1507
g1469
g1470
sg1471
g525
sg1472
g1473
sg1474
(lp1508
I24
aI25
aI26
aI27
asg1476
I6
sbsg563
g0
(g1465
g2
Ntp1509
Rp1510
(dp1511
g1469
g1470
sg1471
g563
sg1472
g1473
sg1474
(lp1512
I20
aI21
aI22
aI23
asg1476
I5
sbsg489
g0
(g1465
g2
Ntp1513
Rp1514
(dp1515
g1469
g1470
sg1471
g489
sg1472
g1473
sg1474
(lp1516
I16
aI17
aI18
aI19
asg1476
I4
sbsg533
g0
(g1465
g2
Ntp1517
Rp1518
(dp1519
g1469
g1470
sg1471
g533
sg1472
g1473
sg1474
(lp1520
I12
aI13
aI14
aI15
asg1476
I3
sbsg481
g0
(g1465
g2
Ntp1521
Rp1522
(dp1523
g1469
g1470
sg1471
g481
sg1472
g1473
sg1474
(lp1524
I32
aI33
aI34
aI35
asg1476
I8
sbsg517
g0
(g1465
g2
Ntp1525
Rp1526
(dp1527
g1469
g1470
sg1471
g517
sg1472
g1473
sg1474
(lp1528
I28
aI29
aI30
aI31
asg1476
I7
sbsg493
g0
(g1465
g2
Ntp1529
Rp1530
(dp1531
g1469
g1470
sg1471
g493
sg1472
g1473
sg1474
(lp1532
I38
asg1476
I11
sbsg555
g0
(g1465
g2
Ntp1533
Rp1534
(dp1535
g1469
g1470
sg1471
g555
sg1472
g1473
sg1474
(lp1536
I53
asg1476
I26
sbsg505
g0
(g1465
g2
Ntp1537
Rp1538
(dp1539
g1469
g1470
sg1471
g505
sg1472
g1473
sg1474
(lp1540
I50
asg1476
I23
sbsg485
g0
(g1465
g2
Ntp1541
Rp1542
(dp1543
g1469
g1470
sg1471
g485
sg1472
g1473
sg1474
(lp1544
I41
asg1476
I14
sbsg501
g0
(g1465
g2
Ntp1545
Rp1546
(dp1547
g1469
g1470
sg1471
g501
sg1472
g1473
sg1474
(lp1548
I47
asg1476
I20
sbsg521
g0
(g1465
g2
Ntp1549
Rp1550
(dp1551
g1469
g1470
sg1471
g521
sg1472
g1473
sg1474
(lp1552
I36
asg1476
I9
sbsg513
g0
(g1465
g2
Ntp1553
Rp1554
(dp1555
g1469
g1470
sg1471
g513
sg1472
g1473
sg1474
(lp1556
I44
asg1476
I17
sbsg35
g0
(g1465
g2
Ntp1557
Rp1558
(dp1559
g1469
g1470
sg1471
g35
sg1472
S'node'
p1560
sg1474
(lp1561
I83
aI82
aI81
aI80
asg1476
I29
sbsg509
g0
(g1465
g2
Ntp1562
Rp1563
(dp1564
g1469
g1470
sg1471
g509
sg1472
g1473
sg1474
(lp1565
I39
asg1476
I12
sbsg529
g0
(g1465
g2
Ntp1566
Rp1567
(dp1568
g1469
g1470
sg1471
g529
sg1472
g1473
sg1474
(lp1569
I52
asg1476
I25
sbsg477
g0
(g1465
g2
Ntp1570
Rp1571
(dp1572
g1469
g1470
sg1471
g477
sg1472
g1473
sg1474
(lp1573
I49
asg1476
I22
sbsg20
g0
(g1465
g2
Ntp1574
Rp1575
(dp1576
g1469
g1470
sg1471
g20
sg1472
g1560
sg1474
(lp1577
I67
aI66
aI65
aI64
asg1476
I28
sbsg547
g0
(g1465
g2
Ntp1578
Rp1579
(dp1580
g1469
g1470
sg1471
g547
sg1472
g1473
sg1474
(lp1581
I42
asg1476
I15
sbsg467
g0
(g1465
g2
Ntp1582
Rp1583
(dp1584
g1469
g1470
sg1471
g467
sg1472
g1473
sg1474
(lp1585
I46
asg1476
I19
sbsg459
g0
(g1465
g2
Ntp1586
Rp1587
(dp1588
g1469
g1470
sg1471
g459
sg1472
g1473
sg1474
(lp1589
I37
asg1476
I10
sbsg551
g0
(g1465
g2
Ntp1590
Rp1591
(dp1592
g1469
g1470
sg1471
g551
sg1472
g1473
sg1474
(lp1593
I51
asg1476
I24
sbssS'steps'
p1594
(dp1595
g1372
g0
(ccompas_fea.structure.step
GeneralStep
p1596
g2
Ntp1597
Rp1598
(dp1599
g442
I1
sS'__name__'
p1600
S'GeneralStep'
p1601
sS'name'
p1602
g1372
sS'attr_list'
p1603
(lp1604
g590
aS'increments'
p1605
aS'iterations'
p1606
aS'factor'
p1607
aS'nlgeom'
p1608
aS'nlmat'
p1609
aS'displacements'
p1610
aS'loads'
p1611
aS'type'
p1612
aS'tolerance'
p1613
aS'modify'
p1614
asS'increments'
p1615
I1
sS'iterations'
p1616
I100
sS'tolerance'
p1617
F0.01
sS'factor'
p1618
F1.0
sS'nlgeom'
p1619
I00
sS'nlmat'
p1620
I01
sS'displacements'
p1621
(lp1622
sS'loads'
p1623
(lp1624
g652
asS'modify'
p1625
I01
sS'type'
p1626
S'static'
p1627
sbsg1374
g0
(g1596
g2
Ntp1628
Rp1629
(dp1630
g442
I2
sg1600
g1601
sg1602
g1374
sg1603
(lp1631
g590
ag1605
ag1606
ag1607
ag1608
ag1609
ag1610
ag1611
ag1612
ag1613
ag1614
asg1615
I1
sg1616
I100
sg1617
F0.01
sg1618
F1.0
sg1619
I00
sg1620
I01
sg1621
(lp1632
sg1623
(lp1633
g631
ag617
ag610
asg1625
I01
sg1626
g1627
sbsg1375
g0
(g1596
g2
Ntp1634
Rp1635
(dp1636
g442
I3
sg1600
g1601
sg1602
g1375
sg1603
(lp1637
g590
ag1605
ag1606
ag1607
ag1608
ag1609
ag1610
ag1611
ag1612
ag1613
ag1614
asg1615
I1
sg1616
I100
sg1617
F0.01
sg1618
F1.0
sg1619
I00
sg1620
I01
sg1621
(lp1638
sg1623
(lp1639
g645
ag624
ag638
ag663
ag603
ag572
ag595
asg1625
I01
sg1626
g1627
sbsg1376
g0
(g1596
g2
Ntp1640
Rp1641
(dp1642
g442
I0
sg1600
g1601
sg1602
g1376
sg1603
(lp1643
g590
ag1605
ag1606
ag1607
ag1608
ag1609
ag1610
ag1611
ag1612
ag1613
ag1614
asg1615
I1
sg1616
I100
sg1617
F0.01
sg1618
F1.0
sg1619
I00
sg1620
I01
sg1621
(lp1644
g10
ag31
asg1623
(lp1645
sg1625
I01
sg1626
g1627
sbssS'loc_coor'
p1646
(dp1647
sS'steps_order'
p1648
(lp1649
g1376
ag1372
ag1374
ag1375
asS'tol'
p1650
S'3'
p1651
sS'virtual_nodes'
p1652
(dp1653
sS'virtual_node_index'
p1654
(dp1655
sS'virtual_elements'
p1656
(dp1657
sS'virtual_element_index'
p1658
(dp1659
sb.