ccopy_reg
_reconstructor
p0
(ccompas_fea.structure.structure
Structure
p1
c__builtin__
object
p2
Ntp3
Rp4
(dp5
S'constraints'
p6
(dp7
sS'displacements'
p8
(dp9
S'nset_pinned_set_disp_1'
p10
g0
(ccompas_fea.structure.displacement
GeneralDisplacement
p11
g2
Ntp12
Rp13
(dp14
S'index'
p15
I0
sS'__name__'
p16
S'GeneralDisplacement'
p17
sS'name'
p18
g10
sS'nodes'
p19
S'nset_support_wall1'
p20
sS'components'
p21
(dp22
S'z'
p23
I0
sS'xx'
p24
I0
sS'zz'
p25
I0
sS'yy'
p26
I0
sS'y'
p27
I0
sS'x'
p28
I0
ssS'axes'
p29
S'global'
p30
sbsS'nset_pinned_set_disp_2'
p31
g0
(g11
g2
Ntp32
Rp33
(dp34
g15
I1
sg16
g17
sg18
g31
sg19
S'nset_support_wall2'
p35
sg21
(dp36
g23
I0
sg24
I0
sg25
I0
sg26
I0
sg27
I0
sg28
I0
ssg29
g30
sbssS'elements'
p37
(dp38
I0
g0
(ccompas_fea.structure.element
ShellElement
p39
g2
Ntp40
Rp41
(dp42
S'mass'
p43
NsS'__name__'
p44
S'ShellElement'
p45
sS'nodes'
p46
(lp47
I0
aI1
aI3
aI2
asS'number'
p48
I0
sS'thermal'
p49
I00
sS'axes'
p50
(dp51
S'ey'
p52
NsS'ez'
p53
NsS'ex'
p54
NssS'element_property'
p55
S'elset_plate_1_element_prop'
p56
sbsI1
g0
(g39
g2
Ntp57
Rp58
(dp59
g43
Nsg44
g45
sg46
(lp60
I2
aI3
aI5
aI4
asg48
I1
sg49
I00
sg50
g51
sg55
g56
sbsI2
g0
(g39
g2
Ntp61
Rp62
(dp63
g43
Nsg44
g45
sg46
(lp64
I4
aI5
aI7
aI6
asg48
I2
sg49
I00
sg50
g51
sg55
g56
sbsI3
g0
(g39
g2
Ntp65
Rp66
(dp67
g43
Nsg44
g45
sg46
(lp68
I8
aI9
aI11
aI10
asg48
I3
sg49
I00
sg50
(dp69
g52
Nsg53
Nsg54
Nssg55
S'elset_plate_2_element_prop'
p70
sbsI4
g0
(g39
g2
Ntp71
Rp72
(dp73
g43
Nsg44
g45
sg46
(lp74
I10
aI11
aI13
aI12
asg48
I4
sg49
I00
sg50
g69
sg55
g70
sbsI5
g0
(g39
g2
Ntp75
Rp76
(dp77
g43
Nsg44
g45
sg46
(lp78
I12
aI13
aI15
aI14
asg48
I5
sg49
I00
sg50
g69
sg55
g70
sbsI6
g0
(g39
g2
Ntp79
Rp80
(dp81
g43
Nsg44
g45
sg46
(lp82
I1
aI16
aI17
aI3
asg48
I6
sg49
I00
sg50
(dp83
g52
Nsg53
Nsg54
Nssg55
S'elset_plate_3_element_prop'
p84
sbsI7
g0
(g39
g2
Ntp85
Rp86
(dp87
g43
Nsg44
g45
sg46
(lp88
I3
aI17
aI18
aI5
asg48
I7
sg49
I00
sg50
g83
sg55
g84
sbsI8
g0
(g39
g2
Ntp89
Rp90
(dp91
g43
Nsg44
g45
sg46
(lp92
I5
aI18
aI19
aI7
asg48
I8
sg49
I00
sg50
g83
sg55
g84
sbsI9
g0
(g39
g2
Ntp93
Rp94
(dp95
g43
Nsg44
g45
sg46
(lp96
I9
aI20
aI21
aI11
asg48
I9
sg49
I00
sg50
(dp97
g52
Nsg53
Nsg54
Nssg55
S'elset_plate_4_element_prop'
p98
sbsI10
g0
(g39
g2
Ntp99
Rp100
(dp101
g43
Nsg44
g45
sg46
(lp102
I11
aI21
aI22
aI13
asg48
I10
sg49
I00
sg50
g97
sg55
g98
sbsI11
g0
(g39
g2
Ntp103
Rp104
(dp105
g43
Nsg44
g45
sg46
(lp106
I13
aI22
aI23
aI15
asg48
I11
sg49
I00
sg50
g97
sg55
g98
sbsI12
g0
(g39
g2
Ntp107
Rp108
(dp109
g43
Nsg44
g45
sg46
(lp110
I16
aI24
aI25
aI17
asg48
I12
sg49
I00
sg50
(dp111
g52
Nsg53
Nsg54
Nssg55
S'elset_plate_5_element_prop'
p112
sbsI13
g0
(g39
g2
Ntp113
Rp114
(dp115
g43
Nsg44
g45
sg46
(lp116
I17
aI25
aI26
aI18
asg48
I13
sg49
I00
sg50
g111
sg55
g112
sbsI14
g0
(g39
g2
Ntp117
Rp118
(dp119
g43
Nsg44
g45
sg46
(lp120
I18
aI26
aI27
aI19
asg48
I14
sg49
I00
sg50
g111
sg55
g112
sbsI15
g0
(g39
g2
Ntp121
Rp122
(dp123
g43
Nsg44
g45
sg46
(lp124
I20
aI28
aI29
aI21
asg48
I15
sg49
I00
sg50
(dp125
g52
Nsg53
Nsg54
Nssg55
S'elset_plate_6_element_prop'
p126
sbsI16
g0
(g39
g2
Ntp127
Rp128
(dp129
g43
Nsg44
g45
sg46
(lp130
I21
aI29
aI30
aI22
asg48
I16
sg49
I00
sg50
g125
sg55
g126
sbsI17
g0
(g39
g2
Ntp131
Rp132
(dp133
g43
Nsg44
g45
sg46
(lp134
I22
aI30
aI31
aI23
asg48
I17
sg49
I00
sg50
g125
sg55
g126
sbsI18
g0
(g39
g2
Ntp135
Rp136
(dp137
g43
Nsg44
g45
sg46
(lp138
I6
aI7
aI33
aI32
asg48
I18
sg49
I00
sg50
(dp139
g52
Nsg53
Nsg54
Nssg55
S'elset_plate_7_element_prop'
p140
sbsI19
g0
(g39
g2
Ntp141
Rp142
(dp143
g43
Nsg44
g45
sg46
(lp144
I32
aI33
aI35
aI34
asg48
I19
sg49
I00
sg50
g139
sg55
g140
sbsI20
g0
(g39
g2
Ntp145
Rp146
(dp147
g43
Nsg44
g45
sg46
(lp148
I34
aI35
aI9
aI8
asg48
I20
sg49
I00
sg50
g139
sg55
g140
sbsI21
g0
(g39
g2
Ntp149
Rp150
(dp151
g43
Nsg44
g45
sg46
(lp152
I7
aI19
aI36
aI33
asg48
I21
sg49
I00
sg50
(dp153
g52
Nsg53
Nsg54
Nssg55
S'elset_plate_8_element_prop'
p154
sbsI22
g0
(g39
g2
Ntp155
Rp156
(dp157
g43
Nsg44
g45
sg46
(lp158
I33
aI36
aI37
aI35
asg48
I22
sg49
I00
sg50
g153
sg55
g154
sbsI23
g0
(g39
g2
Ntp159
Rp160
(dp161
g43
Nsg44
g45
sg46
(lp162
I35
aI37
aI20
aI9
asg48
I23
sg49
I00
sg50
g153
sg55
g154
sbsI24
g0
(g39
g2
Ntp163
Rp164
(dp165
g43
Nsg44
g45
sg46
(lp166
I19
aI27
aI38
aI36
asg48
I24
sg49
I00
sg50
(dp167
g52
Nsg53
Nsg54
Nssg55
S'elset_plate_9_element_prop'
p168
sbsI25
g0
(g39
g2
Ntp169
Rp170
(dp171
g43
Nsg44
g45
sg46
(lp172
I36
aI38
aI39
aI37
asg48
I25
sg49
I00
sg50
g167
sg55
g168
sbsI26
g0
(g39
g2
Ntp173
Rp174
(dp175
g43
Nsg44
g45
sg46
(lp176
I37
aI39
aI28
aI20
asg48
I26
sg49
I00
sg50
g167
sg55
g168
sbsI27
g0
(g39
g2
Ntp177
Rp178
(dp179
g43
Nsg44
g45
sg46
(lp180
I40
aI41
aI43
aI42
asg48
I27
sg49
I00
sg50
(dp181
g52
Nsg53
Nsg54
Nssg55
S'elset_wall_1_1_element_prop'
p182
sbsI28
g0
(g39
g2
Ntp183
Rp184
(dp185
g43
Nsg44
g45
sg46
(lp186
I41
aI44
aI45
aI43
asg48
I28
sg49
I00
sg50
(dp187
g52
Nsg53
Nsg54
Nssg55
S'elset_wall_1_2_element_prop'
p188
sbsI29
g0
(g39
g2
Ntp189
Rp190
(dp191
g43
Nsg44
g45
sg46
(lp192
I44
aI46
aI47
aI45
asg48
I29
sg49
I00
sg50
(dp193
g52
Nsg53
Nsg54
Nssg55
S'elset_wall_1_3_element_prop'
p194
sbsI30
g0
(g39
g2
Ntp195
Rp196
(dp197
g43
Nsg44
g45
sg46
(lp198
I48
aI49
aI41
aI40
asg48
I30
sg49
I00
sg50
(dp199
g52
Nsg53
Nsg54
Nssg55
S'elset_wall_1_4_element_prop'
p200
sbsI31
g0
(g39
g2
Ntp201
Rp202
(dp203
g43
Nsg44
g45
sg46
(lp204
I49
aI50
aI44
aI41
asg48
I31
sg49
I00
sg50
(dp205
g52
Nsg53
Nsg54
Nssg55
S'elset_wall_1_5_element_prop'
p206
sbsI32
g0
(g39
g2
Ntp207
Rp208
(dp209
g43
Nsg44
g45
sg46
(lp210
I50
aI51
aI46
aI44
asg48
I32
sg49
I00
sg50
(dp211
g52
Nsg53
Nsg54
Nssg55
S'elset_wall_1_6_element_prop'
p212
sbsI33
g0
(g39
g2
Ntp213
Rp214
(dp215
g43
Nsg44
g45
sg46
(lp216
I52
aI53
aI49
aI48
asg48
I33
sg49
I00
sg50
(dp217
g52
Nsg53
Nsg54
Nssg55
S'elset_wall_1_7_element_prop'
p218
sbsI34
g0
(g39
g2
Ntp219
Rp220
(dp221
g43
Nsg44
S'ShellElement'
p222
sg46
(lp223
I53
aI54
aI50
aI49
asg48
I34
sg49
I00
sg50
(dp224
g52
Nsg53
Nsg54
Nssg55
S'elset_wall_1_8_element_prop'
p225
sbsI35
g0
(g39
g2
Ntp226
Rp227
(dp228
g43
Nsg44
g222
sg46
(lp229
I54
aI55
aI51
aI50
asg48
I35
sg49
I00
sg50
(dp230
g52
Nsg53
Nsg54
Nssg55
S'elset_wall_1_9_element_prop'
p231
sbsI36
g0
(g39
g2
Ntp232
Rp233
(dp234
g43
Nsg44
g222
sg46
(lp235
I56
aI58
aI59
aI57
asg48
I36
sg49
I00
sg50
(dp236
g52
Nsg53
Nsg54
Nssg55
S'elset_wall_2_1_element_prop'
p237
sbsI37
g0
(g39
g2
Ntp238
Rp239
(dp240
g43
Nsg44
g222
sg46
(lp241
I57
aI59
aI61
aI60
asg48
I37
sg49
I00
sg50
(dp242
g52
Nsg53
Nsg54
Nssg55
S'elset_wall_2_2_element_prop'
p243
sbsI38
g0
(g39
g2
Ntp244
Rp245
(dp246
g43
Nsg44
g222
sg46
(lp247
I60
aI61
aI63
aI62
asg48
I38
sg49
I00
sg50
(dp248
g52
Nsg53
Nsg54
Nssg55
S'elset_wall_2_3_element_prop'
p249
sbsI39
g0
(g39
g2
Ntp250
Rp251
(dp252
g43
Nsg44
g222
sg46
(lp253
I64
aI56
aI57
aI65
asg48
I39
sg49
I00
sg50
(dp254
g52
Nsg53
Nsg54
Nssg55
S'elset_wall_2_4_element_prop'
p255
sbsI40
g0
(g39
g2
Ntp256
Rp257
(dp258
g43
Nsg44
g222
sg46
(lp259
I65
aI57
aI60
aI66
asg48
I40
sg49
I00
sg50
(dp260
g52
Nsg53
Nsg54
Nssg55
S'elset_wall_2_5_element_prop'
p261
sbsI41
g0
(g39
g2
Ntp262
Rp263
(dp264
g43
Nsg44
g222
sg46
(lp265
I66
aI60
aI62
aI67
asg48
I41
sg49
I00
sg50
(dp266
g52
Nsg53
Nsg54
Nssg55
S'elset_wall_2_6_element_prop'
p267
sbsI42
g0
(g39
g2
Ntp268
Rp269
(dp270
g43
Nsg44
g222
sg46
(lp271
I68
aI64
aI65
aI69
asg48
I42
sg49
I00
sg50
(dp272
S'ey'
p273
NsS'ez'
p274
NsS'ex'
p275
Nssg55
S'elset_wall_2_7_element_prop'
p276
sbsI43
g0
(g39
g2
Ntp277
Rp278
(dp279
g43
Nsg44
g222
sg46
(lp280
I69
aI65
aI66
aI70
asg48
I43
sg49
I00
sg50
(dp281
g273
Nsg274
Nsg275
Nssg55
S'elset_wall_2_8_element_prop'
p282
sbsI44
g0
(g39
g2
Ntp283
Rp284
(dp285
g43
Nsg44
g222
sg46
(lp286
I70
aI66
aI67
aI71
asg48
I44
sg49
I00
sg50
(dp287
g273
Nsg274
Nsg275
Nssg55
S'elset_wall_2_9_element_prop'
p288
sbsI45
g0
(ccompas_fea.structure.element
MPCElement
p289
g2
Ntp290
Rp291
(dp292
g43
Nsg44
S'MPCElement'
p293
sg46
(lp294
I63
aI31
asg48
I45
sg49
I00
sg50
(dp295
g273
Nsg274
(lp296
F3.637978807091713e-12
aF0.0
aF550.98777288495216
asg275
Nssg55
S'elset_mpc_element_prop'
p297
sbsI46
g0
(g289
g2
Ntp298
Rp299
(dp300
g43
Nsg44
g293
sg46
(lp301
I61
aI23
asg48
I46
sg49
I00
sg50
(dp302
g273
Nsg274
(lp303
F2.7284841053187847e-12
aF0.0
aF550.98777288495216
asg275
Nssg55
g297
sbsI47
g0
(g289
g2
Ntp304
Rp305
(dp306
g43
Nsg44
g293
sg46
(lp307
I59
aI15
asg48
I47
sg49
I00
sg50
(dp308
g273
Nsg274
(lp309
F1.3642420526593924e-12
aF0.0
aF550.98777288495216
asg275
Nssg55
g297
sbsI48
g0
(g289
g2
Ntp310
Rp311
(dp312
g43
Nsg44
g293
sg46
(lp313
I58
aI14
asg48
I48
sg49
I00
sg50
(dp314
g273
Nsg274
(lp315
F0.0
aF0.0
aF550.98777288495216
asg275
Nssg55
g297
sbsI49
g0
(g289
g2
Ntp316
Rp317
(dp318
g43
Nsg44
g293
sg46
(lp319
I47
aI24
asg48
I49
sg49
I00
sg50
(dp320
g273
Nsg274
(lp321
F3.637978807091713e-12
aF0.0
aF550.98777288495216
asg275
Nssg55
g297
sbsI50
g0
(g289
g2
Ntp322
Rp323
(dp324
g43
Nsg44
g293
sg46
(lp325
I45
aI16
asg48
I50
sg49
I00
sg50
(dp326
g273
Nsg274
(lp327
F2.7284841053187847e-12
aF0.0
aF550.98777288495216
asg275
Nssg55
g297
sbsI51
g0
(g289
g2
Ntp328
Rp329
(dp330
g43
Nsg44
g293
sg46
(lp331
I43
aI1
asg48
I51
sg49
I00
sg50
(dp332
g273
Nsg274
(lp333
F1.3642420526593924e-12
aF0.0
aF550.98777288495216
asg275
Nssg55
g297
sbsI52
g0
(g289
g2
Ntp334
Rp335
(dp336
g43
Nsg44
g293
sg46
(lp337
I42
aI0
asg48
I52
sg49
I00
sg50
(dp338
g273
Nsg274
(lp339
F0.0
aF0.0
aF550.98777288495216
asg275
Nssg55
g297
sbssS'element_index'
p340
(dp341
S'3955.848,790.132,0.000'
p342
I12
sS'786.404,0.000,-1160.979'
p343
I27
sS'3955.848,13575.898,0.000'
p344
I17
sS'786.404,14366.029,-3637.911'
p345
I42
sS'786.404,14366.029,-2399.445'
p346
I39
sS'3145.614,14366.029,-275.494'
p347
I46
sS'3955.848,0.000,-1160.979'
p348
I29
sS'3955.848,0.000,-3637.911'
p349
I35
sS'4766.082,14366.029,-275.494'
p350
I45
sS'3955.848,7183.015,0.000'
p351
I25
sS'786.404,8811.165,0.000'
p352
I20
sS'3955.848,3950.658,0.000'
p353
I14
sS'786.404,2370.395,0.000'
p354
I1
sS'786.404,10415.371,0.000'
p355
I3
sS'2359.211,0.000,-1160.979'
p356
I28
sS'786.404,13575.898,0.000'
p357
I5
sS'3955.848,8811.165,0.000'
p358
I26
sS'4766.082,0.000,-275.494'
p359
I49
sS'2359.211,14366.029,-2399.445'
p360
I40
sS'2359.211,10415.371,0.000'
p361
I9
sS'786.404,3950.658,0.000'
p362
I2
sS'786.404,0.000,-3637.911'
p363
I33
sS'786.404,0.000,-2399.445'
p364
I30
sS'786.404,5554.865,0.000'
p365
I18
sS'3955.848,0.000,-2399.445'
p366
I32
sS'2359.211,14366.029,-3637.911'
p367
I43
sS'1572.807,14366.029,-275.494'
p368
I47
sS'3955.848,10415.371,0.000'
p369
I15
sS'2359.211,7183.015,0.000'
p370
I22
sS'2359.211,0.000,-2399.445'
p371
I31
sS'786.404,11995.634,0.000'
p372
I4
sS'2359.211,11995.634,0.000'
p373
I10
sS'786.404,790.132,0.000'
p374
I0
sS'2359.211,13575.898,0.000'
p375
I11
sS'3955.848,14366.029,-1160.979'
p376
I38
sS'3145.614,0.000,-275.494'
p377
I50
sS'2359.211,14366.029,-1160.979'
p378
I37
sS'1572.807,0.000,-275.494'
p379
I51
sS'3955.848,5554.865,0.000'
p380
I24
sS'786.404,14366.029,-1160.979'
p381
I36
sS'2359.211,5554.865,0.000'
p382
I21
sS'2359.211,3950.658,0.000'
p383
I8
sS'2359.211,790.132,0.000'
p384
I6
sS'2359.211,2370.395,0.000'
p385
I7
sS'2359.211,0.000,-3637.911'
p386
I34
sS'3955.848,2370.395,0.000'
p387
I13
sS'3955.848,14366.029,-3637.911'
p388
I44
sS'0.000,14366.029,-275.494'
p389
I48
sS'0.000,0.000,-275.494'
p390
I52
sS'3955.848,11995.634,0.000'
p391
I16
sS'786.404,7183.015,0.000'
p392
I19
sS'3955.848,14366.029,-2399.445'
p393
I41
sS'2359.211,8811.165,0.000'
p394
I23
ssS'element_properties'
p395
(dp396
g255
g0
(ccompas_fea.structure.element_properties
ElementProperties
p397
g2
Ntp398
Rp399
(dp400
g15
I21
sS'__name__'
p401
S'ElementProperties'
p402
sS'name'
p403
g255
sS'material'
p404
S'wall_element_mat'
p405
sS'section'
p406
S'wall2_element_sec'
p407
sS'elset'
p408
S'elset_wall_2_4'
p409
sS'elements'
p410
NsS'rebar'
p411
(dp412
sbsg188
g0
(g397
g2
Ntp413
Rp414
(dp415
g15
I10
sg401
g402
sg403
g188
sg404
g405
sg406
S'wall1_element_sec'
p416
sg408
S'elset_wall_1_2'
p417
sg410
Nsg411
g412
sbsg225
g0
(g397
g2
Ntp418
Rp419
(dp420
g15
I16
sg401
g402
sg403
g225
sg404
g405
sg406
g416
sg408
S'elset_wall_1_8'
p421
sg410
Nsg411
g412
sbsg243
g0
(g397
g2
Ntp422
Rp423
(dp424
g15
I19
sg401
g402
sg403
g243
sg404
g405
sg406
g407
sg408
S'elset_wall_2_2'
p425
sg410
Nsg411
g412
sbsg56
g0
(g397
g2
Ntp426
Rp427
(dp428
g15
I0
sg401
g402
sg403
g56
sg404
S'plate_element_mat'
p429
sg406
S'plate_element_sec'
p430
sg408
S'elset_plate_1'
p431
sg410
Nsg411
g412
sbsg261
g0
(g397
g2
Ntp432
Rp433
(dp434
g15
I22
sg401
g402
sg403
g261
sg404
g405
sg406
g407
sg408
S'elset_wall_2_5'
p435
sg410
Nsg411
g412
sbsg168
g0
(g397
g2
Ntp436
Rp437
(dp438
g15
I8
sg401
g402
sg403
g168
sg404
g429
sg406
g430
sg408
S'elset_plate_9'
p439
sg410
Nsg411
g412
sbsg212
g0
(g397
g2
Ntp440
Rp441
(dp442
g15
I14
sg401
g402
sg403
g212
sg404
g405
sg406
g416
sg408
S'elset_wall_1_6'
p443
sg410
Nsg411
g412
sbsg112
g0
(g397
g2
Ntp444
Rp445
(dp446
g15
I4
sg401
g402
sg403
g112
sg404
g429
sg406
g430
sg408
S'elset_plate_5'
p447
sg410
Nsg411
g412
sbsg194
g0
(g397
g2
Ntp448
Rp449
(dp450
g15
I11
sg401
g402
sg403
g194
sg404
g405
sg406
g416
sg408
S'elset_wall_1_3'
p451
sg410
Nsg411
g412
sbsg84
g0
(g397
g2
Ntp452
Rp453
(dp454
g15
I2
sg401
g402
sg403
g84
sg404
g429
sg406
g430
sg408
S'elset_plate_3'
p455
sg410
Nsg411
g412
sbsg249
g0
(g397
g2
Ntp456
Rp457
(dp458
g15
I20
sg401
g402
sg403
g249
sg404
g405
sg406
g407
sg408
S'elset_wall_2_3'
p459
sg410
Nsg411
g412
sbsg267
g0
(g397
g2
Ntp460
Rp461
(dp462
g15
I23
sg401
g402
sg403
g267
sg404
g405
sg406
g407
sg408
S'elset_wall_2_6'
p463
sg410
Nsg411
g412
sbsg200
g0
(g397
g2
Ntp464
Rp465
(dp466
g15
I12
sg401
g402
sg403
g200
sg404
g405
sg406
g416
sg408
S'elset_wall_1_4'
p467
sg410
Nsg411
g412
sbsg231
g0
(g397
g2
Ntp468
Rp469
(dp470
g15
I17
sg401
g402
sg403
g231
sg404
g405
sg406
g416
sg408
S'elset_wall_1_9'
p471
sg410
Nsg411
g412
sbsg154
g0
(g397
g2
Ntp472
Rp473
(dp474
g15
I7
sg401
g402
sg403
g154
sg404
g429
sg406
g430
sg408
S'elset_plate_8'
p475
sg410
Nsg411
g412
sbsg182
g0
(g397
g2
Ntp476
Rp477
(dp478
g15
I9
sg401
g402
sg403
g182
sg404
g405
sg406
g416
sg408
S'elset_wall_1_1'
p479
sg410
Nsg411
g412
sbsg140
g0
(g397
g2
Ntp480
Rp481
(dp482
g15
I6
sg401
g402
sg403
g140
sg404
g429
sg406
g430
sg408
S'elset_plate_7'
p483
sg410
Nsg411
g412
sbsg282
g0
(g397
g2
Ntp484
Rp485
(dp486
g15
I25
sg401
g402
sg403
g282
sg404
g405
sg406
g407
sg408
S'elset_wall_2_8'
p487
sg410
Nsg411
g412
sbsg98
g0
(g397
g2
Ntp488
Rp489
(dp490
g15
I3
sg401
g402
sg403
g98
sg404
g429
sg406
g430
sg408
S'elset_plate_4'
p491
sg410
Nsg411
g412
sbsg70
g0
(g397
g2
Ntp492
Rp493
(dp494
g15
I1
sg401
g402
sg403
g70
sg404
g429
sg406
g430
sg408
S'elset_plate_2'
p495
sg410
Nsg411
g412
sbsg297
g0
(g397
g2
Ntp496
Rp497
(dp498
g15
I27
sg401
g402
sg403
g297
sg404
S'elset_mpc_element_mat'
p499
sg406
S'sec_mpc'
p500
sg408
S'elset_mpcs'
p501
sg410
Nsg411
g412
sbsg218
g0
(g397
g2
Ntp502
Rp503
(dp504
g15
I15
sg401
g402
sg403
g218
sg404
g405
sg406
g416
sg408
S'elset_wall_1_7'
p505
sg410
Nsg411
g412
sbsg276
g0
(g397
g2
Ntp506
Rp507
(dp508
g15
I24
sg401
g402
sg403
g276
sg404
g405
sg406
g407
sg408
S'elset_wall_2_7'
p509
sg410
Nsg411
g412
sbsg288
g0
(g397
g2
Ntp510
Rp511
(dp512
g15
I26
sg401
g402
sg403
g288
sg404
g405
sg406
g407
sg408
S'elset_wall_2_9'
p513
sg410
Nsg411
g412
sbsg237
g0
(g397
g2
Ntp514
Rp515
(dp516
g15
I18
sg401
g402
sg403
g237
sg404
g405
sg406
g407
sg408
S'elset_wall_2_1'
p517
sg410
Nsg411
g412
sbsg126
g0
(g397
g2
Ntp518
Rp519
(dp520
g15
I5
sg401
g402
sg403
g126
sg404
g429
sg406
g430
sg408
S'elset_plate_6'
p521
sg410
Nsg411
g412
sbsg206
g0
(g397
g2
Ntp522
Rp523
(dp524
g15
I13
sg401
g402
sg403
g206
sg404
g405
sg406
g416
sg408
S'elset_wall_1_5'
p525
sg410
Nsg411
g412
sbssS'interactions'
p526
(dp527
sS'loads'
p528
(dp529
S'earthPressure_liveLoad'
p530
g0
(ccompas_fea.structure.load
AreaLoad
p531
g2
Ntp532
Rp533
(dp534
g15
I9
sS'__name__'
p535
S'AreaLoad'
p536
sS'name'
p537
g530
sS'axes'
p538
S'local'
p539
sS'components'
p540
(dp541
S'z'
p542
F0.037699999999999997
sS'y'
p543
I0
sS'x'
p544
I0
ssS'nodes'
p545
(lp546
sS'elements'
p547
(lp548
I29
aI30
aI32
aI33
aI35
aI36
asS'attr_list'
p549
(lp550
S'name'
p551
aS'axes'
p552
aS'components'
p553
aS'nodes'
p554
aS'elements'
p555
asbsS'Gleis1_BAHNLASTEN_Lasteinzugsflache_Lastblock_-2'
p556
g0
(g531
g2
Ntp557
Rp558
(dp559
g15
I8
sg535
g536
sg537
g556
sg538
S'global'
p560
sg540
(dp561
g542
F0.089648870116034507
sg543
I0
sg544
I0
ssg545
g546
sg547
(lp562
I7
aI13
asg549
(lp563
g551
ag552
ag553
ag554
ag555
asbsS'Gleis1_EIGENGEWICHTE_SCHIENE_Lasteinzugsflache'
p564
g0
(g531
g2
Ntp565
Rp566
(dp567
g15
I3
sg535
g536
sg537
g564
sg538
S'global'
p568
sg540
(dp569
g542
F0.0024711434004378082
sg543
I0
sg544
I0
ssg545
g546
sg547
(lp570
I4
aI5
aI6
aI7
aI8
aI9
aI10
aI11
aI12
aI13
aI14
aI15
aI19
aI20
aI21
aI22
aI23
aI24
aI25
asg549
(lp571
g551
ag552
ag553
ag554
ag555
asbsS'earthPressure_backfill'
p572
g0
(g531
g2
Ntp573
Rp574
(dp575
g15
I2
sg535
g536
sg537
g572
sg538
S'local'
p576
sg540
(dp577
g542
F0.04845884863740639
sg543
I0
sg544
I0
ssg545
g546
sg547
(lp578
g479
ag417
ag451
ag467
ag525
ag443
ag505
ag421
ag471
ag517
ag425
ag459
ag409
ag435
ag463
ag509
ag487
ag513
asg549
(lp579
g551
ag552
ag553
ag554
ag555
asbsS'Gleis1_BAHNLASTEN_Lasteinzugsflache_Lastblock_2'
p580
g0
(g531
g2
Ntp581
Rp582
(dp583
g15
I5
sg535
g536
sg537
g580
sg538
g560
sg540
(dp584
g542
F0.089648870116034507
sg543
I0
sg544
I0
ssg545
g546
sg547
(lp585
I4
aI10
asg549
(lp586
g551
ag552
ag553
ag554
ag555
asbsS'earthPressure_gravel'
p587
g0
(g531
g2
Ntp588
Rp589
(dp590
g15
I1
sg535
g536
sg537
g587
sg538
S'global'
p591
sg540
(dp592
g542
F0.013500000000000002
sg543
I0
sg544
I0
ssg545
g546
sg547
(lp593
g431
ag495
ag455
ag491
ag447
ag521
ag483
ag475
ag439
asg549
(lp594
g551
ag552
ag553
ag554
ag555
asbsS'Gleis1_BAHNLASTEN_Lasteinzugsflache_Lastblock_3'
p595
g0
(g531
g2
Ntp596
Rp597
(dp598
g15
I6
sg535
g536
sg537
g595
sg538
g560
sg540
(dp599
g542
F0.089648870116034507
sg543
I0
sg544
I0
ssg545
g546
sg547
(lp600
I5
aI11
asg549
(lp601
g551
ag552
ag553
ag554
ag555
asbsS'Gleis1_BAHNLASTEN_Lasteinzugsflache_Lastblock_1'
p602
g0
(g531
g2
Ntp603
Rp604
(dp605
g15
I4
sg535
g536
sg537
g602
sg538
g560
sg540
(dp606
g542
F0.089648870116034507
sg543
I0
sg544
I0
ssg545
g546
sg547
(lp607
I20
aI23
asg549
(lp608
g551
ag552
ag553
ag554
ag555
asbsS'load_gravity'
p609
g0
(ccompas_fea.structure.load
GravityLoad
p610
g2
Ntp611
Rp612
(dp613
g15
I0
sg535
S'GravityLoad'
p614
sg537
g609
sg538
S'global'
p615
sg540
(dp616
S'z'
p617
F1.3500000000000001
sS'y'
p618
F0.0
sS'x'
p619
F0.0
ssg545
g546
sg547
(lp620
g431
ag495
ag455
ag491
ag447
ag521
ag483
ag475
ag439
ag479
ag417
ag451
ag467
ag525
ag443
ag505
ag421
ag471
ag517
ag425
ag459
ag409
ag435
ag463
ag509
ag487
ag513
asg549
(lp621
g551
ag552
ag553
ag554
ag555
aS'g'
p622
asS'g'
p623
F-9.8100000000000005
sbsS'Gleis1_BAHNLASTEN_Lasteinzugsflache_Lastblock_-1'
p624
g0
(g531
g2
Ntp625
Rp626
(dp627
g15
I7
sg535
g536
sg537
g624
sg538
g560
sg540
(dp628
g542
F0.089648870116034507
sg543
I0
sg544
I0
ssg545
g546
sg547
(lp629
I19
aI22
aI25
asg549
(lp630
g551
ag552
ag553
ag554
ag555
asbssS'materials'
p631
(dp632
S'elset_mpc_element_mat'
p633
g0
(ccompas_fea.structure.material
MPCStiff
p634
g2
Ntp635
Rp636
(dp637
g15
I2
sS'__name__'
p638
S'MPCStiff'
p639
sS'name'
p640
g633
sS'attr_list'
p641
(lp642
S'name'
p643
aS'E'
p644
aS'v'
p645
aS'G'
p646
aS'p'
p647
aS'tension'
p648
aS'compression'
p649
asS'E'
p650
(dp651
S'E'
p652
L10000000000000L
ssS'v'
p653
(dp654
S'v'
p655
F0.29999999999999999
ssS'G'
p656
(dp657
S'G'
p658
F3846153846153.8462
ssS'p'
p659
F0.10000000000000001
sS'tension'
p660
I01
sS'compression'
p661
I01
sbsg405
g0
(ccompas_fea.structure.material
CMMUsermat
p662
g2
Ntp663
Rp664
(dp665
g15
I1
sg638
S'CMMUsermat'
p666
sg640
g405
sg641
(lp667
g643
aS'E'
p668
aS'v'
p669
aS'G'
p670
aS'p'
p671
aS'R_Rohr'
p672
aS'rho'
p673
aS'oo'
p674
aS'uu'
p675
aS'beton'
p676
aS'fcc'
p677
aS'vc'
p678
aS'ecu'
p679
aS'k_E'
p680
aS'theta_b0'
p681
aS'theta_b1'
p682
aS'k_riss'
p683
aS'Entfestigung'
p684
aS'lambdaTS'
p685
aS'srmx'
p686
aS'srmy'
p687
aS'Begrenzung'
p688
aS'KritQ'
p689
aS'winkelD'
p690
aS'k_vr'
p691
aS'fswy'
p692
aS'stahl1'
p693
aS'zm1'
p694
aS'fsy1'
p695
aS'fsu1'
p696
aS'esu1'
p697
aS'esv1'
p698
aS'Es1'
p699
aS'ka1'
p700
aS'kb1'
p701
aS'kc1'
p702
aS'as1'
p703
aS'dm1'
p704
aS'psi1'
p705
aS'stahl2'
p706
aS'zm2'
p707
aS'fsy2'
p708
aS'fsu2'
p709
aS'esu2'
p710
aS'esv2'
p711
aS'Es2'
p712
aS'ka2'
p713
aS'kb2'
p714
aS'kc2'
p715
aS'as2'
p716
aS'dm2'
p717
aS'psi2'
p718
aS'stahl3'
p719
aS'zm3'
p720
aS'fsy3'
p721
aS'fsu3'
p722
aS'esu3'
p723
aS'esv3'
p724
aS'Es3'
p725
aS'ka3'
p726
aS'kb3'
p727
aS'kc3'
p728
aS'as3'
p729
aS'dm3'
p730
aS'psi3'
p731
aS'stahl4'
p732
aS'zm4'
p733
aS'fsy4'
p734
aS'fsu4'
p735
aS'esu4'
p736
aS'esv4'
p737
aS'Es4'
p738
aS'ka4'
p739
aS'kb4'
p740
aS'kc4'
p741
aS'as4'
p742
aS'dm4'
p743
aS'psi4'
p744
asS'E'
p745
(dp746
S'E'
p747
I200000
ssS'v'
p748
(dp749
S'v'
p750
F0.10000000000000001
ssS'G'
p751
(dp752
S'G'
p753
F90909.090909090897
ssS'p'
p754
F2.5000000000000002e-06
sS'R_Rohr'
p755
(dp756
S'R_Rohr'
p757
I-1
ssS'rho'
p758
(dp759
S'rho'
p760
F2.5000000000000002e-06
ssS'oo'
p761
(dp762
S'oo'
p763
I30
ssS'uu'
p764
(dp765
S'uu'
p766
I30
ssS'beton'
p767
(dp768
S'beton'
p769
I2
ssS'fcc'
p770
(dp771
S'fcc'
p772
I46
ssS'vc'
p773
(dp774
S'vc'
p775
I0
ssS'ecu'
p776
(dp777
S'ecu'
p778
F-0.002
ssS'k_E'
p779
(dp780
S'k_E'
p781
I10000
ssS'theta_b0'
p782
(dp783
S'theta_b0'
p784
I2
ssS'theta_b1'
p785
(dp786
S'theta_b1'
p787
I1
ssS'k_riss'
p788
(dp789
S'k_riss'
p790
I0
ssS'Entfestigung'
p791
(dp792
S'Entfestigung'
p793
I0
ssS'lambdaTS'
p794
(dp795
S'lambdaTS'
p796
F0.67000000000000004
ssS'srmx'
p797
(dp798
S'srmx'
p799
I1
ssS'srmy'
p800
(dp801
S'srmy'
p802
I1
ssS'Begrenzung'
p803
(dp804
S'Begrenzung'
p805
I2
ssS'KritQ'
p806
(dp807
S'KritQ'
p808
I0
ssS'winkelD'
p809
(dp810
S'winkelD'
p811
I45
ssS'k_vr'
p812
(dp813
S'k_vr'
p814
I1
ssS'fswy'
p815
(dp816
S'fswy'
p817
I500
ssS'stahl1'
p818
(dp819
S'stahl1'
p820
I1
ssS'zm1'
p821
(dp822
S'zm1'
p823
I2
ssS'fsy1'
p824
(dp825
S'fsy1'
p826
I416
ssS'fsu1'
p827
(dp828
S'fsu1'
p829
I449
ssS'esu1'
p830
(dp831
S'esu1'
p832
F0.044999999999999998
ssS'esv1'
p833
(dp834
S'esv1'
p835
F0.02
ssS'Es1'
p836
(dp837
S'Es1'
p838
I200000
ssS'ka1'
p839
(dp840
S'ka1'
p841
I-1
ssS'kb1'
p842
(dp843
S'kb1'
p844
I-1
ssS'kc1'
p845
(dp846
S'kc1'
p847
I-1
ssS'as1'
p848
(dp849
S'as1'
p850
F2.1130306961368728
ssS'dm1'
p851
(dp852
S'dm1'
p853
F26.843676041704821
ssS'psi1'
p854
(dp855
S'psi1'
p856
I90
ssS'stahl2'
p857
(dp858
S'stahl2'
p859
I1
ssS'zm2'
p860
(dp861
S'zm2'
p862
I2
ssS'fsy2'
p863
(dp864
S'fsy2'
p865
I416
ssS'fsu2'
p866
(dp867
S'fsu2'
p868
I449
ssS'esu2'
p869
(dp870
S'esu2'
p871
F0.044999999999999998
ssS'esv2'
p872
(dp873
S'esv2'
p874
F0.02
ssS'Es2'
p875
(dp876
S'Es2'
p877
I200000
ssS'ka2'
p878
(dp879
S'ka2'
p880
I-1
ssS'kb2'
p881
(dp882
S'kb2'
p883
I-1
ssS'kc2'
p884
(dp885
S'kc2'
p886
I-1
ssS'as2'
p887
(dp888
S'as2'
p889
F0.4222642556518198
ssS'dm2'
p890
(dp891
S'dm2'
p892
F12.0
ssS'psi2'
p893
(dp894
S'psi2'
p895
I0
ssS'stahl3'
p896
(dp897
S'stahl3'
p898
I1
ssS'zm3'
p899
(dp900
S'zm3'
p901
I2
ssS'fsy3'
p902
(dp903
S'fsy3'
p904
I416
ssS'fsu3'
p905
(dp906
S'fsu3'
p907
I449
ssS'esu3'
p908
(dp909
S'esu3'
p910
F0.044999999999999998
ssS'esv3'
p911
(dp912
S'esv3'
p913
F0.02
ssS'Es3'
p914
(dp915
S'Es3'
p916
I200000
ssS'ka3'
p917
(dp918
S'ka3'
p919
I-1
ssS'kb3'
p920
(dp921
S'kb3'
p922
I-1
ssS'kc3'
p923
(dp924
S'kc3'
p925
I-1
ssS'as3'
p926
(dp927
S'as3'
p928
F0.4222642556518198
ssS'dm3'
p929
(dp930
S'dm3'
p931
F12.0
ssS'psi3'
p932
(dp933
S'psi3'
p934
I0
ssS'stahl4'
p935
(dp936
S'stahl4'
p937
I1
ssS'zm4'
p938
(dp939
S'zm4'
p940
I2
ssS'fsy4'
p941
(dp942
S'fsy4'
p943
I416
ssS'fsu4'
p944
(dp945
S'fsu4'
p946
I449
ssS'esu4'
p947
(dp948
S'esu4'
p949
F0.044999999999999998
ssS'esv4'
p950
(dp951
S'esv4'
p952
F0.02
ssS'Es4'
p953
(dp954
S'Es4'
p955
I200000
ssS'ka4'
p956
(dp957
S'ka4'
p958
I-1
ssS'kb4'
p959
(dp960
S'kb4'
p961
I-1
ssS'kc4'
p962
(dp963
S'kc4'
p964
I-1
ssS'as4'
p965
(dp966
S'as4'
p967
F0.34157007270431111
ssS'dm4'
p968
(dp969
S'dm4'
p970
F10.792672332213264
ssS'psi4'
p971
(dp972
S'psi4'
p973
I90
ssbsg429
g0
(g662
g2
Ntp974
Rp975
(dp976
g15
I0
sg638
g666
sg640
g429
sg641
(lp977
g643
ag668
ag669
ag670
ag671
ag672
ag673
ag674
ag675
ag676
ag677
ag678
ag679
ag680
ag681
ag682
ag683
ag684
ag685
ag686
ag687
ag688
ag689
ag690
ag691
ag692
ag693
ag694
ag695
ag696
ag697
ag698
ag699
ag700
ag701
ag702
ag703
ag704
ag705
ag706
ag707
ag708
ag709
ag710
ag711
ag712
ag713
ag714
ag715
ag716
ag717
ag718
ag719
ag720
ag721
ag722
ag723
ag724
ag725
ag726
ag727
ag728
ag729
ag730
ag731
ag732
ag733
ag734
ag735
ag736
ag737
ag738
ag739
ag740
ag741
ag742
ag743
ag744
asg745
(dp978
g747
I200000
ssg748
(dp979
g750
F0.10000000000000001
ssg751
(dp980
g753
F90909.090909090897
ssg754
F2.5000000000000002e-06
sg755
(dp981
g757
I-1
ssg758
(dp982
g760
F2.5000000000000002e-06
ssg761
(dp983
g763
I30
ssg764
(dp984
g766
I30
ssg767
(dp985
g769
I2
ssg770
(dp986
g772
I46
ssg773
(dp987
g775
I0
ssg776
(dp988
g778
F-0.002
ssg779
(dp989
g781
I10000
ssg782
(dp990
g784
I2
ssg785
(dp991
g787
I1
ssg788
(dp992
g790
I0
ssg791
(dp993
g793
I0
ssg794
(dp994
g796
F0.67000000000000004
ssg797
(dp995
g799
I1
ssg800
(dp996
g802
I1
ssg803
(dp997
g805
I2
ssg806
(dp998
g808
I0
ssg809
(dp999
g811
I45
ssg812
(dp1000
g814
I1
ssg815
(dp1001
g817
I500
ssg818
(dp1002
g820
I1
ssg821
(dp1003
g823
I2
ssg824
(dp1004
g826
I416
ssg827
(dp1005
g829
I449
ssg830
(dp1006
g832
F0.044999999999999998
ssg833
(dp1007
g835
F0.02
ssg836
(dp1008
g838
I200000
ssg839
(dp1009
g841
I-1
ssg842
(dp1010
g844
I-1
ssg845
(dp1011
g847
I-1
ssg848
(dp1012
g850
F0.65784202417018622
ssg851
(dp1013
g853
F16.077852964761977
ssg854
(dp1014
g856
I90
ssg857
(dp1015
g859
I1
ssg860
(dp1016
g862
I2
ssg863
(dp1017
g865
I416
ssg866
(dp1018
g868
I449
ssg869
(dp1019
g871
F0.044999999999999998
ssg872
(dp1020
g874
F0.02
ssg875
(dp1021
g877
I200000
ssg878
(dp1022
g880
I-1
ssg881
(dp1023
g883
I-1
ssg884
(dp1024
g886
I-1
ssg887
(dp1025
g889
F0.65389356315248348
ssg890
(dp1026
g892
F16.029529569136372
ssg893
(dp1027
g895
I0
ssg896
(dp1028
g898
I1
ssg899
(dp1029
g901
I2
ssg902
(dp1030
g904
I416
ssg905
(dp1031
g907
I449
ssg908
(dp1032
g910
F0.044999999999999998
ssg911
(dp1033
g913
F0.02
ssg914
(dp1034
g916
I200000
ssg917
(dp1035
g919
I-1
ssg920
(dp1036
g922
I-1
ssg923
(dp1037
g925
I-1
ssg926
(dp1038
g928
F0.36646120085052575
ssg929
(dp1039
g931
F12.0
ssg932
(dp1040
g934
I0
ssg935
(dp1041
g937
I1
ssg938
(dp1042
g940
I2
ssg941
(dp1043
g943
I416
ssg944
(dp1044
g946
I449
ssg947
(dp1045
g949
F0.044999999999999998
ssg950
(dp1046
g952
F0.02
ssg953
(dp1047
g955
I200000
ssg956
(dp1048
g958
I-1
ssg959
(dp1049
g961
I-1
ssg962
(dp1050
g964
I-1
ssg965
(dp1051
g967
F1.5790099080262818
ssg968
(dp1052
g970
F24.909193905482645
ssg971
(dp1053
g973
I90
ssbssS'misc'
p1054
(dp1055
sS'name'
p1056
S'NLFE_CFB1'
p1057
sS'nodes'
p1058
(dp1059
I0
g0
(ccompas_fea.structure.node
Node
p1060
g2
Ntp1061
Rp1062
(dp1063
S'__name__'
p1064
S'Node'
p1065
sS'key'
p1066
I0
sS'x'
p1067
F0.0
sS'y'
p1068
F0.0
sS'z'
p1069
F0.0
sS'ex'
p1070
(lp1071
I1
aI0
aI0
asS'ey'
p1072
(lp1073
I0
aI1
aI0
asS'ez'
p1074
(lp1075
I0
aI0
aI1
asS'mass'
p1076
NsbsI1
g0
(g1060
g2
Ntp1077
Rp1078
(dp1079
g1064
g1065
sg1066
I1
sg1067
F1572.8071928959514
sg1068
F0.0
sg1069
F0.0
sg1070
g1071
sg1072
g1073
sg1074
g1075
sg1076
NsbsI2
g0
(g1060
g2
Ntp1080
Rp1081
(dp1082
g1064
g1065
sg1066
I2
sg1067
F0.0
sg1068
F1580.2632066396322
sg1069
F0.0
sg1070
g1071
sg1072
g1073
sg1074
g1075
sg1076
NsbsI3
g0
(g1060
g2
Ntp1083
Rp1084
(dp1085
g1064
g1065
sg1066
I3
sg1067
F1572.8071928959514
sg1068
F1580.2632066396322
sg1069
F0.0
sg1070
g1071
sg1072
g1073
sg1074
g1075
sg1076
NsbsI4
g0
(g1060
g2
Ntp1086
Rp1087
(dp1088
g1064
g1065
sg1066
I4
sg1067
F0.0
sg1068
F3160.5264132792645
sg1069
F0.0
sg1070
g1071
sg1072
g1073
sg1074
g1075
sg1076
NsbsI5
g0
(g1060
g2
Ntp1089
Rp1090
(dp1091
g1064
g1065
sg1066
I5
sg1067
F1572.8071928959514
sg1068
F3160.5264132792645
sg1069
F0.0
sg1070
g1071
sg1072
g1073
sg1074
g1075
sg1076
NsbsI6
g0
(g1060
g2
Ntp1092
Rp1093
(dp1094
g1064
g1065
sg1066
I6
sg1067
F0.0
sg1068
F4740.7896199188972
sg1069
F0.0
sg1070
g1071
sg1072
g1073
sg1074
g1075
sg1076
NsbsI7
g0
(g1060
g2
Ntp1095
Rp1096
(dp1097
g1064
g1065
sg1066
I7
sg1067
F1572.8071928959514
sg1068
F4740.7896199188972
sg1069
F0.0
sg1070
g1071
sg1072
g1073
sg1074
g1075
sg1076
NsbsI8
g0
(g1060
g2
Ntp1098
Rp1099
(dp1100
g1064
g1065
sg1066
I8
sg1067
F0.0
sg1068
F9625.2395313504858
sg1069
F0.0
sg1070
g1071
sg1072
g1073
sg1074
g1075
sg1076
NsbsI9
g0
(g1060
g2
Ntp1101
Rp1102
(dp1103
g1064
g1065
sg1066
I9
sg1067
F1572.8071928959514
sg1068
F9625.2395313504858
sg1069
F0.0
sg1070
g1071
sg1072
g1073
sg1074
g1075
sg1076
NsbsI10
g0
(g1060
g2
Ntp1104
Rp1105
(dp1106
g1064
g1065
sg1066
I10
sg1067
F0.0
sg1068
F11205.502737990118
sg1069
F0.0
sg1070
g1071
sg1072
g1073
sg1074
g1075
sg1076
NsbsI11
g0
(g1060
g2
Ntp1107
Rp1108
(dp1109
g1064
g1065
sg1066
I11
sg1067
F1572.8071928959512
sg1068
F11205.502737990118
sg1069
F0.0
sg1070
g1071
sg1072
g1073
sg1074
g1075
sg1076
NsbsI12
g0
(g1060
g2
Ntp1110
Rp1111
(dp1112
g1064
g1065
sg1066
I12
sg1067
F0.0
sg1068
F12785.765944629751
sg1069
F0.0
sg1070
g1071
sg1072
g1073
sg1074
g1075
sg1076
NsbsI13
g0
(g1060
g2
Ntp1113
Rp1114
(dp1115
g1064
g1065
sg1066
I13
sg1067
F1572.8071928959512
sg1068
F12785.765944629751
sg1069
F0.0
sg1070
g1071
sg1072
g1073
sg1074
g1075
sg1076
NsbsI14
g0
(g1060
g2
Ntp1116
Rp1117
(dp1118
g1064
g1065
sg1066
I14
sg1067
F0.0
sg1068
F14366.029151269384
sg1069
F0.0
sg1070
g1071
sg1072
g1073
sg1074
g1075
sg1076
NsbsI15
g0
(g1060
g2
Ntp1119
Rp1120
(dp1121
g1064
g1065
sg1066
I15
sg1067
F1572.8071928959514
sg1068
F14366.029151269384
sg1069
F0.0
sg1070
g1071
sg1072
g1073
sg1074
g1075
sg1076
NsbsI16
g0
(g1060
g2
Ntp1122
Rp1123
(dp1124
g1064
g1065
sg1066
I16
sg1067
F3145.6143857919028
sg1068
F0.0
sg1069
F0.0
sg1070
g1071
sg1072
g1073
sg1074
g1075
sg1076
NsbsI17
g0
(g1060
g2
Ntp1125
Rp1126
(dp1127
g1064
g1065
sg1066
I17
sg1067
F3145.6143857919028
sg1068
F1580.2632066396322
sg1069
F0.0
sg1070
g1071
sg1072
g1073
sg1074
g1075
sg1076
NsbsI18
g0
(g1060
g2
Ntp1128
Rp1129
(dp1130
g1064
g1065
sg1066
I18
sg1067
F3145.6143857919028
sg1068
F3160.5264132792645
sg1069
F0.0
sg1070
g1071
sg1072
g1073
sg1074
g1075
sg1076
NsbsI19
g0
(g1060
g2
Ntp1131
Rp1132
(dp1133
g1064
g1065
sg1066
I19
sg1067
F3145.6143857919028
sg1068
F4740.7896199188972
sg1069
F0.0
sg1070
g1071
sg1072
g1073
sg1074
g1075
sg1076
NsbsI20
g0
(g1060
g2
Ntp1134
Rp1135
(dp1136
g1064
g1065
sg1066
I20
sg1067
F3145.6143857919028
sg1068
F9625.2395313504858
sg1069
F0.0
sg1070
g1071
sg1072
g1073
sg1074
g1075
sg1076
NsbsI21
g0
(g1060
g2
Ntp1137
Rp1138
(dp1139
g1064
g1065
sg1066
I21
sg1067
F3145.6143857919024
sg1068
F11205.502737990118
sg1069
F0.0
sg1070
g1071
sg1072
g1073
sg1074
g1075
sg1076
NsbsI22
g0
(g1060
g2
Ntp1140
Rp1141
(dp1142
g1064
g1065
sg1066
I22
sg1067
F3145.6143857919024
sg1068
F12785.765944629751
sg1069
F0.0
sg1070
g1071
sg1072
g1073
sg1074
g1075
sg1076
NsbsI23
g0
(g1060
g2
Ntp1143
Rp1144
(dp1145
g1064
g1065
sg1066
I23
sg1067
F3145.6143857919028
sg1068
F14366.029151269384
sg1069
F0.0
sg1070
g1071
sg1072
g1073
sg1074
g1075
sg1076
NsbsI24
g0
(g1060
g2
Ntp1146
Rp1147
(dp1148
g1064
g1065
sg1066
I24
sg1067
F4766.0824027150038
sg1068
F0.0
sg1069
F0.0
sg1070
g1071
sg1072
g1073
sg1074
g1075
sg1076
NsbsI25
g0
(g1060
g2
Ntp1149
Rp1150
(dp1151
g1064
g1065
sg1066
I25
sg1067
F4766.0824027150038
sg1068
F1580.2632066396322
sg1069
F0.0
sg1070
g1071
sg1072
g1073
sg1074
g1075
sg1076
NsbsI26
g0
(g1060
g2
Ntp1152
Rp1153
(dp1154
g1064
g1065
sg1066
I26
sg1067
F4766.0824027150038
sg1068
F3160.5264132792645
sg1069
F0.0
sg1070
g1071
sg1072
g1073
sg1074
g1075
sg1076
NsbsI27
g0
(g1060
g2
Ntp1155
Rp1156
(dp1157
g1064
g1065
sg1066
I27
sg1067
F4766.0824027150038
sg1068
F4740.7896199188972
sg1069
F0.0
sg1070
g1071
sg1072
g1073
sg1074
g1075
sg1076
NsbsI28
g0
(g1060
g2
Ntp1158
Rp1159
(dp1160
g1064
g1065
sg1066
I28
sg1067
F4766.0824027150038
sg1068
F9625.2395313504858
sg1069
F0.0
sg1070
g1071
sg1072
g1073
sg1074
g1075
sg1076
NsbsI29
g0
(g1060
g2
Ntp1161
Rp1162
(dp1163
g1064
g1065
sg1066
I29
sg1067
F4766.0824027150038
sg1068
F11205.502737990118
sg1069
F0.0
sg1070
g1071
sg1072
g1073
sg1074
g1075
sg1076
NsbsI30
g0
(g1060
g2
Ntp1164
Rp1165
(dp1166
g1064
g1065
sg1066
I30
sg1067
F4766.0824027150038
sg1068
F12785.765944629751
sg1069
F0.0
sg1070
g1071
sg1072
g1073
sg1074
g1075
sg1076
NsbsI31
g0
(g1060
g2
Ntp1167
Rp1168
(dp1169
g1064
g1065
sg1066
I31
sg1067
F4766.0824027150038
sg1068
F14366.029151269384
sg1069
F0.0
sg1070
g1071
sg1072
g1073
sg1074
g1075
sg1076
NsbsI32
g0
(g1060
g2
Ntp1170
Rp1171
(dp1172
g1064
g1065
sg1066
I32
sg1067
F0.0
sg1068
F6368.939590396094
sg1069
F0.0
sg1070
g1071
sg1072
g1073
sg1074
g1075
sg1076
NsbsI33
g0
(g1060
g2
Ntp1173
Rp1174
(dp1175
g1064
g1065
sg1066
I33
sg1067
F1572.8071928959514
sg1068
F6368.939590396094
sg1069
F0.0
sg1070
g1071
sg1072
g1073
sg1074
g1075
sg1076
NsbsI34
g0
(g1060
g2
Ntp1176
Rp1177
(dp1178
g1064
g1065
sg1066
I34
sg1067
F0.0
sg1068
F7997.0895608732899
sg1069
F0.0
sg1070
g1071
sg1072
g1073
sg1074
g1075
sg1076
NsbsI35
g0
(g1060
g2
Ntp1179
Rp1180
(dp1181
g1064
g1065
sg1066
I35
sg1067
F1572.8071928959512
sg1068
F7997.0895608732899
sg1069
F0.0
sg1070
g1071
sg1072
g1073
sg1074
g1075
sg1076
NsbsI36
g0
(g1060
g2
Ntp1182
Rp1183
(dp1184
g1064
g1065
sg1066
I36
sg1067
F3145.6143857919028
sg1068
F6368.939590396094
sg1069
F0.0
sg1070
g1071
sg1072
g1073
sg1074
g1075
sg1076
NsbsI37
g0
(g1060
g2
Ntp1185
Rp1186
(dp1187
g1064
g1065
sg1066
I37
sg1067
F3145.6143857919024
sg1068
F7997.0895608732899
sg1069
F0.0
sg1070
g1071
sg1072
g1073
sg1074
g1075
sg1076
NsbsI38
g0
(g1060
g2
Ntp1188
Rp1189
(dp1190
g1064
g1065
sg1066
I38
sg1067
F4766.0824027150038
sg1068
F6368.939590396094
sg1069
F0.0
sg1070
g1071
sg1072
g1073
sg1074
g1075
sg1076
NsbsI39
g0
(g1060
g2
Ntp1191
Rp1192
(dp1193
g1064
g1065
sg1066
I39
sg1067
F4766.0824027150038
sg1068
F7997.0895608732899
sg1069
F0.0
sg1070
g1071
sg1072
g1073
sg1074
g1075
sg1076
NsbsI40
g0
(g1060
g2
Ntp1194
Rp1195
(dp1196
g1064
g1065
sg1066
I40
sg1067
F0.0
sg1068
F0.0
sg1069
F-1770.9694382997741
sg1070
g1071
sg1072
g1073
sg1074
g1075
sg1076
NsbsI41
g0
(g1060
g2
Ntp1197
Rp1198
(dp1199
g1064
g1065
sg1066
I41
sg1067
F1572.80719289595
sg1068
F0.0
sg1069
F-1770.9694382997741
sg1070
g1071
sg1072
g1073
sg1074
g1075
sg1076
NsbsI42
g0
(g1060
g2
Ntp1200
Rp1201
(dp1202
g1064
g1065
sg1066
I42
sg1067
F0.0
sg1068
F0.0
sg1069
F-550.98777288495216
sg1070
g1071
sg1072
g1073
sg1074
g1075
sg1076
NsbsI43
g0
(g1060
g2
Ntp1203
Rp1204
(dp1205
g1064
g1065
sg1066
I43
sg1067
F1572.80719289595
sg1068
F0.0
sg1069
F-550.98777288495216
sg1070
g1071
sg1072
g1073
sg1074
g1075
sg1076
NsbsI44
g0
(g1060
g2
Ntp1206
Rp1207
(dp1208
g1064
S'Node'
p1209
sg1066
I44
sg1067
F3145.6143857919001
sg1068
F0.0
sg1069
F-1770.9694382997741
sg1070
g1071
sg1072
g1073
sg1074
g1075
sg1076
NsbsI45
g0
(g1060
g2
Ntp1210
Rp1211
(dp1212
g1064
g1209
sg1066
I45
sg1067
F3145.6143857919001
sg1068
F0.0
sg1069
F-550.98777288495216
sg1070
g1071
sg1072
g1073
sg1074
g1075
sg1076
NsbsI46
g0
(g1060
g2
Ntp1213
Rp1214
(dp1215
g1064
g1209
sg1066
I46
sg1067
F4766.0824027150002
sg1068
F0.0
sg1069
F-1770.9694382997741
sg1070
g1071
sg1072
g1073
sg1074
g1075
sg1076
NsbsI47
g0
(g1060
g2
Ntp1216
Rp1217
(dp1218
g1064
g1209
sg1066
I47
sg1067
F4766.0824027150002
sg1068
F0.0
sg1069
F-550.98777288495216
sg1070
g1071
sg1072
g1073
sg1074
g1075
sg1076
NsbsI48
g0
(g1060
g2
Ntp1219
Rp1220
(dp1221
g1064
g1209
sg1066
I48
sg1067
F0.0
sg1068
F0.0
sg1069
F-3027.9202450908024
sg1070
g1071
sg1072
g1073
sg1074
g1075
sg1076
NsbsI49
g0
(g1060
g2
Ntp1222
Rp1223
(dp1224
g1064
g1209
sg1066
I49
sg1067
F1572.80719289595
sg1068
F0.0
sg1069
F-3027.9202450908024
sg1070
g1071
sg1072
g1073
sg1074
g1075
sg1076
NsbsI50
g0
(g1060
g2
Ntp1225
Rp1226
(dp1227
g1064
g1209
sg1066
I50
sg1067
F3145.6143857919001
sg1068
F0.0
sg1069
F-3027.9202450908024
sg1070
g1071
sg1072
g1073
sg1074
g1075
sg1076
NsbsI51
g0
(g1060
g2
Ntp1228
Rp1229
(dp1230
g1064
g1209
sg1066
I51
sg1067
F4766.0824027150002
sg1068
F0.0
sg1069
F-3027.9202450908024
sg1070
g1071
sg1072
g1073
sg1074
g1075
sg1076
NsbsI52
g0
(g1060
g2
Ntp1231
Rp1232
(dp1233
g1064
g1209
sg1066
I52
sg1067
F0.0
sg1068
F0.0
sg1069
F-4247.9019105056241
sg1070
g1071
sg1072
g1073
sg1074
g1075
sg1076
NsbsI53
g0
(g1060
g2
Ntp1234
Rp1235
(dp1236
g1064
g1209
sg1066
I53
sg1067
F1572.80719289595
sg1068
F0.0
sg1069
F-4247.9019105056241
sg1070
g1071
sg1072
g1073
sg1074
g1075
sg1076
NsbsI54
g0
(g1060
g2
Ntp1237
Rp1238
(dp1239
g1064
g1209
sg1066
I54
sg1067
F3145.6143857919001
sg1068
F0.0
sg1069
F-4247.9019105056241
sg1070
g1071
sg1072
g1073
sg1074
g1075
sg1076
NsbsI55
g0
(g1060
g2
Ntp1240
Rp1241
(dp1242
g1064
g1209
sg1066
I55
sg1067
F4766.0824027150002
sg1068
F0.0
sg1069
F-4247.9019105056241
sg1070
g1071
sg1072
g1073
sg1074
g1075
sg1076
NsbsI56
g0
(g1060
g2
Ntp1243
Rp1244
(dp1245
g1064
g1209
sg1066
I56
sg1067
F0.0
sg1068
F14366.029151269384
sg1069
F-1770.9694382997741
sg1070
g1071
sg1072
g1073
sg1074
g1075
sg1076
NsbsI57
g0
(g1060
g2
Ntp1246
Rp1247
(dp1248
g1064
g1209
sg1066
I57
sg1067
F1572.80719289595
sg1068
F14366.029151269384
sg1069
F-1770.9694382997741
sg1070
g1071
sg1072
g1073
sg1074
g1075
sg1076
NsbsI58
g0
(g1060
g2
Ntp1249
Rp1250
(dp1251
g1064
g1209
sg1066
I58
sg1067
F0.0
sg1068
F14366.029151269384
sg1069
F-550.98777288495216
sg1070
g1071
sg1072
g1073
sg1074
g1075
sg1076
NsbsI59
g0
(g1060
g2
Ntp1252
Rp1253
(dp1254
g1064
g1209
sg1066
I59
sg1067
F1572.80719289595
sg1068
F14366.029151269384
sg1069
F-550.98777288495216
sg1070
g1071
sg1072
g1073
sg1074
g1075
sg1076
NsbsI60
g0
(g1060
g2
Ntp1255
Rp1256
(dp1257
g1064
g1209
sg1066
I60
sg1067
F3145.6143857919001
sg1068
F14366.029151269384
sg1069
F-1770.9694382997741
sg1070
g1071
sg1072
g1073
sg1074
g1075
sg1076
NsbsI61
g0
(g1060
g2
Ntp1258
Rp1259
(dp1260
g1064
g1209
sg1066
I61
sg1067
F3145.6143857919001
sg1068
F14366.029151269384
sg1069
F-550.98777288495216
sg1070
g1071
sg1072
g1073
sg1074
g1075
sg1076
NsbsI62
g0
(g1060
g2
Ntp1261
Rp1262
(dp1263
g1064
g1209
sg1066
I62
sg1067
F4766.0824027150002
sg1068
F14366.029151269384
sg1069
F-1770.9694382997741
sg1070
g1071
sg1072
g1073
sg1074
g1075
sg1076
NsbsI63
g0
(g1060
g2
Ntp1264
Rp1265
(dp1266
g1064
g1209
sg1066
I63
sg1067
F4766.0824027150002
sg1068
F14366.029151269384
sg1069
F-550.98777288495216
sg1070
g1071
sg1072
g1073
sg1074
g1075
sg1076
NsbsI64
g0
(g1060
g2
Ntp1267
Rp1268
(dp1269
g1064
g1209
sg1066
I64
sg1067
F0.0
sg1068
F14366.029151269384
sg1069
F-3027.9202450908024
sg1070
g1071
sg1072
g1073
sg1074
g1075
sg1076
NsbsI65
g0
(g1060
g2
Ntp1270
Rp1271
(dp1272
g1064
g1209
sg1066
I65
sg1067
F1572.80719289595
sg1068
F14366.029151269384
sg1069
F-3027.9202450908024
sg1070
g1071
sg1072
g1073
sg1074
g1075
sg1076
NsbsI66
g0
(g1060
g2
Ntp1273
Rp1274
(dp1275
g1064
g1209
sg1066
I66
sg1067
F3145.6143857919001
sg1068
F14366.029151269384
sg1069
F-3027.9202450908024
sg1070
g1071
sg1072
g1073
sg1074
g1075
sg1076
NsbsI67
g0
(g1060
g2
Ntp1276
Rp1277
(dp1278
g1064
g1209
sg1066
I67
sg1067
F4766.0824027150002
sg1068
F14366.029151269384
sg1069
F-3027.9202450908024
sg1070
g1071
sg1072
g1073
sg1074
g1075
sg1076
NsbsI68
g0
(g1060
g2
Ntp1279
Rp1280
(dp1281
g1064
g1209
sg1066
I68
sg1067
F0.0
sg1068
F14366.029151269384
sg1069
F-4247.9019105056241
sg1070
g1071
sg1072
g1073
sg1074
g1075
sg1076
NsbsI69
g0
(g1060
g2
Ntp1282
Rp1283
(dp1284
g1064
g1209
sg1066
I69
sg1067
F1572.80719289595
sg1068
F14366.029151269384
sg1069
F-4247.9019105056241
sg1070
g1071
sg1072
g1073
sg1074
g1075
sg1076
NsbsI70
g0
(g1060
g2
Ntp1285
Rp1286
(dp1287
g1064
g1209
sg1066
I70
sg1067
F3145.6143857919001
sg1068
F14366.029151269384
sg1069
F-4247.9019105056241
sg1070
g1071
sg1072
g1073
sg1074
g1075
sg1076
NsbsI71
g0
(g1060
g2
Ntp1288
Rp1289
(dp1290
g1064
g1209
sg1066
I71
sg1067
F4766.0824027150002
sg1068
F14366.029151269384
sg1069
F-4247.9019105056241
sg1070
g1071
sg1072
g1073
sg1074
g1075
sg1076
NsbssS'node_index'
p1291
(dp1292
S'3145.614,14366.029,-4247.902'
p1293
I70
sS'4766.082,11205.503,0.000'
p1294
I29
sS'4766.082,12785.766,0.000'
p1295
I30
sS'4766.082,0.000,-550.988'
p1296
I47
sS'3145.614,0.000,-3027.920'
p1297
I50
sS'4766.082,14366.029,-550.988'
p1298
I63
sS'3145.614,11205.503,0.000'
p1299
I21
sS'4766.082,0.000,-1770.969'
p1300
I46
sS'0.000,0.000,-3027.920'
p1301
I48
sS'0.000,14366.029,-3027.920'
p1302
I64
sS'0.000,7997.090,0.000'
p1303
I34
sS'1572.807,3160.526,0.000'
p1304
I5
sS'3145.614,14366.029,-3027.920'
p1305
I66
sS'4766.082,3160.526,0.000'
p1306
I26
sS'4766.082,7997.090,0.000'
p1307
I39
sS'3145.614,0.000,-1770.969'
p1308
I44
sS'3145.614,4740.790,0.000'
p1309
I19
sS'3145.614,14366.029,-1770.969'
p1310
I60
sS'0.000,9625.240,0.000'
p1311
I8
sS'1572.807,9625.240,0.000'
p1312
I9
sS'3145.614,9625.240,0.000'
p1313
I20
sS'1572.807,0.000,-3027.920'
p1314
I49
sS'4766.082,0.000,0.000'
p1315
I24
sS'0.000,12785.766,0.000'
p1316
I12
sS'4766.082,14366.029,0.000'
p1317
I31
sS'1572.807,0.000,-550.988'
p1318
I43
sS'1572.807,6368.940,0.000'
p1319
I33
sS'0.000,14366.029,-1770.969'
p1320
I56
sS'0.000,0.000,0.000'
p1321
I0
sS'4766.082,4740.790,0.000'
p1322
I27
sS'4766.082,14366.029,-1770.969'
p1323
I62
sS'1572.807,1580.263,0.000'
p1324
I3
sS'1572.807,14366.029,0.000'
p1325
I15
sS'3145.614,14366.029,0.000'
p1326
I23
sS'4766.082,1580.263,0.000'
p1327
I25
sS'3145.614,7997.090,0.000'
p1328
I37
sS'3145.614,0.000,-550.988'
p1329
I45
sS'1572.807,7997.090,0.000'
p1330
I35
sS'1572.807,14366.029,-4247.902'
p1331
I69
sS'3145.614,1580.263,0.000'
p1332
I17
sS'4766.082,9625.240,0.000'
p1333
I28
sS'4766.082,14366.029,-3027.920'
p1334
I67
sS'0.000,3160.526,0.000'
p1335
I4
sS'0.000,11205.503,0.000'
p1336
I10
sS'0.000,1580.263,0.000'
p1337
I2
sS'4766.082,0.000,-3027.920'
p1338
I51
sS'1572.807,0.000,-1770.969'
p1339
I41
sS'4766.082,0.000,-4247.902'
p1340
I55
sS'0.000,14366.029,-4247.902'
p1341
I68
sS'0.000,0.000,-4247.902'
p1342
I52
sS'4766.082,14366.029,-4247.902'
p1343
I71
sS'3145.614,14366.029,-550.988'
p1344
I61
sS'1572.807,12785.766,0.000'
p1345
I13
sS'3145.614,6368.940,0.000'
p1346
I36
sS'1572.807,11205.503,0.000'
p1347
I11
sS'3145.614,12785.766,0.000'
p1348
I22
sS'1572.807,14366.029,-550.988'
p1349
I59
sS'0.000,0.000,-1770.969'
p1350
I40
sS'1572.807,14366.029,-1770.969'
p1351
I57
sS'0.000,14366.029,-550.988'
p1352
I58
sS'1572.807,0.000,0.000'
p1353
I1
sS'0.000,6368.940,0.000'
p1354
I32
sS'4766.082,6368.940,0.000'
p1355
I38
sS'0.000,0.000,-550.988'
p1356
I42
sS'1572.807,0.000,-4247.902'
p1357
I53
sS'3145.614,0.000,0.000'
p1358
I16
sS'3145.614,0.000,-4247.902'
p1359
I54
sS'1572.807,14366.029,-3027.920'
p1360
I65
sS'0.000,4740.790,0.000'
p1361
I6
sS'0.000,14366.029,0.000'
p1362
I14
sS'3145.614,3160.526,0.000'
p1363
I18
sS'1572.807,4740.790,0.000'
p1364
I7
ssS'path'
p1365
S'C:\\Temp\\'
p1366
sS'results'
p1367
(dp1368
S'step_2'
p1369
S'ERROR'
p1370
sS'step_3'
p1371
g1370
sS'step_4'
p1372
g1370
sS'step_1'
p1373
g1370
ssS'sections'
p1374
(dp1375
g416
g0
(ccompas_fea.structure.section
ShellSection
p1376
g2
Ntp1377
Rp1378
(dp1379
g15
I1
sS'__name__'
p1380
S'ShellSection'
p1381
sS'name'
p1382
g416
sS'geometry'
p1383
(dp1384
S't'
p1385
F1162.7160668930487
ssS'loc_coords_OR'
p1386
(dp1387
S'ORxyz'
p1388
(lp1389
I0
aI0
aF-3696.91413762
assS'loc_coords_XA'
p1390
(dp1391
S'XAxyz'
p1392
(lp1393
I1
aI0
aF-3696.91413762
assS'loc_coords_YA'
p1394
(dp1395
S'YAxyz'
p1396
(lp1397
F3696.91413762
aF-3696.91413762
aF-3695.91413762
assS'loc_coords_EV_XA'
p1398
(dp1399
S'EV_XA'
p1400
(lp1401
F1.0
aF0.0
aF0.0
assS'loc_coords_EV_YA'
p1402
(dp1403
S'EV_YA'
p1404
(lp1405
F0.70710676825214802
aF-0.70710676825214802
aF0.00019126945931921733
assS'loc_coords_EV_ZA'
p1406
(dp1407
S'EV_ZA'
p1408
(lp1409
F0.0
aF-1.0
aF0.0
assS'nr_layers'
p1410
(dp1411
S'nn'
p1412
F52.0
ssS'offset'
p1413
(dp1414
S'mode'
p1415
S'mid'
p1416
ssbsg430
g0
(g1376
g2
Ntp1417
Rp1418
(dp1419
g15
I0
sg1380
g1381
sg1382
g430
sg1383
(dp1420
g1385
F550.98777288495216
ssg1386
(dp1421
g1388
(lp1422
I0
aI0
aI0
assg1390
(dp1423
g1392
(lp1424
I1
aI0
aI0
assg1394
(dp1425
g1396
(lp1426
F0.0
aF1.0
aF0.0
assg1398
(dp1427
g1400
(lp1428
F1.0
aF0.0
aF0.0
assg1402
(dp1429
g1404
(lp1430
F0.0
aF1.0
aF0.0
assg1406
(dp1431
g1408
(lp1432
F0.0
aF0.0
aF1.0
assg1410
(dp1433
g1412
F46.0
ssg1413
(dp1434
g1415
S'top'
p1435
ssbsg407
g0
(g1376
g2
Ntp1436
Rp1437
(dp1438
g15
I2
sg1380
g1381
sg1382
g407
sg1383
(dp1439
g1385
F1162.7160668930487
ssg1386
(dp1440
g1388
(lp1441
I0
aF14366.029151299999
aF-3696.91413762
assg1390
(dp1442
g1392
(lp1443
I1
aF14366.029151299999
aF-3696.91413762
assg1394
(dp1444
g1396
(lp1445
F-3696.9141376242042
aF10669.115013679999
aF-18063.94328892
assg1398
(dp1446
g1400
(lp1447
F1.0
aF0.0
aF0.0
assg1402
(dp1448
g1404
(lp1449
F-0.24180617451675726
aF-0.24180617451648231
aF-0.93971248152361786
assg1406
(dp1450
g1408
(lp1451
F0.0
aF1.0
aF0.0
assg1410
(dp1452
g1412
F52.0
ssg1413
(dp1453
g1415
S'mid'
p1454
ssbsS'sec_mpc'
p1455
g0
(ccompas_fea.structure.section
MPCSection
p1456
g2
Ntp1457
Rp1458
(dp1459
g15
I3
sg1380
S'MPCSection'
p1460
sg1382
g1455
sg1383
NsS'nr_layers'
p1461
NsbssS'sets'
p1462
(dp1463
g525
g0
(ccompas_fea.structure.set
Set
p1464
g2
Ntp1465
Rp1466
(dp1467
S'__name__'
p1468
S'Set'
p1469
sS'name'
p1470
g525
sS'type'
p1471
S'element'
p1472
sS'selection'
p1473
(lp1474
I31
asS'index'
p1475
I13
sbsS'elset_mpcs'
p1476
g0
(g1464
g2
Ntp1477
Rp1478
(dp1479
g1468
g1469
sg1470
g1476
sg1471
g1472
sg1473
(lp1480
I48
aI49
aI50
aI51
aI52
aI45
aI46
aI47
asg1475
I27
sbsg409
g0
(g1464
g2
Ntp1481
Rp1482
(dp1483
g1468
g1469
sg1470
g409
sg1471
g1472
sg1473
(lp1484
I39
asg1475
I21
sbsg455
g0
(g1464
g2
Ntp1485
Rp1486
(dp1487
g1468
g1469
sg1470
g455
sg1471
g1472
sg1473
(lp1488
I8
aI6
aI7
asg1475
I2
sbsg421
g0
(g1464
g2
Ntp1489
Rp1490
(dp1491
g1468
g1469
sg1470
g421
sg1471
g1472
sg1473
(lp1492
I34
asg1475
I16
sbsg517
g0
(g1464
g2
Ntp1493
Rp1494
(dp1495
g1468
g1469
sg1470
g517
sg1471
g1472
sg1473
(lp1496
I36
asg1475
I18
sbsg495
g0
(g1464
g2
Ntp1497
Rp1498
(dp1499
g1468
g1469
sg1470
g495
sg1471
g1472
sg1473
(lp1500
I3
aI4
aI5
asg1475
I1
sbsg431
g0
(g1464
g2
Ntp1501
Rp1502
(dp1503
g1468
g1469
sg1470
g431
sg1471
g1472
sg1473
(lp1504
I0
aI1
aI2
asg1475
I0
sbsg483
g0
(g1464
g2
Ntp1505
Rp1506
(dp1507
g1468
g1469
sg1470
g483
sg1471
g1472
sg1473
(lp1508
I18
aI19
aI20
asg1475
I6
sbsg521
g0
(g1464
g2
Ntp1509
Rp1510
(dp1511
g1468
g1469
sg1470
g521
sg1471
g1472
sg1473
(lp1512
I16
aI17
aI15
asg1475
I5
sbsg447
g0
(g1464
g2
Ntp1513
Rp1514
(dp1515
g1468
g1469
sg1470
g447
sg1471
g1472
sg1473
(lp1516
I12
aI13
aI14
asg1475
I4
sbsg491
g0
(g1464
g2
Ntp1517
Rp1518
(dp1519
g1468
g1469
sg1470
g491
sg1471
g1472
sg1473
(lp1520
I9
aI10
aI11
asg1475
I3
sbsg439
g0
(g1464
g2
Ntp1521
Rp1522
(dp1523
g1468
g1469
sg1470
g439
sg1471
g1472
sg1473
(lp1524
I24
aI25
aI26
asg1475
I8
sbsg475
g0
(g1464
g2
Ntp1525
Rp1526
(dp1527
g1468
g1469
sg1470
g475
sg1471
g1472
sg1473
(lp1528
I21
aI22
aI23
asg1475
I7
sbsg451
g0
(g1464
g2
Ntp1529
Rp1530
(dp1531
g1468
g1469
sg1470
g451
sg1471
g1472
sg1473
(lp1532
I29
asg1475
I11
sbsg513
g0
(g1464
g2
Ntp1533
Rp1534
(dp1535
g1468
g1469
sg1470
g513
sg1471
g1472
sg1473
(lp1536
I44
asg1475
I26
sbsg463
g0
(g1464
g2
Ntp1537
Rp1538
(dp1539
g1468
g1469
sg1470
g463
sg1471
g1472
sg1473
(lp1540
I41
asg1475
I23
sbsg443
g0
(g1464
g2
Ntp1541
Rp1542
(dp1543
g1468
g1469
sg1470
g443
sg1471
g1472
sg1473
(lp1544
I32
asg1475
I14
sbsg459
g0
(g1464
g2
Ntp1545
Rp1546
(dp1547
g1468
g1469
sg1470
g459
sg1471
g1472
sg1473
(lp1548
I38
asg1475
I20
sbsg479
g0
(g1464
g2
Ntp1549
Rp1550
(dp1551
g1468
g1469
sg1470
g479
sg1471
g1472
sg1473
(lp1552
I27
asg1475
I9
sbsg471
g0
(g1464
g2
Ntp1553
Rp1554
(dp1555
g1468
g1469
sg1470
g471
sg1471
g1472
sg1473
(lp1556
I35
asg1475
I17
sbsS'nset_support_wall2'
p1557
g0
(g1464
g2
Ntp1558
Rp1559
(dp1560
g1468
g1469
sg1470
g1557
sg1471
S'node'
p1561
sg1473
(lp1562
I71
aI70
aI69
aI68
asg1475
I29
sbsg467
g0
(g1464
g2
Ntp1563
Rp1564
(dp1565
g1468
g1469
sg1470
g467
sg1471
g1472
sg1473
(lp1566
I30
asg1475
I12
sbsg487
g0
(g1464
g2
Ntp1567
Rp1568
(dp1569
g1468
g1469
sg1470
g487
sg1471
g1472
sg1473
(lp1570
I43
asg1475
I25
sbsg435
g0
(g1464
g2
Ntp1571
Rp1572
(dp1573
g1468
g1469
sg1470
g435
sg1471
g1472
sg1473
(lp1574
I40
asg1475
I22
sbsS'nset_support_wall1'
p1575
g0
(g1464
g2
Ntp1576
Rp1577
(dp1578
g1468
g1469
sg1470
g1575
sg1471
g1561
sg1473
(lp1579
I55
aI54
aI53
aI52
asg1475
I28
sbsg505
g0
(g1464
g2
Ntp1580
Rp1581
(dp1582
g1468
g1469
sg1470
g505
sg1471
g1472
sg1473
(lp1583
I33
asg1475
I15
sbsg425
g0
(g1464
g2
Ntp1584
Rp1585
(dp1586
g1468
g1469
sg1470
g425
sg1471
g1472
sg1473
(lp1587
I37
asg1475
I19
sbsg417
g0
(g1464
g2
Ntp1588
Rp1589
(dp1590
g1468
g1469
sg1470
g417
sg1471
g1472
sg1473
(lp1591
I28
asg1475
I10
sbsg509
g0
(g1464
g2
Ntp1592
Rp1593
(dp1594
g1468
g1469
sg1470
g509
sg1471
g1472
sg1473
(lp1595
I42
asg1475
I24
sbssS'steps'
p1596
(dp1597
g1369
g0
(ccompas_fea.structure.step
GeneralStep
p1598
g2
Ntp1599
Rp1600
(dp1601
g15
I1
sS'__name__'
p1602
S'GeneralStep'
p1603
sS'name'
p1604
g1369
sS'attr_list'
p1605
(lp1606
S'name'
p1607
aS'increments'
p1608
aS'iterations'
p1609
aS'factor'
p1610
aS'nlgeom'
p1611
aS'nlmat'
p1612
aS'displacements'
p1613
aS'loads'
p1614
aS'type'
p1615
aS'tolerance'
p1616
aS'modify'
p1617
asS'increments'
p1618
I1
sS'iterations'
p1619
I100
sS'tolerance'
p1620
F0.01
sS'factor'
p1621
F1.0
sS'nlgeom'
p1622
I00
sS'nlmat'
p1623
I01
sS'displacements'
p1624
(lp1625
sS'loads'
p1626
(lp1627
S'load_gravity'
p1628
asS'modify'
p1629
I01
sS'type'
p1630
S'static'
p1631
sbsg1371
g0
(g1598
g2
Ntp1632
Rp1633
(dp1634
g15
I2
sg1602
g1603
sg1604
g1371
sg1605
(lp1635
g1607
ag1608
ag1609
ag1610
ag1611
ag1612
ag1613
ag1614
ag1615
ag1616
ag1617
asg1618
I1
sg1619
I100
sg1620
F0.01
sg1621
F1.0
sg1622
I00
sg1623
I01
sg1624
(lp1636
sg1626
(lp1637
S'earthPressure_gravel'
p1638
aS'earthPressure_backfill'
p1639
ag564
asg1629
I01
sg1630
g1631
sbsg1372
g0
(g1598
g2
Ntp1640
Rp1641
(dp1642
g15
I3
sg1602
g1603
sg1604
g1372
sg1605
(lp1643
g1607
ag1608
ag1609
ag1610
ag1611
ag1612
ag1613
ag1614
ag1615
ag1616
ag1617
asg1618
I1
sg1619
I100
sg1620
F0.01
sg1621
F1.0
sg1622
I00
sg1623
I01
sg1624
(lp1644
sg1626
(lp1645
g602
ag580
ag595
ag624
ag556
ag530
asg1629
I01
sg1630
g1631
sbsg1373
g0
(g1598
g2
Ntp1646
Rp1647
(dp1648
g15
I0
sg1602
g1603
sg1604
g1373
sg1605
(lp1649
g1607
ag1608
ag1609
ag1610
ag1611
ag1612
ag1613
ag1614
ag1615
ag1616
ag1617
asg1618
I1
sg1619
I100
sg1620
F0.01
sg1621
F1.0
sg1622
I00
sg1623
I01
sg1624
(lp1650
S'nset_pinned_set_disp_1'
p1651
aS'nset_pinned_set_disp_2'
p1652
asg1626
(lp1653
sg1629
I01
sg1630
g1631
sbssS'loc_coor'
p1654
(dp1655
sS'steps_order'
p1656
(lp1657
S'step_1'
p1658
aS'step_2'
p1659
aS'step_3'
p1660
aS'step_4'
p1661
asS'tol'
p1662
S'3'
p1663
sS'virtual_nodes'
p1664
(dp1665
sS'virtual_node_index'
p1666
(dp1667
sS'virtual_elements'
p1668
(dp1669
sS'virtual_element_index'
p1670
(dp1671
sb.