ccopy_reg
_reconstructor
p0
(ccompas_fea.structure.structure
Structure
p1
c__builtin__
object
p2
Ntp3
Rp4
(dp5
S'constraints'
p6
(dp7
sS'displacements'
p8
(dp9
S'nset_pinned_set_disp_1'
p10
g0
(ccompas_fea.structure.displacement
GeneralDisplacement
p11
g2
Ntp12
Rp13
(dp14
S'index'
p15
I0
sS'__name__'
p16
S'GeneralDisplacement'
p17
sS'name'
p18
g10
sS'nodes'
p19
S'nset_support_wall1'
p20
sS'components'
p21
(dp22
S'z'
p23
I0
sS'xx'
p24
I0
sS'zz'
p25
I0
sS'yy'
p26
I0
sS'y'
p27
I0
sS'x'
p28
I0
ssS'axes'
p29
S'global'
p30
sbsS'nset_pinned_set_disp_2'
p31
g0
(g11
g2
Ntp32
Rp33
(dp34
g15
I1
sg16
g17
sg18
g31
sg19
S'nset_support_wall2'
p35
sg21
(dp36
g23
I0
sg24
I0
sg25
I0
sg26
I0
sg27
I0
sg28
I0
ssg29
g30
sbssS'elements'
p37
(dp38
I0
g0
(ccompas_fea.structure.element
ShellElement
p39
g2
Ntp40
Rp41
(dp42
S'mass'
p43
NsS'__name__'
p44
S'ShellElement'
p45
sS'nodes'
p46
(lp47
I0
aI1
aI5
aI4
asS'number'
p48
I0
sS'thermal'
p49
I00
sS'axes'
p50
(dp51
S'ey'
p52
NsS'ez'
p53
NsS'ex'
p54
NssS'element_property'
p55
S'elset_plate_1_element_prop'
p56
sbsI1
g0
(g39
g2
Ntp57
Rp58
(dp59
g43
Nsg44
g45
sg46
(lp60
I1
aI2
aI6
aI5
asg48
I1
sg49
I00
sg50
g51
sg55
g56
sbsI2
g0
(g39
g2
Ntp61
Rp62
(dp63
g43
Nsg44
g45
sg46
(lp64
I2
aI3
aI7
aI6
asg48
I2
sg49
I00
sg50
g51
sg55
g56
sbsI3
g0
(g39
g2
Ntp65
Rp66
(dp67
g43
Nsg44
g45
sg46
(lp68
I4
aI5
aI9
aI8
asg48
I3
sg49
I00
sg50
g51
sg55
g56
sbsI4
g0
(g39
g2
Ntp69
Rp70
(dp71
g43
Nsg44
g45
sg46
(lp72
I5
aI6
aI10
aI9
asg48
I4
sg49
I00
sg50
g51
sg55
g56
sbsI5
g0
(g39
g2
Ntp73
Rp74
(dp75
g43
Nsg44
g45
sg46
(lp76
I6
aI7
aI11
aI10
asg48
I5
sg49
I00
sg50
g51
sg55
g56
sbsI6
g0
(g39
g2
Ntp77
Rp78
(dp79
g43
Nsg44
g45
sg46
(lp80
I8
aI9
aI13
aI12
asg48
I6
sg49
I00
sg50
g51
sg55
g56
sbsI7
g0
(g39
g2
Ntp81
Rp82
(dp83
g43
Nsg44
g45
sg46
(lp84
I9
aI10
aI14
aI13
asg48
I7
sg49
I00
sg50
g51
sg55
g56
sbsI8
g0
(g39
g2
Ntp85
Rp86
(dp87
g43
Nsg44
g45
sg46
(lp88
I10
aI11
aI15
aI14
asg48
I8
sg49
I00
sg50
g51
sg55
g56
sbsI9
g0
(g39
g2
Ntp89
Rp90
(dp91
g43
Nsg44
g45
sg46
(lp92
I12
aI13
aI17
aI16
asg48
I9
sg49
I00
sg50
g51
sg55
g56
sbsI10
g0
(g39
g2
Ntp93
Rp94
(dp95
g43
Nsg44
g45
sg46
(lp96
I13
aI14
aI18
aI17
asg48
I10
sg49
I00
sg50
g51
sg55
g56
sbsI11
g0
(g39
g2
Ntp97
Rp98
(dp99
g43
Nsg44
g45
sg46
(lp100
I14
aI15
aI19
aI18
asg48
I11
sg49
I00
sg50
g51
sg55
g56
sbsI12
g0
(g39
g2
Ntp101
Rp102
(dp103
g43
Nsg44
g45
sg46
(lp104
I20
aI21
aI25
aI24
asg48
I12
sg49
I00
sg50
(dp105
g52
Nsg53
Nsg54
Nssg55
S'elset_plate_2_element_prop'
p106
sbsI13
g0
(g39
g2
Ntp107
Rp108
(dp109
g43
Nsg44
g45
sg46
(lp110
I21
aI22
aI26
aI25
asg48
I13
sg49
I00
sg50
g105
sg55
g106
sbsI14
g0
(g39
g2
Ntp111
Rp112
(dp113
g43
Nsg44
g45
sg46
(lp114
I22
aI23
aI27
aI26
asg48
I14
sg49
I00
sg50
g105
sg55
g106
sbsI15
g0
(g39
g2
Ntp115
Rp116
(dp117
g43
Nsg44
g45
sg46
(lp118
I24
aI25
aI29
aI28
asg48
I15
sg49
I00
sg50
g105
sg55
g106
sbsI16
g0
(g39
g2
Ntp119
Rp120
(dp121
g43
Nsg44
g45
sg46
(lp122
I25
aI26
aI30
aI29
asg48
I16
sg49
I00
sg50
g105
sg55
g106
sbsI17
g0
(g39
g2
Ntp123
Rp124
(dp125
g43
Nsg44
g45
sg46
(lp126
I26
aI27
aI31
aI30
asg48
I17
sg49
I00
sg50
g105
sg55
g106
sbsI18
g0
(g39
g2
Ntp127
Rp128
(dp129
g43
Nsg44
g45
sg46
(lp130
I28
aI29
aI33
aI32
asg48
I18
sg49
I00
sg50
g105
sg55
g106
sbsI19
g0
(g39
g2
Ntp131
Rp132
(dp133
g43
Nsg44
g45
sg46
(lp134
I29
aI30
aI34
aI33
asg48
I19
sg49
I00
sg50
g105
sg55
g106
sbsI20
g0
(g39
g2
Ntp135
Rp136
(dp137
g43
Nsg44
g45
sg46
(lp138
I30
aI31
aI35
aI34
asg48
I20
sg49
I00
sg50
g105
sg55
g106
sbsI21
g0
(g39
g2
Ntp139
Rp140
(dp141
g43
Nsg44
g45
sg46
(lp142
I32
aI33
aI37
aI36
asg48
I21
sg49
I00
sg50
g105
sg55
g106
sbsI22
g0
(g39
g2
Ntp143
Rp144
(dp145
g43
Nsg44
g45
sg46
(lp146
I33
aI34
aI38
aI37
asg48
I22
sg49
I00
sg50
g105
sg55
g106
sbsI23
g0
(g39
g2
Ntp147
Rp148
(dp149
g43
Nsg44
g45
sg46
(lp150
I34
aI35
aI39
aI38
asg48
I23
sg49
I00
sg50
g105
sg55
g106
sbsI24
g0
(g39
g2
Ntp151
Rp152
(dp153
g43
Nsg44
g45
sg46
(lp154
I3
aI40
aI43
aI7
asg48
I24
sg49
I00
sg50
(dp155
g52
Nsg53
Nsg54
Nssg55
S'elset_plate_3_element_prop'
p156
sbsI25
g0
(g39
g2
Ntp157
Rp158
(dp159
g43
Nsg44
g45
sg46
(lp160
I40
aI41
aI44
aI43
asg48
I25
sg49
I00
sg50
g155
sg55
g156
sbsI26
g0
(g39
g2
Ntp161
Rp162
(dp163
g43
Nsg44
g45
sg46
(lp164
I41
aI42
aI45
aI44
asg48
I26
sg49
I00
sg50
g155
sg55
g156
sbsI27
g0
(g39
g2
Ntp165
Rp166
(dp167
g43
Nsg44
g45
sg46
(lp168
I7
aI43
aI46
aI11
asg48
I27
sg49
I00
sg50
g155
sg55
g156
sbsI28
g0
(g39
g2
Ntp169
Rp170
(dp171
g43
Nsg44
g45
sg46
(lp172
I43
aI44
aI47
aI46
asg48
I28
sg49
I00
sg50
g155
sg55
g156
sbsI29
g0
(g39
g2
Ntp173
Rp174
(dp175
g43
Nsg44
g45
sg46
(lp176
I44
aI45
aI48
aI47
asg48
I29
sg49
I00
sg50
g155
sg55
g156
sbsI30
g0
(g39
g2
Ntp177
Rp178
(dp179
g43
Nsg44
g45
sg46
(lp180
I11
aI46
aI49
aI15
asg48
I30
sg49
I00
sg50
g155
sg55
g156
sbsI31
g0
(g39
g2
Ntp181
Rp182
(dp183
g43
Nsg44
g45
sg46
(lp184
I46
aI47
aI50
aI49
asg48
I31
sg49
I00
sg50
g155
sg55
g156
sbsI32
g0
(g39
g2
Ntp185
Rp186
(dp187
g43
Nsg44
g45
sg46
(lp188
I47
aI48
aI51
aI50
asg48
I32
sg49
I00
sg50
g155
sg55
g156
sbsI33
g0
(g39
g2
Ntp189
Rp190
(dp191
g43
Nsg44
g45
sg46
(lp192
I15
aI49
aI52
aI19
asg48
I33
sg49
I00
sg50
g155
sg55
g156
sbsI34
g0
(g39
g2
Ntp193
Rp194
(dp195
g43
Nsg44
g45
sg46
(lp196
I49
aI50
aI53
aI52
asg48
I34
sg49
I00
sg50
g155
sg55
g156
sbsI35
g0
(g39
g2
Ntp197
Rp198
(dp199
g43
Nsg44
g45
sg46
(lp200
I50
aI51
aI54
aI53
asg48
I35
sg49
I00
sg50
g155
sg55
g156
sbsI36
g0
(g39
g2
Ntp201
Rp202
(dp203
g43
Nsg44
g45
sg46
(lp204
I23
aI55
aI58
aI27
asg48
I36
sg49
I00
sg50
(dp205
g52
Nsg53
Nsg54
Nssg55
S'elset_plate_4_element_prop'
p206
sbsI37
g0
(g39
g2
Ntp207
Rp208
(dp209
g43
Nsg44
g45
sg46
(lp210
I55
aI56
aI59
aI58
asg48
I37
sg49
I00
sg50
g205
sg55
g206
sbsI38
g0
(g39
g2
Ntp211
Rp212
(dp213
g43
Nsg44
g45
sg46
(lp214
I56
aI57
aI60
aI59
asg48
I38
sg49
I00
sg50
g205
sg55
g206
sbsI39
g0
(g39
g2
Ntp215
Rp216
(dp217
g43
Nsg44
g45
sg46
(lp218
I27
aI58
aI61
aI31
asg48
I39
sg49
I00
sg50
g205
sg55
g206
sbsI40
g0
(g39
g2
Ntp219
Rp220
(dp221
g43
Nsg44
g45
sg46
(lp222
I58
aI59
aI62
aI61
asg48
I40
sg49
I00
sg50
g205
sg55
g206
sbsI41
g0
(g39
g2
Ntp223
Rp224
(dp225
g43
Nsg44
g45
sg46
(lp226
I59
aI60
aI63
aI62
asg48
I41
sg49
I00
sg50
g205
sg55
g206
sbsI42
g0
(g39
g2
Ntp227
Rp228
(dp229
g43
Nsg44
g45
sg46
(lp230
I31
aI61
aI64
aI35
asg48
I42
sg49
I00
sg50
g205
sg55
g206
sbsI43
g0
(g39
g2
Ntp231
Rp232
(dp233
g43
Nsg44
g45
sg46
(lp234
I61
aI62
aI65
aI64
asg48
I43
sg49
I00
sg50
g205
sg55
g206
sbsI44
g0
(g39
g2
Ntp235
Rp236
(dp237
g43
Nsg44
g45
sg46
(lp238
I62
aI63
aI66
aI65
asg48
I44
sg49
I00
sg50
g205
sg55
g206
sbsI45
g0
(g39
g2
Ntp239
Rp240
(dp241
g43
Nsg44
g45
sg46
(lp242
I35
aI64
aI67
aI39
asg48
I45
sg49
I00
sg50
g205
sg55
g206
sbsI46
g0
(g39
g2
Ntp243
Rp244
(dp245
g43
Nsg44
g45
sg46
(lp246
I64
aI65
aI68
aI67
asg48
I46
sg49
I00
sg50
g205
sg55
g206
sbsI47
g0
(g39
g2
Ntp247
Rp248
(dp249
g43
Nsg44
g45
sg46
(lp250
I65
aI66
aI69
aI68
asg48
I47
sg49
I00
sg50
g205
sg55
g206
sbsI48
g0
(g39
g2
Ntp251
Rp252
(dp253
g43
Nsg44
g45
sg46
(lp254
I42
aI70
aI73
aI45
asg48
I48
sg49
I00
sg50
(dp255
g52
Nsg53
Nsg54
Nssg55
S'elset_plate_5_element_prop'
p256
sbsI49
g0
(g39
g2
Ntp257
Rp258
(dp259
g43
Nsg44
g45
sg46
(lp260
I70
aI71
aI74
aI73
asg48
I49
sg49
I00
sg50
g255
sg55
g256
sbsI50
g0
(g39
g2
Ntp261
Rp262
(dp263
g43
Nsg44
g45
sg46
(lp264
I71
aI72
aI75
aI74
asg48
I50
sg49
I00
sg50
g255
sg55
g256
sbsI51
g0
(g39
g2
Ntp265
Rp266
(dp267
g43
Nsg44
g45
sg46
(lp268
I45
aI73
aI76
aI48
asg48
I51
sg49
I00
sg50
g255
sg55
g256
sbsI52
g0
(g39
g2
Ntp269
Rp270
(dp271
g43
Nsg44
g45
sg46
(lp272
I73
aI74
aI77
aI76
asg48
I52
sg49
I00
sg50
g255
sg55
g256
sbsI53
g0
(g39
g2
Ntp273
Rp274
(dp275
g43
Nsg44
g45
sg46
(lp276
I74
aI75
aI78
aI77
asg48
I53
sg49
I00
sg50
g255
sg55
g256
sbsI54
g0
(g39
g2
Ntp277
Rp278
(dp279
g43
Nsg44
g45
sg46
(lp280
I48
aI76
aI79
aI51
asg48
I54
sg49
I00
sg50
g255
sg55
g256
sbsI55
g0
(g39
g2
Ntp281
Rp282
(dp283
g43
Nsg44
g45
sg46
(lp284
I76
aI77
aI80
aI79
asg48
I55
sg49
I00
sg50
g255
sg55
g256
sbsI56
g0
(g39
g2
Ntp285
Rp286
(dp287
g43
Nsg44
g45
sg46
(lp288
I77
aI78
aI81
aI80
asg48
I56
sg49
I00
sg50
g255
sg55
g256
sbsI57
g0
(g39
g2
Ntp289
Rp290
(dp291
g43
Nsg44
g45
sg46
(lp292
I51
aI79
aI82
aI54
asg48
I57
sg49
I00
sg50
g255
sg55
g256
sbsI58
g0
(g39
g2
Ntp293
Rp294
(dp295
g43
Nsg44
g45
sg46
(lp296
I79
aI80
aI83
aI82
asg48
I58
sg49
I00
sg50
g255
sg55
g256
sbsI59
g0
(g39
g2
Ntp297
Rp298
(dp299
g43
Nsg44
g45
sg46
(lp300
I80
aI81
aI84
aI83
asg48
I59
sg49
I00
sg50
g255
sg55
g256
sbsI60
g0
(g39
g2
Ntp301
Rp302
(dp303
g43
Nsg44
g45
sg46
(lp304
I57
aI85
aI88
aI60
asg48
I60
sg49
I00
sg50
(dp305
g52
Nsg53
Nsg54
Nssg55
S'elset_plate_6_element_prop'
p306
sbsI61
g0
(g39
g2
Ntp307
Rp308
(dp309
g43
Nsg44
g45
sg46
(lp310
I85
aI86
aI89
aI88
asg48
I61
sg49
I00
sg50
g305
sg55
g306
sbsI62
g0
(g39
g2
Ntp311
Rp312
(dp313
g43
Nsg44
g45
sg46
(lp314
I86
aI87
aI90
aI89
asg48
I62
sg49
I00
sg50
g305
sg55
g306
sbsI63
g0
(g39
g2
Ntp315
Rp316
(dp317
g43
Nsg44
g45
sg46
(lp318
I60
aI88
aI91
aI63
asg48
I63
sg49
I00
sg50
g305
sg55
g306
sbsI64
g0
(g39
g2
Ntp319
Rp320
(dp321
g43
Nsg44
g45
sg46
(lp322
I88
aI89
aI92
aI91
asg48
I64
sg49
I00
sg50
g305
sg55
g306
sbsI65
g0
(g39
g2
Ntp323
Rp324
(dp325
g43
Nsg44
g45
sg46
(lp326
I89
aI90
aI93
aI92
asg48
I65
sg49
I00
sg50
g305
sg55
g306
sbsI66
g0
(g39
g2
Ntp327
Rp328
(dp329
g43
Nsg44
g45
sg46
(lp330
I63
aI91
aI94
aI66
asg48
I66
sg49
I00
sg50
g305
sg55
g306
sbsI67
g0
(g39
g2
Ntp331
Rp332
(dp333
g43
Nsg44
g45
sg46
(lp334
I91
aI92
aI95
aI94
asg48
I67
sg49
I00
sg50
g305
sg55
g306
sbsI68
g0
(g39
g2
Ntp335
Rp336
(dp337
g43
Nsg44
g45
sg46
(lp338
I92
aI93
aI96
aI95
asg48
I68
sg49
I00
sg50
g305
sg55
g306
sbsI69
g0
(g39
g2
Ntp339
Rp340
(dp341
g43
Nsg44
g45
sg46
(lp342
I66
aI94
aI97
aI69
asg48
I69
sg49
I00
sg50
g305
sg55
g306
sbsI70
g0
(g39
g2
Ntp343
Rp344
(dp345
g43
Nsg44
g45
sg46
(lp346
I94
aI95
aI98
aI97
asg48
I70
sg49
I00
sg50
g305
sg55
g306
sbsI71
g0
(g39
g2
Ntp347
Rp348
(dp349
g43
Nsg44
g45
sg46
(lp350
I95
aI96
aI99
aI98
asg48
I71
sg49
I00
sg50
g305
sg55
g306
sbsI72
g0
(g39
g2
Ntp351
Rp352
(dp353
g43
Nsg44
g45
sg46
(lp354
I16
aI17
aI101
aI100
asg48
I72
sg49
I00
sg50
(dp355
g52
Nsg53
Nsg54
Nssg55
S'elset_plate_7_element_prop'
p356
sbsI73
g0
(g39
g2
Ntp357
Rp358
(dp359
g43
Nsg44
g45
sg46
(lp360
I17
aI18
aI102
aI101
asg48
I73
sg49
I00
sg50
g355
sg55
g356
sbsI74
g0
(g39
g2
Ntp361
Rp362
(dp363
g43
Nsg44
g45
sg46
(lp364
I18
aI19
aI103
aI102
asg48
I74
sg49
I00
sg50
g355
sg55
g356
sbsI75
g0
(g39
g2
Ntp365
Rp366
(dp367
g43
Nsg44
g45
sg46
(lp368
I100
aI101
aI105
aI104
asg48
I75
sg49
I00
sg50
g355
sg55
g356
sbsI76
g0
(g39
g2
Ntp369
Rp370
(dp371
g43
Nsg44
g45
sg46
(lp372
I101
aI102
aI106
aI105
asg48
I76
sg49
I00
sg50
g355
sg55
g356
sbsI77
g0
(g39
g2
Ntp373
Rp374
(dp375
g43
Nsg44
g45
sg46
(lp376
I102
aI103
aI107
aI106
asg48
I77
sg49
I00
sg50
g355
sg55
g356
sbsI78
g0
(g39
g2
Ntp377
Rp378
(dp379
g43
Nsg44
g45
sg46
(lp380
I104
aI105
aI109
aI108
asg48
I78
sg49
I00
sg50
g355
sg55
g356
sbsI79
g0
(g39
g2
Ntp381
Rp382
(dp383
g43
Nsg44
g45
sg46
(lp384
I105
aI106
aI110
aI109
asg48
I79
sg49
I00
sg50
g355
sg55
g356
sbsI80
g0
(g39
g2
Ntp385
Rp386
(dp387
g43
Nsg44
g45
sg46
(lp388
I106
aI107
aI111
aI110
asg48
I80
sg49
I00
sg50
g355
sg55
g356
sbsI81
g0
(g39
g2
Ntp389
Rp390
(dp391
g43
Nsg44
g45
sg46
(lp392
I108
aI109
aI113
aI112
asg48
I81
sg49
I00
sg50
g355
sg55
g356
sbsI82
g0
(g39
g2
Ntp393
Rp394
(dp395
g43
Nsg44
g45
sg46
(lp396
I109
aI110
aI114
aI113
asg48
I82
sg49
I00
sg50
g355
sg55
g356
sbsI83
g0
(g39
g2
Ntp397
Rp398
(dp399
g43
Nsg44
g45
sg46
(lp400
I110
aI111
aI115
aI114
asg48
I83
sg49
I00
sg50
g355
sg55
g356
sbsI84
g0
(g39
g2
Ntp401
Rp402
(dp403
g43
Nsg44
g45
sg46
(lp404
I112
aI113
aI21
aI20
asg48
I84
sg49
I00
sg50
g355
sg55
g356
sbsI85
g0
(g39
g2
Ntp405
Rp406
(dp407
g43
Nsg44
g45
sg46
(lp408
I113
aI114
aI22
aI21
asg48
I85
sg49
I00
sg50
g355
sg55
g356
sbsI86
g0
(g39
g2
Ntp409
Rp410
(dp411
g43
Nsg44
g45
sg46
(lp412
I114
aI115
aI23
aI22
asg48
I86
sg49
I00
sg50
g355
sg55
g356
sbsI87
g0
(g39
g2
Ntp413
Rp414
(dp415
g43
Nsg44
g45
sg46
(lp416
I19
aI52
aI116
aI103
asg48
I87
sg49
I00
sg50
(dp417
g52
Nsg53
Nsg54
Nssg55
S'elset_plate_8_element_prop'
p418
sbsI88
g0
(g39
g2
Ntp419
Rp420
(dp421
g43
Nsg44
g45
sg46
(lp422
I52
aI53
aI117
aI116
asg48
I88
sg49
I00
sg50
g417
sg55
g418
sbsI89
g0
(g39
g2
Ntp423
Rp424
(dp425
g43
Nsg44
g45
sg46
(lp426
I53
aI54
aI118
aI117
asg48
I89
sg49
I00
sg50
g417
sg55
g418
sbsI90
g0
(g39
g2
Ntp427
Rp428
(dp429
g43
Nsg44
g45
sg46
(lp430
I103
aI116
aI119
aI107
asg48
I90
sg49
I00
sg50
g417
sg55
g418
sbsI91
g0
(g39
g2
Ntp431
Rp432
(dp433
g43
Nsg44
g45
sg46
(lp434
I116
aI117
aI120
aI119
asg48
I91
sg49
I00
sg50
g417
sg55
g418
sbsI92
g0
(g39
g2
Ntp435
Rp436
(dp437
g43
Nsg44
g45
sg46
(lp438
I117
aI118
aI121
aI120
asg48
I92
sg49
I00
sg50
g417
sg55
g418
sbsI93
g0
(g39
g2
Ntp439
Rp440
(dp441
g43
Nsg44
g45
sg46
(lp442
I107
aI119
aI122
aI111
asg48
I93
sg49
I00
sg50
g417
sg55
g418
sbsI94
g0
(g39
g2
Ntp443
Rp444
(dp445
g43
Nsg44
g45
sg46
(lp446
I119
aI120
aI123
aI122
asg48
I94
sg49
I00
sg50
g417
sg55
g418
sbsI95
g0
(g39
g2
Ntp447
Rp448
(dp449
g43
Nsg44
g45
sg46
(lp450
I120
aI121
aI124
aI123
asg48
I95
sg49
I00
sg50
g417
sg55
g418
sbsI96
g0
(g39
g2
Ntp451
Rp452
(dp453
g43
Nsg44
g45
sg46
(lp454
I111
aI122
aI125
aI115
asg48
I96
sg49
I00
sg50
g417
sg55
g418
sbsI97
g0
(g39
g2
Ntp455
Rp456
(dp457
g43
Nsg44
g45
sg46
(lp458
I122
aI123
aI126
aI125
asg48
I97
sg49
I00
sg50
g417
sg55
g418
sbsI98
g0
(g39
g2
Ntp459
Rp460
(dp461
g43
Nsg44
g45
sg46
(lp462
I123
aI124
aI127
aI126
asg48
I98
sg49
I00
sg50
g417
sg55
g418
sbsI99
g0
(g39
g2
Ntp463
Rp464
(dp465
g43
Nsg44
g45
sg46
(lp466
I115
aI125
aI55
aI23
asg48
I99
sg49
I00
sg50
g417
sg55
g418
sbsI100
g0
(g39
g2
Ntp467
Rp468
(dp469
g43
Nsg44
g45
sg46
(lp470
I125
aI126
aI56
aI55
asg48
I100
sg49
I00
sg50
g417
sg55
g418
sbsI101
g0
(g39
g2
Ntp471
Rp472
(dp473
g43
Nsg44
g45
sg46
(lp474
I126
aI127
aI57
aI56
asg48
I101
sg49
I00
sg50
g417
sg55
g418
sbsI102
g0
(g39
g2
Ntp475
Rp476
(dp477
g43
Nsg44
g45
sg46
(lp478
I54
aI82
aI128
aI118
asg48
I102
sg49
I00
sg50
(dp479
g52
Nsg53
Nsg54
Nssg55
S'elset_plate_9_element_prop'
p480
sbsI103
g0
(g39
g2
Ntp481
Rp482
(dp483
g43
Nsg44
g45
sg46
(lp484
I82
aI83
aI129
aI128
asg48
I103
sg49
I00
sg50
g479
sg55
g480
sbsI104
g0
(g39
g2
Ntp485
Rp486
(dp487
g43
Nsg44
g45
sg46
(lp488
I83
aI84
aI130
aI129
asg48
I104
sg49
I00
sg50
g479
sg55
g480
sbsI105
g0
(g39
g2
Ntp489
Rp490
(dp491
g43
Nsg44
g45
sg46
(lp492
I118
aI128
aI131
aI121
asg48
I105
sg49
I00
sg50
g479
sg55
g480
sbsI106
g0
(g39
g2
Ntp493
Rp494
(dp495
g43
Nsg44
g45
sg46
(lp496
I128
aI129
aI132
aI131
asg48
I106
sg49
I00
sg50
g479
sg55
g480
sbsI107
g0
(g39
g2
Ntp497
Rp498
(dp499
g43
Nsg44
g45
sg46
(lp500
I129
aI130
aI133
aI132
asg48
I107
sg49
I00
sg50
g479
sg55
g480
sbsI108
g0
(g39
g2
Ntp501
Rp502
(dp503
g43
Nsg44
g45
sg46
(lp504
I121
aI131
aI134
aI124
asg48
I108
sg49
I00
sg50
g479
sg55
g480
sbsI109
g0
(g39
g2
Ntp505
Rp506
(dp507
g43
Nsg44
g45
sg46
(lp508
I131
aI132
aI135
aI134
asg48
I109
sg49
I00
sg50
g479
sg55
g480
sbsI110
g0
(g39
g2
Ntp509
Rp510
(dp511
g43
Nsg44
g45
sg46
(lp512
I132
aI133
aI136
aI135
asg48
I110
sg49
I00
sg50
g479
sg55
g480
sbsI111
g0
(g39
g2
Ntp513
Rp514
(dp515
g43
Nsg44
g45
sg46
(lp516
I124
aI134
aI137
aI127
asg48
I111
sg49
I00
sg50
g479
sg55
g480
sbsI112
g0
(g39
g2
Ntp517
Rp518
(dp519
g43
Nsg44
g45
sg46
(lp520
I134
aI135
aI138
aI137
asg48
I112
sg49
I00
sg50
g479
sg55
g480
sbsI113
g0
(g39
g2
Ntp521
Rp522
(dp523
g43
Nsg44
g45
sg46
(lp524
I135
aI136
aI139
aI138
asg48
I113
sg49
I00
sg50
g479
sg55
g480
sbsI114
g0
(g39
g2
Ntp525
Rp526
(dp527
g43
Nsg44
g45
sg46
(lp528
I127
aI137
aI85
aI57
asg48
I114
sg49
I00
sg50
g479
sg55
g480
sbsI115
g0
(g39
g2
Ntp529
Rp530
(dp531
g43
Nsg44
g45
sg46
(lp532
I137
aI138
aI86
aI85
asg48
I115
sg49
I00
sg50
g479
sg55
g480
sbsI116
g0
(g39
g2
Ntp533
Rp534
(dp535
g43
Nsg44
g45
sg46
(lp536
I138
aI139
aI87
aI86
asg48
I116
sg49
I00
sg50
g479
sg55
g480
sbsI117
g0
(g39
g2
Ntp537
Rp538
(dp539
g43
Nsg44
g45
sg46
(lp540
I140
aI141
aI145
aI144
asg48
I117
sg49
I00
sg50
(dp541
g52
Nsg53
Nsg54
Nssg55
S'elset_wall_1_1_element_prop'
p542
sbsI118
g0
(g39
g2
Ntp543
Rp544
(dp545
g43
Nsg44
g45
sg46
(lp546
I141
aI142
aI146
aI145
asg48
I118
sg49
I00
sg50
g541
sg55
g542
sbsI119
g0
(g39
g2
Ntp547
Rp548
(dp549
g43
Nsg44
g45
sg46
(lp550
I142
aI143
aI147
aI146
asg48
I119
sg49
I00
sg50
g541
sg55
g542
sbsI120
g0
(g39
g2
Ntp551
Rp552
(dp553
g43
Nsg44
g45
sg46
(lp554
I143
aI148
aI151
aI147
asg48
I120
sg49
I00
sg50
(dp555
g52
Nsg53
Nsg54
Nssg55
S'elset_wall_1_2_element_prop'
p556
sbsI121
g0
(g39
g2
Ntp557
Rp558
(dp559
g43
Nsg44
g45
sg46
(lp560
I148
aI149
aI152
aI151
asg48
I121
sg49
I00
sg50
g555
sg55
g556
sbsI122
g0
(g39
g2
Ntp561
Rp562
(dp563
g43
Nsg44
g45
sg46
(lp564
I149
aI150
aI153
aI152
asg48
I122
sg49
I00
sg50
g555
sg55
g556
sbsI123
g0
(g39
g2
Ntp565
Rp566
(dp567
g43
Nsg44
g45
sg46
(lp568
I150
aI154
aI157
aI153
asg48
I123
sg49
I00
sg50
(dp569
g52
Nsg53
Nsg54
Nssg55
S'elset_wall_1_3_element_prop'
p570
sbsI124
g0
(g39
g2
Ntp571
Rp572
(dp573
g43
Nsg44
g45
sg46
(lp574
I154
aI155
aI158
aI157
asg48
I124
sg49
I00
sg50
g569
sg55
g570
sbsI125
g0
(g39
g2
Ntp575
Rp576
(dp577
g43
Nsg44
g45
sg46
(lp578
I155
aI156
aI159
aI158
asg48
I125
sg49
I00
sg50
g569
sg55
g570
sbsI126
g0
(g39
g2
Ntp579
Rp580
(dp581
g43
Nsg44
g45
sg46
(lp582
I160
aI161
aI141
aI140
asg48
I126
sg49
I00
sg50
(dp583
g52
Nsg53
Nsg54
Nssg55
S'elset_wall_1_4_element_prop'
p584
sbsI127
g0
(g39
g2
Ntp585
Rp586
(dp587
g43
Nsg44
g45
sg46
(lp588
I161
aI162
aI142
aI141
asg48
I127
sg49
I00
sg50
g583
sg55
g584
sbsI128
g0
(g39
g2
Ntp589
Rp590
(dp591
g43
Nsg44
g45
sg46
(lp592
I162
aI163
aI143
aI142
asg48
I128
sg49
I00
sg50
g583
sg55
g584
sbsI129
g0
(g39
g2
Ntp593
Rp594
(dp595
g43
Nsg44
g45
sg46
(lp596
I163
aI164
aI148
aI143
asg48
I129
sg49
I00
sg50
(dp597
g52
Nsg53
Nsg54
Nssg55
S'elset_wall_1_5_element_prop'
p598
sbsI130
g0
(g39
g2
Ntp599
Rp600
(dp601
g43
Nsg44
g45
sg46
(lp602
I164
aI165
aI149
aI148
asg48
I130
sg49
I00
sg50
g597
sg55
g598
sbsI131
g0
(g39
g2
Ntp603
Rp604
(dp605
g43
Nsg44
g45
sg46
(lp606
I165
aI166
aI150
aI149
asg48
I131
sg49
I00
sg50
g597
sg55
g598
sbsI132
g0
(g39
g2
Ntp607
Rp608
(dp609
g43
Nsg44
g45
sg46
(lp610
I166
aI167
aI154
aI150
asg48
I132
sg49
I00
sg50
(dp611
g52
Nsg53
Nsg54
Nssg55
S'elset_wall_1_6_element_prop'
p612
sbsI133
g0
(g39
g2
Ntp613
Rp614
(dp615
g43
Nsg44
g45
sg46
(lp616
I167
aI168
aI155
aI154
asg48
I133
sg49
I00
sg50
g611
sg55
g612
sbsI134
g0
(g39
g2
Ntp617
Rp618
(dp619
g43
Nsg44
g45
sg46
(lp620
I168
aI169
aI156
aI155
asg48
I134
sg49
I00
sg50
g611
sg55
g612
sbsI135
g0
(g39
g2
Ntp621
Rp622
(dp623
g43
Nsg44
g45
sg46
(lp624
I170
aI171
aI161
aI160
asg48
I135
sg49
I00
sg50
(dp625
g52
Nsg53
Nsg54
Nssg55
S'elset_wall_1_7_element_prop'
p626
sbsI136
g0
(g39
g2
Ntp627
Rp628
(dp629
g43
Nsg44
g45
sg46
(lp630
I171
aI172
aI162
aI161
asg48
I136
sg49
I00
sg50
g625
sg55
g626
sbsI137
g0
(g39
g2
Ntp631
Rp632
(dp633
g43
Nsg44
g45
sg46
(lp634
I172
aI173
aI163
aI162
asg48
I137
sg49
I00
sg50
g625
sg55
g626
sbsI138
g0
(g39
g2
Ntp635
Rp636
(dp637
g43
Nsg44
g45
sg46
(lp638
I173
aI174
aI164
aI163
asg48
I138
sg49
I00
sg50
(dp639
g52
Nsg53
Nsg54
Nssg55
S'elset_wall_1_8_element_prop'
p640
sbsI139
g0
(g39
g2
Ntp641
Rp642
(dp643
g43
Nsg44
g45
sg46
(lp644
I174
aI175
aI165
aI164
asg48
I139
sg49
I00
sg50
g639
sg55
g640
sbsI140
g0
(g39
g2
Ntp645
Rp646
(dp647
g43
Nsg44
g45
sg46
(lp648
I175
aI176
aI166
aI165
asg48
I140
sg49
I00
sg50
g639
sg55
g640
sbsI141
g0
(g39
g2
Ntp649
Rp650
(dp651
g43
Nsg44
g45
sg46
(lp652
I176
aI177
aI167
aI166
asg48
I141
sg49
I00
sg50
(dp653
g52
Nsg53
Nsg54
Nssg55
S'elset_wall_1_9_element_prop'
p654
sbsI142
g0
(g39
g2
Ntp655
Rp656
(dp657
g43
Nsg44
g45
sg46
(lp658
I177
aI178
aI168
aI167
asg48
I142
sg49
I00
sg50
g653
sg55
g654
sbsI143
g0
(g39
g2
Ntp659
Rp660
(dp661
g43
Nsg44
g45
sg46
(lp662
I178
aI179
aI169
aI168
asg48
I143
sg49
I00
sg50
g653
sg55
g654
sbsI144
g0
(g39
g2
Ntp663
Rp664
(dp665
g43
Nsg44
g45
sg46
(lp666
I180
aI184
aI185
aI181
asg48
I144
sg49
I00
sg50
(dp667
g52
Nsg53
Nsg54
Nssg55
S'elset_wall_2_1_element_prop'
p668
sbsI145
g0
(g39
g2
Ntp669
Rp670
(dp671
g43
Nsg44
g45
sg46
(lp672
I181
aI185
aI186
aI182
asg48
I145
sg49
I00
sg50
g667
sg55
g668
sbsI146
g0
(g39
g2
Ntp673
Rp674
(dp675
g43
Nsg44
g45
sg46
(lp676
I182
aI186
aI187
aI183
asg48
I146
sg49
I00
sg50
g667
sg55
g668
sbsI147
g0
(g39
g2
Ntp677
Rp678
(dp679
g43
Nsg44
g45
sg46
(lp680
I183
aI187
aI191
aI188
asg48
I147
sg49
I00
sg50
(dp681
g52
Nsg53
Nsg54
Nssg55
S'elset_wall_2_2_element_prop'
p682
sbsI148
g0
(g39
g2
Ntp683
Rp684
(dp685
g43
Nsg44
g45
sg46
(lp686
I188
aI191
aI192
aI189
asg48
I148
sg49
I00
sg50
g681
sg55
g682
sbsI149
g0
(g39
g2
Ntp687
Rp688
(dp689
g43
Nsg44
g45
sg46
(lp690
I189
aI192
aI193
aI190
asg48
I149
sg49
I00
sg50
g681
sg55
g682
sbsI150
g0
(g39
g2
Ntp691
Rp692
(dp693
g43
Nsg44
g45
sg46
(lp694
I190
aI193
aI197
aI194
asg48
I150
sg49
I00
sg50
(dp695
g52
Nsg53
Nsg54
Nssg55
S'elset_wall_2_3_element_prop'
p696
sbsI151
g0
(g39
g2
Ntp697
Rp698
(dp699
g43
Nsg44
g45
sg46
(lp700
I194
aI197
aI198
aI195
asg48
I151
sg49
I00
sg50
g695
sg55
g696
sbsI152
g0
(g39
g2
Ntp701
Rp702
(dp703
g43
Nsg44
g45
sg46
(lp704
I195
aI198
aI199
aI196
asg48
I152
sg49
I00
sg50
g695
sg55
g696
sbsI153
g0
(g39
g2
Ntp705
Rp706
(dp707
g43
Nsg44
g45
sg46
(lp708
I200
aI180
aI181
aI201
asg48
I153
sg49
I00
sg50
(dp709
g52
Nsg53
Nsg54
Nssg55
S'elset_wall_2_4_element_prop'
p710
sbsI154
g0
(g39
g2
Ntp711
Rp712
(dp713
g43
Nsg44
g45
sg46
(lp714
I201
aI181
aI182
aI202
asg48
I154
sg49
I00
sg50
g709
sg55
g710
sbsI155
g0
(g39
g2
Ntp715
Rp716
(dp717
g43
Nsg44
g45
sg46
(lp718
I202
aI182
aI183
aI203
asg48
I155
sg49
I00
sg50
g709
sg55
g710
sbsI156
g0
(g39
g2
Ntp719
Rp720
(dp721
g43
Nsg44
g45
sg46
(lp722
I203
aI183
aI188
aI204
asg48
I156
sg49
I00
sg50
(dp723
g52
Nsg53
Nsg54
Nssg55
S'elset_wall_2_5_element_prop'
p724
sbsI157
g0
(g39
g2
Ntp725
Rp726
(dp727
g43
Nsg44
g45
sg46
(lp728
I204
aI188
aI189
aI205
asg48
I157
sg49
I00
sg50
g723
sg55
g724
sbsI158
g0
(g39
g2
Ntp729
Rp730
(dp731
g43
Nsg44
g45
sg46
(lp732
I205
aI189
aI190
aI206
asg48
I158
sg49
I00
sg50
g723
sg55
g724
sbsI159
g0
(g39
g2
Ntp733
Rp734
(dp735
g43
Nsg44
g45
sg46
(lp736
I206
aI190
aI194
aI207
asg48
I159
sg49
I00
sg50
(dp737
g52
Nsg53
Nsg54
Nssg55
S'elset_wall_2_6_element_prop'
p738
sbsI160
g0
(g39
g2
Ntp739
Rp740
(dp741
g43
Nsg44
g45
sg46
(lp742
I207
aI194
aI195
aI208
asg48
I160
sg49
I00
sg50
g737
sg55
g738
sbsI161
g0
(g39
g2
Ntp743
Rp744
(dp745
g43
Nsg44
g45
sg46
(lp746
I208
aI195
aI196
aI209
asg48
I161
sg49
I00
sg50
g737
sg55
g738
sbsI162
g0
(g39
g2
Ntp747
Rp748
(dp749
g43
Nsg44
g45
sg46
(lp750
I210
aI200
aI201
aI211
asg48
I162
sg49
I00
sg50
(dp751
g52
Nsg53
Nsg54
Nssg55
S'elset_wall_2_7_element_prop'
p752
sbsI163
g0
(g39
g2
Ntp753
Rp754
(dp755
g43
Nsg44
g45
sg46
(lp756
I211
aI201
aI202
aI212
asg48
I163
sg49
I00
sg50
g751
sg55
g752
sbsI164
g0
(g39
g2
Ntp757
Rp758
(dp759
g43
Nsg44
g45
sg46
(lp760
I212
aI202
aI203
aI213
asg48
I164
sg49
I00
sg50
g751
sg55
g752
sbsI165
g0
(g39
g2
Ntp761
Rp762
(dp763
g43
Nsg44
g45
sg46
(lp764
I213
aI203
aI204
aI214
asg48
I165
sg49
I00
sg50
(dp765
g52
Nsg53
Nsg54
Nssg55
S'elset_wall_2_8_element_prop'
p766
sbsI166
g0
(g39
g2
Ntp767
Rp768
(dp769
g43
Nsg44
g45
sg46
(lp770
I214
aI204
aI205
aI215
asg48
I166
sg49
I00
sg50
g765
sg55
g766
sbsI167
g0
(g39
g2
Ntp771
Rp772
(dp773
g43
Nsg44
g45
sg46
(lp774
I215
aI205
aI206
aI216
asg48
I167
sg49
I00
sg50
g765
sg55
g766
sbsI168
g0
(g39
g2
Ntp775
Rp776
(dp777
g43
Nsg44
g45
sg46
(lp778
I216
aI206
aI207
aI217
asg48
I168
sg49
I00
sg50
(dp779
g52
Nsg53
Nsg54
Nssg55
S'elset_wall_2_9_element_prop'
p780
sbsI169
g0
(g39
g2
Ntp781
Rp782
(dp783
g43
Nsg44
g45
sg46
(lp784
I217
aI207
aI208
aI218
asg48
I169
sg49
I00
sg50
g779
sg55
g780
sbsI170
g0
(g39
g2
Ntp785
Rp786
(dp787
g43
Nsg44
g45
sg46
(lp788
I218
aI208
aI209
aI219
asg48
I170
sg49
I00
sg50
g779
sg55
g780
sbsI171
g0
(ccompas_fea.structure.element
MPCElement
p789
g2
Ntp790
Rp791
(dp792
g43
Nsg44
S'MPCElement'
p793
sg46
(lp794
I199
aI99
asg48
I171
sg49
I00
sg50
(dp795
g52
Nsg53
(lp796
F-1.8189894035458565e-12
aF0.0
aF447.44389319808283
asg54
Nssg55
S'elset_mpc_element_prop'
p797
sbsI172
g0
(g789
g2
Ntp798
Rp799
(dp800
g43
Nsg44
g793
sg46
(lp801
I198
aI98
asg48
I172
sg49
I00
sg50
(dp802
g52
Nsg53
(lp803
F9.0949470177292824e-13
aF0.0
aF447.44389319808283
asg54
Nssg55
g797
sbsI173
g0
(g789
g2
Ntp804
Rp805
(dp806
g43
Nsg44
g793
sg46
(lp807
I197
aI97
asg48
I173
sg49
I00
sg50
(dp808
g52
Nsg53
(lp809
F9.0949470177292824e-13
aF0.0
aF447.44389319808283
asg54
Nssg55
g797
sbsI174
g0
(g789
g2
Ntp810
Rp811
(dp812
g43
Nsg44
g793
sg46
(lp813
I193
aI69
asg48
I174
sg49
I00
sg50
(dp814
g52
Nsg53
(lp815
F9.0949470177292824e-13
aF0.0
aF447.44389319808283
asg54
Nssg55
g797
sbsI175
g0
(g789
g2
Ntp816
Rp817
(dp818
g43
Nsg44
g793
sg46
(lp819
I192
aI68
asg48
I175
sg49
I00
sg50
(dp820
g52
Nsg53
(lp821
F9.0949470177292824e-13
aF0.0
aF447.44389319808283
asg54
Nssg55
g797
sbsI176
g0
(g789
g2
Ntp822
Rp823
(dp824
g43
Nsg44
g793
sg46
(lp825
I191
aI67
asg48
I176
sg49
I00
sg50
(dp826
g52
Nsg53
(lp827
F4.5474735088646412e-13
aF0.0
aF447.44389319808289
asg54
Nssg55
g797
sbsI177
g0
(g789
g2
Ntp828
Rp829
(dp830
g43
Nsg44
g793
sg46
(lp831
I187
aI39
asg48
I177
sg49
I00
sg50
(dp832
g52
Nsg53
(lp833
F4.5474735088646412e-13
aF0.0
aF447.44389319808283
asg54
Nssg55
g797
sbsI178
g0
(g789
g2
Ntp834
Rp835
(dp836
g43
Nsg44
g793
sg46
(lp837
I186
aI38
asg48
I178
sg49
I00
sg50
(dp838
g52
Nsg53
(lp839
F2.2737367544323206e-13
aF0.0
aF447.44389319808283
asg54
Nssg55
g797
sbsI179
g0
(g789
g2
Ntp840
Rp841
(dp842
g43
Nsg44
g793
sg46
(lp843
I185
aI37
asg48
I179
sg49
I00
sg50
(dp844
g52
Nsg53
(lp845
F1.1368683772161603e-13
aF0.0
aF447.44389319808289
asg54
Nssg55
g797
sbsI180
g0
(g789
g2
Ntp846
Rp847
(dp848
g43
Nsg44
g793
sg46
(lp849
I184
aI36
asg48
I180
sg49
I00
sg50
(dp850
g52
Nsg53
(lp851
F0.0
aF0.0
aF447.44389319808283
asg54
Nssg55
g797
sbsI181
g0
(g789
g2
Ntp852
Rp853
(dp854
g43
Nsg44
g793
sg46
(lp855
I159
aI72
asg48
I181
sg49
I00
sg50
(dp856
g52
Nsg53
(lp857
F-1.8189894035458565e-12
aF0.0
aF447.44389319808283
asg54
Nssg55
g797
sbsI182
g0
(g789
g2
Ntp858
Rp859
(dp860
g43
Nsg44
g793
sg46
(lp861
I158
aI71
asg48
I182
sg49
I00
sg50
(dp862
g52
Nsg53
(lp863
F9.0949470177292824e-13
aF0.0
aF447.44389319808283
asg54
Nssg55
g797
sbsI183
g0
(g789
g2
Ntp864
Rp865
(dp866
g43
Nsg44
g793
sg46
(lp867
I157
aI70
asg48
I183
sg49
I00
sg50
(dp868
g52
Nsg53
(lp869
F9.0949470177292824e-13
aF0.0
aF447.44389319808283
asg54
Nssg55
g797
sbsI184
g0
(g789
g2
Ntp870
Rp871
(dp872
g43
Nsg44
g793
sg46
(lp873
I153
aI42
asg48
I184
sg49
I00
sg50
(dp874
g52
Nsg53
(lp875
F9.0949470177292824e-13
aF0.0
aF447.44389319808283
asg54
Nssg55
g797
sbsI185
g0
(g789
g2
Ntp876
Rp877
(dp878
g43
Nsg44
g793
sg46
(lp879
I152
aI41
asg48
I185
sg49
I00
sg50
(dp880
g52
Nsg53
(lp881
F9.0949470177292824e-13
aF0.0
aF447.44389319808283
asg54
Nssg55
g797
sbsI186
g0
(g789
g2
Ntp882
Rp883
(dp884
g43
Nsg44
g793
sg46
(lp885
I151
aI40
asg48
I186
sg49
I00
sg50
(dp886
g52
Nsg53
(lp887
F4.5474735088646412e-13
aF0.0
aF447.44389319808289
asg54
Nssg55
g797
sbsI187
g0
(g789
g2
Ntp888
Rp889
(dp890
g43
Nsg44
g793
sg46
(lp891
I147
aI3
asg48
I187
sg49
I00
sg50
(dp892
g52
Nsg53
(lp893
F4.5474735088646412e-13
aF0.0
aF447.44389319808283
asg54
Nssg55
g797
sbsI188
g0
(g789
g2
Ntp894
Rp895
(dp896
g43
Nsg44
g793
sg46
(lp897
I146
aI2
asg48
I188
sg49
I00
sg50
(dp898
g52
Nsg53
(lp899
F2.2737367544323206e-13
aF0.0
aF447.44389319808283
asg54
Nssg55
g797
sbsI189
g0
(g789
g2
Ntp900
Rp901
(dp902
g43
Nsg44
g793
sg46
(lp903
I145
aI1
asg48
I189
sg49
I00
sg50
(dp904
g52
Nsg53
(lp905
F1.1368683772161603e-13
aF0.0
aF447.44389319808289
asg54
Nssg55
g797
sbsI190
g0
(g789
g2
Ntp906
Rp907
(dp908
g43
Nsg44
g793
sg46
(lp909
I144
aI0
asg48
I190
sg49
I00
sg50
(dp910
g52
Nsg53
(lp911
F0.0
aF0.0
aF447.44389319808283
asg54
Nssg55
g797
sbssS'element_index'
p912
(dp913
S'1354.187,4655.230,0.000'
p914
I10
sS'3159.770,665.033,0.000'
p915
I24
sS'6811.972,6964.708,0.000'
p916
I106
sS'451.396,16122.008,-2547.641'
p917
I153
sS'5881.823,4655.230,0.000'
p918
I57
sS'5881.823,12796.844,0.000'
p919
I63
sS'6811.972,4655.230,0.000'
p920
I58
sS'451.396,4655.230,0.000'
p921
I9
sS'3159.770,0.000,-1140.509'
p922
I120
sS'7742.121,0.000,-3954.773'
p923
I143
sS'4965.353,16122.008,-3954.773'
p924
I167
sS'5881.823,6964.708,0.000'
p925
I105
sS'4965.353,5868.411,0.000'
p926
I89
sS'2256.979,12796.844,0.000'
p927
I17
sS'7742.121,11466.778,0.000'
p928
I62
sS'7742.121,8061.004,0.000'
p929
I110
sS'5416.749,0.000,-223.722'
p930
I184
sS'0.000,16122.008,-223.722'
p931
I180
sS'3159.770,8061.004,0.000'
p932
I93
sS'2708.374,16122.008,-223.722'
p933
I177
sS'4965.353,1995.099,0.000'
p934
I29
sS'2256.979,0.000,-2547.641'
p935
I128
sS'2256.979,6964.708,0.000'
p936
I77
sS'4062.562,3325.164,0.000'
p937
I31
sS'451.396,6964.708,0.000'
p938
I75
sS'3159.770,1995.099,0.000'
p939
I27
sS'5881.823,0.000,-1140.509'
p940
I123
sS'4062.562,5868.411,0.000'
p941
I88
sS'4062.562,16122.008,-3954.773'
p942
I166
sS'7277.046,0.000,-223.722'
p943
I182
sS'5881.823,1995.099,0.000'
p944
I51
sS'451.396,1995.099,0.000'
p945
I3
sS'2256.979,1995.099,0.000'
p946
I5
sS'5881.823,11466.778,0.000'
p947
I60
sS'3159.770,4655.230,0.000'
p948
I33
sS'3159.770,15456.975,0.000'
p949
I45
sS'6346.898,16122.008,-223.722'
p950
I173
sS'7742.121,14126.910,0.000'
p951
I68
sS'3611.166,16122.008,-223.722'
p952
I176
sS'6811.972,9157.301,0.000'
p953
I112
sS'6811.972,8061.004,0.000'
p954
I109
sS'4965.353,15456.975,0.000'
p955
I47
sS'1354.187,0.000,-2547.641'
p956
I127
sS'4062.562,11466.778,0.000'
p957
I37
sS'4062.562,4655.230,0.000'
p958
I34
sS'7742.121,1995.099,0.000'
p959
I53
sS'4965.353,14126.910,0.000'
p960
I44
sS'5881.823,8061.004,0.000'
p961
I108
sS'5881.823,9157.301,0.000'
p962
I111
sS'7742.121,0.000,-2547.641'
p963
I134
sS'4965.353,665.033,0.000'
p964
I26
sS'4513.957,16122.008,-223.722'
p965
I175
sS'7742.121,16122.008,-1140.509'
p966
I152
sS'7742.121,665.033,0.000'
p967
I50
sS'5881.823,0.000,-3954.773'
p968
I141
sS'7742.121,16122.008,-2547.641'
p969
I161
sS'5881.823,16122.008,-3954.773'
p970
I168
sS'6811.972,0.000,-3954.773'
p971
I142
sS'4965.353,0.000,-1140.509'
p972
I122
sS'1354.187,11466.778,0.000'
p973
I13
sS'451.396,0.000,-1140.509'
p974
I117
sS'902.791,16122.008,-223.722'
p975
I179
sS'4965.353,4655.230,0.000'
p976
I35
sS'2256.979,16122.008,-1140.509'
p977
I146
sS'7742.121,10253.597,0.000'
p978
I116
sS'7742.121,12796.844,0.000'
p979
I65
sS'6811.972,16122.008,-1140.509'
p980
I151
sS'4062.562,12796.844,0.000'
p981
I40
sS'1354.187,15456.975,0.000'
p982
I22
sS'1354.187,3325.164,0.000'
p983
I7
sS'4062.562,9157.301,0.000'
p984
I97
sS'5881.823,5868.411,0.000'
p985
I102
sS'451.396,11466.778,0.000'
p986
I12
sS'1354.187,14126.910,0.000'
p987
I19
sS'5881.823,665.033,0.000'
p988
I48
sS'1354.187,8061.004,0.000'
p989
I79
sS'6811.972,0.000,-1140.509'
p990
I124
sS'4965.353,0.000,-3954.773'
p991
I140
sS'6811.972,15456.975,0.000'
p992
I70
sS'7277.046,16122.008,-223.722'
p993
I172
sS'451.396,3325.164,0.000'
p994
I6
sS'8207.195,0.000,-223.722'
p995
I181
sS'1354.187,16122.008,-1140.509'
p996
I145
sS'2256.979,0.000,-1140.509'
p997
I119
sS'3159.770,5868.411,0.000'
p998
I87
sS'3159.770,10253.597,0.000'
p999
I99
sS'3159.770,16122.008,-1140.509'
p1000
I147
sS'3159.770,16122.008,-3954.773'
p1001
I165
sS'4513.957,0.000,-223.722'
p1002
I185
sS'451.396,0.000,-2547.641'
p1003
I126
sS'6811.972,10253.597,0.000'
p1004
I115
sS'2256.979,16122.008,-2547.641'
p1005
I155
sS'1354.187,0.000,-1140.509'
p1006
I118
sS'4062.562,0.000,-1140.509'
p1007
I121
sS'4965.353,0.000,-2547.641'
p1008
I131
sS'1354.187,6964.708,0.000'
p1009
I76
sS'1354.187,16122.008,-2547.641'
p1010
I154
sS'4965.353,12796.844,0.000'
p1011
I41
sS'5881.823,3325.164,0.000'
p1012
I54
sS'902.791,0.000,-223.722'
p1013
I189
sS'1354.187,9157.301,0.000'
p1014
I82
sS'1354.187,5868.411,0.000'
p1015
I73
sS'7742.121,3325.164,0.000'
p1016
I56
sS'451.396,8061.004,0.000'
p1017
I78
sS'4062.562,16122.008,-1140.509'
p1018
I148
sS'5881.823,14126.910,0.000'
p1019
I66
sS'4965.353,6964.708,0.000'
p1020
I92
sS'4062.562,8061.004,0.000'
p1021
I94
sS'8207.195,16122.008,-223.722'
p1022
I171
sS'0.000,0.000,-223.722'
p1023
I190
sS'5881.823,0.000,-2547.641'
p1024
I132
sS'3159.770,0.000,-3954.773'
p1025
I138
sS'3159.770,14126.910,0.000'
p1026
I42
sS'7742.121,0.000,-1140.509'
p1027
I125
sS'6811.972,0.000,-2547.641'
p1028
I133
sS'6811.972,12796.844,0.000'
p1029
I64
sS'6811.972,14126.910,0.000'
p1030
I67
sS'1805.583,16122.008,-223.722'
p1031
I178
sS'451.396,12796.844,0.000'
p1032
I15
sS'4965.353,9157.301,0.000'
p1033
I98
sS'4965.353,16122.008,-2547.641'
p1034
I158
sS'1354.187,0.000,-3954.773'
p1035
I136
sS'3159.770,12796.844,0.000'
p1036
I39
sS'4965.353,16122.008,-1140.509'
p1037
I149
sS'4965.353,11466.778,0.000'
p1038
I38
sS'3159.770,3325.164,0.000'
p1039
I30
sS'2256.979,665.033,0.000'
p1040
I2
sS'1354.187,12796.844,0.000'
p1041
I16
sS'4965.353,3325.164,0.000'
p1042
I32
sS'6346.898,0.000,-223.722'
p1043
I183
sS'5881.823,15456.975,0.000'
p1044
I69
sS'6811.972,3325.164,0.000'
p1045
I55
sS'451.396,9157.301,0.000'
p1046
I81
sS'451.396,5868.411,0.000'
p1047
I72
sS'4062.562,665.033,0.000'
p1048
I25
sS'4965.353,10253.597,0.000'
p1049
I101
sS'6811.972,11466.778,0.000'
p1050
I61
sS'5881.823,16122.008,-2547.641'
p1051
I159
sS'1354.187,665.033,0.000'
p1052
I1
sS'6811.972,1995.099,0.000'
p1053
I52
sS'1354.187,16122.008,-3954.773'
p1054
I163
sS'2256.979,5868.411,0.000'
p1055
I74
sS'6811.972,16122.008,-2547.641'
p1056
I160
sS'4062.562,16122.008,-2547.641'
p1057
I157
sS'3159.770,16122.008,-2547.641'
p1058
I156
sS'1805.583,0.000,-223.722'
p1059
I188
sS'2256.979,15456.975,0.000'
p1060
I23
sS'7742.121,15456.975,0.000'
p1061
I71
sS'7742.121,6964.708,0.000'
p1062
I107
sS'3159.770,11466.778,0.000'
p1063
I36
sS'451.396,14126.910,0.000'
p1064
I18
sS'2256.979,10253.597,0.000'
p1065
I86
sS'4062.562,6964.708,0.000'
p1066
I91
sS'3611.166,0.000,-223.722'
p1067
I186
sS'6811.972,665.033,0.000'
p1068
I49
sS'2708.374,0.000,-223.722'
p1069
I187
sS'4965.353,8061.004,0.000'
p1070
I95
sS'4062.562,10253.597,0.000'
p1071
I100
sS'7742.121,4655.230,0.000'
p1072
I59
sS'5881.823,16122.008,-1140.509'
p1073
I150
sS'5416.749,16122.008,-223.722'
p1074
I174
sS'5881.823,10253.597,0.000'
p1075
I114
sS'7742.121,16122.008,-3954.773'
p1076
I170
sS'2256.979,14126.910,0.000'
p1077
I20
sS'4062.562,14126.910,0.000'
p1078
I43
sS'451.396,15456.975,0.000'
p1079
I21
sS'2256.979,11466.778,0.000'
p1080
I14
sS'2256.979,8061.004,0.000'
p1081
I80
sS'1354.187,1995.099,0.000'
p1082
I4
sS'451.396,0.000,-3954.773'
p1083
I135
sS'2256.979,0.000,-3954.773'
p1084
I137
sS'3159.770,9157.301,0.000'
p1085
I96
sS'4062.562,15456.975,0.000'
p1086
I46
sS'2256.979,16122.008,-3954.773'
p1087
I164
sS'2256.979,3325.164,0.000'
p1088
I8
sS'2256.979,4655.230,0.000'
p1089
I11
sS'2256.979,9157.301,0.000'
p1090
I83
sS'3159.770,6964.708,0.000'
p1091
I90
sS'3159.770,0.000,-2547.641'
p1092
I129
sS'4062.562,0.000,-2547.641'
p1093
I130
sS'451.396,16122.008,-3954.773'
p1094
I162
sS'6811.972,5868.411,0.000'
p1095
I103
sS'4062.562,0.000,-3954.773'
p1096
I139
sS'6811.972,16122.008,-3954.773'
p1097
I169
sS'7742.121,9157.301,0.000'
p1098
I113
sS'4062.562,1995.099,0.000'
p1099
I28
sS'451.396,16122.008,-1140.509'
p1100
I144
sS'451.396,665.033,0.000'
p1101
I0
sS'1354.187,10253.597,0.000'
p1102
I85
sS'451.396,10253.597,0.000'
p1103
I84
sS'7742.121,5868.411,0.000'
p1104
I104
ssS'element_properties'
p1105
(dp1106
g710
g0
(ccompas_fea.structure.element_properties
ElementProperties
p1107
g2
Ntp1108
Rp1109
(dp1110
g15
I21
sS'__name__'
p1111
S'ElementProperties'
p1112
sS'name'
p1113
g710
sS'material'
p1114
S'wall_element_mat'
p1115
sS'section'
p1116
S'wall2_element_sec'
p1117
sS'elset'
p1118
S'elset_wall_2_4'
p1119
sS'elements'
p1120
NsS'rebar'
p1121
(dp1122
sbsg556
g0
(g1107
g2
Ntp1123
Rp1124
(dp1125
g15
I10
sg1111
g1112
sg1113
g556
sg1114
g1115
sg1116
S'wall1_element_sec'
p1126
sg1118
S'elset_wall_1_2'
p1127
sg1120
Nsg1121
g1122
sbsg640
g0
(g1107
g2
Ntp1128
Rp1129
(dp1130
g15
I16
sg1111
g1112
sg1113
g640
sg1114
g1115
sg1116
g1126
sg1118
S'elset_wall_1_8'
p1131
sg1120
Nsg1121
g1122
sbsg682
g0
(g1107
g2
Ntp1132
Rp1133
(dp1134
g15
I19
sg1111
g1112
sg1113
g682
sg1114
g1115
sg1116
g1117
sg1118
S'elset_wall_2_2'
p1135
sg1120
Nsg1121
g1122
sbsg56
g0
(g1107
g2
Ntp1136
Rp1137
(dp1138
g15
I0
sg1111
g1112
sg1113
g56
sg1114
S'plate_element_mat'
p1139
sg1116
S'plate_element_sec'
p1140
sg1118
S'elset_plate_1'
p1141
sg1120
Nsg1121
g1122
sbsg724
g0
(g1107
g2
Ntp1142
Rp1143
(dp1144
g15
I22
sg1111
g1112
sg1113
g724
sg1114
g1115
sg1116
g1117
sg1118
S'elset_wall_2_5'
p1145
sg1120
Nsg1121
g1122
sbsg480
g0
(g1107
g2
Ntp1146
Rp1147
(dp1148
g15
I8
sg1111
g1112
sg1113
g480
sg1114
g1139
sg1116
g1140
sg1118
S'elset_plate_9'
p1149
sg1120
Nsg1121
g1122
sbsg612
g0
(g1107
g2
Ntp1150
Rp1151
(dp1152
g15
I14
sg1111
g1112
sg1113
g612
sg1114
g1115
sg1116
g1126
sg1118
S'elset_wall_1_6'
p1153
sg1120
Nsg1121
g1122
sbsg256
g0
(g1107
g2
Ntp1154
Rp1155
(dp1156
g15
I4
sg1111
g1112
sg1113
g256
sg1114
g1139
sg1116
g1140
sg1118
S'elset_plate_5'
p1157
sg1120
Nsg1121
g1122
sbsg570
g0
(g1107
g2
Ntp1158
Rp1159
(dp1160
g15
I11
sg1111
g1112
sg1113
g570
sg1114
g1115
sg1116
g1126
sg1118
S'elset_wall_1_3'
p1161
sg1120
Nsg1121
g1122
sbsg156
g0
(g1107
g2
Ntp1162
Rp1163
(dp1164
g15
I2
sg1111
g1112
sg1113
g156
sg1114
g1139
sg1116
g1140
sg1118
S'elset_plate_3'
p1165
sg1120
Nsg1121
g1122
sbsg696
g0
(g1107
g2
Ntp1166
Rp1167
(dp1168
g15
I20
sg1111
g1112
sg1113
g696
sg1114
g1115
sg1116
g1117
sg1118
S'elset_wall_2_3'
p1169
sg1120
Nsg1121
g1122
sbsg738
g0
(g1107
g2
Ntp1170
Rp1171
(dp1172
g15
I23
sg1111
g1112
sg1113
g738
sg1114
g1115
sg1116
g1117
sg1118
S'elset_wall_2_6'
p1173
sg1120
Nsg1121
g1122
sbsg584
g0
(g1107
g2
Ntp1174
Rp1175
(dp1176
g15
I12
sg1111
g1112
sg1113
g584
sg1114
g1115
sg1116
g1126
sg1118
S'elset_wall_1_4'
p1177
sg1120
Nsg1121
g1122
sbsg654
g0
(g1107
g2
Ntp1178
Rp1179
(dp1180
g15
I17
sg1111
g1112
sg1113
g654
sg1114
g1115
sg1116
g1126
sg1118
S'elset_wall_1_9'
p1181
sg1120
Nsg1121
g1122
sbsg418
g0
(g1107
g2
Ntp1182
Rp1183
(dp1184
g15
I7
sg1111
g1112
sg1113
g418
sg1114
g1139
sg1116
g1140
sg1118
S'elset_plate_8'
p1185
sg1120
Nsg1121
g1122
sbsg542
g0
(g1107
g2
Ntp1186
Rp1187
(dp1188
g15
I9
sg1111
g1112
sg1113
g542
sg1114
g1115
sg1116
g1126
sg1118
S'elset_wall_1_1'
p1189
sg1120
Nsg1121
g1122
sbsg356
g0
(g1107
g2
Ntp1190
Rp1191
(dp1192
g15
I6
sg1111
g1112
sg1113
g356
sg1114
g1139
sg1116
g1140
sg1118
S'elset_plate_7'
p1193
sg1120
Nsg1121
g1122
sbsg766
g0
(g1107
g2
Ntp1194
Rp1195
(dp1196
g15
I25
sg1111
g1112
sg1113
g766
sg1114
g1115
sg1116
g1117
sg1118
S'elset_wall_2_8'
p1197
sg1120
Nsg1121
g1122
sbsg206
g0
(g1107
g2
Ntp1198
Rp1199
(dp1200
g15
I3
sg1111
g1112
sg1113
g206
sg1114
g1139
sg1116
g1140
sg1118
S'elset_plate_4'
p1201
sg1120
Nsg1121
g1122
sbsg106
g0
(g1107
g2
Ntp1202
Rp1203
(dp1204
g15
I1
sg1111
g1112
sg1113
g106
sg1114
g1139
sg1116
g1140
sg1118
S'elset_plate_2'
p1205
sg1120
Nsg1121
g1122
sbsg797
g0
(g1107
g2
Ntp1206
Rp1207
(dp1208
g15
I27
sg1111
g1112
sg1113
g797
sg1114
S'elset_mpc_element_mat'
p1209
sg1116
S'sec_mpc'
p1210
sg1118
S'elset_mpcs'
p1211
sg1120
Nsg1121
g1122
sbsg626
g0
(g1107
g2
Ntp1212
Rp1213
(dp1214
g15
I15
sg1111
g1112
sg1113
g626
sg1114
g1115
sg1116
g1126
sg1118
S'elset_wall_1_7'
p1215
sg1120
Nsg1121
g1122
sbsg752
g0
(g1107
g2
Ntp1216
Rp1217
(dp1218
g15
I24
sg1111
g1112
sg1113
g752
sg1114
g1115
sg1116
g1117
sg1118
S'elset_wall_2_7'
p1219
sg1120
Nsg1121
g1122
sbsg780
g0
(g1107
g2
Ntp1220
Rp1221
(dp1222
g15
I26
sg1111
g1112
sg1113
g780
sg1114
g1115
sg1116
g1117
sg1118
S'elset_wall_2_9'
p1223
sg1120
Nsg1121
g1122
sbsg668
g0
(g1107
g2
Ntp1224
Rp1225
(dp1226
g15
I18
sg1111
g1112
sg1113
g668
sg1114
g1115
sg1116
g1117
sg1118
S'elset_wall_2_1'
p1227
sg1120
Nsg1121
g1122
sbsg306
g0
(g1107
g2
Ntp1228
Rp1229
(dp1230
g15
I5
sg1111
g1112
sg1113
g306
sg1114
g1139
sg1116
g1140
sg1118
S'elset_plate_6'
p1231
sg1120
Nsg1121
g1122
sbsg598
g0
(g1107
g2
Ntp1232
Rp1233
(dp1234
g15
I13
sg1111
g1112
sg1113
g598
sg1114
g1115
sg1116
g1126
sg1118
S'elset_wall_1_5'
p1235
sg1120
Nsg1121
g1122
sbssS'interactions'
p1236
(dp1237
sS'loads'
p1238
(dp1239
S'Gleis1_BAHNLASTEN_Lasteinzugsflache_Lastblock_-3'
p1240
g0
(ccompas_fea.structure.load
AreaLoad
p1241
g2
Ntp1242
Rp1243
(dp1244
g15
I7
sS'__name__'
p1245
S'AreaLoad'
p1246
sS'name'
p1247
g1240
sS'axes'
p1248
S'global'
p1249
sS'components'
p1250
(dp1251
g23
F0.095085789423492939
sg27
I0
sg28
I0
ssS'nodes'
p1252
(lp1253
sS'elements'
p1254
(lp1255
I3
aI25
aI26
aI27
aI30
asS'attr_list'
p1256
(lp1257
S'name'
p1258
aS'axes'
p1259
aS'components'
p1260
aS'nodes'
p1261
aS'elements'
p1262
asbsS'earthPressure_liveLoad'
p1263
g0
(g1241
g2
Ntp1264
Rp1265
(dp1266
g15
I8
sg1245
g1246
sg1247
g1263
sg1248
S'local'
p1267
sg1250
(dp1268
g23
F0.037699999999999997
sg27
I0
sg28
I0
ssg1252
g1253
sg1254
(lp1269
I121
aI122
aI123
aI124
aI130
aI131
aI132
aI133
aI139
aI140
aI141
aI142
asg1256
(lp1270
g1258
ag1259
ag1260
ag1261
ag1262
asbsS'Gleis1_BAHNLASTEN_Lasteinzugsflache_Lastblock_-2'
p1271
g0
(g1241
g2
Ntp1272
Rp1273
(dp1274
g15
I6
sg1245
g1246
sg1247
g1271
sg1248
g1249
sg1250
(dp1275
g23
F0.095085789423492939
sg27
I0
sg28
I0
ssg1252
g1253
sg1254
(lp1276
I6
aI28
aI29
aI32
asg1256
(lp1277
g1258
ag1259
ag1260
ag1261
ag1262
asbsS'Gleis1_EIGENGEWICHTE_SCHIENE_Lasteinzugsflache'
p1278
g0
(g1241
g2
Ntp1279
Rp1280
(dp1281
g15
I3
sg1245
g1246
sg1247
g1278
sg1248
g1249
sg1250
(dp1282
g23
F0.0025453641224773391
sg27
I0
sg28
I0
ssg1252
g1253
sg1254
(lp1283
I3
aI6
aI8
aI9
aI10
aI11
aI12
aI25
aI26
aI27
aI28
aI29
aI30
aI31
aI32
aI34
aI49
aI73
aI74
aI75
aI76
aI77
aI78
aI79
aI80
aI82
aI83
aI85
aI88
asg1256
(lp1284
g1258
ag1259
ag1260
ag1261
ag1262
asbsS'earthPressure_backfill'
p1285
g0
(g1241
g2
Ntp1286
Rp1287
(dp1288
g15
I2
sg1245
g1246
sg1247
g1285
sg1248
g1267
sg1250
(dp1289
g23
F0.049652958036684111
sg27
I0
sg28
I0
ssg1252
g1253
sg1254
(lp1290
g1189
ag1127
ag1161
ag1177
ag1235
ag1153
ag1215
ag1131
ag1181
ag1227
ag1135
ag1169
ag1119
ag1145
ag1173
ag1219
ag1197
ag1223
asg1256
(lp1291
g1258
ag1259
ag1260
ag1261
ag1262
asbsS'earthPressure_gravel'
p1292
g0
(g1241
g2
Ntp1293
Rp1294
(dp1295
g15
I1
sg1245
g1246
sg1247
g1292
sg1248
g1249
sg1250
(dp1296
g23
F0.013500000000000002
sg27
I0
sg28
I0
ssg1252
g1253
sg1254
(lp1297
g1141
ag1205
ag1165
ag1201
ag1157
ag1231
ag1193
ag1185
ag1149
asg1256
(lp1298
g1258
ag1259
ag1260
ag1261
ag1262
asbsS'Gleis1_BAHNLASTEN_Lasteinzugsflache_Lastblock_-1'
p1299
g0
(g1241
g2
Ntp1300
Rp1301
(dp1302
g15
I5
sg1245
g1246
sg1247
g1299
sg1248
g1249
sg1250
(dp1303
g23
F0.095085789423492939
sg27
I0
sg28
I0
ssg1252
g1253
sg1254
(lp1304
I73
aI74
aI76
aI77
aI78
asg1256
(lp1305
g1258
ag1259
ag1260
ag1261
ag1262
asbsS'Gleis1_BAHNLASTEN_Lasteinzugsflache_Lastblock_1'
p1306
g0
(g1241
g2
Ntp1307
Rp1308
(dp1309
g15
I4
sg1245
g1246
sg1247
g1306
sg1248
g1249
sg1250
(dp1310
g23
F0.095085789423492939
sg27
I0
sg28
I0
ssg1252
g1253
sg1254
(lp1311
I79
aI80
aI82
aI83
asg1256
(lp1312
g1258
ag1259
ag1260
ag1261
ag1262
asbsS'load_gravity'
p1313
g0
(ccompas_fea.structure.load
GravityLoad
p1314
g2
Ntp1315
Rp1316
(dp1317
g15
I0
sg1245
S'GravityLoad'
p1318
sg1247
g1313
sg1248
g1249
sg1250
(dp1319
g23
F1.3500000000000001
sg27
F0.0
sg28
F0.0
ssg1252
g1253
sg1254
(lp1320
g1141
ag1205
ag1165
ag1201
ag1157
ag1231
ag1193
ag1185
ag1149
ag1189
ag1127
ag1161
ag1177
ag1235
ag1153
ag1215
ag1131
ag1181
ag1227
ag1135
ag1169
ag1119
ag1145
ag1173
ag1219
ag1197
ag1223
asg1256
(lp1321
g1258
ag1259
ag1260
ag1261
ag1262
aS'g'
p1322
asS'g'
p1323
F-9.8100000000000005
sbssS'materials'
p1324
(dp1325
g1209
g0
(ccompas_fea.structure.material
MPCStiff
p1326
g2
Ntp1327
Rp1328
(dp1329
g15
I2
sS'__name__'
p1330
S'MPCStiff'
p1331
sS'name'
p1332
g1209
sS'attr_list'
p1333
(lp1334
g1258
aS'E'
p1335
aS'v'
p1336
aS'G'
p1337
aS'p'
p1338
aS'tension'
p1339
aS'compression'
p1340
asS'E'
p1341
(dp1342
g1335
L10000000000000L
ssS'v'
p1343
(dp1344
g1336
F0.29999999999999999
ssS'G'
p1345
(dp1346
g1337
F3846153846153.8462
ssS'p'
p1347
F0.10000000000000001
sS'tension'
p1348
I01
sS'compression'
p1349
I01
sbsg1115
g0
(ccompas_fea.structure.material
CMMUsermat
p1350
g2
Ntp1351
Rp1352
(dp1353
g15
I1
sg1330
S'CMMUsermat'
p1354
sg1332
g1115
sg1333
(lp1355
g1258
ag1335
ag1336
ag1337
ag1338
aS'R_Rohr'
p1356
aS'rho'
p1357
aS'oo'
p1358
aS'uu'
p1359
aS'beton'
p1360
aS'fcc'
p1361
aS'vc'
p1362
aS'ecu'
p1363
aS'k_E'
p1364
aS'theta_b0'
p1365
aS'theta_b1'
p1366
aS'k_riss'
p1367
aS'Entfestigung'
p1368
aS'lambdaTS'
p1369
aS'srmx'
p1370
aS'srmy'
p1371
aS'Begrenzung'
p1372
aS'KritQ'
p1373
aS'winkelD'
p1374
aS'k_vr'
p1375
aS'fswy'
p1376
aS'stahl1'
p1377
aS'zm1'
p1378
aS'fsy1'
p1379
aS'fsu1'
p1380
aS'esu1'
p1381
aS'esv1'
p1382
aS'Es1'
p1383
aS'ka1'
p1384
aS'kb1'
p1385
aS'kc1'
p1386
aS'as1'
p1387
aS'dm1'
p1388
aS'psi1'
p1389
aS'stahl2'
p1390
aS'zm2'
p1391
aS'fsy2'
p1392
aS'fsu2'
p1393
aS'esu2'
p1394
aS'esv2'
p1395
aS'Es2'
p1396
aS'ka2'
p1397
aS'kb2'
p1398
aS'kc2'
p1399
aS'as2'
p1400
aS'dm2'
p1401
aS'psi2'
p1402
aS'stahl3'
p1403
aS'zm3'
p1404
aS'fsy3'
p1405
aS'fsu3'
p1406
aS'esu3'
p1407
aS'esv3'
p1408
aS'Es3'
p1409
aS'ka3'
p1410
aS'kb3'
p1411
aS'kc3'
p1412
aS'as3'
p1413
aS'dm3'
p1414
aS'psi3'
p1415
aS'stahl4'
p1416
aS'zm4'
p1417
aS'fsy4'
p1418
aS'fsu4'
p1419
aS'esu4'
p1420
aS'esv4'
p1421
aS'Es4'
p1422
aS'ka4'
p1423
aS'kb4'
p1424
aS'kc4'
p1425
aS'as4'
p1426
aS'dm4'
p1427
aS'psi4'
p1428
asS'E'
p1429
(dp1430
S'E'
p1431
I200000
ssS'v'
p1432
(dp1433
S'v'
p1434
F0.10000000000000001
ssS'G'
p1435
(dp1436
g1337
F90909.090909090897
ssS'p'
p1437
F2.5000000000000002e-06
sS'R_Rohr'
p1438
(dp1439
g1356
I-1
ssS'rho'
p1440
(dp1441
g1357
F2.5000000000000002e-06
ssS'oo'
p1442
(dp1443
g1358
I30
ssS'uu'
p1444
(dp1445
g1359
I30
ssS'beton'
p1446
(dp1447
g1360
I2
ssS'fcc'
p1448
(dp1449
g1361
I29
ssS'vc'
p1450
(dp1451
g1362
I0
ssS'ecu'
p1452
(dp1453
g1363
F-0.002
ssS'k_E'
p1454
(dp1455
g1364
I10000
ssS'theta_b0'
p1456
(dp1457
g1365
I2
ssS'theta_b1'
p1458
(dp1459
g1366
I1
ssS'k_riss'
p1460
(dp1461
g1367
I0
ssS'Entfestigung'
p1462
(dp1463
g1368
I0
ssS'lambdaTS'
p1464
(dp1465
g1369
F0.67000000000000004
ssS'srmx'
p1466
(dp1467
g1370
I1
ssS'srmy'
p1468
(dp1469
g1371
I1
ssS'Begrenzung'
p1470
(dp1471
g1372
I2
ssS'KritQ'
p1472
(dp1473
g1373
I0
ssS'winkelD'
p1474
(dp1475
g1374
I45
ssS'k_vr'
p1476
(dp1477
g1375
I1
ssS'fswy'
p1478
(dp1479
g1376
I500
ssS'stahl1'
p1480
(dp1481
g1377
I1
ssS'zm1'
p1482
(dp1483
g1378
I2
ssS'fsy1'
p1484
(dp1485
g1379
I408
ssS'fsu1'
p1486
(dp1487
g1380
I441
ssS'esu1'
p1488
(dp1489
g1381
F0.044999999999999998
ssS'esv1'
p1490
(dp1491
g1382
F0.02
ssS'Es1'
p1492
(dp1493
g1383
I200000
ssS'ka1'
p1494
(dp1495
g1384
I-1
ssS'kb1'
p1496
(dp1497
g1385
I-1
ssS'kc1'
p1498
(dp1499
g1386
I-1
ssS'as1'
p1500
(dp1501
g1387
F0.56225061949722022
ssS'dm1'
p1502
(dp1503
g1388
F17.391027327851688
ssS'psi1'
p1504
(dp1505
g1389
I90
ssS'stahl2'
p1506
(dp1507
g1390
I1
ssS'zm2'
p1508
(dp1509
g1391
I2
ssS'fsy2'
p1510
(dp1511
g1392
I408
ssS'fsu2'
p1512
(dp1513
g1393
I441
ssS'esu2'
p1514
(dp1515
g1394
F0.044999999999999998
ssS'esv2'
p1516
(dp1517
g1395
F0.02
ssS'Es2'
p1518
(dp1519
g1396
I200000
ssS'ka2'
p1520
(dp1521
g1397
I-1
ssS'kb2'
p1522
(dp1523
g1398
I-1
ssS'kc2'
p1524
(dp1525
g1399
I-1
ssS'as2'
p1526
(dp1527
g1400
F0.26769604794722629
ssS'dm2'
p1528
(dp1529
g1401
F12.0
ssS'psi2'
p1530
(dp1531
g1402
I0
ssS'stahl3'
p1532
(dp1533
g1403
I1
ssS'zm3'
p1534
(dp1535
g1404
I2
ssS'fsy3'
p1536
(dp1537
g1405
I408
ssS'fsu3'
p1538
(dp1539
g1406
I441
ssS'esu3'
p1540
(dp1541
g1407
F0.044999999999999998
ssS'esv3'
p1542
(dp1543
g1408
F0.02
ssS'Es3'
p1544
(dp1545
g1409
I200000
ssS'ka3'
p1546
(dp1547
g1410
I-1
ssS'kb3'
p1548
(dp1549
g1411
I-1
ssS'kc3'
p1550
(dp1551
g1412
I-1
ssS'as3'
p1552
(dp1553
g1413
F0.26769604794722629
ssS'dm3'
p1554
(dp1555
g1414
F12.0
ssS'psi3'
p1556
(dp1557
g1415
I0
ssS'stahl4'
p1558
(dp1559
g1416
I1
ssS'zm4'
p1560
(dp1561
g1417
I2
ssS'fsy4'
p1562
(dp1563
g1418
I408
ssS'fsu4'
p1564
(dp1565
g1419
I441
ssS'esu4'
p1566
(dp1567
g1420
F0.044999999999999998
ssS'esv4'
p1568
(dp1569
g1421
F0.02
ssS'Es4'
p1570
(dp1571
g1422
I200000
ssS'ka4'
p1572
(dp1573
g1423
I-1
ssS'kb4'
p1574
(dp1575
g1424
I-1
ssS'kc4'
p1576
(dp1577
g1425
I-1
ssS'as4'
p1578
(dp1579
g1426
F0.36249844129662062
ssS'dm4'
p1580
(dp1581
g1427
F13.964112467056939
ssS'psi4'
p1582
(dp1583
g1428
I90
ssbsg1139
g0
(g1350
g2
Ntp1584
Rp1585
(dp1586
g15
I0
sg1330
g1354
sg1332
g1139
sg1333
(lp1587
g1258
ag1335
ag1336
ag1337
ag1338
ag1356
ag1357
ag1358
ag1359
ag1360
ag1361
ag1362
ag1363
ag1364
ag1365
ag1366
ag1367
ag1368
ag1369
ag1370
ag1371
ag1372
ag1373
ag1374
ag1375
ag1376
ag1377
ag1378
ag1379
ag1380
ag1381
ag1382
ag1383
ag1384
ag1385
ag1386
ag1387
ag1388
ag1389
ag1390
ag1391
ag1392
ag1393
ag1394
ag1395
ag1396
ag1397
ag1398
ag1399
ag1400
ag1401
ag1402
ag1403
ag1404
ag1405
ag1406
ag1407
ag1408
ag1409
ag1410
ag1411
ag1412
ag1413
ag1414
ag1415
ag1416
ag1417
ag1418
ag1419
ag1420
ag1421
ag1422
ag1423
ag1424
ag1425
ag1426
ag1427
ag1428
asg1429
(dp1588
g1431
I200000
ssg1432
(dp1589
g1434
F0.10000000000000001
ssg1435
(dp1590
g1337
F90909.090909090897
ssg1437
F2.5000000000000002e-06
sg1438
(dp1591
g1356
I-1
ssg1440
(dp1592
g1357
F2.5000000000000002e-06
ssg1442
(dp1593
g1358
I30
ssg1444
(dp1594
g1359
I30
ssg1446
(dp1595
g1360
I2
ssg1448
(dp1596
g1361
I29
ssg1450
(dp1597
g1362
I0
ssg1452
(dp1598
g1363
F-0.002
ssg1454
(dp1599
g1364
I10000
ssg1456
(dp1600
g1365
I2
ssg1458
(dp1601
g1366
I1
ssg1460
(dp1602
g1367
I0
ssg1462
(dp1603
g1368
I0
ssg1464
(dp1604
g1369
F0.67000000000000004
ssg1466
(dp1605
g1370
I1
ssg1468
(dp1606
g1371
I1
ssg1470
(dp1607
g1372
I2
ssg1472
(dp1608
g1373
I0
ssg1474
(dp1609
g1374
I45
ssg1476
(dp1610
g1375
I1
ssg1478
(dp1611
g1376
I500
ssg1480
(dp1612
g1377
I1
ssg1482
(dp1613
g1378
I2
ssg1484
(dp1614
g1379
I408
ssg1486
(dp1615
g1380
I441
ssg1488
(dp1616
g1381
F0.044999999999999998
ssg1490
(dp1617
g1382
F0.02
ssg1492
(dp1618
g1383
I200000
ssg1494
(dp1619
g1384
I-1
ssg1496
(dp1620
g1385
I-1
ssg1498
(dp1621
g1386
I-1
ssg1500
(dp1622
g1387
F2.7038795399872253
ssg1502
(dp1623
g1388
F28.936144153925419
ssg1504
(dp1624
g1389
I90
ssg1506
(dp1625
g1390
I1
ssg1508
(dp1626
g1391
I2
ssg1510
(dp1627
g1392
I408
ssg1512
(dp1628
g1393
I441
ssg1514
(dp1629
g1394
F0.044999999999999998
ssg1516
(dp1630
g1395
F0.02
ssg1518
(dp1631
g1396
I200000
ssg1520
(dp1632
g1397
I-1
ssg1522
(dp1633
g1398
I-1
ssg1524
(dp1634
g1399
I-1
ssg1526
(dp1635
g1400
F0.335374616638071
ssg1528
(dp1636
g1401
F10.190889303574089
ssg1530
(dp1637
g1402
I0
ssg1532
(dp1638
g1403
I1
ssg1534
(dp1639
g1404
I2
ssg1536
(dp1640
g1405
I408
ssg1538
(dp1641
g1406
I441
ssg1540
(dp1642
g1407
F0.044999999999999998
ssg1542
(dp1643
g1408
F0.02
ssg1544
(dp1644
g1409
I200000
ssg1546
(dp1645
g1410
I-1
ssg1548
(dp1646
g1411
I-1
ssg1550
(dp1647
g1412
I-1
ssg1552
(dp1648
g1413
F0.46501666051578289
ssg1554
(dp1649
g1414
F12.0
ssg1556
(dp1650
g1415
I0
ssg1558
(dp1651
g1416
I1
ssg1560
(dp1652
g1417
I2
ssg1562
(dp1653
g1418
I408
ssg1564
(dp1654
g1419
I441
ssg1566
(dp1655
g1420
F0.044999999999999998
ssg1568
(dp1656
g1421
F0.02
ssg1570
(dp1657
g1422
I200000
ssg1572
(dp1658
g1423
I-1
ssg1574
(dp1659
g1424
I-1
ssg1576
(dp1660
g1425
I-1
ssg1578
(dp1661
g1426
F0.50610027454054474
ssg1580
(dp1662
g1427
F12.518874220311973
ssg1582
(dp1663
g1428
I90
ssbssS'misc'
p1664
(dp1665
sS'name'
p1666
S'NLFE_CFB4'
p1667
sS'nodes'
p1668
(dp1669
I0
g0
(ccompas_fea.structure.node
Node
p1670
g2
Ntp1671
Rp1672
(dp1673
S'__name__'
p1674
S'Node'
p1675
sS'key'
p1676
I0
sS'x'
p1677
F0.0
sS'y'
p1678
F0.0
sS'z'
p1679
F0.0
sS'ex'
p1680
(lp1681
I1
aI0
aI0
asS'ey'
p1682
(lp1683
I0
aI1
aI0
asS'ez'
p1684
(lp1685
I0
aI0
aI1
asS'mass'
p1686
NsbsI1
g0
(g1670
g2
Ntp1687
Rp1688
(dp1689
g1674
g1675
sg1676
I1
sg1677
F902.7914793839434
sg1678
F0.0
sg1679
F0.0
sg1680
g1681
sg1682
g1683
sg1684
g1685
sg1686
NsbsI2
g0
(g1670
g2
Ntp1690
Rp1691
(dp1692
g1674
g1675
sg1676
I2
sg1677
F1805.5829587678868
sg1678
F0.0
sg1679
F0.0
sg1680
g1681
sg1682
g1683
sg1684
g1685
sg1686
NsbsI3
g0
(g1670
g2
Ntp1693
Rp1694
(dp1695
g1674
g1675
sg1676
I3
sg1677
F2708.3744381518304
sg1678
F0.0
sg1679
F0.0
sg1680
g1681
sg1682
g1683
sg1684
g1685
sg1686
NsbsI4
g0
(g1670
g2
Ntp1696
Rp1697
(dp1698
g1674
g1675
sg1676
I4
sg1677
F0.0
sg1678
F1330.0656803338507
sg1679
F0.0
sg1680
g1681
sg1682
g1683
sg1684
g1685
sg1686
NsbsI5
g0
(g1670
g2
Ntp1699
Rp1700
(dp1701
g1674
g1675
sg1676
I5
sg1677
F902.7914793839434
sg1678
F1330.0656803338507
sg1679
F0.0
sg1680
g1681
sg1682
g1683
sg1684
g1685
sg1686
NsbsI6
g0
(g1670
g2
Ntp1702
Rp1703
(dp1704
g1674
g1675
sg1676
I6
sg1677
F1805.5829587678868
sg1678
F1330.0656803338507
sg1679
F0.0
sg1680
g1681
sg1682
g1683
sg1684
g1685
sg1686
NsbsI7
g0
(g1670
g2
Ntp1705
Rp1706
(dp1707
g1674
g1675
sg1676
I7
sg1677
F2708.3744381518304
sg1678
F1330.0656803338507
sg1679
F0.0
sg1680
g1681
sg1682
g1683
sg1684
g1685
sg1686
NsbsI8
g0
(g1670
g2
Ntp1708
Rp1709
(dp1710
g1674
g1675
sg1676
I8
sg1677
F0.0
sg1678
F2660.1313606677013
sg1679
F0.0
sg1680
g1681
sg1682
g1683
sg1684
g1685
sg1686
NsbsI9
g0
(g1670
g2
Ntp1711
Rp1712
(dp1713
g1674
g1675
sg1676
I9
sg1677
F902.7914793839434
sg1678
F2660.1313606677013
sg1679
F0.0
sg1680
g1681
sg1682
g1683
sg1684
g1685
sg1686
NsbsI10
g0
(g1670
g2
Ntp1714
Rp1715
(dp1716
g1674
g1675
sg1676
I10
sg1677
F1805.5829587678868
sg1678
F2660.1313606677013
sg1679
F0.0
sg1680
g1681
sg1682
g1683
sg1684
g1685
sg1686
NsbsI11
g0
(g1670
g2
Ntp1717
Rp1718
(dp1719
g1674
g1675
sg1676
I11
sg1677
F2708.3744381518304
sg1678
F2660.1313606677013
sg1679
F0.0
sg1680
g1681
sg1682
g1683
sg1684
g1685
sg1686
NsbsI12
g0
(g1670
g2
Ntp1720
Rp1721
(dp1722
g1674
g1675
sg1676
I12
sg1677
F0.0
sg1678
F3990.197041001552
sg1679
F0.0
sg1680
g1681
sg1682
g1683
sg1684
g1685
sg1686
NsbsI13
g0
(g1670
g2
Ntp1723
Rp1724
(dp1725
g1674
g1675
sg1676
I13
sg1677
F902.7914793839434
sg1678
F3990.197041001552
sg1679
F0.0
sg1680
g1681
sg1682
g1683
sg1684
g1685
sg1686
NsbsI14
g0
(g1670
g2
Ntp1726
Rp1727
(dp1728
g1674
g1675
sg1676
I14
sg1677
F1805.5829587678868
sg1678
F3990.197041001552
sg1679
F0.0
sg1680
g1681
sg1682
g1683
sg1684
g1685
sg1686
NsbsI15
g0
(g1670
g2
Ntp1729
Rp1730
(dp1731
g1674
g1675
sg1676
I15
sg1677
F2708.3744381518304
sg1678
F3990.197041001552
sg1679
F0.0
sg1680
g1681
sg1682
g1683
sg1684
g1685
sg1686
NsbsI16
g0
(g1670
g2
Ntp1732
Rp1733
(dp1734
g1674
g1675
sg1676
I16
sg1677
F0.0
sg1678
F5320.2627213354026
sg1679
F0.0
sg1680
g1681
sg1682
g1683
sg1684
g1685
sg1686
NsbsI17
g0
(g1670
g2
Ntp1735
Rp1736
(dp1737
g1674
g1675
sg1676
I17
sg1677
F902.7914793839434
sg1678
F5320.2627213354026
sg1679
F0.0
sg1680
g1681
sg1682
g1683
sg1684
g1685
sg1686
NsbsI18
g0
(g1670
g2
Ntp1738
Rp1739
(dp1740
g1674
g1675
sg1676
I18
sg1677
F1805.5829587678868
sg1678
F5320.2627213354026
sg1679
F0.0
sg1680
g1681
sg1682
g1683
sg1684
g1685
sg1686
NsbsI19
g0
(g1670
g2
Ntp1741
Rp1742
(dp1743
g1674
g1675
sg1676
I19
sg1677
F2708.3744381518304
sg1678
F5320.2627213354026
sg1679
F0.0
sg1680
g1681
sg1682
g1683
sg1684
g1685
sg1686
NsbsI20
g0
(g1670
g2
Ntp1744
Rp1745
(dp1746
g1674
g1675
sg1676
I20
sg1677
F0.0
sg1678
F10801.745525135513
sg1679
F0.0
sg1680
g1681
sg1682
g1683
sg1684
g1685
sg1686
NsbsI21
g0
(g1670
g2
Ntp1747
Rp1748
(dp1749
g1674
g1675
sg1676
I21
sg1677
F902.7914793839434
sg1678
F10801.745525135513
sg1679
F0.0
sg1680
g1681
sg1682
g1683
sg1684
g1685
sg1686
NsbsI22
g0
(g1670
g2
Ntp1750
Rp1751
(dp1752
g1674
g1675
sg1676
I22
sg1677
F1805.5829587678868
sg1678
F10801.745525135513
sg1679
F0.0
sg1680
g1681
sg1682
g1683
sg1684
g1685
sg1686
NsbsI23
g0
(g1670
g2
Ntp1753
Rp1754
(dp1755
g1674
g1675
sg1676
I23
sg1677
F2708.3744381518304
sg1678
F10801.745525135513
sg1679
F0.0
sg1680
g1681
sg1682
g1683
sg1684
g1685
sg1686
NsbsI24
g0
(g1670
g2
Ntp1756
Rp1757
(dp1758
g1674
g1675
sg1676
I24
sg1677
F0.0
sg1678
F12131.811205469363
sg1679
F0.0
sg1680
g1681
sg1682
g1683
sg1684
g1685
sg1686
NsbsI25
g0
(g1670
g2
Ntp1759
Rp1760
(dp1761
g1674
g1675
sg1676
I25
sg1677
F902.7914793839434
sg1678
F12131.811205469363
sg1679
F0.0
sg1680
g1681
sg1682
g1683
sg1684
g1685
sg1686
NsbsI26
g0
(g1670
g2
Ntp1762
Rp1763
(dp1764
g1674
g1675
sg1676
I26
sg1677
F1805.5829587678868
sg1678
F12131.811205469363
sg1679
F0.0
sg1680
g1681
sg1682
g1683
sg1684
g1685
sg1686
NsbsI27
g0
(g1670
g2
Ntp1765
Rp1766
(dp1767
g1674
g1675
sg1676
I27
sg1677
F2708.3744381518304
sg1678
F12131.811205469363
sg1679
F0.0
sg1680
g1681
sg1682
g1683
sg1684
g1685
sg1686
NsbsI28
g0
(g1670
g2
Ntp1768
Rp1769
(dp1770
g1674
g1675
sg1676
I28
sg1677
F0.0
sg1678
F13461.876885803214
sg1679
F0.0
sg1680
g1681
sg1682
g1683
sg1684
g1685
sg1686
NsbsI29
g0
(g1670
g2
Ntp1771
Rp1772
(dp1773
g1674
g1675
sg1676
I29
sg1677
F902.7914793839434
sg1678
F13461.876885803214
sg1679
F0.0
sg1680
g1681
sg1682
g1683
sg1684
g1685
sg1686
NsbsI30
g0
(g1670
g2
Ntp1774
Rp1775
(dp1776
g1674
g1675
sg1676
I30
sg1677
F1805.5829587678868
sg1678
F13461.876885803216
sg1679
F0.0
sg1680
g1681
sg1682
g1683
sg1684
g1685
sg1686
NsbsI31
g0
(g1670
g2
Ntp1777
Rp1778
(dp1779
g1674
g1675
sg1676
I31
sg1677
F2708.3744381518304
sg1678
F13461.876885803214
sg1679
F0.0
sg1680
g1681
sg1682
g1683
sg1684
g1685
sg1686
NsbsI32
g0
(g1670
g2
Ntp1780
Rp1781
(dp1782
g1674
g1675
sg1676
I32
sg1677
F0.0
sg1678
F14791.942566137066
sg1679
F0.0
sg1680
g1681
sg1682
g1683
sg1684
g1685
sg1686
NsbsI33
g0
(g1670
g2
Ntp1783
Rp1784
(dp1785
g1674
g1675
sg1676
I33
sg1677
F902.7914793839434
sg1678
F14791.942566137066
sg1679
F0.0
sg1680
g1681
sg1682
g1683
sg1684
g1685
sg1686
NsbsI34
g0
(g1670
g2
Ntp1786
Rp1787
(dp1788
g1674
g1675
sg1676
I34
sg1677
F1805.5829587678868
sg1678
F14791.942566137066
sg1679
F0.0
sg1680
g1681
sg1682
g1683
sg1684
g1685
sg1686
NsbsI35
g0
(g1670
g2
Ntp1789
Rp1790
(dp1791
g1674
g1675
sg1676
I35
sg1677
F2708.3744381518304
sg1678
F14791.942566137066
sg1679
F0.0
sg1680
g1681
sg1682
g1683
sg1684
g1685
sg1686
NsbsI36
g0
(g1670
g2
Ntp1792
Rp1793
(dp1794
g1674
g1675
sg1676
I36
sg1677
F0.0
sg1678
F16122.008246470916
sg1679
F0.0
sg1680
g1681
sg1682
g1683
sg1684
g1685
sg1686
NsbsI37
g0
(g1670
g2
Ntp1795
Rp1796
(dp1797
g1674
g1675
sg1676
I37
sg1677
F902.7914793839434
sg1678
F16122.008246470916
sg1679
F0.0
sg1680
g1681
sg1682
g1683
sg1684
g1685
sg1686
NsbsI38
g0
(g1670
g2
Ntp1798
Rp1799
(dp1800
g1674
g1675
sg1676
I38
sg1677
F1805.5829587678868
sg1678
F16122.008246470916
sg1679
F0.0
sg1680
g1681
sg1682
g1683
sg1684
g1685
sg1686
NsbsI39
g0
(g1670
g2
Ntp1801
Rp1802
(dp1803
g1674
g1675
sg1676
I39
sg1677
F2708.3744381518304
sg1678
F16122.008246470916
sg1679
F0.0
sg1680
g1681
sg1682
g1683
sg1684
g1685
sg1686
NsbsI40
g0
(g1670
g2
Ntp1804
Rp1805
(dp1806
g1674
g1675
sg1676
I40
sg1677
F3611.165917535774
sg1678
F0.0
sg1679
F0.0
sg1680
g1681
sg1682
g1683
sg1684
g1685
sg1686
NsbsI41
g0
(g1670
g2
Ntp1807
Rp1808
(dp1809
g1674
g1675
sg1676
I41
sg1677
F4513.9573969197172
sg1678
F0.0
sg1679
F0.0
sg1680
g1681
sg1682
g1683
sg1684
g1685
sg1686
NsbsI42
g0
(g1670
g2
Ntp1810
Rp1811
(dp1812
g1674
g1675
sg1676
I42
sg1677
F5416.7488763036608
sg1678
F0.0
sg1679
F0.0
sg1680
g1681
sg1682
g1683
sg1684
g1685
sg1686
NsbsI43
g0
(g1670
g2
Ntp1813
Rp1814
(dp1815
g1674
g1675
sg1676
I43
sg1677
F3611.165917535774
sg1678
F1330.0656803338507
sg1679
F0.0
sg1680
g1681
sg1682
g1683
sg1684
g1685
sg1686
NsbsI44
g0
(g1670
g2
Ntp1816
Rp1817
(dp1818
g1674
g1675
sg1676
I44
sg1677
F4513.9573969197181
sg1678
F1330.0656803338507
sg1679
F0.0
sg1680
g1681
sg1682
g1683
sg1684
g1685
sg1686
NsbsI45
g0
(g1670
g2
Ntp1819
Rp1820
(dp1821
g1674
g1675
sg1676
I45
sg1677
F5416.7488763036608
sg1678
F1330.0656803338507
sg1679
F0.0
sg1680
g1681
sg1682
g1683
sg1684
g1685
sg1686
NsbsI46
g0
(g1670
g2
Ntp1822
Rp1823
(dp1824
g1674
g1675
sg1676
I46
sg1677
F3611.1659175357745
sg1678
F2660.1313606677013
sg1679
F0.0
sg1680
g1681
sg1682
g1683
sg1684
g1685
sg1686
NsbsI47
g0
(g1670
g2
Ntp1825
Rp1826
(dp1827
g1674
g1675
sg1676
I47
sg1677
F4513.9573969197172
sg1678
F2660.1313606677013
sg1679
F0.0
sg1680
g1681
sg1682
g1683
sg1684
g1685
sg1686
NsbsI48
g0
(g1670
g2
Ntp1828
Rp1829
(dp1830
g1674
g1675
sg1676
I48
sg1677
F5416.7488763036608
sg1678
F2660.1313606677013
sg1679
F0.0
sg1680
g1681
sg1682
g1683
sg1684
g1685
sg1686
NsbsI49
g0
(g1670
g2
Ntp1831
Rp1832
(dp1833
g1674
g1675
sg1676
I49
sg1677
F3611.1659175357736
sg1678
F3990.197041001552
sg1679
F0.0
sg1680
g1681
sg1682
g1683
sg1684
g1685
sg1686
NsbsI50
g0
(g1670
g2
Ntp1834
Rp1835
(dp1836
g1674
g1675
sg1676
I50
sg1677
F4513.9573969197172
sg1678
F3990.197041001552
sg1679
F0.0
sg1680
g1681
sg1682
g1683
sg1684
g1685
sg1686
NsbsI51
g0
(g1670
g2
Ntp1837
Rp1838
(dp1839
g1674
g1675
sg1676
I51
sg1677
F5416.7488763036608
sg1678
F3990.197041001552
sg1679
F0.0
sg1680
g1681
sg1682
g1683
sg1684
g1685
sg1686
NsbsI52
g0
(g1670
g2
Ntp1840
Rp1841
(dp1842
g1674
g1675
sg1676
I52
sg1677
F3611.165917535774
sg1678
F5320.2627213354026
sg1679
F0.0
sg1680
g1681
sg1682
g1683
sg1684
g1685
sg1686
NsbsI53
g0
(g1670
g2
Ntp1843
Rp1844
(dp1845
g1674
g1675
sg1676
I53
sg1677
F4513.9573969197172
sg1678
F5320.2627213354026
sg1679
F0.0
sg1680
g1681
sg1682
g1683
sg1684
g1685
sg1686
NsbsI54
g0
(g1670
g2
Ntp1846
Rp1847
(dp1848
g1674
g1675
sg1676
I54
sg1677
F5416.7488763036608
sg1678
F5320.2627213354026
sg1679
F0.0
sg1680
g1681
sg1682
g1683
sg1684
g1685
sg1686
NsbsI55
g0
(g1670
g2
Ntp1849
Rp1850
(dp1851
g1674
g1675
sg1676
I55
sg1677
F3611.165917535774
sg1678
F10801.745525135513
sg1679
F0.0
sg1680
g1681
sg1682
g1683
sg1684
g1685
sg1686
NsbsI56
g0
(g1670
g2
Ntp1852
Rp1853
(dp1854
g1674
g1675
sg1676
I56
sg1677
F4513.9573969197172
sg1678
F10801.745525135513
sg1679
F0.0
sg1680
g1681
sg1682
g1683
sg1684
g1685
sg1686
NsbsI57
g0
(g1670
g2
Ntp1855
Rp1856
(dp1857
g1674
g1675
sg1676
I57
sg1677
F5416.7488763036608
sg1678
F10801.745525135513
sg1679
F0.0
sg1680
g1681
sg1682
g1683
sg1684
g1685
sg1686
NsbsI58
g0
(g1670
g2
Ntp1858
Rp1859
(dp1860
g1674
g1675
sg1676
I58
sg1677
F3611.165917535774
sg1678
F12131.811205469363
sg1679
F0.0
sg1680
g1681
sg1682
g1683
sg1684
g1685
sg1686
NsbsI59
g0
(g1670
g2
Ntp1861
Rp1862
(dp1863
g1674
g1675
sg1676
I59
sg1677
F4513.9573969197181
sg1678
F12131.811205469363
sg1679
F0.0
sg1680
g1681
sg1682
g1683
sg1684
g1685
sg1686
NsbsI60
g0
(g1670
g2
Ntp1864
Rp1865
(dp1866
g1674
g1675
sg1676
I60
sg1677
F5416.7488763036608
sg1678
F12131.811205469363
sg1679
F0.0
sg1680
g1681
sg1682
g1683
sg1684
g1685
sg1686
NsbsI61
g0
(g1670
g2
Ntp1867
Rp1868
(dp1869
g1674
g1675
sg1676
I61
sg1677
F3611.1659175357745
sg1678
F13461.876885803214
sg1679
F0.0
sg1680
g1681
sg1682
g1683
sg1684
g1685
sg1686
NsbsI62
g0
(g1670
g2
Ntp1870
Rp1871
(dp1872
g1674
g1675
sg1676
I62
sg1677
F4513.9573969197172
sg1678
F13461.876885803216
sg1679
F0.0
sg1680
g1681
sg1682
g1683
sg1684
g1685
sg1686
NsbsI63
g0
(g1670
g2
Ntp1873
Rp1874
(dp1875
g1674
g1675
sg1676
I63
sg1677
F5416.7488763036608
sg1678
F13461.876885803214
sg1679
F0.0
sg1680
g1681
sg1682
g1683
sg1684
g1685
sg1686
NsbsI64
g0
(g1670
g2
Ntp1876
Rp1877
(dp1878
g1674
g1675
sg1676
I64
sg1677
F3611.1659175357736
sg1678
F14791.942566137066
sg1679
F0.0
sg1680
g1681
sg1682
g1683
sg1684
g1685
sg1686
NsbsI65
g0
(g1670
g2
Ntp1879
Rp1880
(dp1881
g1674
g1675
sg1676
I65
sg1677
F4513.9573969197172
sg1678
F14791.942566137066
sg1679
F0.0
sg1680
g1681
sg1682
g1683
sg1684
g1685
sg1686
NsbsI66
g0
(g1670
g2
Ntp1882
Rp1883
(dp1884
g1674
g1675
sg1676
I66
sg1677
F5416.7488763036608
sg1678
F14791.942566137066
sg1679
F0.0
sg1680
g1681
sg1682
g1683
sg1684
g1685
sg1686
NsbsI67
g0
(g1670
g2
Ntp1885
Rp1886
(dp1887
g1674
g1675
sg1676
I67
sg1677
F3611.165917535774
sg1678
F16122.008246470916
sg1679
F0.0
sg1680
g1681
sg1682
g1683
sg1684
g1685
sg1686
NsbsI68
g0
(g1670
g2
Ntp1888
Rp1889
(dp1890
g1674
g1675
sg1676
I68
sg1677
F4513.9573969197172
sg1678
F16122.008246470916
sg1679
F0.0
sg1680
g1681
sg1682
g1683
sg1684
g1685
sg1686
NsbsI69
g0
(g1670
g2
Ntp1891
Rp1892
(dp1893
g1674
g1675
sg1676
I69
sg1677
F5416.7488763036608
sg1678
F16122.008246470916
sg1679
F0.0
sg1680
g1681
sg1682
g1683
sg1684
g1685
sg1686
NsbsI70
g0
(g1670
g2
Ntp1894
Rp1895
(dp1896
g1674
g1675
sg1676
I70
sg1677
F6346.8976732446945
sg1678
F0.0
sg1679
F0.0
sg1680
g1681
sg1682
g1683
sg1684
g1685
sg1686
NsbsI71
g0
(g1670
g2
Ntp1897
Rp1898
(dp1899
g1674
g1675
sg1676
I71
sg1677
F7277.0464701857272
sg1678
F0.0
sg1679
F0.0
sg1680
g1681
sg1682
g1683
sg1684
g1685
sg1686
NsbsI72
g0
(g1670
g2
Ntp1900
Rp1901
(dp1902
g1674
g1675
sg1676
I72
sg1677
F8207.1952671267591
sg1678
F0.0
sg1679
F0.0
sg1680
g1681
sg1682
g1683
sg1684
g1685
sg1686
NsbsI73
g0
(g1670
g2
Ntp1903
Rp1904
(dp1905
g1674
g1675
sg1676
I73
sg1677
F6346.8976732446936
sg1678
F1330.0656803338509
sg1679
F0.0
sg1680
g1681
sg1682
g1683
sg1684
g1685
sg1686
NsbsI74
g0
(g1670
g2
Ntp1906
Rp1907
(dp1908
g1674
g1675
sg1676
I74
sg1677
F7277.0464701857254
sg1678
F1330.0656803338509
sg1679
F0.0
sg1680
g1681
sg1682
g1683
sg1684
g1685
sg1686
NsbsI75
g0
(g1670
g2
Ntp1909
Rp1910
(dp1911
g1674
g1675
sg1676
I75
sg1677
F8207.1952671267591
sg1678
F1330.0656803338507
sg1679
F0.0
sg1680
g1681
sg1682
g1683
sg1684
g1685
sg1686
NsbsI76
g0
(g1670
g2
Ntp1912
Rp1913
(dp1914
g1674
g1675
sg1676
I76
sg1677
F6346.8976732446936
sg1678
F2660.1313606677018
sg1679
F0.0
sg1680
g1681
sg1682
g1683
sg1684
g1685
sg1686
NsbsI77
g0
(g1670
g2
Ntp1915
Rp1916
(dp1917
g1674
g1675
sg1676
I77
sg1677
F7277.0464701857272
sg1678
F2660.1313606677018
sg1679
F0.0
sg1680
g1681
sg1682
g1683
sg1684
g1685
sg1686
NsbsI78
g0
(g1670
g2
Ntp1918
Rp1919
(dp1920
g1674
g1675
sg1676
I78
sg1677
F8207.1952671267591
sg1678
F2660.1313606677013
sg1679
F0.0
sg1680
g1681
sg1682
g1683
sg1684
g1685
sg1686
NsbsI79
g0
(g1670
g2
Ntp1921
Rp1922
(dp1923
g1674
g1675
sg1676
I79
sg1677
F6346.8976732446936
sg1678
F3990.197041001552
sg1679
F0.0
sg1680
g1681
sg1682
g1683
sg1684
g1685
sg1686
NsbsI80
g0
(g1670
g2
Ntp1924
Rp1925
(dp1926
g1674
g1675
sg1676
I80
sg1677
F7277.0464701857263
sg1678
F3990.197041001552
sg1679
F0.0
sg1680
g1681
sg1682
g1683
sg1684
g1685
sg1686
NsbsI81
g0
(g1670
g2
Ntp1927
Rp1928
(dp1929
g1674
g1675
sg1676
I81
sg1677
F8207.1952671267591
sg1678
F3990.197041001552
sg1679
F0.0
sg1680
g1681
sg1682
g1683
sg1684
g1685
sg1686
NsbsI82
g0
(g1670
g2
Ntp1930
Rp1931
(dp1932
g1674
g1675
sg1676
I82
sg1677
F6346.8976732446945
sg1678
F5320.2627213354035
sg1679
F0.0
sg1680
g1681
sg1682
g1683
sg1684
g1685
sg1686
NsbsI83
g0
(g1670
g2
Ntp1933
Rp1934
(dp1935
g1674
g1675
sg1676
I83
sg1677
F7277.0464701857272
sg1678
F5320.2627213354035
sg1679
F0.0
sg1680
g1681
sg1682
g1683
sg1684
g1685
sg1686
NsbsI84
g0
(g1670
g2
Ntp1936
Rp1937
(dp1938
g1674
g1675
sg1676
I84
sg1677
F8207.1952671267591
sg1678
F5320.2627213354026
sg1679
F0.0
sg1680
g1681
sg1682
g1683
sg1684
g1685
sg1686
NsbsI85
g0
(g1670
g2
Ntp1939
Rp1940
(dp1941
g1674
g1675
sg1676
I85
sg1677
F6346.8976732446945
sg1678
F10801.745525135513
sg1679
F0.0
sg1680
g1681
sg1682
g1683
sg1684
g1685
sg1686
NsbsI86
g0
(g1670
g2
Ntp1942
Rp1943
(dp1944
g1674
g1675
sg1676
I86
sg1677
F7277.0464701857272
sg1678
F10801.745525135513
sg1679
F0.0
sg1680
g1681
sg1682
g1683
sg1684
g1685
sg1686
NsbsI87
g0
(g1670
g2
Ntp1945
Rp1946
(dp1947
g1674
g1675
sg1676
I87
sg1677
F8207.1952671267591
sg1678
F10801.745525135513
sg1679
F0.0
sg1680
g1681
sg1682
g1683
sg1684
g1685
sg1686
NsbsI88
g0
(g1670
g2
Ntp1948
Rp1949
(dp1950
g1674
g1675
sg1676
I88
sg1677
F6346.8976732446936
sg1678
F12131.811205469363
sg1679
F0.0
sg1680
g1681
sg1682
g1683
sg1684
g1685
sg1686
NsbsI89
g0
(g1670
g2
Ntp1951
Rp1952
(dp1953
g1674
g1675
sg1676
I89
sg1677
F7277.0464701857254
sg1678
F12131.811205469363
sg1679
F0.0
sg1680
g1681
sg1682
g1683
sg1684
g1685
sg1686
NsbsI90
g0
(g1670
g2
Ntp1954
Rp1955
(dp1956
g1674
g1675
sg1676
I90
sg1677
F8207.1952671267591
sg1678
F12131.811205469363
sg1679
F0.0
sg1680
g1681
sg1682
g1683
sg1684
g1685
sg1686
NsbsI91
g0
(g1670
g2
Ntp1957
Rp1958
(dp1959
g1674
g1675
sg1676
I91
sg1677
F6346.8976732446936
sg1678
F13461.876885803216
sg1679
F0.0
sg1680
g1681
sg1682
g1683
sg1684
g1685
sg1686
NsbsI92
g0
(g1670
g2
Ntp1960
Rp1961
(dp1962
g1674
g1675
sg1676
I92
sg1677
F7277.0464701857272
sg1678
F13461.876885803216
sg1679
F0.0
sg1680
g1681
sg1682
g1683
sg1684
g1685
sg1686
NsbsI93
g0
(g1670
g2
Ntp1963
Rp1964
(dp1965
g1674
g1675
sg1676
I93
sg1677
F8207.1952671267591
sg1678
F13461.876885803214
sg1679
F0.0
sg1680
g1681
sg1682
g1683
sg1684
g1685
sg1686
NsbsI94
g0
(g1670
g2
Ntp1966
Rp1967
(dp1968
g1674
g1675
sg1676
I94
sg1677
F6346.8976732446936
sg1678
F14791.942566137066
sg1679
F0.0
sg1680
g1681
sg1682
g1683
sg1684
g1685
sg1686
NsbsI95
g0
(g1670
g2
Ntp1969
Rp1970
(dp1971
g1674
g1675
sg1676
I95
sg1677
F7277.0464701857263
sg1678
F14791.942566137066
sg1679
F0.0
sg1680
g1681
sg1682
g1683
sg1684
g1685
sg1686
NsbsI96
g0
(g1670
g2
Ntp1972
Rp1973
(dp1974
g1674
g1675
sg1676
I96
sg1677
F8207.1952671267591
sg1678
F14791.942566137066
sg1679
F0.0
sg1680
g1681
sg1682
g1683
sg1684
g1685
sg1686
NsbsI97
g0
(g1670
g2
Ntp1975
Rp1976
(dp1977
g1674
g1675
sg1676
I97
sg1677
F6346.8976732446945
sg1678
F16122.008246470918
sg1679
F0.0
sg1680
g1681
sg1682
g1683
sg1684
g1685
sg1686
NsbsI98
g0
(g1670
g2
Ntp1978
Rp1979
(dp1980
g1674
g1675
sg1676
I98
sg1677
F7277.0464701857272
sg1678
F16122.008246470918
sg1679
F0.0
sg1680
g1681
sg1682
g1683
sg1684
g1685
sg1686
NsbsI99
g0
(g1670
g2
Ntp1981
Rp1982
(dp1983
g1674
g1675
sg1676
I99
sg1677
F8207.1952671267591
sg1678
F16122.008246470916
sg1679
F0.0
sg1680
g1681
sg1682
g1683
sg1684
g1685
sg1686
NsbsI100
g0
(g1670
g2
Ntp1984
Rp1985
(dp1986
g1674
g1675
sg1676
I100
sg1677
F0.0
sg1678
F6416.5592820954262
sg1679
F0.0
sg1680
g1681
sg1682
g1683
sg1684
g1685
sg1686
NsbsI101
g0
(g1670
g2
Ntp1987
Rp1988
(dp1989
g1674
g1675
sg1676
I101
sg1677
F902.79147938394362
sg1678
F6416.5592820954271
sg1679
F0.0
sg1680
g1681
sg1682
g1683
sg1684
g1685
sg1686
NsbsI102
g0
(g1670
g2
Ntp1990
Rp1991
(dp1992
g1674
g1675
sg1676
I102
sg1677
F1805.5829587678872
sg1678
F6416.5592820954262
sg1679
F0.0
sg1680
g1681
sg1682
g1683
sg1684
g1685
sg1686
NsbsI103
g0
(g1670
g2
Ntp1993
Rp1994
(dp1995
g1674
g1675
sg1676
I103
sg1677
F2708.3744381518313
sg1678
F6416.5592820954262
sg1679
F0.0
sg1680
g1681
sg1682
g1683
sg1684
g1685
sg1686
NsbsI104
g0
(g1670
g2
Ntp1996
Rp1997
(dp1998
g1674
g1675
sg1676
I104
sg1677
F0.0
sg1678
F7512.8558428554479
sg1679
F0.0
sg1680
g1681
sg1682
g1683
sg1684
g1685
sg1686
NsbsI105
g0
(g1670
g2
Ntp1999
Rp2000
(dp2001
g1674
g1675
sg1676
I105
sg1677
F902.7914793839434
sg1678
F7512.8558428554479
sg1679
F0.0
sg1680
g1681
sg1682
g1683
sg1684
g1685
sg1686
NsbsI106
g0
(g1670
g2
Ntp2002
Rp2003
(dp2004
g1674
g1675
sg1676
I106
sg1677
F1805.5829587678868
sg1678
F7512.8558428554479
sg1679
F0.0
sg1680
g1681
sg1682
g1683
sg1684
g1685
sg1686
NsbsI107
g0
(g1670
g2
Ntp2005
Rp2006
(dp2007
g1674
g1675
sg1676
I107
sg1677
F2708.3744381518309
sg1678
F7512.8558428554479
sg1679
F0.0
sg1680
g1681
sg1682
g1683
sg1684
g1685
sg1686
NsbsI108
g0
(g1670
g2
Ntp2008
Rp2009
(dp2010
g1674
g1675
sg1676
I108
sg1677
F0.0
sg1678
F8609.1524036154697
sg1679
F0.0
sg1680
g1681
sg1682
g1683
sg1684
g1685
sg1686
NsbsI109
g0
(g1670
g2
Ntp2011
Rp2012
(dp2013
g1674
g1675
sg1676
I109
sg1677
F902.7914793839434
sg1678
F8609.1524036154697
sg1679
F0.0
sg1680
g1681
sg1682
g1683
sg1684
g1685
sg1686
NsbsI110
g0
(g1670
g2
Ntp2014
Rp2015
(dp2016
g1674
g1675
sg1676
I110
sg1677
F1805.5829587678868
sg1678
F8609.1524036154697
sg1679
F0.0
sg1680
g1681
sg1682
g1683
sg1684
g1685
sg1686
NsbsI111
g0
(g1670
g2
Ntp2017
Rp2018
(dp2019
g1674
g1675
sg1676
I111
sg1677
F2708.3744381518309
sg1678
F8609.1524036154697
sg1679
F0.0
sg1680
g1681
sg1682
g1683
sg1684
g1685
sg1686
NsbsI112
g0
(g1670
g2
Ntp2020
Rp2021
(dp2022
g1674
g1675
sg1676
I112
sg1677
F0.0
sg1678
F9705.4489643754932
sg1679
F0.0
sg1680
g1681
sg1682
g1683
sg1684
g1685
sg1686
NsbsI113
g0
(g1670
g2
Ntp2023
Rp2024
(dp2025
g1674
g1675
sg1676
I113
sg1677
F902.79147938394351
sg1678
F9705.4489643754932
sg1679
F0.0
sg1680
g1681
sg1682
g1683
sg1684
g1685
sg1686
NsbsI114
g0
(g1670
g2
Ntp2026
Rp2027
(dp2028
g1674
g1675
sg1676
I114
sg1677
F1805.582958767887
sg1678
F9705.4489643754932
sg1679
F0.0
sg1680
g1681
sg1682
g1683
sg1684
g1685
sg1686
NsbsI115
g0
(g1670
g2
Ntp2029
Rp2030
(dp2031
g1674
g1675
sg1676
I115
sg1677
F2708.3744381518309
sg1678
F9705.4489643754932
sg1679
F0.0
sg1680
g1681
sg1682
g1683
sg1684
g1685
sg1686
NsbsI116
g0
(g1670
g2
Ntp2032
Rp2033
(dp2034
g1674
g1675
sg1676
I116
sg1677
F3611.165917535775
sg1678
F6416.5592820954271
sg1679
F0.0
sg1680
g1681
sg1682
g1683
sg1684
g1685
sg1686
NsbsI117
g0
(g1670
g2
Ntp2035
Rp2036
(dp2037
g1674
g1675
sg1676
I117
sg1677
F4513.9573969197181
sg1678
F6416.5592820954262
sg1679
F0.0
sg1680
g1681
sg1682
g1683
sg1684
g1685
sg1686
NsbsI118
g0
(g1670
g2
Ntp2038
Rp2039
(dp2040
g1674
g1675
sg1676
I118
sg1677
F5416.7488763036627
sg1678
F6416.5592820954262
sg1679
F0.0
sg1680
g1681
sg1682
g1683
sg1684
g1685
sg1686
NsbsI119
g0
(g1670
g2
Ntp2041
Rp2042
(dp2043
g1674
g1675
sg1676
I119
sg1677
F3611.1659175357745
sg1678
F7512.8558428554479
sg1679
F0.0
sg1680
g1681
sg1682
g1683
sg1684
g1685
sg1686
NsbsI120
g0
(g1670
g2
Ntp2044
Rp2045
(dp2046
g1674
g1675
sg1676
I120
sg1677
F4513.9573969197181
sg1678
F7512.8558428554479
sg1679
F0.0
sg1680
g1681
sg1682
g1683
sg1684
g1685
sg1686
NsbsI121
g0
(g1670
g2
Ntp2047
Rp2048
(dp2049
g1674
g1675
sg1676
I121
sg1677
F5416.7488763036617
sg1678
F7512.8558428554479
sg1679
F0.0
sg1680
g1681
sg1682
g1683
sg1684
g1685
sg1686
NsbsI122
g0
(g1670
g2
Ntp2050
Rp2051
(dp2052
g1674
g1675
sg1676
I122
sg1677
F3611.1659175357745
sg1678
F8609.1524036154697
sg1679
F0.0
sg1680
g1681
sg1682
g1683
sg1684
g1685
sg1686
NsbsI123
g0
(g1670
g2
Ntp2053
Rp2054
(dp2055
g1674
g1675
sg1676
I123
sg1677
F4513.9573969197172
sg1678
F8609.1524036154697
sg1679
F0.0
sg1680
g1681
sg1682
g1683
sg1684
g1685
sg1686
NsbsI124
g0
(g1670
g2
Ntp2056
Rp2057
(dp2058
g1674
g1675
sg1676
I124
sg1677
F5416.7488763036617
sg1678
F8609.1524036154697
sg1679
F0.0
sg1680
g1681
sg1682
g1683
sg1684
g1685
sg1686
NsbsI125
g0
(g1670
g2
Ntp2059
Rp2060
(dp2061
g1674
g1675
sg1676
I125
sg1677
F3611.1659175357745
sg1678
F9705.4489643754932
sg1679
F0.0
sg1680
g1681
sg1682
g1683
sg1684
g1685
sg1686
NsbsI126
g0
(g1670
g2
Ntp2062
Rp2063
(dp2064
g1674
g1675
sg1676
I126
sg1677
F4513.9573969197181
sg1678
F9705.4489643754932
sg1679
F0.0
sg1680
g1681
sg1682
g1683
sg1684
g1685
sg1686
NsbsI127
g0
(g1670
g2
Ntp2065
Rp2066
(dp2067
g1674
g1675
sg1676
I127
sg1677
F5416.7488763036617
sg1678
F9705.4489643754932
sg1679
F0.0
sg1680
g1681
sg1682
g1683
sg1684
g1685
sg1686
NsbsI128
g0
(g1670
g2
Ntp2068
Rp2069
(dp2070
g1674
g1675
sg1676
I128
sg1677
F6346.8976732446963
sg1678
F6416.559282095428
sg1679
F0.0
sg1680
g1681
sg1682
g1683
sg1684
g1685
sg1686
NsbsI129
g0
(g1670
g2
Ntp2071
Rp2072
(dp2073
g1674
g1675
sg1676
I129
sg1677
F7277.046470185729
sg1678
F6416.5592820954271
sg1679
F0.0
sg1680
g1681
sg1682
g1683
sg1684
g1685
sg1686
NsbsI130
g0
(g1670
g2
Ntp2074
Rp2075
(dp2076
g1674
g1675
sg1676
I130
sg1677
F8207.1952671267609
sg1678
F6416.5592820954262
sg1679
F0.0
sg1680
g1681
sg1682
g1683
sg1684
g1685
sg1686
NsbsI131
g0
(g1670
g2
Ntp2077
Rp2078
(dp2079
g1674
g1675
sg1676
I131
sg1677
F6346.8976732446945
sg1678
F7512.8558428554488
sg1679
F0.0
sg1680
g1681
sg1682
g1683
sg1684
g1685
sg1686
NsbsI132
g0
(g1670
g2
Ntp2080
Rp2081
(dp2082
g1674
g1675
sg1676
I132
sg1677
F7277.0464701857281
sg1678
F7512.8558428554488
sg1679
F0.0
sg1680
g1681
sg1682
g1683
sg1684
g1685
sg1686
NsbsI133
g0
(g1670
g2
Ntp2083
Rp2084
(dp2085
g1674
g1675
sg1676
I133
sg1677
F8207.1952671267591
sg1678
F7512.8558428554479
sg1679
F0.0
sg1680
g1681
sg1682
g1683
sg1684
g1685
sg1686
NsbsI134
g0
(g1670
g2
Ntp2086
Rp2087
(dp2088
g1674
g1675
sg1676
I134
sg1677
F6346.8976732446945
sg1678
F8609.1524036154697
sg1679
F0.0
sg1680
g1681
sg1682
g1683
sg1684
g1685
sg1686
NsbsI135
g0
(g1670
g2
Ntp2089
Rp2090
(dp2091
g1674
g1675
sg1676
I135
sg1677
F7277.0464701857272
sg1678
F8609.1524036154697
sg1679
F0.0
sg1680
g1681
sg1682
g1683
sg1684
g1685
sg1686
NsbsI136
g0
(g1670
g2
Ntp2092
Rp2093
(dp2094
g1674
g1675
sg1676
I136
sg1677
F8207.1952671267591
sg1678
F8609.1524036154697
sg1679
F0.0
sg1680
g1681
sg1682
g1683
sg1684
g1685
sg1686
NsbsI137
g0
(g1670
g2
Ntp2095
Rp2096
(dp2097
g1674
g1675
sg1676
I137
sg1677
F6346.8976732446954
sg1678
F9705.4489643754951
sg1679
F0.0
sg1680
g1681
sg1682
g1683
sg1684
g1685
sg1686
NsbsI138
g0
(g1670
g2
Ntp2098
Rp2099
(dp2100
g1674
g1675
sg1676
I138
sg1677
F7277.046470185729
sg1678
F9705.4489643754951
sg1679
F0.0
sg1680
g1681
sg1682
g1683
sg1684
g1685
sg1686
NsbsI139
g0
(g1670
g2
Ntp2101
Rp2102
(dp2103
g1674
g1675
sg1676
I139
sg1677
F8207.1952671267591
sg1678
F9705.4489643754932
sg1679
F0.0
sg1680
g1681
sg1682
g1683
sg1684
g1685
sg1686
NsbsI140
g0
(g1670
g2
Ntp2104
Rp2105
(dp2106
g1674
g1675
sg1676
I140
sg1677
F0.0
sg1678
F0.0
sg1679
F-1833.5738531565821
sg1680
g1681
sg1682
g1683
sg1684
g1685
sg1686
NsbsI141
g0
(g1670
g2
Ntp2107
Rp2108
(dp2109
g1674
g1675
sg1676
I141
sg1677
F902.79147938394328
sg1678
F0.0
sg1679
F-1833.5738531565821
sg1680
g1681
sg1682
g1683
sg1684
g1685
sg1686
NsbsI142
g0
(g1670
g2
Ntp2110
Rp2111
(dp2112
g1674
g1675
sg1676
I142
sg1677
F1805.5829587678866
sg1678
F0.0
sg1679
F-1833.5738531565821
sg1680
g1681
sg1682
g1683
sg1684
g1685
sg1686
NsbsI143
g0
(g1670
g2
Ntp2113
Rp2114
(dp2115
g1674
g1675
sg1676
I143
sg1677
F2708.37443815183
sg1678
F0.0
sg1679
F-1833.5738531565821
sg1680
g1681
sg1682
g1683
sg1684
g1685
sg1686
NsbsI144
g0
(g1670
g2
Ntp2116
Rp2117
(dp2118
g1674
g1675
sg1676
I144
sg1677
F0.0
sg1678
F0.0
sg1679
F-447.44389319808283
sg1680
g1681
sg1682
g1683
sg1684
g1685
sg1686
NsbsI145
g0
(g1670
g2
Ntp2119
Rp2120
(dp2121
g1674
g1675
sg1676
I145
sg1677
F902.79147938394328
sg1678
F0.0
sg1679
F-447.44389319808289
sg1680
g1681
sg1682
g1683
sg1684
g1685
sg1686
NsbsI146
g0
(g1670
g2
Ntp2122
Rp2123
(dp2124
g1674
g1675
sg1676
I146
sg1677
F1805.5829587678866
sg1678
F0.0
sg1679
F-447.44389319808283
sg1680
g1681
sg1682
g1683
sg1684
g1685
sg1686
NsbsI147
g0
(g1670
g2
Ntp2125
Rp2126
(dp2127
g1674
g1675
sg1676
I147
sg1677
F2708.37443815183
sg1678
F0.0
sg1679
F-447.44389319808283
sg1680
g1681
sg1682
g1683
sg1684
g1685
sg1686
NsbsI148
g0
(g1670
g2
Ntp2128
Rp2129
(dp2130
g1674
g1675
sg1676
I148
sg1677
F3611.1659175357736
sg1678
F0.0
sg1679
F-1833.5738531565821
sg1680
g1681
sg1682
g1683
sg1684
g1685
sg1686
NsbsI149
g0
(g1670
g2
Ntp2131
Rp2132
(dp2133
g1674
g1675
sg1676
I149
sg1677
F4513.9573969197163
sg1678
F0.0
sg1679
F-1833.5738531565821
sg1680
g1681
sg1682
g1683
sg1684
g1685
sg1686
NsbsI150
g0
(g1670
g2
Ntp2134
Rp2135
(dp2136
g1674
g1675
sg1676
I150
sg1677
F5416.7488763036599
sg1678
F0.0
sg1679
F-1833.5738531565821
sg1680
g1681
sg1682
g1683
sg1684
g1685
sg1686
NsbsI151
g0
(g1670
g2
Ntp2137
Rp2138
(dp2139
g1674
g1675
sg1676
I151
sg1677
F3611.1659175357736
sg1678
F0.0
sg1679
F-447.44389319808289
sg1680
g1681
sg1682
g1683
sg1684
g1685
sg1686
NsbsI152
g0
(g1670
g2
Ntp2140
Rp2141
(dp2142
g1674
g1675
sg1676
I152
sg1677
F4513.9573969197163
sg1678
F0.0
sg1679
F-447.44389319808283
sg1680
g1681
sg1682
g1683
sg1684
g1685
sg1686
NsbsI153
g0
(g1670
g2
Ntp2143
Rp2144
(dp2145
g1674
g1675
sg1676
I153
sg1677
F5416.7488763036599
sg1678
F0.0
sg1679
F-447.44389319808283
sg1680
g1681
sg1682
g1683
sg1684
g1685
sg1686
NsbsI154
g0
(g1670
g2
Ntp2146
Rp2147
(dp2148
g1674
g1675
sg1676
I154
sg1677
F6346.8976732446936
sg1678
F0.0
sg1679
F-1833.5738531565819
sg1680
g1681
sg1682
g1683
sg1684
g1685
sg1686
NsbsI155
g0
(g1670
g2
Ntp2149
Rp2150
(dp2151
g1674
g1675
sg1676
I155
sg1677
F7277.0464701857263
sg1678
F0.0
sg1679
F-1833.5738531565819
sg1680
g1681
sg1682
g1683
sg1684
g1685
sg1686
NsbsI156
g0
(g1670
g2
Ntp2152
Rp2153
(dp2154
g1674
g1675
sg1676
I156
sg1677
F8207.1952671267609
sg1678
F0.0
sg1679
F-1833.5738531565821
sg1680
g1681
sg1682
g1683
sg1684
g1685
sg1686
NsbsI157
g0
(g1670
g2
Ntp2155
Rp2156
(dp2157
g1674
g1675
sg1676
I157
sg1677
F6346.8976732446936
sg1678
F0.0
sg1679
F-447.44389319808283
sg1680
g1681
sg1682
g1683
sg1684
g1685
sg1686
NsbsI158
g0
(g1670
g2
Ntp2158
Rp2159
(dp2160
g1674
g1675
sg1676
I158
sg1677
F7277.0464701857263
sg1678
F0.0
sg1679
F-447.44389319808283
sg1680
g1681
sg1682
g1683
sg1684
g1685
sg1686
NsbsI159
g0
(g1670
g2
Ntp2161
Rp2162
(dp2163
g1674
g1675
sg1676
I159
sg1677
F8207.1952671267609
sg1678
F0.0
sg1679
F-447.44389319808283
sg1680
g1681
sg1682
g1683
sg1684
g1685
sg1686
NsbsI160
g0
(g1670
g2
Ntp2164
Rp2165
(dp2166
g1674
g1675
sg1676
I160
sg1677
F0.0
sg1678
F0.0
sg1679
F-3261.7077512956421
sg1680
g1681
sg1682
g1683
sg1684
g1685
sg1686
NsbsI161
g0
(g1670
g2
Ntp2167
Rp2168
(dp2169
g1674
g1675
sg1676
I161
sg1677
F902.79147938394328
sg1678
F0.0
sg1679
F-3261.7077512956425
sg1680
g1681
sg1682
g1683
sg1684
g1685
sg1686
NsbsI162
g0
(g1670
g2
Ntp2170
Rp2171
(dp2172
g1674
g1675
sg1676
I162
sg1677
F1805.5829587678866
sg1678
F0.0
sg1679
F-3261.7077512956421
sg1680
g1681
sg1682
g1683
sg1684
g1685
sg1686
NsbsI163
g0
(g1670
g2
Ntp2173
Rp2174
(dp2175
g1674
g1675
sg1676
I163
sg1677
F2708.37443815183
sg1678
F0.0
sg1679
F-3261.7077512956421
sg1680
g1681
sg1682
g1683
sg1684
g1685
sg1686
NsbsI164
g0
(g1670
g2
Ntp2176
Rp2177
(dp2178
g1674
g1675
sg1676
I164
sg1677
F3611.1659175357736
sg1678
F0.0
sg1679
F-3261.7077512956425
sg1680
g1681
sg1682
g1683
sg1684
g1685
sg1686
NsbsI165
g0
(g1670
g2
Ntp2179
Rp2180
(dp2181
g1674
g1675
sg1676
I165
sg1677
F4513.9573969197163
sg1678
F0.0
sg1679
F-3261.7077512956421
sg1680
g1681
sg1682
g1683
sg1684
g1685
sg1686
NsbsI166
g0
(g1670
g2
Ntp2182
Rp2183
(dp2184
g1674
g1675
sg1676
I166
sg1677
F5416.7488763036599
sg1678
F0.0
sg1679
F-3261.7077512956421
sg1680
g1681
sg1682
g1683
sg1684
g1685
sg1686
NsbsI167
g0
(g1670
g2
Ntp2185
Rp2186
(dp2187
g1674
g1675
sg1676
I167
sg1677
F6346.8976732446936
sg1678
F0.0
sg1679
F-3261.7077512956421
sg1680
g1681
sg1682
g1683
sg1684
g1685
sg1686
NsbsI168
g0
(g1670
g2
Ntp2188
Rp2189
(dp2190
g1674
g1675
sg1676
I168
sg1677
F7277.0464701857263
sg1678
F0.0
sg1679
F-3261.7077512956421
sg1680
g1681
sg1682
g1683
sg1684
g1685
sg1686
NsbsI169
g0
(g1670
g2
Ntp2191
Rp2192
(dp2193
g1674
g1675
sg1676
I169
sg1677
F8207.1952671267609
sg1678
F0.0
sg1679
F-3261.7077512956421
sg1680
g1681
sg1682
g1683
sg1684
g1685
sg1686
NsbsI170
g0
(g1670
g2
Ntp2194
Rp2195
(dp2196
g1674
g1675
sg1676
I170
sg1677
F0.0
sg1678
F0.0
sg1679
F-4647.8377112541411
sg1680
g1681
sg1682
g1683
sg1684
g1685
sg1686
NsbsI171
g0
(g1670
g2
Ntp2197
Rp2198
(dp2199
g1674
g1675
sg1676
I171
sg1677
F902.79147938394328
sg1678
F0.0
sg1679
F-4647.8377112541421
sg1680
g1681
sg1682
g1683
sg1684
g1685
sg1686
NsbsI172
g0
(g1670
g2
Ntp2200
Rp2201
(dp2202
g1674
g1675
sg1676
I172
sg1677
F1805.5829587678866
sg1678
F0.0
sg1679
F-4647.8377112541411
sg1680
g1681
sg1682
g1683
sg1684
g1685
sg1686
NsbsI173
g0
(g1670
g2
Ntp2203
Rp2204
(dp2205
g1674
g1675
sg1676
I173
sg1677
F2708.37443815183
sg1678
F0.0
sg1679
F-4647.8377112541411
sg1680
g1681
sg1682
g1683
sg1684
g1685
sg1686
NsbsI174
g0
(g1670
g2
Ntp2206
Rp2207
(dp2208
g1674
g1675
sg1676
I174
sg1677
F3611.1659175357736
sg1678
F0.0
sg1679
F-4647.8377112541421
sg1680
g1681
sg1682
g1683
sg1684
g1685
sg1686
NsbsI175
g0
(g1670
g2
Ntp2209
Rp2210
(dp2211
g1674
g1675
sg1676
I175
sg1677
F4513.9573969197163
sg1678
F0.0
sg1679
F-4647.8377112541411
sg1680
g1681
sg1682
g1683
sg1684
g1685
sg1686
NsbsI176
g0
(g1670
g2
Ntp2212
Rp2213
(dp2214
g1674
g1675
sg1676
I176
sg1677
F5416.7488763036599
sg1678
F0.0
sg1679
F-4647.8377112541411
sg1680
g1681
sg1682
g1683
sg1684
g1685
sg1686
NsbsI177
g0
(g1670
g2
Ntp2215
Rp2216
(dp2217
g1674
g1675
sg1676
I177
sg1677
F6346.8976732446936
sg1678
F0.0
sg1679
F-4647.8377112541411
sg1680
g1681
sg1682
g1683
sg1684
g1685
sg1686
NsbsI178
g0
(g1670
g2
Ntp2218
Rp2219
(dp2220
g1674
g1675
sg1676
I178
sg1677
F7277.0464701857263
sg1678
F0.0
sg1679
F-4647.8377112541411
sg1680
g1681
sg1682
g1683
sg1684
g1685
sg1686
NsbsI179
g0
(g1670
g2
Ntp2221
Rp2222
(dp2223
g1674
g1675
sg1676
I179
sg1677
F8207.1952671267609
sg1678
F0.0
sg1679
F-4647.8377112541411
sg1680
g1681
sg1682
g1683
sg1684
g1685
sg1686
NsbsI180
g0
(g1670
g2
Ntp2224
Rp2225
(dp2226
g1674
g1675
sg1676
I180
sg1677
F0.0
sg1678
F16122.008246470916
sg1679
F-1833.5738531565821
sg1680
g1681
sg1682
g1683
sg1684
g1685
sg1686
NsbsI181
g0
(g1670
g2
Ntp2227
Rp2228
(dp2229
g1674
g1675
sg1676
I181
sg1677
F902.79147938394328
sg1678
F16122.008246470916
sg1679
F-1833.5738531565821
sg1680
g1681
sg1682
g1683
sg1684
g1685
sg1686
NsbsI182
g0
(g1670
g2
Ntp2230
Rp2231
(dp2232
g1674
g1675
sg1676
I182
sg1677
F1805.5829587678866
sg1678
F16122.008246470916
sg1679
F-1833.5738531565821
sg1680
g1681
sg1682
g1683
sg1684
g1685
sg1686
NsbsI183
g0
(g1670
g2
Ntp2233
Rp2234
(dp2235
g1674
g1675
sg1676
I183
sg1677
F2708.37443815183
sg1678
F16122.008246470916
sg1679
F-1833.5738531565821
sg1680
g1681
sg1682
g1683
sg1684
g1685
sg1686
NsbsI184
g0
(g1670
g2
Ntp2236
Rp2237
(dp2238
g1674
g1675
sg1676
I184
sg1677
F0.0
sg1678
F16122.008246470916
sg1679
F-447.44389319808283
sg1680
g1681
sg1682
g1683
sg1684
g1685
sg1686
NsbsI185
g0
(g1670
g2
Ntp2239
Rp2240
(dp2241
g1674
g1675
sg1676
I185
sg1677
F902.79147938394328
sg1678
F16122.008246470916
sg1679
F-447.44389319808289
sg1680
g1681
sg1682
g1683
sg1684
g1685
sg1686
NsbsI186
g0
(g1670
g2
Ntp2242
Rp2243
(dp2244
g1674
g1675
sg1676
I186
sg1677
F1805.5829587678866
sg1678
F16122.008246470916
sg1679
F-447.44389319808283
sg1680
g1681
sg1682
g1683
sg1684
g1685
sg1686
NsbsI187
g0
(g1670
g2
Ntp2245
Rp2246
(dp2247
g1674
g1675
sg1676
I187
sg1677
F2708.37443815183
sg1678
F16122.008246470916
sg1679
F-447.44389319808283
sg1680
g1681
sg1682
g1683
sg1684
g1685
sg1686
NsbsI188
g0
(g1670
g2
Ntp2248
Rp2249
(dp2250
g1674
g1675
sg1676
I188
sg1677
F3611.1659175357736
sg1678
F16122.008246470916
sg1679
F-1833.5738531565821
sg1680
g1681
sg1682
g1683
sg1684
g1685
sg1686
NsbsI189
g0
(g1670
g2
Ntp2251
Rp2252
(dp2253
g1674
g1675
sg1676
I189
sg1677
F4513.9573969197163
sg1678
F16122.008246470916
sg1679
F-1833.5738531565821
sg1680
g1681
sg1682
g1683
sg1684
g1685
sg1686
NsbsI190
g0
(g1670
g2
Ntp2254
Rp2255
(dp2256
g1674
g1675
sg1676
I190
sg1677
F5416.7488763036599
sg1678
F16122.008246470916
sg1679
F-1833.5738531565821
sg1680
g1681
sg1682
g1683
sg1684
g1685
sg1686
NsbsI191
g0
(g1670
g2
Ntp2257
Rp2258
(dp2259
g1674
g1675
sg1676
I191
sg1677
F3611.1659175357736
sg1678
F16122.008246470916
sg1679
F-447.44389319808289
sg1680
g1681
sg1682
g1683
sg1684
g1685
sg1686
NsbsI192
g0
(g1670
g2
Ntp2260
Rp2261
(dp2262
g1674
g1675
sg1676
I192
sg1677
F4513.9573969197163
sg1678
F16122.008246470916
sg1679
F-447.44389319808283
sg1680
g1681
sg1682
g1683
sg1684
g1685
sg1686
NsbsI193
g0
(g1670
g2
Ntp2263
Rp2264
(dp2265
g1674
g1675
sg1676
I193
sg1677
F5416.7488763036599
sg1678
F16122.008246470916
sg1679
F-447.44389319808283
sg1680
g1681
sg1682
g1683
sg1684
g1685
sg1686
NsbsI194
g0
(g1670
g2
Ntp2266
Rp2267
(dp2268
g1674
g1675
sg1676
I194
sg1677
F6346.8976732446936
sg1678
F16122.008246470916
sg1679
F-1833.5738531565819
sg1680
g1681
sg1682
g1683
sg1684
g1685
sg1686
NsbsI195
g0
(g1670
g2
Ntp2269
Rp2270
(dp2271
g1674
g1675
sg1676
I195
sg1677
F7277.0464701857263
sg1678
F16122.008246470916
sg1679
F-1833.5738531565819
sg1680
g1681
sg1682
g1683
sg1684
g1685
sg1686
NsbsI196
g0
(g1670
g2
Ntp2272
Rp2273
(dp2274
g1674
g1675
sg1676
I196
sg1677
F8207.1952671267609
sg1678
F16122.008246470916
sg1679
F-1833.5738531565821
sg1680
g1681
sg1682
g1683
sg1684
g1685
sg1686
NsbsI197
g0
(g1670
g2
Ntp2275
Rp2276
(dp2277
g1674
g1675
sg1676
I197
sg1677
F6346.8976732446936
sg1678
F16122.008246470916
sg1679
F-447.44389319808283
sg1680
g1681
sg1682
g1683
sg1684
g1685
sg1686
NsbsI198
g0
(g1670
g2
Ntp2278
Rp2279
(dp2280
g1674
g1675
sg1676
I198
sg1677
F7277.0464701857263
sg1678
F16122.008246470916
sg1679
F-447.44389319808283
sg1680
g1681
sg1682
g1683
sg1684
g1685
sg1686
NsbsI199
g0
(g1670
g2
Ntp2281
Rp2282
(dp2283
g1674
g1675
sg1676
I199
sg1677
F8207.1952671267609
sg1678
F16122.008246470916
sg1679
F-447.44389319808283
sg1680
g1681
sg1682
g1683
sg1684
g1685
sg1686
NsbsI200
g0
(g1670
g2
Ntp2284
Rp2285
(dp2286
g1674
g1675
sg1676
I200
sg1677
F0.0
sg1678
F16122.008246470916
sg1679
F-3261.7077512956421
sg1680
g1681
sg1682
g1683
sg1684
g1685
sg1686
NsbsI201
g0
(g1670
g2
Ntp2287
Rp2288
(dp2289
g1674
g1675
sg1676
I201
sg1677
F902.79147938394328
sg1678
F16122.008246470916
sg1679
F-3261.7077512956425
sg1680
g1681
sg1682
g1683
sg1684
g1685
sg1686
NsbsI202
g0
(g1670
g2
Ntp2290
Rp2291
(dp2292
g1674
g1675
sg1676
I202
sg1677
F1805.5829587678866
sg1678
F16122.008246470916
sg1679
F-3261.7077512956421
sg1680
g1681
sg1682
g1683
sg1684
g1685
sg1686
NsbsI203
g0
(g1670
g2
Ntp2293
Rp2294
(dp2295
g1674
g1675
sg1676
I203
sg1677
F2708.37443815183
sg1678
F16122.008246470916
sg1679
F-3261.7077512956421
sg1680
g1681
sg1682
g1683
sg1684
g1685
sg1686
NsbsI204
g0
(g1670
g2
Ntp2296
Rp2297
(dp2298
g1674
g1675
sg1676
I204
sg1677
F3611.1659175357736
sg1678
F16122.008246470916
sg1679
F-3261.7077512956425
sg1680
g1681
sg1682
g1683
sg1684
g1685
sg1686
NsbsI205
g0
(g1670
g2
Ntp2299
Rp2300
(dp2301
g1674
g1675
sg1676
I205
sg1677
F4513.9573969197163
sg1678
F16122.008246470916
sg1679
F-3261.7077512956421
sg1680
g1681
sg1682
g1683
sg1684
g1685
sg1686
NsbsI206
g0
(g1670
g2
Ntp2302
Rp2303
(dp2304
g1674
g1675
sg1676
I206
sg1677
F5416.7488763036599
sg1678
F16122.008246470916
sg1679
F-3261.7077512956421
sg1680
g1681
sg1682
g1683
sg1684
g1685
sg1686
NsbsI207
g0
(g1670
g2
Ntp2305
Rp2306
(dp2307
g1674
g1675
sg1676
I207
sg1677
F6346.8976732446936
sg1678
F16122.008246470916
sg1679
F-3261.7077512956421
sg1680
g1681
sg1682
g1683
sg1684
g1685
sg1686
NsbsI208
g0
(g1670
g2
Ntp2308
Rp2309
(dp2310
g1674
g1675
sg1676
I208
sg1677
F7277.0464701857263
sg1678
F16122.008246470916
sg1679
F-3261.7077512956421
sg1680
g1681
sg1682
g1683
sg1684
g1685
sg1686
NsbsI209
g0
(g1670
g2
Ntp2311
Rp2312
(dp2313
g1674
g1675
sg1676
I209
sg1677
F8207.1952671267609
sg1678
F16122.008246470916
sg1679
F-3261.7077512956421
sg1680
g1681
sg1682
g1683
sg1684
g1685
sg1686
NsbsI210
g0
(g1670
g2
Ntp2314
Rp2315
(dp2316
g1674
g1675
sg1676
I210
sg1677
F0.0
sg1678
F16122.008246470916
sg1679
F-4647.8377112541411
sg1680
g1681
sg1682
g1683
sg1684
g1685
sg1686
NsbsI211
g0
(g1670
g2
Ntp2317
Rp2318
(dp2319
g1674
g1675
sg1676
I211
sg1677
F902.79147938394328
sg1678
F16122.008246470916
sg1679
F-4647.8377112541421
sg1680
g1681
sg1682
g1683
sg1684
g1685
sg1686
NsbsI212
g0
(g1670
g2
Ntp2320
Rp2321
(dp2322
g1674
g1675
sg1676
I212
sg1677
F1805.5829587678866
sg1678
F16122.008246470916
sg1679
F-4647.8377112541411
sg1680
g1681
sg1682
g1683
sg1684
g1685
sg1686
NsbsI213
g0
(g1670
g2
Ntp2323
Rp2324
(dp2325
g1674
g1675
sg1676
I213
sg1677
F2708.37443815183
sg1678
F16122.008246470916
sg1679
F-4647.8377112541411
sg1680
g1681
sg1682
g1683
sg1684
g1685
sg1686
NsbsI214
g0
(g1670
g2
Ntp2326
Rp2327
(dp2328
g1674
g1675
sg1676
I214
sg1677
F3611.1659175357736
sg1678
F16122.008246470916
sg1679
F-4647.8377112541421
sg1680
g1681
sg1682
g1683
sg1684
g1685
sg1686
NsbsI215
g0
(g1670
g2
Ntp2329
Rp2330
(dp2331
g1674
g1675
sg1676
I215
sg1677
F4513.9573969197163
sg1678
F16122.008246470916
sg1679
F-4647.8377112541411
sg1680
g1681
sg1682
g1683
sg1684
g1685
sg1686
NsbsI216
g0
(g1670
g2
Ntp2332
Rp2333
(dp2334
g1674
g1675
sg1676
I216
sg1677
F5416.7488763036599
sg1678
F16122.008246470916
sg1679
F-4647.8377112541411
sg1680
g1681
sg1682
g1683
sg1684
g1685
sg1686
NsbsI217
g0
(g1670
g2
Ntp2335
Rp2336
(dp2337
g1674
g1675
sg1676
I217
sg1677
F6346.8976732446936
sg1678
F16122.008246470916
sg1679
F-4647.8377112541411
sg1680
g1681
sg1682
g1683
sg1684
g1685
sg1686
NsbsI218
g0
(g1670
g2
Ntp2338
Rp2339
(dp2340
g1674
g1675
sg1676
I218
sg1677
F7277.0464701857263
sg1678
F16122.008246470916
sg1679
F-4647.8377112541411
sg1680
g1681
sg1682
g1683
sg1684
g1685
sg1686
NsbsI219
g0
(g1670
g2
Ntp2341
Rp2342
(dp2343
g1674
g1675
sg1676
I219
sg1677
F8207.1952671267609
sg1678
F16122.008246470916
sg1679
F-4647.8377112541411
sg1680
g1681
sg1682
g1683
sg1684
g1685
sg1686
NsbssS'node_index'
p2344
(dp2345
S'0.000,7512.856,0.000'
p2346
I104
sS'1805.583,10801.746,0.000'
p2347
I22
sS'4513.957,7512.856,0.000'
p2348
I120
sS'4513.957,0.000,-4647.838'
p2349
I175
sS'3611.166,16122.008,-3261.708'
p2350
I204
sS'4513.957,1330.066,0.000'
p2351
I44
sS'6346.898,10801.746,0.000'
p2352
I85
sS'0.000,0.000,-1833.574'
p2353
I140
sS'6346.898,1330.066,0.000'
p2354
I73
sS'2708.374,13461.877,0.000'
p2355
I31
sS'902.791,9705.449,0.000'
p2356
I113
sS'1805.583,12131.811,0.000'
p2357
I26
sS'0.000,0.000,-447.444'
p2358
I144
sS'2708.374,16122.008,-1833.574'
p2359
I183
sS'1805.583,6416.559,0.000'
p2360
I102
sS'1805.583,16122.008,-1833.574'
p2361
I182
sS'7277.046,16122.008,0.000'
p2362
I98
sS'7277.046,5320.263,0.000'
p2363
I83
sS'2708.374,14791.943,0.000'
p2364
I35
sS'7277.046,16122.008,-447.444'
p2365
I198
sS'7277.046,10801.746,0.000'
p2366
I86
sS'1805.583,9705.449,0.000'
p2367
I114
sS'8207.195,7512.856,0.000'
p2368
I133
sS'2708.374,6416.559,0.000'
p2369
I103
sS'8207.195,10801.746,0.000'
p2370
I87
sS'6346.898,3990.197,0.000'
p2371
I79
sS'0.000,14791.943,0.000'
p2372
I32
sS'8207.195,8609.152,0.000'
p2373
I136
sS'4513.957,16122.008,-1833.574'
p2374
I189
sS'0.000,0.000,0.000'
p2375
I0
sS'6346.898,6416.559,0.000'
p2376
I128
sS'3611.166,14791.943,0.000'
p2377
I64
sS'0.000,8609.152,0.000'
p2378
I108
sS'8207.195,0.000,-1833.574'
p2379
I156
sS'4513.957,16122.008,-4647.838'
p2380
I215
sS'0.000,0.000,-4647.838'
p2381
I170
sS'4513.957,16122.008,0.000'
p2382
I68
sS'6346.898,0.000,-3261.708'
p2383
I167
sS'3611.166,6416.559,0.000'
p2384
I116
sS'1805.583,0.000,-3261.708'
p2385
I162
sS'8207.195,16122.008,-1833.574'
p2386
I196
sS'4513.957,0.000,-3261.708'
p2387
I165
sS'0.000,5320.263,0.000'
p2388
I16
sS'1805.583,8609.152,0.000'
p2389
I110
sS'0.000,13461.877,0.000'
p2390
I28
sS'3611.166,8609.152,0.000'
p2391
I122
sS'902.791,2660.131,0.000'
p2392
I9
sS'4513.957,16122.008,-3261.708'
p2393
I205
sS'4513.957,5320.263,0.000'
p2394
I53
sS'1805.583,16122.008,-447.444'
p2395
I186
sS'5416.749,14791.943,0.000'
p2396
I66
sS'7277.046,9705.449,0.000'
p2397
I138
sS'7277.046,16122.008,-3261.708'
p2398
I208
sS'7277.046,13461.877,0.000'
p2399
I92
sS'902.791,16122.008,0.000'
p2400
I37
sS'5416.749,5320.263,0.000'
p2401
I54
sS'902.791,12131.811,0.000'
p2402
I25
sS'5416.749,6416.559,0.000'
p2403
I118
sS'0.000,16122.008,-1833.574'
p2404
I180
sS'4513.957,16122.008,-447.444'
p2405
I192
sS'8207.195,16122.008,-447.444'
p2406
I199
sS'3611.166,0.000,0.000'
p2407
I40
sS'7277.046,6416.559,0.000'
p2408
I129
sS'5416.749,16122.008,0.000'
p2409
I69
sS'902.791,6416.559,0.000'
p2410
I101
sS'1805.583,7512.856,0.000'
p2411
I106
sS'8207.195,0.000,-4647.838'
p2412
I179
sS'1805.583,16122.008,-3261.708'
p2413
I202
sS'8207.195,16122.008,0.000'
p2414
I99
sS'6346.898,13461.877,0.000'
p2415
I91
sS'3611.166,0.000,-447.444'
p2416
I151
sS'2708.374,10801.746,0.000'
p2417
I23
sS'6346.898,2660.131,0.000'
p2418
I76
sS'3611.166,3990.197,0.000'
p2419
I49
sS'902.791,16122.008,-1833.574'
p2420
I181
sS'3611.166,9705.449,0.000'
p2421
I125
sS'4513.957,9705.449,0.000'
p2422
I126
sS'5416.749,10801.746,0.000'
p2423
I57
sS'6346.898,7512.856,0.000'
p2424
I131
sS'7277.046,3990.197,0.000'
p2425
I80
sS'4513.957,8609.152,0.000'
p2426
I123
sS'1805.583,1330.066,0.000'
p2427
I6
sS'3611.166,7512.856,0.000'
p2428
I119
sS'7277.046,0.000,-447.444'
p2429
I158
sS'0.000,16122.008,-447.444'
p2430
I184
sS'902.791,13461.877,0.000'
p2431
I29
sS'4513.957,12131.811,0.000'
p2432
I59
sS'1805.583,5320.263,0.000'
p2433
I18
sS'7277.046,14791.943,0.000'
p2434
I95
sS'7277.046,0.000,-4647.838'
p2435
I178
sS'7277.046,7512.856,0.000'
p2436
I132
sS'7277.046,16122.008,-4647.838'
p2437
I218
sS'3611.166,0.000,-4647.838'
p2438
I174
sS'0.000,16122.008,0.000'
p2439
I36
sS'2708.374,7512.856,0.000'
p2440
I107
sS'6346.898,5320.263,0.000'
p2441
I82
sS'6346.898,8609.152,0.000'
p2442
I134
sS'8207.195,16122.008,-3261.708'
p2443
I209
sS'5416.749,0.000,0.000'
p2444
I42
sS'902.791,3990.197,0.000'
p2445
I13
sS'5416.749,16122.008,-3261.708'
p2446
I206
sS'5416.749,3990.197,0.000'
p2447
I51
sS'5416.749,7512.856,0.000'
p2448
I121
sS'8207.195,0.000,-3261.708'
p2449
I169
sS'2708.374,0.000,-4647.838'
p2450
I173
sS'3611.166,1330.066,0.000'
p2451
I43
sS'6346.898,0.000,-4647.838'
p2452
I177
sS'8207.195,13461.877,0.000'
p2453
I93
sS'5416.749,0.000,-1833.574'
p2454
I150
sS'7277.046,0.000,0.000'
p2455
I71
sS'1805.583,16122.008,-4647.838'
p2456
I212
sS'8207.195,5320.263,0.000'
p2457
I84
sS'0.000,12131.811,0.000'
p2458
I24
sS'902.791,16122.008,-447.444'
p2459
I185
sS'7277.046,2660.131,0.000'
p2460
I77
sS'8207.195,6416.559,0.000'
p2461
I130
sS'6346.898,16122.008,-4647.838'
p2462
I217
sS'0.000,6416.559,0.000'
p2463
I100
sS'1805.583,2660.131,0.000'
p2464
I10
sS'2708.374,16122.008,0.000'
p2465
I39
sS'4513.957,2660.131,0.000'
p2466
I47
sS'0.000,0.000,-3261.708'
p2467
I160
sS'5416.749,0.000,-4647.838'
p2468
I176
sS'6346.898,16122.008,-447.444'
p2469
I197
sS'8207.195,1330.066,0.000'
p2470
I75
sS'2708.374,16122.008,-4647.838'
p2471
I213
sS'902.791,0.000,-1833.574'
p2472
I141
sS'8207.195,0.000,-447.444'
p2473
I159
sS'3611.166,2660.131,0.000'
p2474
I46
sS'2708.374,9705.449,0.000'
p2475
I115
sS'4513.957,13461.877,0.000'
p2476
I62
sS'4513.957,6416.559,0.000'
p2477
I117
sS'2708.374,5320.263,0.000'
p2478
I19
sS'6346.898,0.000,-1833.574'
p2479
I154
sS'3611.166,16122.008,-4647.838'
p2480
I214
sS'6346.898,14791.943,0.000'
p2481
I94
sS'5416.749,16122.008,-4647.838'
p2482
I216
sS'8207.195,16122.008,-4647.838'
p2483
I219
sS'0.000,1330.066,0.000'
p2484
I4
sS'7277.046,1330.066,0.000'
p2485
I74
sS'2708.374,0.000,-447.444'
p2486
I147
sS'1805.583,14791.943,0.000'
p2487
I34
sS'5416.749,1330.066,0.000'
p2488
I45
sS'1805.583,0.000,0.000'
p2489
I2
sS'5416.749,0.000,-447.444'
p2490
I153
sS'2708.374,3990.197,0.000'
p2491
I15
sS'3611.166,5320.263,0.000'
p2492
I52
sS'6346.898,0.000,0.000'
p2493
I70
sS'902.791,0.000,-3261.708'
p2494
I161
sS'6346.898,16122.008,0.000'
p2495
I97
sS'2708.374,0.000,-3261.708'
p2496
I163
sS'7277.046,16122.008,-1833.574'
p2497
I195
sS'902.791,0.000,0.000'
p2498
I1
sS'902.791,7512.856,0.000'
p2499
I105
sS'7277.046,12131.811,0.000'
p2500
I89
sS'5416.749,12131.811,0.000'
p2501
I60
sS'1805.583,0.000,-4647.838'
p2502
I172
sS'7277.046,0.000,-3261.708'
p2503
I168
sS'6346.898,9705.449,0.000'
p2504
I137
sS'4513.957,14791.943,0.000'
p2505
I65
sS'2708.374,8609.152,0.000'
p2506
I111
sS'2708.374,12131.811,0.000'
p2507
I27
sS'5416.749,16122.008,-1833.574'
p2508
I190
sS'902.791,10801.746,0.000'
p2509
I21
sS'6346.898,12131.811,0.000'
p2510
I88
sS'4513.957,3990.197,0.000'
p2511
I50
sS'3611.166,16122.008,-447.444'
p2512
I191
sS'0.000,16122.008,-3261.708'
p2513
I200
sS'2708.374,16122.008,-3261.708'
p2514
I203
sS'902.791,8609.152,0.000'
p2515
I109
sS'0.000,10801.746,0.000'
p2516
I20
sS'902.791,5320.263,0.000'
p2517
I17
sS'7277.046,0.000,-1833.574'
p2518
I155
sS'4513.957,0.000,0.000'
p2519
I41
sS'1805.583,13461.877,0.000'
p2520
I30
sS'5416.749,8609.152,0.000'
p2521
I124
sS'8207.195,9705.449,0.000'
p2522
I139
sS'3611.166,16122.008,0.000'
p2523
I67
sS'902.791,1330.066,0.000'
p2524
I5
sS'0.000,2660.131,0.000'
p2525
I8
sS'4513.957,0.000,-1833.574'
p2526
I149
sS'2708.374,0.000,-1833.574'
p2527
I143
sS'0.000,9705.449,0.000'
p2528
I112
sS'7277.046,8609.152,0.000'
p2529
I135
sS'5416.749,13461.877,0.000'
p2530
I63
sS'0.000,16122.008,-4647.838'
p2531
I210
sS'3611.166,10801.746,0.000'
p2532
I55
sS'6346.898,0.000,-447.444'
p2533
I157
sS'902.791,16122.008,-4647.838'
p2534
I211
sS'2708.374,1330.066,0.000'
p2535
I7
sS'8207.195,0.000,0.000'
p2536
I72
sS'1805.583,0.000,-447.444'
p2537
I146
sS'6346.898,16122.008,-3261.708'
p2538
I207
sS'4513.957,10801.746,0.000'
p2539
I56
sS'8207.195,2660.131,0.000'
p2540
I78
sS'2708.374,2660.131,0.000'
p2541
I11
sS'0.000,3990.197,0.000'
p2542
I12
sS'4513.957,0.000,-447.444'
p2543
I152
sS'6346.898,16122.008,-1833.574'
p2544
I194
sS'902.791,0.000,-447.444'
p2545
I145
sS'5416.749,2660.131,0.000'
p2546
I48
sS'902.791,0.000,-4647.838'
p2547
I171
sS'1805.583,0.000,-1833.574'
p2548
I142
sS'5416.749,9705.449,0.000'
p2549
I127
sS'8207.195,3990.197,0.000'
p2550
I81
sS'3611.166,12131.811,0.000'
p2551
I58
sS'3611.166,16122.008,-1833.574'
p2552
I188
sS'902.791,14791.943,0.000'
p2553
I33
sS'3611.166,0.000,-1833.574'
p2554
I148
sS'3611.166,0.000,-3261.708'
p2555
I164
sS'5416.749,0.000,-3261.708'
p2556
I166
sS'8207.195,12131.811,0.000'
p2557
I90
sS'2708.374,16122.008,-447.444'
p2558
I187
sS'1805.583,3990.197,0.000'
p2559
I14
sS'8207.195,14791.943,0.000'
p2560
I96
sS'3611.166,13461.877,0.000'
p2561
I61
sS'1805.583,16122.008,0.000'
p2562
I38
sS'5416.749,16122.008,-447.444'
p2563
I193
sS'902.791,16122.008,-3261.708'
p2564
I201
sS'2708.374,0.000,0.000'
p2565
I3
ssS'path'
p2566
S'C:\\Temp\\'
p2567
sS'results'
p2568
(dp2569
S'step_2'
p2570
S'ERROR'
p2571
sS'step_3'
p2572
g2571
sS'step_4'
p2573
g2571
sS'step_1'
p2574
g2571
ssS'sections'
p2575
(dp2576
g1126
g0
(ccompas_fea.structure.section
ShellSection
p2577
g2
Ntp2578
Rp2579
(dp2580
g15
I1
sS'__name__'
p2581
S'ShellSection'
p2582
sS'name'
p2583
g1126
sS'geometry'
p2584
(dp2585
S't'
p2586
F570.62413355794752
ssS'loc_coords_OR'
p2587
(dp2588
S'ORxyz'
p2589
(lp2590
I0
aI0
aF-4200.3938180599998
assS'loc_coords_XA'
p2591
(dp2592
S'XAxyz'
p2593
(lp2594
I1
aI0
aF-4200.3938180599998
assS'loc_coords_YA'
p2595
(dp2596
S'YAxyz'
p2597
(lp2598
F4200.3938180599998
aF-4200.3938180599998
aF-4199.3938180599998
assS'loc_coords_EV_XA'
p2599
(dp2600
S'EV_XA'
p2601
(lp2602
F1.0
aF0.0
aF0.0
assS'loc_coords_EV_YA'
p2603
(dp2604
S'EV_YA'
p2605
(lp2606
F0.7071067711670721
aF-0.7071067711670721
aF0.00016834297015836899
assS'loc_coords_EV_ZA'
p2607
(dp2608
S'EV_ZA'
p2609
(lp2610
F0.0
aF-1.0
aF0.0
assS'nr_layers'
p2611
(dp2612
S'nn'
p2613
F38.0
ssS'offset'
p2614
(dp2615
S'mode'
p2616
S'mid'
p2617
ssbsg1140
g0
(g2577
g2
Ntp2618
Rp2619
(dp2620
g15
I0
sg2581
g2582
sg2583
g1140
sg2584
(dp2621
g2586
F447.44389319808283
ssg2587
(dp2622
g2589
(lp2623
I0
aI0
aI0
assg2591
(dp2624
g2593
(lp2625
I1
aI0
aI0
assg2595
(dp2626
g2597
(lp2627
F0.0
aF1.0
aF0.0
assg2599
(dp2628
g2601
(lp2629
F1.0
aF0.0
aF0.0
assg2603
(dp2630
g2605
(lp2631
F0.0
aF1.0
aF0.0
assg2607
(dp2632
g2609
(lp2633
F0.0
aF0.0
aF1.0
assg2611
(dp2634
g2613
F44.0
ssg2614
(dp2635
g2616
S'top'
p2636
ssbsg1117
g0
(g2577
g2
Ntp2637
Rp2638
(dp2639
g15
I2
sg2581
g2582
sg2583
g1117
sg2584
(dp2640
g2586
F570.62413355794752
ssg2587
(dp2641
g2589
(lp2642
I0
aF16122.0082465
aF-4200.3938180599998
assg2591
(dp2643
g2593
(lp2644
I1
aF16122.0082465
aF-4200.3938180599998
assg2595
(dp2645
g2597
(lp2646
F-4200.3938180655241
aF11921.61442844
aF-20323.402064559999
assg2599
(dp2647
g2601
(lp2648
F1.0
aF0.0
aF0.0
assg2603
(dp2649
g2605
(lp2650
F-0.24445778645207059
aF-0.24445778645174907
aF-0.93833937425968894
assg2607
(dp2651
g2609
(lp2652
F0.0
aF1.0
aF0.0
assg2611
(dp2653
g2613
F38.0
ssg2614
(dp2654
g2616
g2617
ssbsg1210
g0
(ccompas_fea.structure.section
MPCSection
p2655
g2
Ntp2656
Rp2657
(dp2658
g15
I3
sg2581
S'MPCSection'
p2659
sg2583
g1210
sg2584
NsS'nr_layers'
p2660
NsbssS'sets'
p2661
(dp2662
g1235
g0
(ccompas_fea.structure.set
Set
p2663
g2
Ntp2664
Rp2665
(dp2666
S'__name__'
p2667
S'Set'
p2668
sS'name'
p2669
g1235
sS'type'
p2670
S'element'
p2671
sS'selection'
p2672
(lp2673
I129
aI130
aI131
asS'index'
p2674
I13
sbsg1211
g0
(g2663
g2
Ntp2675
Rp2676
(dp2677
g2667
g2668
sg2669
g1211
sg2670
g2671
sg2672
(lp2678
I171
aI172
aI173
aI174
aI175
aI176
aI177
aI178
aI179
aI180
aI181
aI182
aI183
aI184
aI185
aI186
aI187
aI188
aI189
aI190
asg2674
I27
sbsg1119
g0
(g2663
g2
Ntp2679
Rp2680
(dp2681
g2667
g2668
sg2669
g1119
sg2670
g2671
sg2672
(lp2682
I153
aI154
aI155
asg2674
I21
sbsg1165
g0
(g2663
g2
Ntp2683
Rp2684
(dp2685
g2667
g2668
sg2669
g1165
sg2670
g2671
sg2672
(lp2686
I32
aI33
aI34
aI35
aI24
aI25
aI26
aI27
aI28
aI29
aI30
aI31
asg2674
I2
sbsg1131
g0
(g2663
g2
Ntp2687
Rp2688
(dp2689
g2667
g2668
sg2669
g1131
sg2670
g2671
sg2672
(lp2690
I138
aI139
aI140
asg2674
I16
sbsg1227
g0
(g2663
g2
Ntp2691
Rp2692
(dp2693
g2667
g2668
sg2669
g1227
sg2670
g2671
sg2672
(lp2694
I144
aI145
aI146
asg2674
I18
sbsg1205
g0
(g2663
g2
Ntp2695
Rp2696
(dp2697
g2667
g2668
sg2669
g1205
sg2670
g2671
sg2672
(lp2698
I12
aI13
aI14
aI15
aI16
aI17
aI18
aI19
aI20
aI21
aI22
aI23
asg2674
I1
sbsg1141
g0
(g2663
g2
Ntp2699
Rp2700
(dp2701
g2667
g2668
sg2669
g1141
sg2670
g2671
sg2672
(lp2702
I0
aI1
aI2
aI3
aI4
aI5
aI6
aI7
aI8
aI9
aI10
aI11
asg2674
I0
sbsg1193
g0
(g2663
g2
Ntp2703
Rp2704
(dp2705
g2667
g2668
sg2669
g1193
sg2670
g2671
sg2672
(lp2706
I72
aI73
aI74
aI75
aI76
aI77
aI78
aI79
aI80
aI81
aI82
aI83
aI84
aI85
aI86
asg2674
I6
sbsg1231
g0
(g2663
g2
Ntp2707
Rp2708
(dp2709
g2667
g2668
sg2669
g1231
sg2670
g2671
sg2672
(lp2710
I64
aI65
aI66
aI67
aI68
aI69
aI70
aI71
aI60
aI61
aI62
aI63
asg2674
I5
sbsg1157
g0
(g2663
g2
Ntp2711
Rp2712
(dp2713
g2667
g2668
sg2669
g1157
sg2670
g2671
sg2672
(lp2714
I48
aI49
aI50
aI51
aI52
aI53
aI54
aI55
aI56
aI57
aI58
aI59
asg2674
I4
sbsg1201
g0
(g2663
g2
Ntp2715
Rp2716
(dp2717
g2667
g2668
sg2669
g1201
sg2670
g2671
sg2672
(lp2718
I36
aI37
aI38
aI39
aI40
aI41
aI42
aI43
aI44
aI45
aI46
aI47
asg2674
I3
sbsg1149
g0
(g2663
g2
Ntp2719
Rp2720
(dp2721
g2667
g2668
sg2669
g1149
sg2670
g2671
sg2672
(lp2722
I102
aI103
aI104
aI105
aI106
aI107
aI108
aI109
aI110
aI111
aI112
aI113
aI114
aI115
aI116
asg2674
I8
sbsg1185
g0
(g2663
g2
Ntp2723
Rp2724
(dp2725
g2667
g2668
sg2669
g1185
sg2670
g2671
sg2672
(lp2726
I96
aI97
aI98
aI99
aI100
aI101
aI87
aI88
aI89
aI90
aI91
aI92
aI93
aI94
aI95
asg2674
I7
sbsg1161
g0
(g2663
g2
Ntp2727
Rp2728
(dp2729
g2667
g2668
sg2669
g1161
sg2670
g2671
sg2672
(lp2730
I123
aI124
aI125
asg2674
I11
sbsg1223
g0
(g2663
g2
Ntp2731
Rp2732
(dp2733
g2667
g2668
sg2669
g1223
sg2670
g2671
sg2672
(lp2734
I168
aI169
aI170
asg2674
I26
sbsg1173
g0
(g2663
g2
Ntp2735
Rp2736
(dp2737
g2667
g2668
sg2669
g1173
sg2670
g2671
sg2672
(lp2738
I160
aI161
aI159
asg2674
I23
sbsg1153
g0
(g2663
g2
Ntp2739
Rp2740
(dp2741
g2667
g2668
sg2669
g1153
sg2670
g2671
sg2672
(lp2742
I132
aI133
aI134
asg2674
I14
sbsg1169
g0
(g2663
g2
Ntp2743
Rp2744
(dp2745
g2667
g2668
sg2669
g1169
sg2670
g2671
sg2672
(lp2746
I152
aI150
aI151
asg2674
I20
sbsg1189
g0
(g2663
g2
Ntp2747
Rp2748
(dp2749
g2667
g2668
sg2669
g1189
sg2670
g2671
sg2672
(lp2750
I117
aI118
aI119
asg2674
I9
sbsg1181
g0
(g2663
g2
Ntp2751
Rp2752
(dp2753
g2667
g2668
sg2669
g1181
sg2670
g2671
sg2672
(lp2754
I141
aI142
aI143
asg2674
I17
sbsg35
g0
(g2663
g2
Ntp2755
Rp2756
(dp2757
g2667
g2668
sg2669
g35
sg2670
S'node'
p2758
sg2672
(lp2759
I219
aI218
aI217
aI216
aI215
aI214
aI213
aI212
aI211
aI210
asg2674
I29
sbsg1177
g0
(g2663
g2
Ntp2760
Rp2761
(dp2762
g2667
g2668
sg2669
g1177
sg2670
g2671
sg2672
(lp2763
I128
aI126
aI127
asg2674
I12
sbsg1197
g0
(g2663
g2
Ntp2764
Rp2765
(dp2766
g2667
g2668
sg2669
g1197
sg2670
g2671
sg2672
(lp2767
I165
aI166
aI167
asg2674
I25
sbsg1145
g0
(g2663
g2
Ntp2768
Rp2769
(dp2770
g2667
g2668
sg2669
g1145
sg2670
g2671
sg2672
(lp2771
I156
aI157
aI158
asg2674
I22
sbsg20
g0
(g2663
g2
Ntp2772
Rp2773
(dp2774
g2667
g2668
sg2669
g20
sg2670
g2758
sg2672
(lp2775
I179
aI178
aI177
aI176
aI175
aI174
aI173
aI172
aI171
aI170
asg2674
I28
sbsg1215
g0
(g2663
g2
Ntp2776
Rp2777
(dp2778
g2667
g2668
sg2669
g1215
sg2670
g2671
sg2672
(lp2779
I136
aI137
aI135
asg2674
I15
sbsg1135
g0
(g2663
g2
Ntp2780
Rp2781
(dp2782
g2667
g2668
sg2669
g1135
sg2670
g2671
sg2672
(lp2783
I147
aI148
aI149
asg2674
I19
sbsg1127
g0
(g2663
g2
Ntp2784
Rp2785
(dp2786
g2667
g2668
sg2669
g1127
sg2670
g2671
sg2672
(lp2787
I120
aI121
aI122
asg2674
I10
sbsg1219
g0
(g2663
g2
Ntp2788
Rp2789
(dp2790
g2667
g2668
sg2669
g1219
sg2670
g2671
sg2672
(lp2791
I162
aI163
aI164
asg2674
I24
sbssS'steps'
p2792
(dp2793
g2570
g0
(ccompas_fea.structure.step
GeneralStep
p2794
g2
Ntp2795
Rp2796
(dp2797
g15
I1
sS'__name__'
p2798
S'GeneralStep'
p2799
sS'name'
p2800
g2570
sS'attr_list'
p2801
(lp2802
g1258
aS'increments'
p2803
aS'iterations'
p2804
aS'factor'
p2805
aS'nlgeom'
p2806
aS'nlmat'
p2807
aS'displacements'
p2808
aS'loads'
p2809
aS'type'
p2810
aS'tolerance'
p2811
aS'modify'
p2812
asS'increments'
p2813
I1
sS'iterations'
p2814
I100
sS'tolerance'
p2815
F0.01
sS'factor'
p2816
F1.0
sS'nlgeom'
p2817
I00
sS'nlmat'
p2818
I01
sS'displacements'
p2819
(lp2820
sS'loads'
p2821
(lp2822
g1313
asS'modify'
p2823
I01
sS'type'
p2824
S'static'
p2825
sbsg2572
g0
(g2794
g2
Ntp2826
Rp2827
(dp2828
g15
I2
sg2798
g2799
sg2800
g2572
sg2801
(lp2829
g1258
ag2803
ag2804
ag2805
ag2806
ag2807
ag2808
ag2809
ag2810
ag2811
ag2812
asg2813
I1
sg2814
I100
sg2815
F0.01
sg2816
F1.0
sg2817
I00
sg2818
I01
sg2819
(lp2830
sg2821
(lp2831
g1292
ag1285
ag1278
asg2823
I01
sg2824
g2825
sbsg2573
g0
(g2794
g2
Ntp2832
Rp2833
(dp2834
g15
I3
sg2798
g2799
sg2800
g2573
sg2801
(lp2835
g1258
ag2803
ag2804
ag2805
ag2806
ag2807
ag2808
ag2809
ag2810
ag2811
ag2812
asg2813
I1
sg2814
I100
sg2815
F0.01
sg2816
F1.0
sg2817
I00
sg2818
I01
sg2819
(lp2836
sg2821
(lp2837
g1306
ag1299
ag1271
ag1240
ag1263
asg2823
I01
sg2824
g2825
sbsg2574
g0
(g2794
g2
Ntp2838
Rp2839
(dp2840
g15
I0
sg2798
g2799
sg2800
g2574
sg2801
(lp2841
g1258
ag2803
ag2804
ag2805
ag2806
ag2807
ag2808
ag2809
ag2810
ag2811
ag2812
asg2813
I1
sg2814
I100
sg2815
F0.01
sg2816
F1.0
sg2817
I00
sg2818
I01
sg2819
(lp2842
g10
ag31
asg2821
(lp2843
sg2823
I01
sg2824
g2825
sbssS'loc_coor'
p2844
(dp2845
sS'steps_order'
p2846
(lp2847
g2574
ag2570
ag2572
ag2573
asS'tol'
p2848
S'3'
p2849
sS'virtual_nodes'
p2850
(dp2851
sS'virtual_node_index'
p2852
(dp2853
sS'virtual_elements'
p2854
(dp2855
sS'virtual_element_index'
p2856
(dp2857
sb.