ccopy_reg
_reconstructor
p0
(ccompas_fea.structure.structure
Structure
p1
c__builtin__
object
p2
Ntp3
Rp4
(dp5
S'constraints'
p6
(dp7
sS'displacements'
p8
(dp9
S'nset_pinned_set_disp_1'
p10
g0
(ccompas_fea.structure.displacement
GeneralDisplacement
p11
g2
Ntp12
Rp13
(dp14
S'index'
p15
I0
sS'__name__'
p16
S'GeneralDisplacement'
p17
sS'name'
p18
g10
sS'nodes'
p19
S'nset_support_wall1'
p20
sS'components'
p21
(dp22
S'z'
p23
I0
sS'xx'
p24
I0
sS'zz'
p25
I0
sS'yy'
p26
I0
sS'y'
p27
I0
sS'x'
p28
I0
ssS'axes'
p29
S'global'
p30
sbsS'nset_pinned_set_disp_2'
p31
g0
(g11
g2
Ntp32
Rp33
(dp34
g15
I1
sg16
g17
sg18
g31
sg19
S'nset_support_wall2'
p35
sg21
(dp36
g23
I0
sg24
I0
sg25
I0
sg26
I0
sg27
I0
sg28
I0
ssg29
g30
sbssS'elements'
p37
(dp38
I0
g0
(ccompas_fea.structure.element
ShellElement
p39
g2
Ntp40
Rp41
(dp42
S'mass'
p43
NsS'__name__'
p44
S'ShellElement'
p45
sS'nodes'
p46
(lp47
I0
aI1
aI3
aI2
asS'number'
p48
I0
sS'thermal'
p49
I00
sS'axes'
p50
(dp51
S'ey'
p52
NsS'ez'
p53
NsS'ex'
p54
NssS'element_property'
p55
S'elset_plate_1_element_prop'
p56
sbsI1
g0
(g39
g2
Ntp57
Rp58
(dp59
g43
Nsg44
g45
sg46
(lp60
I2
aI3
aI5
aI4
asg48
I1
sg49
I00
sg50
g51
sg55
g56
sbsI2
g0
(g39
g2
Ntp61
Rp62
(dp63
g43
Nsg44
g45
sg46
(lp64
I6
aI7
aI9
aI8
asg48
I2
sg49
I00
sg50
(dp65
g52
Nsg53
Nsg54
Nssg55
S'elset_plate_2_element_prop'
p66
sbsI3
g0
(g39
g2
Ntp67
Rp68
(dp69
g43
Nsg44
g45
sg46
(lp70
I8
aI9
aI11
aI10
asg48
I3
sg49
I00
sg50
g65
sg55
g66
sbsI4
g0
(g39
g2
Ntp71
Rp72
(dp73
g43
Nsg44
g45
sg46
(lp74
I1
aI12
aI13
aI3
asg48
I4
sg49
I00
sg50
(dp75
g52
Nsg53
Nsg54
Nssg55
S'elset_plate_3_element_prop'
p76
sbsI5
g0
(g39
g2
Ntp77
Rp78
(dp79
g43
Nsg44
g45
sg46
(lp80
I3
aI13
aI14
aI5
asg48
I5
sg49
I00
sg50
g75
sg55
g76
sbsI6
g0
(g39
g2
Ntp81
Rp82
(dp83
g43
Nsg44
g45
sg46
(lp84
I7
aI15
aI16
aI9
asg48
I6
sg49
I00
sg50
(dp85
g52
Nsg53
Nsg54
Nssg55
S'elset_plate_4_element_prop'
p86
sbsI7
g0
(g39
g2
Ntp87
Rp88
(dp89
g43
Nsg44
g45
sg46
(lp90
I9
aI16
aI17
aI11
asg48
I7
sg49
I00
sg50
g85
sg55
g86
sbsI8
g0
(g39
g2
Ntp91
Rp92
(dp93
g43
Nsg44
g45
sg46
(lp94
I12
aI18
aI19
aI13
asg48
I8
sg49
I00
sg50
(dp95
g52
Nsg53
Nsg54
Nssg55
S'elset_plate_5_element_prop'
p96
sbsI9
g0
(g39
g2
Ntp97
Rp98
(dp99
g43
Nsg44
g45
sg46
(lp100
I13
aI19
aI20
aI14
asg48
I9
sg49
I00
sg50
g95
sg55
g96
sbsI10
g0
(g39
g2
Ntp101
Rp102
(dp103
g43
Nsg44
g45
sg46
(lp104
I15
aI21
aI22
aI16
asg48
I10
sg49
I00
sg50
(dp105
g52
Nsg53
Nsg54
Nssg55
S'elset_plate_6_element_prop'
p106
sbsI11
g0
(g39
g2
Ntp107
Rp108
(dp109
g43
Nsg44
g45
sg46
(lp110
I16
aI22
aI23
aI17
asg48
I11
sg49
I00
sg50
g105
sg55
g106
sbsI12
g0
(g39
g2
Ntp111
Rp112
(dp113
g43
Nsg44
g45
sg46
(lp114
I4
aI5
aI25
aI24
asg48
I12
sg49
I00
sg50
(dp115
g52
Nsg53
Nsg54
Nssg55
S'elset_plate_7_element_prop'
p116
sbsI13
g0
(g39
g2
Ntp117
Rp118
(dp119
g43
Nsg44
g45
sg46
(lp120
I24
aI25
aI27
aI26
asg48
I13
sg49
I00
sg50
g115
sg55
g116
sbsI14
g0
(g39
g2
Ntp121
Rp122
(dp123
g43
Nsg44
g45
sg46
(lp124
I26
aI27
aI7
aI6
asg48
I14
sg49
I00
sg50
g115
sg55
g116
sbsI15
g0
(g39
g2
Ntp125
Rp126
(dp127
g43
Nsg44
g45
sg46
(lp128
I5
aI14
aI28
aI25
asg48
I15
sg49
I00
sg50
(dp129
g52
Nsg53
Nsg54
Nssg55
S'elset_plate_8_element_prop'
p130
sbsI16
g0
(g39
g2
Ntp131
Rp132
(dp133
g43
Nsg44
g45
sg46
(lp134
I25
aI28
aI29
aI27
asg48
I16
sg49
I00
sg50
g129
sg55
g130
sbsI17
g0
(g39
g2
Ntp135
Rp136
(dp137
g43
Nsg44
g45
sg46
(lp138
I27
aI29
aI15
aI7
asg48
I17
sg49
I00
sg50
g129
sg55
g130
sbsI18
g0
(g39
g2
Ntp139
Rp140
(dp141
g43
Nsg44
g45
sg46
(lp142
I14
aI20
aI30
aI28
asg48
I18
sg49
I00
sg50
(dp143
g52
Nsg53
Nsg54
Nssg55
S'elset_plate_9_element_prop'
p144
sbsI19
g0
(g39
g2
Ntp145
Rp146
(dp147
g43
Nsg44
g45
sg46
(lp148
I28
aI30
aI31
aI29
asg48
I19
sg49
I00
sg50
g143
sg55
g144
sbsI20
g0
(g39
g2
Ntp149
Rp150
(dp151
g43
Nsg44
g45
sg46
(lp152
I29
aI31
aI21
aI15
asg48
I20
sg49
I00
sg50
g143
sg55
g144
sbsI21
g0
(g39
g2
Ntp153
Rp154
(dp155
g43
Nsg44
g45
sg46
(lp156
I32
aI33
aI35
aI34
asg48
I21
sg49
I00
sg50
(dp157
g52
Nsg53
Nsg54
Nssg55
S'elset_wall_1_1_element_prop'
p158
sbsI22
g0
(g39
g2
Ntp159
Rp160
(dp161
g43
Nsg44
g45
sg46
(lp162
I33
aI36
aI37
aI35
asg48
I22
sg49
I00
sg50
(dp163
g52
Nsg53
Nsg54
Nssg55
S'elset_wall_1_2_element_prop'
p164
sbsI23
g0
(g39
g2
Ntp165
Rp166
(dp167
g43
Nsg44
g45
sg46
(lp168
I36
aI38
aI39
aI37
asg48
I23
sg49
I00
sg50
(dp169
g52
Nsg53
Nsg54
Nssg55
S'elset_wall_1_3_element_prop'
p170
sbsI24
g0
(g39
g2
Ntp171
Rp172
(dp173
g43
Nsg44
g45
sg46
(lp174
I40
aI41
aI33
aI32
asg48
I24
sg49
I00
sg50
(dp175
g52
Nsg53
Nsg54
Nssg55
S'elset_wall_1_4_element_prop'
p176
sbsI25
g0
(g39
g2
Ntp177
Rp178
(dp179
g43
Nsg44
g45
sg46
(lp180
I41
aI42
aI36
aI33
asg48
I25
sg49
I00
sg50
(dp181
g52
Nsg53
Nsg54
Nssg55
S'elset_wall_1_5_element_prop'
p182
sbsI26
g0
(g39
g2
Ntp183
Rp184
(dp185
g43
Nsg44
g45
sg46
(lp186
I42
aI43
aI38
aI36
asg48
I26
sg49
I00
sg50
(dp187
g52
Nsg53
Nsg54
Nssg55
S'elset_wall_1_6_element_prop'
p188
sbsI27
g0
(g39
g2
Ntp189
Rp190
(dp191
g43
Nsg44
g45
sg46
(lp192
I44
aI45
aI41
aI40
asg48
I27
sg49
I00
sg50
(dp193
g52
Nsg53
Nsg54
Nssg55
S'elset_wall_1_7_element_prop'
p194
sbsI28
g0
(g39
g2
Ntp195
Rp196
(dp197
g43
Nsg44
g45
sg46
(lp198
I45
aI46
aI42
aI41
asg48
I28
sg49
I00
sg50
(dp199
g52
Nsg53
Nsg54
Nssg55
S'elset_wall_1_8_element_prop'
p200
sbsI29
g0
(g39
g2
Ntp201
Rp202
(dp203
g43
Nsg44
g45
sg46
(lp204
I46
aI47
aI43
aI42
asg48
I29
sg49
I00
sg50
(dp205
g52
Nsg53
Nsg54
Nssg55
S'elset_wall_1_9_element_prop'
p206
sbsI30
g0
(g39
g2
Ntp207
Rp208
(dp209
g43
Nsg44
g45
sg46
(lp210
I48
aI50
aI51
aI49
asg48
I30
sg49
I00
sg50
(dp211
g52
Nsg53
Nsg54
Nssg55
S'elset_wall_2_1_element_prop'
p212
sbsI31
g0
(g39
g2
Ntp213
Rp214
(dp215
g43
Nsg44
g45
sg46
(lp216
I49
aI51
aI53
aI52
asg48
I31
sg49
I00
sg50
(dp217
g52
Nsg53
Nsg54
Nssg55
S'elset_wall_2_2_element_prop'
p218
sbsI32
g0
(g39
g2
Ntp219
Rp220
(dp221
g43
Nsg44
g45
sg46
(lp222
I52
aI53
aI55
aI54
asg48
I32
sg49
I00
sg50
(dp223
g52
Nsg53
Nsg54
Nssg55
S'elset_wall_2_3_element_prop'
p224
sbsI33
g0
(g39
g2
Ntp225
Rp226
(dp227
g43
Nsg44
g45
sg46
(lp228
I56
aI48
aI49
aI57
asg48
I33
sg49
I00
sg50
(dp229
g52
Nsg53
Nsg54
Nssg55
S'elset_wall_2_4_element_prop'
p230
sbsI34
g0
(g39
g2
Ntp231
Rp232
(dp233
g43
Nsg44
g45
sg46
(lp234
I57
aI49
aI52
aI58
asg48
I34
sg49
I00
sg50
(dp235
g52
Nsg53
Nsg54
Nssg55
S'elset_wall_2_5_element_prop'
p236
sbsI35
g0
(g39
g2
Ntp237
Rp238
(dp239
g43
Nsg44
g45
sg46
(lp240
I58
aI52
aI54
aI59
asg48
I35
sg49
I00
sg50
(dp241
g52
Nsg53
Nsg54
Nssg55
S'elset_wall_2_6_element_prop'
p242
sbsI36
g0
(g39
g2
Ntp243
Rp244
(dp245
g43
Nsg44
g45
sg46
(lp246
I60
aI56
aI57
aI61
asg48
I36
sg49
I00
sg50
(dp247
g52
Nsg53
Nsg54
Nssg55
S'elset_wall_2_7_element_prop'
p248
sbsI37
g0
(g39
g2
Ntp249
Rp250
(dp251
g43
Nsg44
g45
sg46
(lp252
I61
aI57
aI58
aI62
asg48
I37
sg49
I00
sg50
(dp253
g52
Nsg53
Nsg54
Nssg55
S'elset_wall_2_8_element_prop'
p254
sbsI38
g0
(g39
g2
Ntp255
Rp256
(dp257
g43
Nsg44
g45
sg46
(lp258
I62
aI58
aI59
aI63
asg48
I38
sg49
I00
sg50
(dp259
g52
Nsg53
Nsg54
Nssg55
S'elset_wall_2_9_element_prop'
p260
sbsI39
g0
(ccompas_fea.structure.element
MPCElement
p261
g2
Ntp262
Rp263
(dp264
g43
Nsg44
S'MPCElement'
p265
sg46
(lp266
I55
aI23
asg48
I39
sg49
I00
sg50
(dp267
g52
Nsg53
(lp268
F-9.0949470177292824e-13
aF0.0
aF1046.8475266445121
asg54
Nssg55
S'elset_mpc_element_prop'
p269
sbsI40
g0
(g261
g2
Ntp270
Rp271
(dp272
g43
Nsg44
g265
sg46
(lp273
I53
aI17
asg48
I40
sg49
I00
sg50
(dp274
g52
Nsg53
(lp275
F-4.0927261579781771e-12
aF0.0
aF1046.8475266445121
asg54
Nssg55
g269
sbsI41
g0
(g261
g2
Ntp276
Rp277
(dp278
g43
Nsg44
g265
sg46
(lp279
I51
aI11
asg48
I41
sg49
I00
sg50
(dp280
g52
Nsg53
(lp281
F-2.0463630789890885e-12
aF0.0
aF1046.8475266445121
asg54
Nssg55
g269
sbsI42
g0
(g261
g2
Ntp282
Rp283
(dp284
g43
Nsg44
g265
sg46
(lp285
I50
aI10
asg48
I42
sg49
I00
sg50
(dp286
g52
Nsg53
(lp287
F0.0
aF0.0
aF1046.8475266445121
asg54
Nssg55
g269
sbsI43
g0
(g261
g2
Ntp288
Rp289
(dp290
g43
Nsg44
g265
sg46
(lp291
I39
aI18
asg48
I43
sg49
I00
sg50
(dp292
g52
Nsg53
(lp293
F-9.0949470177292824e-13
aF0.0
aF1046.8475266445121
asg54
Nssg55
g269
sbsI44
g0
(g261
g2
Ntp294
Rp295
(dp296
g43
Nsg44
g265
sg46
(lp297
I37
aI12
asg48
I44
sg49
I00
sg50
(dp298
g52
Nsg53
(lp299
F-4.0927261579781771e-12
aF0.0
aF1046.8475266445121
asg54
Nssg55
g269
sbsI45
g0
(g261
g2
Ntp300
Rp301
(dp302
g43
Nsg44
g265
sg46
(lp303
I35
aI1
asg48
I45
sg49
I00
sg50
(dp304
g52
Nsg53
(lp305
F-2.0463630789890885e-12
aF0.0
aF1046.8475266445121
asg54
Nssg55
g269
sbsI46
g0
(g261
g2
Ntp306
Rp307
(dp308
g43
Nsg44
g265
sg46
(lp309
I34
aI0
asg48
I46
sg49
I00
sg50
(dp310
g52
Nsg53
(lp311
F0.0
aF0.0
aF1046.8475266445121
asg54
Nssg55
g269
sbssS'element_index'
p312
(dp313
S'4144.443,5962.470,0.000'
p314
I18
sS'2471.686,5962.470,0.000'
p315
I15
sS'4144.443,11603.686,0.000'
p316
I10
sS'823.895,0.000,-1721.578'
p317
I21
sS'2471.686,11603.686,0.000'
p318
I6
sS'2471.686,15420.181,-3091.486'
p319
I34
sS'2471.686,0.000,-4461.395'
p320
I28
sS'0.000,15420.181,-523.424'
p321
I42
sS'4144.443,9457.711,0.000'
p322
I20
sS'4144.443,0.000,-1721.578'
p323
I23
sS'823.895,5962.470,0.000'
p324
I12
sS'4144.443,14148.016,0.000'
p325
I11
sS'4144.443,0.000,-3091.486'
p326
I26
sS'4144.443,15420.181,-1721.578'
p327
I32
sS'4144.443,15420.181,-4461.395'
p328
I38
sS'2471.686,0.000,-1721.578'
p329
I22
sS'3295.581,0.000,-523.424'
p330
I44
sS'4993.305,15420.181,-523.424'
p331
I39
sS'2471.686,3816.495,0.000'
p332
I5
sS'4144.443,15420.181,-3091.486'
p333
I35
sS'2471.686,0.000,-3091.486'
p334
I25
sS'2471.686,9457.711,0.000'
p335
I17
sS'2471.686,14148.016,0.000'
p336
I7
sS'4144.443,0.000,-4461.395'
p337
I29
sS'823.895,1272.165,0.000'
p338
I0
sS'823.895,11603.686,0.000'
p339
I2
sS'823.895,3816.495,0.000'
p340
I1
sS'4144.443,1272.165,0.000'
p341
I8
sS'823.895,0.000,-3091.486'
p342
I24
sS'1647.791,0.000,-523.424'
p343
I45
sS'823.895,15420.181,-4461.395'
p344
I36
sS'823.895,14148.016,0.000'
p345
I3
sS'2471.686,1272.165,0.000'
p346
I4
sS'2471.686,15420.181,-4461.395'
p347
I37
sS'1647.791,15420.181,-523.424'
p348
I41
sS'823.895,15420.181,-1721.578'
p349
I30
sS'2471.686,15420.181,-1721.578'
p350
I31
sS'823.895,7710.091,0.000'
p351
I13
sS'3295.581,15420.181,-523.424'
p352
I40
sS'0.000,0.000,-523.424'
p353
I46
sS'823.895,15420.181,-3091.486'
p354
I33
sS'2471.686,7710.091,0.000'
p355
I16
sS'4993.305,0.000,-523.424'
p356
I43
sS'823.895,9457.711,0.000'
p357
I14
sS'4144.443,7710.091,0.000'
p358
I19
sS'4144.443,3816.495,0.000'
p359
I9
sS'823.895,0.000,-4461.395'
p360
I27
ssS'element_properties'
p361
(dp362
g230
g0
(ccompas_fea.structure.element_properties
ElementProperties
p363
g2
Ntp364
Rp365
(dp366
S'index'
p367
I21
sS'__name__'
p368
S'ElementProperties'
p369
sS'name'
p370
g230
sS'material'
p371
S'wall_element_mat'
p372
sS'section'
p373
S'wall2_element_sec'
p374
sS'elset'
p375
S'elset_wall_2_4'
p376
sS'elements'
p377
NsS'rebar'
p378
(dp379
sbsg164
g0
(g363
g2
Ntp380
Rp381
(dp382
g367
I10
sg368
g369
sg370
g164
sg371
g372
sg373
S'wall1_element_sec'
p383
sg375
S'elset_wall_1_2'
p384
sg377
Nsg378
g379
sbsg200
g0
(g363
g2
Ntp385
Rp386
(dp387
g367
I16
sg368
g369
sg370
g200
sg371
g372
sg373
g383
sg375
S'elset_wall_1_8'
p388
sg377
Nsg378
g379
sbsg218
g0
(g363
g2
Ntp389
Rp390
(dp391
g367
I19
sg368
g369
sg370
g218
sg371
g372
sg373
g374
sg375
S'elset_wall_2_2'
p392
sg377
Nsg378
g379
sbsg56
g0
(g363
g2
Ntp393
Rp394
(dp395
g367
I0
sg368
g369
sg370
g56
sg371
S'plate_element_mat'
p396
sg373
S'plate_element_sec'
p397
sg375
S'elset_plate_1'
p398
sg377
Nsg378
g379
sbsg236
g0
(g363
g2
Ntp399
Rp400
(dp401
g367
I22
sg368
g369
sg370
g236
sg371
g372
sg373
g374
sg375
S'elset_wall_2_5'
p402
sg377
Nsg378
g379
sbsg144
g0
(g363
g2
Ntp403
Rp404
(dp405
g367
I8
sg368
g369
sg370
g144
sg371
g396
sg373
g397
sg375
S'elset_plate_9'
p406
sg377
Nsg378
g379
sbsg188
g0
(g363
g2
Ntp407
Rp408
(dp409
g367
I14
sg368
g369
sg370
g188
sg371
g372
sg373
g383
sg375
S'elset_wall_1_6'
p410
sg377
Nsg378
g379
sbsg96
g0
(g363
g2
Ntp411
Rp412
(dp413
g367
I4
sg368
g369
sg370
g96
sg371
g396
sg373
g397
sg375
S'elset_plate_5'
p414
sg377
Nsg378
g379
sbsg170
g0
(g363
g2
Ntp415
Rp416
(dp417
g367
I11
sg368
g369
sg370
g170
sg371
g372
sg373
g383
sg375
S'elset_wall_1_3'
p418
sg377
Nsg378
g379
sbsg76
g0
(g363
g2
Ntp419
Rp420
(dp421
g367
I2
sg368
g369
sg370
g76
sg371
g396
sg373
g397
sg375
S'elset_plate_3'
p422
sg377
Nsg378
g379
sbsg224
g0
(g363
g2
Ntp423
Rp424
(dp425
g367
I20
sg368
g369
sg370
g224
sg371
g372
sg373
g374
sg375
S'elset_wall_2_3'
p426
sg377
Nsg378
g379
sbsg242
g0
(g363
g2
Ntp427
Rp428
(dp429
g367
I23
sg368
g369
sg370
g242
sg371
g372
sg373
g374
sg375
S'elset_wall_2_6'
p430
sg377
Nsg378
g379
sbsg176
g0
(g363
g2
Ntp431
Rp432
(dp433
g367
I12
sg368
g369
sg370
g176
sg371
g372
sg373
g383
sg375
S'elset_wall_1_4'
p434
sg377
Nsg378
g379
sbsg206
g0
(g363
g2
Ntp435
Rp436
(dp437
g367
I17
sg368
g369
sg370
g206
sg371
g372
sg373
g383
sg375
S'elset_wall_1_9'
p438
sg377
Nsg378
g379
sbsg130
g0
(g363
g2
Ntp439
Rp440
(dp441
g367
I7
sg368
g369
sg370
g130
sg371
g396
sg373
g397
sg375
S'elset_plate_8'
p442
sg377
Nsg378
g379
sbsg158
g0
(g363
g2
Ntp443
Rp444
(dp445
g367
I9
sg368
g369
sg370
g158
sg371
g372
sg373
g383
sg375
S'elset_wall_1_1'
p446
sg377
Nsg378
g379
sbsg116
g0
(g363
g2
Ntp447
Rp448
(dp449
g367
I6
sg368
g369
sg370
g116
sg371
g396
sg373
g397
sg375
S'elset_plate_7'
p450
sg377
Nsg378
g379
sbsg254
g0
(g363
g2
Ntp451
Rp452
(dp453
g367
I25
sg368
g369
sg370
g254
sg371
g372
sg373
g374
sg375
S'elset_wall_2_8'
p454
sg377
Nsg378
g379
sbsg86
g0
(g363
g2
Ntp455
Rp456
(dp457
g367
I3
sg368
g369
sg370
g86
sg371
g396
sg373
g397
sg375
S'elset_plate_4'
p458
sg377
Nsg378
g379
sbsg66
g0
(g363
g2
Ntp459
Rp460
(dp461
g367
I1
sg368
g369
sg370
g66
sg371
g396
sg373
g397
sg375
S'elset_plate_2'
p462
sg377
Nsg378
g379
sbsg269
g0
(g363
g2
Ntp463
Rp464
(dp465
g367
I27
sg368
g369
sg370
g269
sg371
S'elset_mpc_element_mat'
p466
sg373
S'sec_mpc'
p467
sg375
S'elset_mpcs'
p468
sg377
Nsg378
g379
sbsg194
g0
(g363
g2
Ntp469
Rp470
(dp471
g367
I15
sg368
g369
sg370
g194
sg371
g372
sg373
g383
sg375
S'elset_wall_1_7'
p472
sg377
Nsg378
g379
sbsg248
g0
(g363
g2
Ntp473
Rp474
(dp475
g367
I24
sg368
g369
sg370
g248
sg371
g372
sg373
g374
sg375
S'elset_wall_2_7'
p476
sg377
Nsg378
g379
sbsg260
g0
(g363
g2
Ntp477
Rp478
(dp479
g367
I26
sg368
g369
sg370
g260
sg371
g372
sg373
g374
sg375
S'elset_wall_2_9'
p480
sg377
Nsg378
g379
sbsg212
g0
(g363
g2
Ntp481
Rp482
(dp483
g367
I18
sg368
g369
sg370
g212
sg371
g372
sg373
g374
sg375
S'elset_wall_2_1'
p484
sg377
Nsg378
g379
sbsg106
g0
(g363
g2
Ntp485
Rp486
(dp487
g367
I5
sg368
g369
sg370
g106
sg371
g396
sg373
g397
sg375
S'elset_plate_6'
p488
sg377
Nsg378
g379
sbsg182
g0
(g363
g2
Ntp489
Rp490
(dp491
g367
I13
sg368
g369
sg370
g182
sg371
g372
sg373
g383
sg375
S'elset_wall_1_5'
p492
sg377
Nsg378
g379
sbssS'interactions'
p493
(dp494
sS'loads'
p495
(dp496
S'Gleis1_BAHNLASTEN_Lasteinzugsflache_Lastblock_-3'
p497
g0
(ccompas_fea.structure.load
AreaLoad
p498
g2
Ntp499
Rp500
(dp501
g367
I8
sS'__name__'
p502
S'AreaLoad'
p503
sS'name'
p504
g497
sS'axes'
p505
S'global'
p506
sS'components'
p507
(dp508
g23
F0.058799801797989902
sg27
I0
sg28
I0
ssS'nodes'
p509
(lp510
sS'elements'
p511
(lp512
I9
asS'attr_list'
p513
(lp514
S'name'
p515
aS'axes'
p516
aS'components'
p517
aS'nodes'
p518
aS'elements'
p519
asbsS'earthPressure_liveLoad'
p520
g0
(g498
g2
Ntp521
Rp522
(dp523
g367
I9
sg502
g503
sg504
g520
sg505
S'local'
p524
sg507
(dp525
g23
F0.037699999999999997
sg27
I0
sg28
I0
ssg509
g510
sg511
(lp526
I23
aI24
aI26
aI27
aI29
aI30
asg513
(lp527
g515
ag516
ag517
ag518
ag519
asbsS'Gleis1_BAHNLASTEN_Lasteinzugsflache_Lastblock_-2'
p528
g0
(g498
g2
Ntp529
Rp530
(dp531
g367
I7
sg502
g503
sg504
g528
sg505
g506
sg507
(dp532
g23
F0.058799801797989902
sg27
I0
sg28
I0
ssg509
g510
sg511
(lp533
I5
aI9
asg513
(lp534
g515
ag516
ag517
ag518
ag519
asbsS'Gleis1_EIGENGEWICHTE_SCHIENE_Lasteinzugsflache'
p535
g0
(g498
g2
Ntp536
Rp537
(dp538
g367
I3
sg502
g503
sg504
g535
sg505
S'global'
p539
sg507
(dp540
g23
F0.0021683544888274771
sg27
I0
sg28
I0
ssg509
g510
sg511
(lp541
I2
aI3
aI5
aI6
aI9
aI10
aI13
aI14
aI15
aI16
aI17
asg513
(lp542
g515
ag516
ag517
ag518
ag519
asbsS'earthPressure_backfill'
p543
g0
(g498
g2
Ntp544
Rp545
(dp546
g367
I2
sg502
g503
sg504
g543
sg505
S'local'
p547
sg507
(dp548
g23
F0.060499981874714892
sg27
I0
sg28
I0
ssg509
g510
sg511
(lp549
g446
ag384
ag418
ag434
ag492
ag410
ag472
ag388
ag438
ag484
ag392
ag426
ag376
ag402
ag430
ag476
ag454
ag480
asg513
(lp550
g515
ag516
ag517
ag518
ag519
asbsS'Gleis1_BAHNLASTEN_Lasteinzugsflache_Lastblock_2'
p551
g0
(g498
g2
Ntp552
Rp553
(dp554
g367
I5
sg502
g503
sg504
g551
sg505
g506
sg507
(dp555
g23
F0.058799801797989902
sg27
I0
sg28
I0
ssg509
g510
sg511
(lp556
I3
asg513
(lp557
g515
ag516
ag517
ag518
ag519
asbsS'earthPressure_gravel'
p558
g0
(g498
g2
Ntp559
Rp560
(dp561
g367
I1
sg502
g503
sg504
g558
sg505
S'global'
p562
sg507
(dp563
g23
F0.013500000000000002
sg27
I0
sg28
I0
ssg509
g510
sg511
(lp564
g398
ag462
ag422
ag458
ag414
ag488
ag450
ag442
ag406
asg513
(lp565
g515
ag516
ag517
ag518
ag519
asbsS'Gleis1_BAHNLASTEN_Lasteinzugsflache_Lastblock_-1'
p566
g0
(g498
g2
Ntp567
Rp568
(dp569
g367
I6
sg502
g503
sg504
g566
sg505
g506
sg507
(dp570
g23
F0.058799801797989902
sg27
I0
sg28
I0
ssg509
g510
sg511
(lp571
I13
aI16
asg513
(lp572
g515
ag516
ag517
ag518
ag519
asbsS'Gleis1_BAHNLASTEN_Lasteinzugsflache_Lastblock_1'
p573
g0
(g498
g2
Ntp574
Rp575
(dp576
g367
I4
sg502
g503
sg504
g573
sg505
g506
sg507
(dp577
g23
F0.058799801797989902
sg27
I0
sg28
I0
ssg509
g510
sg511
(lp578
I14
aI17
asg513
(lp579
g515
ag516
ag517
ag518
ag519
asbsS'load_gravity'
p580
g0
(ccompas_fea.structure.load
GravityLoad
p581
g2
Ntp582
Rp583
(dp584
g15
I0
sg502
S'GravityLoad'
p585
sg504
g580
sg505
S'global'
p586
sg507
(dp587
S'z'
p588
F1.3500000000000001
sS'y'
p589
F0.0
sS'x'
p590
F0.0
ssg509
g510
sg511
(lp591
g398
ag462
ag422
ag458
ag414
ag488
ag450
ag442
ag406
ag446
ag384
ag418
ag434
ag492
ag410
ag472
ag388
ag438
ag484
ag392
ag426
ag376
ag402
ag430
ag476
ag454
ag480
asg513
(lp592
g515
ag516
ag517
ag518
ag519
aS'g'
p593
asS'g'
p594
F-9.8100000000000005
sbssS'materials'
p595
(dp596
S'elset_mpc_element_mat'
p597
g0
(ccompas_fea.structure.material
MPCStiff
p598
g2
Ntp599
Rp600
(dp601
g15
I2
sS'__name__'
p602
S'MPCStiff'
p603
sS'name'
p604
g597
sS'attr_list'
p605
(lp606
g515
aS'E'
p607
aS'v'
p608
aS'G'
p609
aS'p'
p610
aS'tension'
p611
aS'compression'
p612
asS'E'
p613
(dp614
S'E'
p615
L10000000000000L
ssS'v'
p616
(dp617
S'v'
p618
F0.29999999999999999
ssS'G'
p619
(dp620
S'G'
p621
F3846153846153.8462
ssS'p'
p622
F0.10000000000000001
sS'tension'
p623
I01
sS'compression'
p624
I01
sbsg372
g0
(ccompas_fea.structure.material
CMMUsermat
p625
g2
Ntp626
Rp627
(dp628
g15
I1
sg602
S'CMMUsermat'
p629
sg604
g372
sg605
(lp630
g515
aS'E'
p631
aS'v'
p632
aS'G'
p633
aS'p'
p634
aS'R_Rohr'
p635
aS'rho'
p636
aS'oo'
p637
aS'uu'
p638
aS'beton'
p639
aS'fcc'
p640
aS'vc'
p641
aS'ecu'
p642
aS'k_E'
p643
aS'theta_b0'
p644
aS'theta_b1'
p645
aS'k_riss'
p646
aS'Entfestigung'
p647
aS'lambdaTS'
p648
aS'srmx'
p649
aS'srmy'
p650
aS'Begrenzung'
p651
aS'KritQ'
p652
aS'winkelD'
p653
aS'k_vr'
p654
aS'fswy'
p655
aS'stahl1'
p656
aS'zm1'
p657
aS'fsy1'
p658
aS'fsu1'
p659
aS'esu1'
p660
aS'esv1'
p661
aS'Es1'
p662
aS'ka1'
p663
aS'kb1'
p664
aS'kc1'
p665
aS'as1'
p666
aS'dm1'
p667
aS'psi1'
p668
aS'stahl2'
p669
aS'zm2'
p670
aS'fsy2'
p671
aS'fsu2'
p672
aS'esu2'
p673
aS'esv2'
p674
aS'Es2'
p675
aS'ka2'
p676
aS'kb2'
p677
aS'kc2'
p678
aS'as2'
p679
aS'dm2'
p680
aS'psi2'
p681
aS'stahl3'
p682
aS'zm3'
p683
aS'fsy3'
p684
aS'fsu3'
p685
aS'esu3'
p686
aS'esv3'
p687
aS'Es3'
p688
aS'ka3'
p689
aS'kb3'
p690
aS'kc3'
p691
aS'as3'
p692
aS'dm3'
p693
aS'psi3'
p694
aS'stahl4'
p695
aS'zm4'
p696
aS'fsy4'
p697
aS'fsu4'
p698
aS'esu4'
p699
aS'esv4'
p700
aS'Es4'
p701
aS'ka4'
p702
aS'kb4'
p703
aS'kc4'
p704
aS'as4'
p705
aS'dm4'
p706
aS'psi4'
p707
asS'E'
p708
(dp709
S'E'
p710
I200000
ssS'v'
p711
(dp712
S'v'
p713
F0.10000000000000001
ssS'G'
p714
(dp715
g633
F90909.090909090897
ssS'p'
p716
F2.5000000000000002e-06
sS'R_Rohr'
p717
(dp718
g635
I-1
ssS'rho'
p719
(dp720
g636
F2.5000000000000002e-06
ssS'oo'
p721
(dp722
g637
I30
ssS'uu'
p723
(dp724
g638
I30
ssS'beton'
p725
(dp726
g639
I2
ssS'fcc'
p727
(dp728
g640
I48
ssS'vc'
p729
(dp730
g641
I0
ssS'ecu'
p731
(dp732
g642
F-0.002
ssS'k_E'
p733
(dp734
g643
I10000
ssS'theta_b0'
p735
(dp736
g644
I2
ssS'theta_b1'
p737
(dp738
g645
I1
ssS'k_riss'
p739
(dp740
g646
I0
ssS'Entfestigung'
p741
(dp742
g647
I0
ssS'lambdaTS'
p743
(dp744
g648
F0.67000000000000004
ssS'srmx'
p745
(dp746
g649
I1
ssS'srmy'
p747
(dp748
g650
I1
ssS'Begrenzung'
p749
(dp750
g651
I2
ssS'KritQ'
p751
(dp752
g652
I0
ssS'winkelD'
p753
(dp754
g653
I45
ssS'k_vr'
p755
(dp756
g654
I1
ssS'fswy'
p757
(dp758
g655
I500
ssS'stahl1'
p759
(dp760
g656
I1
ssS'zm1'
p761
(dp762
g657
I2
ssS'fsy1'
p763
(dp764
g658
I426
ssS'fsu1'
p765
(dp766
g659
I460
ssS'esu1'
p767
(dp768
g660
F0.044999999999999998
ssS'esv1'
p769
(dp770
g661
F0.02
ssS'Es1'
p771
(dp772
g662
I200000
ssS'ka1'
p773
(dp774
g663
I-1
ssS'kb1'
p775
(dp776
g664
I-1
ssS'kc1'
p777
(dp778
g665
I-1
ssS'as1'
p779
(dp780
g666
F0.8702953830901804
ssS'dm1'
p781
(dp782
g667
F19.642908642272399
ssS'psi1'
p783
(dp784
g668
I90
ssS'stahl2'
p785
(dp786
g669
I1
ssS'zm2'
p787
(dp788
g670
I2
ssS'fsy2'
p789
(dp790
g671
I426
ssS'fsu2'
p791
(dp792
g672
I460
ssS'esu2'
p793
(dp794
g673
F0.044999999999999998
ssS'esv2'
p795
(dp796
g674
F0.02
ssS'Es2'
p797
(dp798
g675
I200000
ssS'ka2'
p799
(dp800
g676
I-1
ssS'kb2'
p801
(dp802
g677
I-1
ssS'kc2'
p803
(dp804
g678
I-1
ssS'as2'
p805
(dp806
g679
F0.32480116487575411
ssS'dm2'
p807
(dp808
g680
F12.0
ssS'psi2'
p809
(dp810
g681
I0
ssS'stahl3'
p811
(dp812
g682
I1
ssS'zm3'
p813
(dp814
g683
I2
ssS'fsy3'
p815
(dp816
g684
I426
ssS'fsu3'
p817
(dp818
g685
I460
ssS'esu3'
p819
(dp820
g686
F0.044999999999999998
ssS'esv3'
p821
(dp822
g687
F0.02
ssS'Es3'
p823
(dp824
g688
I200000
ssS'ka3'
p825
(dp826
g689
I-1
ssS'kb3'
p827
(dp828
g690
I-1
ssS'kc3'
p829
(dp830
g691
I-1
ssS'as3'
p831
(dp832
g692
F0.32480116487575411
ssS'dm3'
p833
(dp834
g693
F12.0
ssS'psi3'
p835
(dp836
g694
I0
ssS'stahl4'
p837
(dp838
g695
I1
ssS'zm4'
p839
(dp840
g696
I2
ssS'fsy4'
p841
(dp842
g697
I426
ssS'fsu4'
p843
(dp844
g698
I460
ssS'esu4'
p845
(dp846
g699
F0.044999999999999998
ssS'esv4'
p847
(dp848
g700
F0.02
ssS'Es4'
p849
(dp850
g701
I200000
ssS'ka4'
p851
(dp852
g702
I-1
ssS'kb4'
p853
(dp854
g703
I-1
ssS'kc4'
p855
(dp856
g704
I-1
ssS'as4'
p857
(dp858
g705
F0.6084149217394561
ssS'dm4'
p859
(dp860
g706
F16.423752259828827
ssS'psi4'
p861
(dp862
g707
I90
ssbsg396
g0
(g625
g2
Ntp863
Rp864
(dp865
g15
I0
sg602
g629
sg604
g396
sg605
(lp866
g515
ag631
ag632
ag633
ag634
ag635
ag636
ag637
ag638
ag639
ag640
ag641
ag642
ag643
ag644
ag645
ag646
ag647
ag648
ag649
ag650
ag651
ag652
ag653
ag654
ag655
ag656
ag657
ag658
ag659
ag660
ag661
ag662
ag663
ag664
ag665
ag666
ag667
ag668
ag669
ag670
ag671
ag672
ag673
ag674
ag675
ag676
ag677
ag678
ag679
ag680
ag681
ag682
ag683
ag684
ag685
ag686
ag687
ag688
ag689
ag690
ag691
ag692
ag693
ag694
ag695
ag696
ag697
ag698
ag699
ag700
ag701
ag702
ag703
ag704
ag705
ag706
ag707
asg708
(dp867
g710
I200000
ssg711
(dp868
g713
F0.10000000000000001
ssg714
(dp869
g633
F90909.090909090897
ssg716
F2.5000000000000002e-06
sg717
(dp870
g635
I-1
ssg719
(dp871
g636
F2.5000000000000002e-06
ssg721
(dp872
g637
I30
ssg723
(dp873
g638
I30
ssg725
(dp874
g639
I2
ssg727
(dp875
g640
I48
ssg729
(dp876
g641
I0
ssg731
(dp877
g642
F-0.002
ssg733
(dp878
g643
I10000
ssg735
(dp879
g644
I2
ssg737
(dp880
g645
I1
ssg739
(dp881
g646
I0
ssg741
(dp882
g647
I0
ssg743
(dp883
g648
F0.67000000000000004
ssg745
(dp884
g649
I1
ssg747
(dp885
g650
I1
ssg749
(dp886
g651
I2
ssg751
(dp887
g652
I0
ssg753
(dp888
g653
I45
ssg755
(dp889
g654
I1
ssg757
(dp890
g655
I500
ssg759
(dp891
g656
I1
ssg761
(dp892
g657
I2
ssg763
(dp893
g658
I426
ssg765
(dp894
g659
I460
ssg767
(dp895
g660
F0.044999999999999998
ssg769
(dp896
g661
F0.02
ssg771
(dp897
g662
I200000
ssg773
(dp898
g663
I-1
ssg775
(dp899
g664
I-1
ssg777
(dp900
g665
I-1
ssg779
(dp901
g666
F0.71341103407359274
ssg781
(dp902
g667
F15.49235408500941
ssg783
(dp903
g668
I90
ssg785
(dp904
g669
I1
ssg787
(dp905
g670
I2
ssg789
(dp906
g671
I426
ssg791
(dp907
g672
I460
ssg793
(dp908
g673
F0.044999999999999998
ssg795
(dp909
g674
F0.02
ssg797
(dp910
g675
I200000
ssg799
(dp911
g676
I-1
ssg801
(dp912
g677
I-1
ssg803
(dp913
g678
I-1
ssg805
(dp914
g679
F1.7084349944209023
ssg807
(dp915
g680
F23.974344005447726
ssg809
(dp916
g681
I0
ssg811
(dp917
g682
I1
ssg813
(dp918
g683
I2
ssg815
(dp919
g684
I426
ssg817
(dp920
g685
I460
ssg819
(dp921
g686
F0.044999999999999998
ssg821
(dp922
g687
F0.02
ssg823
(dp923
g688
I200000
ssg825
(dp924
g689
I-1
ssg827
(dp925
g690
I-1
ssg829
(dp926
g691
I-1
ssg831
(dp927
g692
F0.42802337325472095
ssg833
(dp928
g693
F12.0
ssg835
(dp929
g694
I0
ssg837
(dp930
g695
I1
ssg839
(dp931
g696
I2
ssg841
(dp932
g697
I426
ssg843
(dp933
g698
I460
ssg845
(dp934
g699
F0.044999999999999998
ssg847
(dp935
g700
F0.02
ssg849
(dp936
g701
I200000
ssg851
(dp937
g702
I-1
ssg853
(dp938
g703
I-1
ssg855
(dp939
g704
I-1
ssg857
(dp940
g705
F1.5856172898179335
ssg859
(dp941
g706
F23.096527497262493
ssg861
(dp942
g707
I90
ssbssS'misc'
p943
(dp944
sS'name'
p945
S'NLFE_CFB6'
p946
sS'nodes'
p947
(dp948
I0
g0
(ccompas_fea.structure.node
Node
p949
g2
Ntp950
Rp951
(dp952
S'__name__'
p953
S'Node'
p954
sS'key'
p955
I0
sS'x'
p956
F0.0
sS'y'
p957
F0.0
sS'z'
p958
F0.0
sS'ex'
p959
(lp960
I1
aI0
aI0
asS'ey'
p961
(lp962
I0
aI1
aI0
asS'ez'
p963
(lp964
I0
aI0
aI1
asS'mass'
p965
NsbsI1
g0
(g949
g2
Ntp966
Rp967
(dp968
g953
g954
sg955
I1
sg956
F1647.7906016588279
sg957
F0.0
sg958
F0.0
sg959
g960
sg961
g962
sg963
g964
sg965
NsbsI2
g0
(g949
g2
Ntp969
Rp970
(dp971
g953
g954
sg955
I2
sg956
F0.0
sg957
F2544.3298731013069
sg958
F0.0
sg959
g960
sg961
g962
sg963
g964
sg965
NsbsI3
g0
(g949
g2
Ntp972
Rp973
(dp974
g953
g954
sg955
I3
sg956
F1647.7906016588279
sg957
F2544.3298731013069
sg958
F0.0
sg959
g960
sg961
g962
sg963
g964
sg965
NsbsI4
g0
(g949
g2
Ntp975
Rp976
(dp977
g953
g954
sg955
I4
sg956
F0.0
sg957
F5088.6597462026139
sg958
F0.0
sg959
g960
sg961
g962
sg963
g964
sg965
NsbsI5
g0
(g949
g2
Ntp978
Rp979
(dp980
g953
g954
sg955
I5
sg956
F1647.7906016588279
sg957
F5088.6597462026139
sg958
F0.0
sg959
g960
sg961
g962
sg963
g964
sg965
NsbsI6
g0
(g949
g2
Ntp981
Rp982
(dp983
g953
g954
sg955
I6
sg956
F0.0
sg957
F10331.521302896217
sg958
F0.0
sg959
g960
sg961
g962
sg963
g964
sg965
NsbsI7
g0
(g949
g2
Ntp984
Rp985
(dp986
g953
g954
sg955
I7
sg956
F1647.7906016588279
sg957
F10331.521302896217
sg958
F0.0
sg959
g960
sg961
g962
sg963
g964
sg965
NsbsI8
g0
(g949
g2
Ntp987
Rp988
(dp989
g953
g954
sg955
I8
sg956
F0.0
sg957
F12875.851175997523
sg958
F0.0
sg959
g960
sg961
g962
sg963
g964
sg965
NsbsI9
g0
(g949
g2
Ntp990
Rp991
(dp992
g953
g954
sg955
I9
sg956
F1647.7906016588279
sg957
F12875.851175997523
sg958
F0.0
sg959
g960
sg961
g962
sg963
g964
sg965
NsbsI10
g0
(g949
g2
Ntp993
Rp994
(dp995
g953
g954
sg955
I10
sg956
F0.0
sg957
F15420.18104909883
sg958
F0.0
sg959
g960
sg961
g962
sg963
g964
sg965
NsbsI11
g0
(g949
g2
Ntp996
Rp997
(dp998
g953
g954
sg955
I11
sg956
F1647.7906016588279
sg957
F15420.18104909883
sg958
F0.0
sg959
g960
sg961
g962
sg963
g964
sg965
NsbsI12
g0
(g949
g2
Ntp999
Rp1000
(dp1001
g953
g954
sg955
I12
sg956
F3295.5812033176558
sg957
F0.0
sg958
F0.0
sg959
g960
sg961
g962
sg963
g964
sg965
NsbsI13
g0
(g949
g2
Ntp1002
Rp1003
(dp1004
g953
g954
sg955
I13
sg956
F3295.5812033176558
sg957
F2544.3298731013069
sg958
F0.0
sg959
g960
sg961
g962
sg963
g964
sg965
NsbsI14
g0
(g949
g2
Ntp1005
Rp1006
(dp1007
g953
g954
sg955
I14
sg956
F3295.5812033176558
sg957
F5088.6597462026139
sg958
F0.0
sg959
g960
sg961
g962
sg963
g964
sg965
NsbsI15
g0
(g949
g2
Ntp1008
Rp1009
(dp1010
g953
g954
sg955
I15
sg956
F3295.5812033176558
sg957
F10331.521302896217
sg958
F0.0
sg959
g960
sg961
g962
sg963
g964
sg965
NsbsI16
g0
(g949
g2
Ntp1011
Rp1012
(dp1013
g953
g954
sg955
I16
sg956
F3295.5812033176558
sg957
F12875.851175997523
sg958
F0.0
sg959
g960
sg961
g962
sg963
g964
sg965
NsbsI17
g0
(g949
g2
Ntp1014
Rp1015
(dp1016
g953
g954
sg955
I17
sg956
F3295.5812033176558
sg957
F15420.18104909883
sg958
F0.0
sg959
g960
sg961
g962
sg963
g964
sg965
NsbsI18
g0
(g949
g2
Ntp1017
Rp1018
(dp1019
g953
g954
sg955
I18
sg956
F4993.3048535115995
sg957
F0.0
sg958
F0.0
sg959
g960
sg961
g962
sg963
g964
sg965
NsbsI19
g0
(g949
g2
Ntp1020
Rp1021
(dp1022
g953
g954
sg955
I19
sg956
F4993.3048535115995
sg957
F2544.3298731013069
sg958
F0.0
sg959
g960
sg961
g962
sg963
g964
sg965
NsbsI20
g0
(g949
g2
Ntp1023
Rp1024
(dp1025
g953
g954
sg955
I20
sg956
F4993.3048535115995
sg957
F5088.6597462026139
sg958
F0.0
sg959
g960
sg961
g962
sg963
g964
sg965
NsbsI21
g0
(g949
g2
Ntp1026
Rp1027
(dp1028
g953
g954
sg955
I21
sg956
F4993.3048535115995
sg957
F10331.521302896217
sg958
F0.0
sg959
g960
sg961
g962
sg963
g964
sg965
NsbsI22
g0
(g949
g2
Ntp1029
Rp1030
(dp1031
g953
g954
sg955
I22
sg956
F4993.3048535115995
sg957
F12875.851175997523
sg958
F0.0
sg959
g960
sg961
g962
sg963
g964
sg965
NsbsI23
g0
(g949
g2
Ntp1032
Rp1033
(dp1034
g953
g954
sg955
I23
sg956
F4993.3048535115995
sg957
F15420.18104909883
sg958
F0.0
sg959
g960
sg961
g962
sg963
g964
sg965
NsbsI24
g0
(g949
g2
Ntp1035
Rp1036
(dp1037
g953
g954
sg955
I24
sg956
F0.0
sg957
F6836.2802651004822
sg958
F0.0
sg959
g960
sg961
g962
sg963
g964
sg965
NsbsI25
g0
(g949
g2
Ntp1038
Rp1039
(dp1040
g953
g954
sg955
I25
sg956
F1647.7906016588281
sg957
F6836.2802651004822
sg958
F0.0
sg959
g960
sg961
g962
sg963
g964
sg965
NsbsI26
g0
(g949
g2
Ntp1041
Rp1042
(dp1043
g953
g954
sg955
I26
sg956
F0.0
sg957
F8583.9007839983497
sg958
F0.0
sg959
g960
sg961
g962
sg963
g964
sg965
NsbsI27
g0
(g949
g2
Ntp1044
Rp1045
(dp1046
g953
g954
sg955
I27
sg956
F1647.7906016588279
sg957
F8583.9007839983497
sg958
F0.0
sg959
g960
sg961
g962
sg963
g964
sg965
NsbsI28
g0
(g949
g2
Ntp1047
Rp1048
(dp1049
g953
g954
sg955
I28
sg956
F3295.5812033176562
sg957
F6836.2802651004822
sg958
F0.0
sg959
g960
sg961
g962
sg963
g964
sg965
NsbsI29
g0
(g949
g2
Ntp1050
Rp1051
(dp1052
g953
g954
sg955
I29
sg956
F3295.5812033176558
sg957
F8583.9007839983497
sg958
F0.0
sg959
g960
sg961
g962
sg963
g964
sg965
NsbsI30
g0
(g949
g2
Ntp1053
Rp1054
(dp1055
g953
g954
sg955
I30
sg956
F4993.3048535115995
sg957
F6836.2802651004822
sg958
F0.0
sg959
g960
sg961
g962
sg963
g964
sg965
NsbsI31
g0
(g949
g2
Ntp1056
Rp1057
(dp1058
g953
g954
sg955
I31
sg956
F4993.3048535115995
sg957
F8583.9007839983497
sg958
F0.0
sg959
g960
sg961
g962
sg963
g964
sg965
NsbsI32
g0
(g949
g2
Ntp1059
Rp1060
(dp1061
g953
g954
sg955
I32
sg956
F0.0
sg957
F0.0
sg958
F-2396.3092466886387
sg959
g960
sg961
g962
sg963
g964
sg965
NsbsI33
g0
(g949
g2
Ntp1062
Rp1063
(dp1064
g953
g954
sg955
I33
sg956
F1647.7906016588299
sg957
F0.0
sg958
F-2396.3092466886387
sg959
g960
sg961
g962
sg963
g964
sg965
NsbsI34
g0
(g949
g2
Ntp1065
Rp1066
(dp1067
g953
g954
sg955
I34
sg956
F0.0
sg957
F0.0
sg958
F-1046.8475266445121
sg959
g960
sg961
g962
sg963
g964
sg965
NsbsI35
g0
(g949
g2
Ntp1068
Rp1069
(dp1070
g953
g954
sg955
I35
sg956
F1647.7906016588299
sg957
F0.0
sg958
F-1046.8475266445121
sg959
g960
sg961
g962
sg963
g964
sg965
NsbsI36
g0
(g949
g2
Ntp1071
Rp1072
(dp1073
g953
g954
sg955
I36
sg956
F3295.5812033176599
sg957
F0.0
sg958
F-2396.3092466886387
sg959
g960
sg961
g962
sg963
g964
sg965
NsbsI37
g0
(g949
g2
Ntp1074
Rp1075
(dp1076
g953
g954
sg955
I37
sg956
F3295.5812033176599
sg957
F0.0
sg958
F-1046.8475266445121
sg959
g960
sg961
g962
sg963
g964
sg965
NsbsI38
g0
(g949
g2
Ntp1077
Rp1078
(dp1079
g953
g954
sg955
I38
sg956
F4993.3048535116004
sg957
F0.0
sg958
F-2396.3092466886387
sg959
g960
sg961
g962
sg963
g964
sg965
NsbsI39
g0
(g949
g2
Ntp1080
Rp1081
(dp1082
g953
g954
sg955
I39
sg956
F4993.3048535116004
sg957
F0.0
sg958
F-1046.8475266445121
sg959
g960
sg961
g962
sg963
g964
sg965
NsbsI40
g0
(g949
g2
Ntp1083
Rp1084
(dp1085
g953
g954
sg955
I40
sg956
F0.0
sg957
F0.0
sg958
F-3786.663746128042
sg959
g960
sg961
g962
sg963
g964
sg965
NsbsI41
g0
(g949
g2
Ntp1086
Rp1087
(dp1088
g953
g954
sg955
I41
sg956
F1647.7906016588299
sg957
F0.0
sg958
F-3786.663746128042
sg959
g960
sg961
g962
sg963
g964
sg965
NsbsI42
g0
(g949
g2
Ntp1089
Rp1090
(dp1091
g953
g954
sg955
I42
sg956
F3295.5812033176599
sg957
F0.0
sg958
F-3786.663746128042
sg959
g960
sg961
g962
sg963
g964
sg965
NsbsI43
g0
(g949
g2
Ntp1092
Rp1093
(dp1094
g953
g954
sg955
I43
sg956
F4993.3048535116004
sg957
F0.0
sg958
F-3786.663746128042
sg959
g960
sg961
g962
sg963
g964
sg965
NsbsI44
g0
(g949
g2
Ntp1095
Rp1096
(dp1097
g953
g954
sg955
I44
sg956
F0.0
sg957
F0.0
sg958
F-5136.1254661721687
sg959
g960
sg961
g962
sg963
g964
sg965
NsbsI45
g0
(g949
g2
Ntp1098
Rp1099
(dp1100
g953
g954
sg955
I45
sg956
F1647.7906016588299
sg957
F0.0
sg958
F-5136.1254661721687
sg959
g960
sg961
g962
sg963
g964
sg965
NsbsI46
g0
(g949
g2
Ntp1101
Rp1102
(dp1103
g953
g954
sg955
I46
sg956
F3295.5812033176599
sg957
F0.0
sg958
F-5136.1254661721687
sg959
g960
sg961
g962
sg963
g964
sg965
NsbsI47
g0
(g949
g2
Ntp1104
Rp1105
(dp1106
g953
g954
sg955
I47
sg956
F4993.3048535116004
sg957
F0.0
sg958
F-5136.1254661721687
sg959
g960
sg961
g962
sg963
g964
sg965
NsbsI48
g0
(g949
g2
Ntp1107
Rp1108
(dp1109
g953
g954
sg955
I48
sg956
F0.0
sg957
F15420.18104909883
sg958
F-2396.3092466886387
sg959
g960
sg961
g962
sg963
g964
sg965
NsbsI49
g0
(g949
g2
Ntp1110
Rp1111
(dp1112
g953
g954
sg955
I49
sg956
F1647.7906016588299
sg957
F15420.18104909883
sg958
F-2396.3092466886387
sg959
g960
sg961
g962
sg963
g964
sg965
NsbsI50
g0
(g949
g2
Ntp1113
Rp1114
(dp1115
g953
g954
sg955
I50
sg956
F0.0
sg957
F15420.18104909883
sg958
F-1046.8475266445121
sg959
g960
sg961
g962
sg963
g964
sg965
NsbsI51
g0
(g949
g2
Ntp1116
Rp1117
(dp1118
g953
g954
sg955
I51
sg956
F1647.7906016588299
sg957
F15420.18104909883
sg958
F-1046.8475266445121
sg959
g960
sg961
g962
sg963
g964
sg965
NsbsI52
g0
(g949
g2
Ntp1119
Rp1120
(dp1121
g953
g954
sg955
I52
sg956
F3295.5812033176599
sg957
F15420.18104909883
sg958
F-2396.3092466886387
sg959
g960
sg961
g962
sg963
g964
sg965
NsbsI53
g0
(g949
g2
Ntp1122
Rp1123
(dp1124
g953
g954
sg955
I53
sg956
F3295.5812033176599
sg957
F15420.18104909883
sg958
F-1046.8475266445121
sg959
g960
sg961
g962
sg963
g964
sg965
NsbsI54
g0
(g949
g2
Ntp1125
Rp1126
(dp1127
g953
g954
sg955
I54
sg956
F4993.3048535116004
sg957
F15420.18104909883
sg958
F-2396.3092466886387
sg959
g960
sg961
g962
sg963
g964
sg965
NsbsI55
g0
(g949
g2
Ntp1128
Rp1129
(dp1130
g953
g954
sg955
I55
sg956
F4993.3048535116004
sg957
F15420.18104909883
sg958
F-1046.8475266445121
sg959
g960
sg961
g962
sg963
g964
sg965
NsbsI56
g0
(g949
g2
Ntp1131
Rp1132
(dp1133
g953
g954
sg955
I56
sg956
F0.0
sg957
F15420.18104909883
sg958
F-3786.663746128042
sg959
g960
sg961
g962
sg963
g964
sg965
NsbsI57
g0
(g949
g2
Ntp1134
Rp1135
(dp1136
g953
g954
sg955
I57
sg956
F1647.7906016588299
sg957
F15420.18104909883
sg958
F-3786.663746128042
sg959
g960
sg961
g962
sg963
g964
sg965
NsbsI58
g0
(g949
g2
Ntp1137
Rp1138
(dp1139
g953
g954
sg955
I58
sg956
F3295.5812033176599
sg957
F15420.18104909883
sg958
F-3786.663746128042
sg959
g960
sg961
g962
sg963
g964
sg965
NsbsI59
g0
(g949
g2
Ntp1140
Rp1141
(dp1142
g953
g954
sg955
I59
sg956
F4993.3048535116004
sg957
F15420.18104909883
sg958
F-3786.663746128042
sg959
g960
sg961
g962
sg963
g964
sg965
NsbsI60
g0
(g949
g2
Ntp1143
Rp1144
(dp1145
g953
g954
sg955
I60
sg956
F0.0
sg957
F15420.18104909883
sg958
F-5136.1254661721687
sg959
g960
sg961
g962
sg963
g964
sg965
NsbsI61
g0
(g949
g2
Ntp1146
Rp1147
(dp1148
g953
g954
sg955
I61
sg956
F1647.7906016588299
sg957
F15420.18104909883
sg958
F-5136.1254661721687
sg959
g960
sg961
g962
sg963
g964
sg965
NsbsI62
g0
(g949
g2
Ntp1149
Rp1150
(dp1151
g953
g954
sg955
I62
sg956
F3295.5812033176599
sg957
F15420.18104909883
sg958
F-5136.1254661721687
sg959
g960
sg961
g962
sg963
g964
sg965
NsbsI63
g0
(g949
g2
Ntp1152
Rp1153
(dp1154
g953
g954
sg955
I63
sg956
F4993.3048535116004
sg957
F15420.18104909883
sg958
F-5136.1254661721687
sg959
g960
sg961
g962
sg963
g964
sg965
NsbssS'node_index'
p1155
(dp1156
S'1647.791,2544.330,0.000'
p1157
I3
sS'4993.305,15420.181,0.000'
p1158
I23
sS'0.000,0.000,-1046.848'
p1159
I34
sS'0.000,15420.181,-5136.125'
p1160
I60
sS'3295.581,0.000,-2396.309'
p1161
I36
sS'4993.305,0.000,-2396.309'
p1162
I38
sS'0.000,15420.181,-3786.664'
p1163
I56
sS'4993.305,0.000,-3786.664'
p1164
I43
sS'1647.791,0.000,0.000'
p1165
I1
sS'1647.791,12875.851,0.000'
p1166
I9
sS'3295.581,0.000,-5136.125'
p1167
I46
sS'1647.791,0.000,-3786.664'
p1168
I41
sS'4993.305,6836.280,0.000'
p1169
I30
sS'3295.581,15420.181,-3786.664'
p1170
I58
sS'4993.305,0.000,-1046.848'
p1171
I39
sS'3295.581,6836.280,0.000'
p1172
I28
sS'1647.791,10331.521,0.000'
p1173
I7
sS'0.000,2544.330,0.000'
p1174
I2
sS'1647.791,6836.280,0.000'
p1175
I25
sS'4993.305,10331.521,0.000'
p1176
I21
sS'0.000,8583.901,0.000'
p1177
I26
sS'1647.791,8583.901,0.000'
p1178
I27
sS'1647.791,0.000,-1046.848'
p1179
I35
sS'0.000,10331.521,0.000'
p1180
I6
sS'1647.791,15420.181,-5136.125'
p1181
I61
sS'0.000,5088.660,0.000'
p1182
I4
sS'3295.581,0.000,-1046.848'
p1183
I37
sS'0.000,0.000,0.000'
p1184
I0
sS'0.000,12875.851,0.000'
p1185
I8
sS'1647.791,15420.181,-2396.309'
p1186
I49
sS'1647.791,5088.660,0.000'
p1187
I5
sS'0.000,15420.181,-1046.848'
p1188
I50
sS'0.000,6836.280,0.000'
p1189
I24
sS'3295.581,0.000,-3786.664'
p1190
I42
sS'3295.581,15420.181,-1046.848'
p1191
I53
sS'3295.581,10331.521,0.000'
p1192
I15
sS'4993.305,15420.181,-1046.848'
p1193
I55
sS'0.000,0.000,-3786.664'
p1194
I40
sS'3295.581,0.000,0.000'
p1195
I12
sS'3295.581,5088.660,0.000'
p1196
I14
sS'4993.305,2544.330,0.000'
p1197
I19
sS'3295.581,12875.851,0.000'
p1198
I16
sS'0.000,15420.181,0.000'
p1199
I10
sS'4993.305,15420.181,-5136.125'
p1200
I63
sS'4993.305,15420.181,-2396.309'
p1201
I54
sS'4993.305,5088.660,0.000'
p1202
I20
sS'4993.305,8583.901,0.000'
p1203
I31
sS'0.000,15420.181,-2396.309'
p1204
I48
sS'4993.305,12875.851,0.000'
p1205
I22
sS'1647.791,0.000,-2396.309'
p1206
I33
sS'0.000,0.000,-5136.125'
p1207
I44
sS'1647.791,15420.181,0.000'
p1208
I11
sS'3295.581,15420.181,-2396.309'
p1209
I52
sS'3295.581,2544.330,0.000'
p1210
I13
sS'3295.581,15420.181,-5136.125'
p1211
I62
sS'4993.305,15420.181,-3786.664'
p1212
I59
sS'3295.581,8583.901,0.000'
p1213
I29
sS'0.000,0.000,-2396.309'
p1214
I32
sS'1647.791,15420.181,-3786.664'
p1215
I57
sS'1647.791,15420.181,-1046.848'
p1216
I51
sS'4993.305,0.000,0.000'
p1217
I18
sS'3295.581,15420.181,0.000'
p1218
I17
sS'1647.791,0.000,-5136.125'
p1219
I45
sS'4993.305,0.000,-5136.125'
p1220
I47
ssS'path'
p1221
S'C:\\Temp\\'
p1222
sS'results'
p1223
(dp1224
S'step_2'
p1225
S'ERROR'
p1226
sS'step_3'
p1227
g1226
sS'step_4'
p1228
g1226
sS'step_1'
p1229
g1226
ssS'sections'
p1230
(dp1231
g383
g0
(ccompas_fea.structure.section
ShellSection
p1232
g2
Ntp1233
Rp1234
(dp1235
g15
I1
sS'__name__'
p1236
S'ShellSection'
p1237
sS'name'
p1238
g383
sS'geometry'
p1239
(dp1240
S't'
p1241
F857.40390942395982
ssS'loc_coords_OR'
p1242
(dp1243
S'ORxyz'
p1244
(lp1245
I0
aI0
aF-4089.2779395299999
assS'loc_coords_XA'
p1246
(dp1247
S'XAxyz'
p1248
(lp1249
I1
aI0
aF-4089.2779395299999
assS'loc_coords_YA'
p1250
(dp1251
S'YAxyz'
p1252
(lp1253
F4089.2779395299999
aF-4089.2779395299999
aF-4088.2779395299999
assS'loc_coords_EV_XA'
p1254
(dp1255
S'EV_XA'
p1256
(lp1257
F1.0
aF0.0
aF0.0
assS'loc_coords_EV_YA'
p1258
(dp1259
S'EV_YA'
p1260
(lp1261
F0.70710677061516614
aF-0.70710677061516614
aF0.00017291726829808915
assS'loc_coords_EV_ZA'
p1262
(dp1263
S'EV_ZA'
p1264
(lp1265
F0.0
aF-1.0
aF0.0
assS'nr_layers'
p1266
(dp1267
S'nn'
p1268
F72.0
ssS'offset'
p1269
(dp1270
S'mode'
p1271
S'mid'
p1272
ssbsg397
g0
(g1232
g2
Ntp1273
Rp1274
(dp1275
g15
I0
sg1236
g1237
sg1238
g397
sg1239
(dp1276
g1241
F1046.8475266445121
ssg1242
(dp1277
g1244
(lp1278
I0
aI0
aI0
assg1246
(dp1279
g1248
(lp1280
I1
aI0
aI0
assg1250
(dp1281
g1252
(lp1282
F0.0
aF1.0
aF0.0
assg1254
(dp1283
g1256
(lp1284
F1.0
aF0.0
aF0.0
assg1258
(dp1285
g1260
(lp1286
F0.0
aF1.0
aF0.0
assg1262
(dp1287
g1264
(lp1288
F0.0
aF0.0
aF1.0
assg1266
(dp1289
g1268
F72.0
ssg1269
(dp1290
g1271
S'top'
p1291
ssbsg374
g0
(g1232
g2
Ntp1292
Rp1293
(dp1294
g15
I2
sg1236
g1237
sg1238
g374
sg1239
(dp1295
g1241
F857.40390942395982
ssg1242
(dp1296
g1244
(lp1297
I0
aF15420.1810491
aF-4089.2779395299999
assg1246
(dp1298
g1248
(lp1299
I1
aF15420.1810491
aF-4089.2779395299999
assg1250
(dp1300
g1252
(lp1301
F-4089.2779395282269
aF11330.903109569999
aF-19510.458988629998
assg1254
(dp1302
g1256
(lp1303
F1.0
aF0.0
aF0.0
assg1258
(dp1304
g1260
(lp1305
F-0.24828814390326487
aF-0.24828814390337256
aF-0.93632579543345362
assg1262
(dp1306
g1264
(lp1307
F0.0
aF1.0
aF0.0
assg1266
(dp1308
g1268
F72.0
ssg1269
(dp1309
g1271
S'mid'
p1310
ssbsS'sec_mpc'
p1311
g0
(ccompas_fea.structure.section
MPCSection
p1312
g2
Ntp1313
Rp1314
(dp1315
g15
I3
sg1236
S'MPCSection'
p1316
sg1238
g1311
sg1239
NsS'nr_layers'
p1317
NsbssS'sets'
p1318
(dp1319
g492
g0
(ccompas_fea.structure.set
Set
p1320
g2
Ntp1321
Rp1322
(dp1323
S'__name__'
p1324
S'Set'
p1325
sS'name'
p1326
g492
sS'type'
p1327
S'element'
p1328
sS'selection'
p1329
(lp1330
I25
asS'index'
p1331
I13
sbsS'elset_mpcs'
p1332
g0
(g1320
g2
Ntp1333
Rp1334
(dp1335
g1324
g1325
sg1326
g1332
sg1327
g1328
sg1329
(lp1336
I39
aI40
aI41
aI42
aI43
aI44
aI45
aI46
asg1331
I27
sbsg376
g0
(g1320
g2
Ntp1337
Rp1338
(dp1339
g1324
g1325
sg1326
g376
sg1327
g1328
sg1329
(lp1340
I33
asg1331
I21
sbsg422
g0
(g1320
g2
Ntp1341
Rp1342
(dp1343
g1324
g1325
sg1326
g422
sg1327
g1328
sg1329
(lp1344
I4
aI5
asg1331
I2
sbsg388
g0
(g1320
g2
Ntp1345
Rp1346
(dp1347
g1324
g1325
sg1326
g388
sg1327
g1328
sg1329
(lp1348
I28
asg1331
I16
sbsg484
g0
(g1320
g2
Ntp1349
Rp1350
(dp1351
g1324
g1325
sg1326
g484
sg1327
g1328
sg1329
(lp1352
I30
asg1331
I18
sbsg462
g0
(g1320
g2
Ntp1353
Rp1354
(dp1355
g1324
g1325
sg1326
g462
sg1327
g1328
sg1329
(lp1356
I2
aI3
asg1331
I1
sbsg398
g0
(g1320
g2
Ntp1357
Rp1358
(dp1359
g1324
g1325
sg1326
g398
sg1327
g1328
sg1329
(lp1360
I0
aI1
asg1331
I0
sbsg450
g0
(g1320
g2
Ntp1361
Rp1362
(dp1363
g1324
g1325
sg1326
g450
sg1327
g1328
sg1329
(lp1364
I12
aI13
aI14
asg1331
I6
sbsg488
g0
(g1320
g2
Ntp1365
Rp1366
(dp1367
g1324
g1325
sg1326
g488
sg1327
g1328
sg1329
(lp1368
I10
aI11
asg1331
I5
sbsg414
g0
(g1320
g2
Ntp1369
Rp1370
(dp1371
g1324
g1325
sg1326
g414
sg1327
g1328
sg1329
(lp1372
I8
aI9
asg1331
I4
sbsg458
g0
(g1320
g2
Ntp1373
Rp1374
(dp1375
g1324
g1325
sg1326
g458
sg1327
g1328
sg1329
(lp1376
I6
aI7
asg1331
I3
sbsg406
g0
(g1320
g2
Ntp1377
Rp1378
(dp1379
g1324
g1325
sg1326
g406
sg1327
g1328
sg1329
(lp1380
I18
aI19
aI20
asg1331
I8
sbsg442
g0
(g1320
g2
Ntp1381
Rp1382
(dp1383
g1324
g1325
sg1326
g442
sg1327
g1328
sg1329
(lp1384
I16
aI17
aI15
asg1331
I7
sbsg418
g0
(g1320
g2
Ntp1385
Rp1386
(dp1387
g1324
g1325
sg1326
g418
sg1327
g1328
sg1329
(lp1388
I23
asg1331
I11
sbsg480
g0
(g1320
g2
Ntp1389
Rp1390
(dp1391
g1324
g1325
sg1326
g480
sg1327
g1328
sg1329
(lp1392
I38
asg1331
I26
sbsg430
g0
(g1320
g2
Ntp1393
Rp1394
(dp1395
g1324
g1325
sg1326
g430
sg1327
g1328
sg1329
(lp1396
I35
asg1331
I23
sbsg410
g0
(g1320
g2
Ntp1397
Rp1398
(dp1399
g1324
g1325
sg1326
g410
sg1327
g1328
sg1329
(lp1400
I26
asg1331
I14
sbsg426
g0
(g1320
g2
Ntp1401
Rp1402
(dp1403
g1324
g1325
sg1326
g426
sg1327
g1328
sg1329
(lp1404
I32
asg1331
I20
sbsg446
g0
(g1320
g2
Ntp1405
Rp1406
(dp1407
g1324
g1325
sg1326
g446
sg1327
g1328
sg1329
(lp1408
I21
asg1331
I9
sbsg438
g0
(g1320
g2
Ntp1409
Rp1410
(dp1411
g1324
g1325
sg1326
g438
sg1327
g1328
sg1329
(lp1412
I29
asg1331
I17
sbsS'nset_support_wall2'
p1413
g0
(g1320
g2
Ntp1414
Rp1415
(dp1416
g1324
g1325
sg1326
g1413
sg1327
S'node'
p1417
sg1329
(lp1418
I63
aI62
aI61
aI60
asg1331
I29
sbsg434
g0
(g1320
g2
Ntp1419
Rp1420
(dp1421
g1324
g1325
sg1326
g434
sg1327
g1328
sg1329
(lp1422
I24
asg1331
I12
sbsg454
g0
(g1320
g2
Ntp1423
Rp1424
(dp1425
g1324
g1325
sg1326
g454
sg1327
g1328
sg1329
(lp1426
I37
asg1331
I25
sbsg402
g0
(g1320
g2
Ntp1427
Rp1428
(dp1429
g1324
g1325
sg1326
g402
sg1327
g1328
sg1329
(lp1430
I34
asg1331
I22
sbsS'nset_support_wall1'
p1431
g0
(g1320
g2
Ntp1432
Rp1433
(dp1434
g1324
g1325
sg1326
g1431
sg1327
g1417
sg1329
(lp1435
I47
aI46
aI45
aI44
asg1331
I28
sbsg472
g0
(g1320
g2
Ntp1436
Rp1437
(dp1438
g1324
g1325
sg1326
g472
sg1327
g1328
sg1329
(lp1439
I27
asg1331
I15
sbsg392
g0
(g1320
g2
Ntp1440
Rp1441
(dp1442
g1324
g1325
sg1326
g392
sg1327
g1328
sg1329
(lp1443
I31
asg1331
I19
sbsg384
g0
(g1320
g2
Ntp1444
Rp1445
(dp1446
g1324
g1325
sg1326
g384
sg1327
g1328
sg1329
(lp1447
I22
asg1331
I10
sbsg476
g0
(g1320
g2
Ntp1448
Rp1449
(dp1450
g1324
g1325
sg1326
g476
sg1327
g1328
sg1329
(lp1451
I36
asg1331
I24
sbssS'steps'
p1452
(dp1453
g1225
g0
(ccompas_fea.structure.step
GeneralStep
p1454
g2
Ntp1455
Rp1456
(dp1457
g367
I1
sS'__name__'
p1458
S'GeneralStep'
p1459
sS'name'
p1460
g1225
sS'attr_list'
p1461
(lp1462
g515
aS'increments'
p1463
aS'iterations'
p1464
aS'factor'
p1465
aS'nlgeom'
p1466
aS'nlmat'
p1467
aS'displacements'
p1468
aS'loads'
p1469
aS'type'
p1470
aS'tolerance'
p1471
aS'modify'
p1472
asS'increments'
p1473
I1
sS'iterations'
p1474
I100
sS'tolerance'
p1475
F0.01
sS'factor'
p1476
F1.0
sS'nlgeom'
p1477
I00
sS'nlmat'
p1478
I01
sS'displacements'
p1479
(lp1480
sS'loads'
p1481
(lp1482
S'load_gravity'
p1483
asS'modify'
p1484
I01
sS'type'
p1485
S'static'
p1486
sbsg1227
g0
(g1454
g2
Ntp1487
Rp1488
(dp1489
g367
I2
sg1458
g1459
sg1460
g1227
sg1461
(lp1490
g515
ag1463
ag1464
ag1465
ag1466
ag1467
ag1468
ag1469
ag1470
ag1471
ag1472
asg1473
I1
sg1474
I100
sg1475
F0.01
sg1476
F1.0
sg1477
I00
sg1478
I01
sg1479
(lp1491
sg1481
(lp1492
S'earthPressure_gravel'
p1493
aS'earthPressure_backfill'
p1494
ag535
asg1484
I01
sg1485
g1486
sbsg1228
g0
(g1454
g2
Ntp1495
Rp1496
(dp1497
g367
I3
sg1458
g1459
sg1460
g1228
sg1461
(lp1498
g515
ag1463
ag1464
ag1465
ag1466
ag1467
ag1468
ag1469
ag1470
ag1471
ag1472
asg1473
I1
sg1474
I100
sg1475
F0.01
sg1476
F1.0
sg1477
I00
sg1478
I01
sg1479
(lp1499
sg1481
(lp1500
g573
ag551
ag566
ag528
ag497
ag520
asg1484
I01
sg1485
g1486
sbsg1229
g0
(g1454
g2
Ntp1501
Rp1502
(dp1503
g367
I0
sg1458
g1459
sg1460
g1229
sg1461
(lp1504
g515
ag1463
ag1464
ag1465
ag1466
ag1467
ag1468
ag1469
ag1470
ag1471
ag1472
asg1473
I1
sg1474
I100
sg1475
F0.01
sg1476
F1.0
sg1477
I00
sg1478
I01
sg1479
(lp1505
S'nset_pinned_set_disp_1'
p1506
aS'nset_pinned_set_disp_2'
p1507
asg1481
(lp1508
sg1484
I01
sg1485
g1486
sbssS'loc_coor'
p1509
(dp1510
sS'steps_order'
p1511
(lp1512
S'step_1'
p1513
aS'step_2'
p1514
aS'step_3'
p1515
aS'step_4'
p1516
asS'tol'
p1517
S'3'
p1518
sS'virtual_nodes'
p1519
(dp1520
sS'virtual_node_index'
p1521
(dp1522
sS'virtual_elements'
p1523
(dp1524
sS'virtual_element_index'
p1525
(dp1526
sb.