ccopy_reg
_reconstructor
p0
(ccompas_fea.structure.structure
Structure
p1
c__builtin__
object
p2
Ntp3
Rp4
(dp5
S'constraints'
p6
(dp7
sS'displacements'
p8
(dp9
S'nset_pinned_set_disp_1'
p10
g0
(ccompas_fea.structure.displacement
GeneralDisplacement
p11
g2
Ntp12
Rp13
(dp14
S'index'
p15
I0
sS'__name__'
p16
S'GeneralDisplacement'
p17
sS'name'
p18
g10
sS'nodes'
p19
S'nset_support_wall1'
p20
sS'components'
p21
(dp22
S'z'
p23
I0
sS'xx'
p24
I0
sS'zz'
p25
I0
sS'yy'
p26
I0
sS'y'
p27
I0
sS'x'
p28
I0
ssS'axes'
p29
S'global'
p30
sbsS'nset_pinned_set_disp_2'
p31
g0
(g11
g2
Ntp32
Rp33
(dp34
g15
I1
sg16
g17
sg18
g31
sg19
S'nset_support_wall2'
p35
sg21
(dp36
g23
I0
sg24
I0
sg25
I0
sg26
I0
sg27
I0
sg28
I0
ssg29
g30
sbssS'elements'
p37
(dp38
I0
g0
(ccompas_fea.structure.element
ShellElement
p39
g2
Ntp40
Rp41
(dp42
S'mass'
p43
NsS'__name__'
p44
S'ShellElement'
p45
sS'nodes'
p46
(lp47
I0
aI1
aI3
aI2
asS'number'
p48
I0
sS'thermal'
p49
I00
sS'axes'
p50
(dp51
S'ey'
p52
NsS'ez'
p53
NsS'ex'
p54
NssS'element_property'
p55
S'elset_plate_1_element_prop'
p56
sbsI1
g0
(g39
g2
Ntp57
Rp58
(dp59
g43
Nsg44
g45
sg46
(lp60
I2
aI3
aI5
aI4
asg48
I1
sg49
I00
sg50
g51
sg55
g56
sbsI2
g0
(g39
g2
Ntp61
Rp62
(dp63
g43
Nsg44
g45
sg46
(lp64
I4
aI5
aI7
aI6
asg48
I2
sg49
I00
sg50
g51
sg55
g56
sbsI3
g0
(g39
g2
Ntp65
Rp66
(dp67
g43
Nsg44
g45
sg46
(lp68
I6
aI7
aI9
aI8
asg48
I3
sg49
I00
sg50
g51
sg55
g56
sbsI4
g0
(g39
g2
Ntp69
Rp70
(dp71
g43
Nsg44
g45
sg46
(lp72
I10
aI11
aI13
aI12
asg48
I4
sg49
I00
sg50
(dp73
g52
Nsg53
Nsg54
Nssg55
S'elset_plate_2_element_prop'
p74
sbsI5
g0
(g39
g2
Ntp75
Rp76
(dp77
g43
Nsg44
g45
sg46
(lp78
I12
aI13
aI15
aI14
asg48
I5
sg49
I00
sg50
g73
sg55
g74
sbsI6
g0
(g39
g2
Ntp79
Rp80
(dp81
g43
Nsg44
g45
sg46
(lp82
I14
aI15
aI17
aI16
asg48
I6
sg49
I00
sg50
g73
sg55
g74
sbsI7
g0
(g39
g2
Ntp83
Rp84
(dp85
g43
Nsg44
g45
sg46
(lp86
I16
aI17
aI19
aI18
asg48
I7
sg49
I00
sg50
g73
sg55
g74
sbsI8
g0
(g39
g2
Ntp87
Rp88
(dp89
g43
Nsg44
g45
sg46
(lp90
I1
aI20
aI21
aI3
asg48
I8
sg49
I00
sg50
(dp91
g52
Nsg53
Nsg54
Nssg55
S'elset_plate_3_element_prop'
p92
sbsI9
g0
(g39
g2
Ntp93
Rp94
(dp95
g43
Nsg44
g45
sg46
(lp96
I3
aI21
aI22
aI5
asg48
I9
sg49
I00
sg50
g91
sg55
g92
sbsI10
g0
(g39
g2
Ntp97
Rp98
(dp99
g43
Nsg44
g45
sg46
(lp100
I5
aI22
aI23
aI7
asg48
I10
sg49
I00
sg50
g91
sg55
g92
sbsI11
g0
(g39
g2
Ntp101
Rp102
(dp103
g43
Nsg44
g45
sg46
(lp104
I7
aI23
aI24
aI9
asg48
I11
sg49
I00
sg50
g91
sg55
g92
sbsI12
g0
(g39
g2
Ntp105
Rp106
(dp107
g43
Nsg44
g45
sg46
(lp108
I11
aI25
aI26
aI13
asg48
I12
sg49
I00
sg50
(dp109
g52
Nsg53
Nsg54
Nssg55
S'elset_plate_4_element_prop'
p110
sbsI13
g0
(g39
g2
Ntp111
Rp112
(dp113
g43
Nsg44
g45
sg46
(lp114
I13
aI26
aI27
aI15
asg48
I13
sg49
I00
sg50
g109
sg55
g110
sbsI14
g0
(g39
g2
Ntp115
Rp116
(dp117
g43
Nsg44
g45
sg46
(lp118
I15
aI27
aI28
aI17
asg48
I14
sg49
I00
sg50
g109
sg55
g110
sbsI15
g0
(g39
g2
Ntp119
Rp120
(dp121
g43
Nsg44
g45
sg46
(lp122
I17
aI28
aI29
aI19
asg48
I15
sg49
I00
sg50
g109
sg55
g110
sbsI16
g0
(g39
g2
Ntp123
Rp124
(dp125
g43
Nsg44
g45
sg46
(lp126
I20
aI30
aI31
aI21
asg48
I16
sg49
I00
sg50
(dp127
g52
Nsg53
Nsg54
Nssg55
S'elset_plate_5_element_prop'
p128
sbsI17
g0
(g39
g2
Ntp129
Rp130
(dp131
g43
Nsg44
g45
sg46
(lp132
I21
aI31
aI32
aI22
asg48
I17
sg49
I00
sg50
g127
sg55
g128
sbsI18
g0
(g39
g2
Ntp133
Rp134
(dp135
g43
Nsg44
g45
sg46
(lp136
I22
aI32
aI33
aI23
asg48
I18
sg49
I00
sg50
g127
sg55
g128
sbsI19
g0
(g39
g2
Ntp137
Rp138
(dp139
g43
Nsg44
g45
sg46
(lp140
I23
aI33
aI34
aI24
asg48
I19
sg49
I00
sg50
g127
sg55
g128
sbsI20
g0
(g39
g2
Ntp141
Rp142
(dp143
g43
Nsg44
g45
sg46
(lp144
I25
aI35
aI36
aI26
asg48
I20
sg49
I00
sg50
(dp145
g52
Nsg53
Nsg54
Nssg55
S'elset_plate_6_element_prop'
p146
sbsI21
g0
(g39
g2
Ntp147
Rp148
(dp149
g43
Nsg44
g45
sg46
(lp150
I26
aI36
aI37
aI27
asg48
I21
sg49
I00
sg50
g145
sg55
g146
sbsI22
g0
(g39
g2
Ntp151
Rp152
(dp153
g43
Nsg44
g45
sg46
(lp154
I27
aI37
aI38
aI28
asg48
I22
sg49
I00
sg50
g145
sg55
g146
sbsI23
g0
(g39
g2
Ntp155
Rp156
(dp157
g43
Nsg44
g45
sg46
(lp158
I28
aI38
aI39
aI29
asg48
I23
sg49
I00
sg50
g145
sg55
g146
sbsI24
g0
(g39
g2
Ntp159
Rp160
(dp161
g43
Nsg44
g45
sg46
(lp162
I8
aI9
aI41
aI40
asg48
I24
sg49
I00
sg50
(dp163
g52
Nsg53
Nsg54
Nssg55
S'elset_plate_7_element_prop'
p164
sbsI25
g0
(g39
g2
Ntp165
Rp166
(dp167
g43
Nsg44
g45
sg46
(lp168
I40
aI41
aI43
aI42
asg48
I25
sg49
I00
sg50
g163
sg55
g164
sbsI26
g0
(g39
g2
Ntp169
Rp170
(dp171
g43
Nsg44
g45
sg46
(lp172
I42
aI43
aI45
aI44
asg48
I26
sg49
I00
sg50
g163
sg55
g164
sbsI27
g0
(g39
g2
Ntp173
Rp174
(dp175
g43
Nsg44
g45
sg46
(lp176
I44
aI45
aI11
aI10
asg48
I27
sg49
I00
sg50
g163
sg55
g164
sbsI28
g0
(g39
g2
Ntp177
Rp178
(dp179
g43
Nsg44
g45
sg46
(lp180
I9
aI24
aI46
aI41
asg48
I28
sg49
I00
sg50
(dp181
g52
Nsg53
Nsg54
Nssg55
S'elset_plate_8_element_prop'
p182
sbsI29
g0
(g39
g2
Ntp183
Rp184
(dp185
g43
Nsg44
g45
sg46
(lp186
I41
aI46
aI47
aI43
asg48
I29
sg49
I00
sg50
g181
sg55
g182
sbsI30
g0
(g39
g2
Ntp187
Rp188
(dp189
g43
Nsg44
g45
sg46
(lp190
I43
aI47
aI48
aI45
asg48
I30
sg49
I00
sg50
g181
sg55
g182
sbsI31
g0
(g39
g2
Ntp191
Rp192
(dp193
g43
Nsg44
g45
sg46
(lp194
I45
aI48
aI25
aI11
asg48
I31
sg49
I00
sg50
g181
sg55
g182
sbsI32
g0
(g39
g2
Ntp195
Rp196
(dp197
g43
Nsg44
g45
sg46
(lp198
I24
aI34
aI49
aI46
asg48
I32
sg49
I00
sg50
(dp199
g52
Nsg53
Nsg54
Nssg55
S'elset_plate_9_element_prop'
p200
sbsI33
g0
(g39
g2
Ntp201
Rp202
(dp203
g43
Nsg44
g45
sg46
(lp204
I46
aI49
aI50
aI47
asg48
I33
sg49
I00
sg50
g199
sg55
g200
sbsI34
g0
(g39
g2
Ntp205
Rp206
(dp207
g43
Nsg44
g45
sg46
(lp208
I47
aI50
aI51
aI48
asg48
I34
sg49
I00
sg50
g199
sg55
g200
sbsI35
g0
(g39
g2
Ntp209
Rp210
(dp211
g43
Nsg44
g45
sg46
(lp212
I48
aI51
aI35
aI25
asg48
I35
sg49
I00
sg50
g199
sg55
g200
sbsI36
g0
(g39
g2
Ntp213
Rp214
(dp215
g43
Nsg44
g45
sg46
(lp216
I52
aI53
aI55
aI54
asg48
I36
sg49
I00
sg50
(dp217
g52
Nsg53
Nsg54
Nssg55
S'elset_wall_1_1_element_prop'
p218
sbsI37
g0
(g39
g2
Ntp219
Rp220
(dp221
g43
Nsg44
g45
sg46
(lp222
I54
aI55
aI57
aI56
asg48
I37
sg49
I00
sg50
g217
sg55
g218
sbsI38
g0
(g39
g2
Ntp223
Rp224
(dp225
g43
Nsg44
g45
sg46
(lp226
I53
aI58
aI59
aI55
asg48
I38
sg49
I00
sg50
(dp227
g52
Nsg53
Nsg54
Nssg55
S'elset_wall_1_2_element_prop'
p228
sbsI39
g0
(g39
g2
Ntp229
Rp230
(dp231
g43
Nsg44
g45
sg46
(lp232
I55
aI59
aI60
aI57
asg48
I39
sg49
I00
sg50
g227
sg55
g228
sbsI40
g0
(g39
g2
Ntp233
Rp234
(dp235
g43
Nsg44
g45
sg46
(lp236
I58
aI61
aI62
aI59
asg48
I40
sg49
I00
sg50
(dp237
g52
Nsg53
Nsg54
Nssg55
S'elset_wall_1_3_element_prop'
p238
sbsI41
g0
(g39
g2
Ntp239
Rp240
(dp241
g43
Nsg44
g45
sg46
(lp242
I59
aI62
aI63
aI60
asg48
I41
sg49
I00
sg50
g237
sg55
g238
sbsI42
g0
(g39
g2
Ntp243
Rp244
(dp245
g43
Nsg44
g45
sg46
(lp246
I64
aI65
aI67
aI66
asg48
I42
sg49
I00
sg50
(dp247
g52
Nsg53
Nsg54
Nssg55
S'elset_wall_1_4_element_prop'
p248
sbsI43
g0
(g39
g2
Ntp249
Rp250
(dp251
g43
Nsg44
g45
sg46
(lp252
I66
aI67
aI53
aI52
asg48
I43
sg49
I00
sg50
g247
sg55
g248
sbsI44
g0
(g39
g2
Ntp253
Rp254
(dp255
g43
Nsg44
g45
sg46
(lp256
I65
aI68
aI69
aI67
asg48
I44
sg49
I00
sg50
(dp257
g52
Nsg53
Nsg54
Nssg55
S'elset_wall_1_5_element_prop'
p258
sbsI45
g0
(g39
g2
Ntp259
Rp260
(dp261
g43
Nsg44
g45
sg46
(lp262
I67
aI69
aI58
aI53
asg48
I45
sg49
I00
sg50
g257
sg55
g258
sbsI46
g0
(g39
g2
Ntp263
Rp264
(dp265
g43
Nsg44
g45
sg46
(lp266
I68
aI70
aI71
aI69
asg48
I46
sg49
I00
sg50
(dp267
g52
Nsg53
Nsg54
Nssg55
S'elset_wall_1_6_element_prop'
p268
sbsI47
g0
(g39
g2
Ntp269
Rp270
(dp271
g43
Nsg44
g45
sg46
(lp272
I69
aI71
aI61
aI58
asg48
I47
sg49
I00
sg50
g267
sg55
g268
sbsI48
g0
(g39
g2
Ntp273
Rp274
(dp275
g43
Nsg44
g45
sg46
(lp276
I72
aI73
aI75
aI74
asg48
I48
sg49
I00
sg50
(dp277
g52
Nsg53
Nsg54
Nssg55
S'elset_wall_1_7_element_prop'
p278
sbsI49
g0
(g39
g2
Ntp279
Rp280
(dp281
g43
Nsg44
g45
sg46
(lp282
I74
aI75
aI65
aI64
asg48
I49
sg49
I00
sg50
g277
sg55
g278
sbsI50
g0
(g39
g2
Ntp283
Rp284
(dp285
g43
Nsg44
g45
sg46
(lp286
I73
aI76
aI77
aI75
asg48
I50
sg49
I00
sg50
(dp287
g52
Nsg53
Nsg54
Nssg55
S'elset_wall_1_8_element_prop'
p288
sbsI51
g0
(g39
g2
Ntp289
Rp290
(dp291
g43
Nsg44
g45
sg46
(lp292
I75
aI77
aI68
aI65
asg48
I51
sg49
I00
sg50
g287
sg55
g288
sbsI52
g0
(g39
g2
Ntp293
Rp294
(dp295
g43
Nsg44
g45
sg46
(lp296
I76
aI78
aI79
aI77
asg48
I52
sg49
I00
sg50
(dp297
g52
Nsg53
Nsg54
Nssg55
S'elset_wall_1_9_element_prop'
p298
sbsI53
g0
(g39
g2
Ntp299
Rp300
(dp301
g43
Nsg44
g45
sg46
(lp302
I77
aI79
aI70
aI68
asg48
I53
sg49
I00
sg50
g297
sg55
g298
sbsI54
g0
(g39
g2
Ntp303
Rp304
(dp305
g43
Nsg44
g45
sg46
(lp306
I80
aI82
aI83
aI81
asg48
I54
sg49
I00
sg50
(dp307
g52
Nsg53
Nsg54
Nssg55
S'elset_wall_2_1_element_prop'
p308
sbsI55
g0
(g39
g2
Ntp309
Rp310
(dp311
g43
Nsg44
g45
sg46
(lp312
I82
aI84
aI85
aI83
asg48
I55
sg49
I00
sg50
g307
sg55
g308
sbsI56
g0
(g39
g2
Ntp313
Rp314
(dp315
g43
Nsg44
g45
sg46
(lp316
I81
aI83
aI87
aI86
asg48
I56
sg49
I00
sg50
(dp317
g52
Nsg53
Nsg54
Nssg55
S'elset_wall_2_2_element_prop'
p318
sbsI57
g0
(g39
g2
Ntp319
Rp320
(dp321
g43
Nsg44
g45
sg46
(lp322
I83
aI85
aI88
aI87
asg48
I57
sg49
I00
sg50
g317
sg55
g318
sbsI58
g0
(g39
g2
Ntp323
Rp324
(dp325
g43
Nsg44
g45
sg46
(lp326
I86
aI87
aI90
aI89
asg48
I58
sg49
I00
sg50
(dp327
g52
Nsg53
Nsg54
Nssg55
S'elset_wall_2_3_element_prop'
p328
sbsI59
g0
(g39
g2
Ntp329
Rp330
(dp331
g43
Nsg44
g45
sg46
(lp332
I87
aI88
aI91
aI90
asg48
I59
sg49
I00
sg50
g327
sg55
g328
sbsI60
g0
(g39
g2
Ntp333
Rp334
(dp335
g43
Nsg44
g45
sg46
(lp336
I92
aI94
aI95
aI93
asg48
I60
sg49
I00
sg50
(dp337
g52
Nsg53
Nsg54
Nssg55
S'elset_wall_2_4_element_prop'
p338
sbsI61
g0
(g39
g2
Ntp339
Rp340
(dp341
g43
Nsg44
g45
sg46
(lp342
I94
aI80
aI81
aI95
asg48
I61
sg49
I00
sg50
g337
sg55
g338
sbsI62
g0
(g39
g2
Ntp343
Rp344
(dp345
g43
Nsg44
g45
sg46
(lp346
I93
aI95
aI97
aI96
asg48
I62
sg49
I00
sg50
(dp347
g52
Nsg53
Nsg54
Nssg55
S'elset_wall_2_5_element_prop'
p348
sbsI63
g0
(g39
g2
Ntp349
Rp350
(dp351
g43
Nsg44
g45
sg46
(lp352
I95
aI81
aI86
aI97
asg48
I63
sg49
I00
sg50
g347
sg55
g348
sbsI64
g0
(g39
g2
Ntp353
Rp354
(dp355
g43
Nsg44
g45
sg46
(lp356
I96
aI97
aI99
aI98
asg48
I64
sg49
I00
sg50
(dp357
g52
Nsg53
Nsg54
Nssg55
S'elset_wall_2_6_element_prop'
p358
sbsI65
g0
(g39
g2
Ntp359
Rp360
(dp361
g43
Nsg44
g45
sg46
(lp362
I97
aI86
aI89
aI99
asg48
I65
sg49
I00
sg50
g357
sg55
g358
sbsI66
g0
(g39
g2
Ntp363
Rp364
(dp365
g43
Nsg44
g45
sg46
(lp366
I100
aI102
aI103
aI101
asg48
I66
sg49
I00
sg50
(dp367
g52
Nsg53
Nsg54
Nssg55
S'elset_wall_2_7_element_prop'
p368
sbsI67
g0
(g39
g2
Ntp369
Rp370
(dp371
g43
Nsg44
g45
sg46
(lp372
I102
aI92
aI93
aI103
asg48
I67
sg49
I00
sg50
g367
sg55
g368
sbsI68
g0
(g39
g2
Ntp373
Rp374
(dp375
g43
Nsg44
g45
sg46
(lp376
I101
aI103
aI105
aI104
asg48
I68
sg49
I00
sg50
(dp377
g52
Nsg53
Nsg54
Nssg55
S'elset_wall_2_8_element_prop'
p378
sbsI69
g0
(g39
g2
Ntp379
Rp380
(dp381
g43
Nsg44
g45
sg46
(lp382
I103
aI93
aI96
aI105
asg48
I69
sg49
I00
sg50
g377
sg55
g378
sbsI70
g0
(g39
g2
Ntp383
Rp384
(dp385
g43
Nsg44
g45
sg46
(lp386
I104
aI105
aI107
aI106
asg48
I70
sg49
I00
sg50
(dp387
g52
Nsg53
Nsg54
Nssg55
S'elset_wall_2_9_element_prop'
p388
sbsI71
g0
(g39
g2
Ntp389
Rp390
(dp391
g43
Nsg44
g45
sg46
(lp392
I105
aI96
aI98
aI107
asg48
I71
sg49
I00
sg50
g387
sg55
g388
sbsI72
g0
(ccompas_fea.structure.element
MPCElement
p393
g2
Ntp394
Rp395
(dp396
g43
Nsg44
S'MPCElement'
p397
sg46
(lp398
I91
aI39
asg48
I72
sg49
I00
sg50
(dp399
g52
Nsg53
(lp400
F0.0
aF0.0
aF645.14405498693486
asg54
Nssg55
S'elset_mpc_element_prop'
p401
sbsI73
g0
(g393
g2
Ntp402
Rp403
(dp404
g43
Nsg44
g397
sg46
(lp405
I88
aI29
asg48
I73
sg49
I00
sg50
(dp406
g52
Nsg53
(lp407
F-1.1368683772161603e-12
aF0.0
aF645.14405498693486
asg54
Nssg55
g401
sbsI74
g0
(g393
g2
Ntp408
Rp409
(dp410
g43
Nsg44
g397
sg46
(lp411
I85
aI19
asg48
I74
sg49
I00
sg50
(dp412
g52
Nsg53
(lp413
F4.4337866711430252e-12
aF0.0
aF645.14405498693486
asg54
Nssg55
g401
sbsI75
g0
(g393
g2
Ntp414
Rp415
(dp416
g43
Nsg44
g397
sg46
(lp417
I84
aI18
asg48
I75
sg49
I00
sg50
(dp418
g52
Nsg53
(lp419
F0.0
aF0.0
aF645.14405498693486
asg54
Nssg55
g401
sbsI76
g0
(g393
g2
Ntp420
Rp421
(dp422
g43
Nsg44
g397
sg46
(lp423
I63
aI30
asg48
I76
sg49
I00
sg50
(dp424
g52
Nsg53
(lp425
F0.0
aF0.0
aF645.14405498693486
asg54
Nssg55
g401
sbsI77
g0
(g393
g2
Ntp426
Rp427
(dp428
g43
Nsg44
g397
sg46
(lp429
I60
aI20
asg48
I77
sg49
I00
sg50
(dp430
g52
Nsg53
(lp431
F-1.1368683772161603e-12
aF0.0
aF645.14405498693486
asg54
Nssg55
g401
sbsI78
g0
(g393
g2
Ntp432
Rp433
(dp434
g43
Nsg44
g397
sg46
(lp435
I57
aI1
asg48
I78
sg49
I00
sg50
(dp436
g52
Nsg53
(lp437
F4.4337866711430252e-12
aF0.0
aF645.14405498693486
asg54
Nssg55
g401
sbsI79
g0
(g393
g2
Ntp438
Rp439
(dp440
g43
Nsg44
g397
sg46
(lp441
I56
aI0
asg48
I79
sg49
I00
sg50
(dp442
g52
Nsg53
(lp443
F0.0
aF0.0
aF645.14405498693486
asg54
Nssg55
g401
sbssS'element_index'
p444
(dp445
S'2545.552,0.000,-2684.714'
p446
I46
sS'506.043,11133.567,-932.776'
p447
I55
sS'506.043,3214.818,0.000'
p448
I3
sS'506.043,11133.567,-1508.039'
p449
I54
sS'3066.930,11133.567,-322.572'
p450
I72
sS'2545.552,11133.567,-932.776'
p451
I59
sS'506.043,9755.788,0.000'
p452
I6
sS'1518.130,11133.567,-932.776'
p453
I57
sS'2545.552,0.000,-3268.694'
p454
I53
sS'506.043,4147.254,0.000'
p455
I24
sS'506.043,11133.567,-3268.694'
p456
I67
sS'1518.130,11133.567,-3843.957'
p457
I68
sS'1518.130,11133.567,-3268.694'
p458
I69
sS'2545.552,10674.308,0.000'
p459
I23
sS'506.043,6986.313,0.000'
p460
I27
sS'1518.130,9755.788,0.000'
p461
I14
sS'506.043,10674.308,0.000'
p462
I7
sS'506.043,11133.567,-2684.714'
p463
I60
sS'1518.130,6986.313,0.000'
p464
I31
sS'2545.552,2296.298,0.000'
p465
I18
sS'1518.130,11133.567,-2092.019'
p466
I63
sS'2024.174,0.000,-322.572'
p467
I77
sS'506.043,0.000,-3268.694'
p468
I49
sS'1518.130,3214.818,0.000'
p469
I11
sS'506.043,11133.567,-2092.019'
p470
I61
sS'506.043,5093.607,0.000'
p471
I25
sS'506.043,0.000,-3843.957'
p472
I48
sS'2545.552,11133.567,-2092.019'
p473
I65
sS'2545.552,459.260,0.000'
p474
I16
sS'2024.174,11133.567,-322.572'
p475
I73
sS'1518.130,0.000,-932.776'
p476
I39
sS'506.043,2296.298,0.000'
p477
I2
sS'2545.552,9755.788,0.000'
p478
I22
sS'2545.552,0.000,-3843.957'
p479
I52
sS'2545.552,11133.567,-3268.694'
p480
I71
sS'2545.552,6039.960,0.000'
p481
I34
sS'1518.130,11133.567,-2684.714'
p482
I62
sS'506.043,459.260,0.000'
p483
I0
sS'1518.130,10674.308,0.000'
p484
I15
sS'506.043,8837.269,0.000'
p485
I5
sS'2545.552,11133.567,-2684.714'
p486
I64
sS'1012.087,11133.567,-322.572'
p487
I74
sS'1518.130,4147.254,0.000'
p488
I28
sS'2545.552,7918.750,0.000'
p489
I20
sS'506.043,6039.960,0.000'
p490
I26
sS'1518.130,11133.567,-1508.039'
p491
I56
sS'506.043,11133.567,-3843.957'
p492
I66
sS'506.043,1377.779,0.000'
p493
I1
sS'2545.552,0.000,-932.776'
p494
I41
sS'506.043,0.000,-2684.714'
p495
I42
sS'1012.087,0.000,-322.572'
p496
I78
sS'2545.552,0.000,-1508.039'
p497
I40
sS'1518.130,0.000,-3843.957'
p498
I50
sS'2545.552,3214.818,0.000'
p499
I19
sS'1518.130,8837.269,0.000'
p500
I13
sS'506.043,0.000,-2092.019'
p501
I43
sS'2545.552,6986.313,0.000'
p502
I35
sS'1518.130,5093.607,0.000'
p503
I29
sS'1518.130,0.000,-1508.039'
p504
I38
sS'2545.552,1377.779,0.000'
p505
I17
sS'1518.130,2296.298,0.000'
p506
I10
sS'1518.130,6039.960,0.000'
p507
I30
sS'3066.930,0.000,-322.572'
p508
I76
sS'506.043,0.000,-1508.039'
p509
I36
sS'2545.552,5093.607,0.000'
p510
I33
sS'1518.130,459.260,0.000'
p511
I8
sS'2545.552,11133.567,-1508.039'
p512
I58
sS'2545.552,8837.269,0.000'
p513
I21
sS'506.043,7918.750,0.000'
p514
I4
sS'1518.130,1377.779,0.000'
p515
I9
sS'1518.130,0.000,-2684.714'
p516
I44
sS'1518.130,7918.750,0.000'
p517
I12
sS'0.000,0.000,-322.572'
p518
I79
sS'2545.552,4147.254,0.000'
p519
I32
sS'1518.130,0.000,-3268.694'
p520
I51
sS'2545.552,0.000,-2092.019'
p521
I47
sS'0.000,11133.567,-322.572'
p522
I75
sS'506.043,0.000,-932.776'
p523
I37
sS'2545.552,11133.567,-3843.957'
p524
I70
sS'1518.130,0.000,-2092.019'
p525
I45
ssS'element_properties'
p526
(dp527
g338
g0
(ccompas_fea.structure.element_properties
ElementProperties
p528
g2
Ntp529
Rp530
(dp531
g15
I21
sS'__name__'
p532
S'ElementProperties'
p533
sS'name'
p534
g338
sS'material'
p535
S'wall_element_mat'
p536
sS'section'
p537
S'wall2_element_sec'
p538
sS'elset'
p539
S'elset_wall_2_4'
p540
sS'elements'
p541
NsS'rebar'
p542
(dp543
sbsg228
g0
(g528
g2
Ntp544
Rp545
(dp546
g15
I10
sg532
g533
sg534
g228
sg535
g536
sg537
S'wall1_element_sec'
p547
sg539
S'elset_wall_1_2'
p548
sg541
Nsg542
g543
sbsg288
g0
(g528
g2
Ntp549
Rp550
(dp551
g15
I16
sg532
g533
sg534
g288
sg535
g536
sg537
g547
sg539
S'elset_wall_1_8'
p552
sg541
Nsg542
g543
sbsg318
g0
(g528
g2
Ntp553
Rp554
(dp555
g15
I19
sg532
g533
sg534
g318
sg535
g536
sg537
g538
sg539
S'elset_wall_2_2'
p556
sg541
Nsg542
g543
sbsg56
g0
(g528
g2
Ntp557
Rp558
(dp559
g15
I0
sg532
g533
sg534
g56
sg535
S'plate_element_mat'
p560
sg537
S'plate_element_sec'
p561
sg539
S'elset_plate_1'
p562
sg541
Nsg542
g543
sbsg348
g0
(g528
g2
Ntp563
Rp564
(dp565
g15
I22
sg532
g533
sg534
g348
sg535
g536
sg537
g538
sg539
S'elset_wall_2_5'
p566
sg541
Nsg542
g543
sbsg200
g0
(g528
g2
Ntp567
Rp568
(dp569
g15
I8
sg532
g533
sg534
g200
sg535
g560
sg537
g561
sg539
S'elset_plate_9'
p570
sg541
Nsg542
g543
sbsg268
g0
(g528
g2
Ntp571
Rp572
(dp573
g15
I14
sg532
g533
sg534
g268
sg535
g536
sg537
g547
sg539
S'elset_wall_1_6'
p574
sg541
Nsg542
g543
sbsg128
g0
(g528
g2
Ntp575
Rp576
(dp577
g15
I4
sg532
g533
sg534
g128
sg535
g560
sg537
g561
sg539
S'elset_plate_5'
p578
sg541
Nsg542
g543
sbsg238
g0
(g528
g2
Ntp579
Rp580
(dp581
g15
I11
sg532
g533
sg534
g238
sg535
g536
sg537
g547
sg539
S'elset_wall_1_3'
p582
sg541
Nsg542
g543
sbsg92
g0
(g528
g2
Ntp583
Rp584
(dp585
g15
I2
sg532
g533
sg534
g92
sg535
g560
sg537
g561
sg539
S'elset_plate_3'
p586
sg541
Nsg542
g543
sbsg328
g0
(g528
g2
Ntp587
Rp588
(dp589
g15
I20
sg532
g533
sg534
g328
sg535
g536
sg537
g538
sg539
S'elset_wall_2_3'
p590
sg541
Nsg542
g543
sbsg358
g0
(g528
g2
Ntp591
Rp592
(dp593
g15
I23
sg532
g533
sg534
g358
sg535
g536
sg537
g538
sg539
S'elset_wall_2_6'
p594
sg541
Nsg542
g543
sbsg248
g0
(g528
g2
Ntp595
Rp596
(dp597
g15
I12
sg532
g533
sg534
g248
sg535
g536
sg537
g547
sg539
S'elset_wall_1_4'
p598
sg541
Nsg542
g543
sbsg298
g0
(g528
g2
Ntp599
Rp600
(dp601
g15
I17
sg532
g533
sg534
g298
sg535
g536
sg537
g547
sg539
S'elset_wall_1_9'
p602
sg541
Nsg542
g543
sbsg182
g0
(g528
g2
Ntp603
Rp604
(dp605
g15
I7
sg532
g533
sg534
g182
sg535
g560
sg537
g561
sg539
S'elset_plate_8'
p606
sg541
Nsg542
g543
sbsg218
g0
(g528
g2
Ntp607
Rp608
(dp609
g15
I9
sg532
g533
sg534
g218
sg535
g536
sg537
g547
sg539
S'elset_wall_1_1'
p610
sg541
Nsg542
g543
sbsg164
g0
(g528
g2
Ntp611
Rp612
(dp613
g15
I6
sg532
g533
sg534
g164
sg535
g560
sg537
g561
sg539
S'elset_plate_7'
p614
sg541
Nsg542
g543
sbsg378
g0
(g528
g2
Ntp615
Rp616
(dp617
g15
I25
sg532
g533
sg534
g378
sg535
g536
sg537
g538
sg539
S'elset_wall_2_8'
p618
sg541
Nsg542
g543
sbsg110
g0
(g528
g2
Ntp619
Rp620
(dp621
g15
I3
sg532
g533
sg534
g110
sg535
g560
sg537
g561
sg539
S'elset_plate_4'
p622
sg541
Nsg542
g543
sbsg74
g0
(g528
g2
Ntp623
Rp624
(dp625
g15
I1
sg532
g533
sg534
g74
sg535
g560
sg537
g561
sg539
S'elset_plate_2'
p626
sg541
Nsg542
g543
sbsg401
g0
(g528
g2
Ntp627
Rp628
(dp629
g15
I27
sg532
g533
sg534
g401
sg535
S'elset_mpc_element_mat'
p630
sg537
S'sec_mpc'
p631
sg539
S'elset_mpcs'
p632
sg541
Nsg542
g543
sbsg278
g0
(g528
g2
Ntp633
Rp634
(dp635
g15
I15
sg532
g533
sg534
g278
sg535
g536
sg537
g547
sg539
S'elset_wall_1_7'
p636
sg541
Nsg542
g543
sbsg368
g0
(g528
g2
Ntp637
Rp638
(dp639
g15
I24
sg532
g533
sg534
g368
sg535
g536
sg537
g538
sg539
S'elset_wall_2_7'
p640
sg541
Nsg542
g543
sbsg388
g0
(g528
g2
Ntp641
Rp642
(dp643
g15
I26
sg532
g533
sg534
g388
sg535
g536
sg537
g538
sg539
S'elset_wall_2_9'
p644
sg541
Nsg542
g543
sbsg308
g0
(g528
g2
Ntp645
Rp646
(dp647
g15
I18
sg532
g533
sg534
g308
sg535
g536
sg537
g538
sg539
S'elset_wall_2_1'
p648
sg541
Nsg542
g543
sbsg146
g0
(g528
g2
Ntp649
Rp650
(dp651
g15
I5
sg532
g533
sg534
g146
sg535
g560
sg537
g561
sg539
S'elset_plate_6'
p652
sg541
Nsg542
g543
sbsg258
g0
(g528
g2
Ntp653
Rp654
(dp655
g15
I13
sg532
g533
sg534
g258
sg535
g536
sg537
g547
sg539
S'elset_wall_1_5'
p656
sg541
Nsg542
g543
sbssS'interactions'
p657
(dp658
sS'loads'
p659
(dp660
S'earthPressure_liveLoad'
p661
g0
(ccompas_fea.structure.load
AreaLoad
p662
g2
Ntp663
Rp664
(dp665
g15
I8
sS'__name__'
p666
S'AreaLoad'
p667
sS'name'
p668
g661
sS'axes'
p669
S'local'
p670
sS'components'
p671
(dp672
g23
F0.037699999999999997
sg27
I0
sg28
I0
ssS'nodes'
p673
(lp674
sS'elements'
p675
(lp676
I39
aI40
aI41
aI42
aI45
aI46
aI47
aI48
aI51
aI52
aI53
aI54
asS'attr_list'
p677
(lp678
S'name'
p679
aS'axes'
p680
aS'components'
p681
aS'nodes'
p682
aS'elements'
p683
asbsS'Gleis1_EIGENGEWICHTE_SCHIENE_Lasteinzugsflache'
p684
g0
(g662
g2
Ntp685
Rp686
(dp687
g15
I3
sg666
g667
sg668
g684
sg669
S'global'
p688
sg671
(dp689
g23
F0.0024073122673971942
sg27
I0
sg28
I0
ssg673
g674
sg675
(lp690
I5
aI6
aI7
aI8
aI9
aI10
aI11
aI12
aI13
aI14
aI15
aI16
aI17
aI18
aI19
aI20
aI21
aI22
aI23
aI24
aI27
aI28
aI29
aI30
aI31
aI32
aI33
aI34
aI35
aI36
asg677
(lp691
g679
ag680
ag681
ag682
ag683
asbsS'earthPressure_backfill'
p692
g0
(g662
g2
Ntp693
Rp694
(dp695
g15
I2
sg666
g667
sg668
g692
sg669
g670
sg671
(dp696
g23
F0.049046846319860588
sg27
I0
sg28
I0
ssg673
g674
sg675
(lp697
g610
ag548
ag582
ag598
ag656
ag574
ag636
ag552
ag602
ag648
ag556
ag590
ag540
ag566
ag594
ag640
ag618
ag644
asg677
(lp698
g679
ag680
ag681
ag682
ag683
asbsS'Gleis1_BAHNLASTEN_Lasteinzugsflache_Lastblock_2'
p699
g0
(g662
g2
Ntp700
Rp701
(dp702
g15
I5
sg666
g667
sg668
g699
sg669
g688
sg671
(dp703
g23
F0.082726852378623622
sg27
I0
sg28
I0
ssg673
g674
sg675
(lp704
I5
aI6
aI13
aI14
aI21
aI22
asg677
(lp705
g679
ag680
ag681
ag682
ag683
asbsS'earthPressure_gravel'
p706
g0
(g662
g2
Ntp707
Rp708
(dp709
g15
I1
sg666
g667
sg668
g706
sg669
g688
sg671
(dp710
g23
F0.013500000000000002
sg27
I0
sg28
I0
ssg673
g674
sg675
(lp711
g562
ag626
ag586
ag622
ag578
ag652
ag614
ag606
ag570
asg677
(lp712
g679
ag680
ag681
ag682
ag683
asbsS'Gleis1_BAHNLASTEN_Lasteinzugsflache_Lastblock_3'
p713
g0
(g662
g2
Ntp714
Rp715
(dp716
g15
I6
sg666
g667
sg668
g713
sg669
g688
sg671
(dp717
g23
F0.082726852378623622
sg27
I0
sg28
I0
ssg673
g674
sg675
(lp718
I7
aI8
aI15
aI16
aI23
aI24
asg677
(lp719
g679
ag680
ag681
ag682
ag683
asbsS'Gleis1_BAHNLASTEN_Lasteinzugsflache_Lastblock_1'
p720
g0
(g662
g2
Ntp721
Rp722
(dp723
g15
I4
sg666
g667
sg668
g720
sg669
g688
sg671
(dp724
g23
F0.082726852378623622
sg27
I0
sg28
I0
ssg673
g674
sg675
(lp725
I27
aI30
aI31
aI34
aI35
asg677
(lp726
g679
ag680
ag681
ag682
ag683
asbsS'load_gravity'
p727
g0
(ccompas_fea.structure.load
GravityLoad
p728
g2
Ntp729
Rp730
(dp731
g15
I0
sg666
S'GravityLoad'
p732
sg668
g727
sg669
g688
sg671
(dp733
g23
F1.3500000000000001
sg27
F0.0
sg28
F0.0
ssg673
g674
sg675
(lp734
g562
ag626
ag586
ag622
ag578
ag652
ag614
ag606
ag570
ag610
ag548
ag582
ag598
ag656
ag574
ag636
ag552
ag602
ag648
ag556
ag590
ag540
ag566
ag594
ag640
ag618
ag644
asg677
(lp735
g679
ag680
ag681
ag682
ag683
aS'g'
p736
asS'g'
p737
F-9.8100000000000005
sbsS'Gleis1_BAHNLASTEN_Lasteinzugsflache_Lastblock_-1'
p738
g0
(g662
g2
Ntp739
Rp740
(dp741
g15
I7
sg666
g667
sg668
g738
sg669
g688
sg671
(dp742
g23
F0.082726852378623622
sg27
I0
sg28
I0
ssg673
g674
sg675
(lp743
I12
aI20
aI29
aI33
asg677
(lp744
g679
ag680
ag681
ag682
ag683
asbssS'materials'
p745
(dp746
g630
g0
(ccompas_fea.structure.material
MPCStiff
p747
g2
Ntp748
Rp749
(dp750
g15
I2
sS'__name__'
p751
S'MPCStiff'
p752
sS'name'
p753
g630
sS'attr_list'
p754
(lp755
g679
aS'E'
p756
aS'v'
p757
aS'G'
p758
aS'p'
p759
aS'tension'
p760
aS'compression'
p761
asS'E'
p762
(dp763
g756
L10000000000000L
ssS'v'
p764
(dp765
g757
F0.29999999999999999
ssS'G'
p766
(dp767
g758
F3846153846153.8462
ssS'p'
p768
F0.10000000000000001
sS'tension'
p769
I01
sS'compression'
p770
I01
sbsg536
g0
(ccompas_fea.structure.material
CMMUsermat
p771
g2
Ntp772
Rp773
(dp774
g15
I1
sg751
S'CMMUsermat'
p775
sg753
g536
sg754
(lp776
g679
ag756
ag757
ag758
ag759
aS'R_Rohr'
p777
aS'rho'
p778
aS'oo'
p779
aS'uu'
p780
aS'beton'
p781
aS'fcc'
p782
aS'vc'
p783
aS'ecu'
p784
aS'k_E'
p785
aS'theta_b0'
p786
aS'theta_b1'
p787
aS'k_riss'
p788
aS'Entfestigung'
p789
aS'lambdaTS'
p790
aS'srmx'
p791
aS'srmy'
p792
aS'Begrenzung'
p793
aS'KritQ'
p794
aS'winkelD'
p795
aS'k_vr'
p796
aS'fswy'
p797
aS'stahl1'
p798
aS'zm1'
p799
aS'fsy1'
p800
aS'fsu1'
p801
aS'esu1'
p802
aS'esv1'
p803
aS'Es1'
p804
aS'ka1'
p805
aS'kb1'
p806
aS'kc1'
p807
aS'as1'
p808
aS'dm1'
p809
aS'psi1'
p810
aS'stahl2'
p811
aS'zm2'
p812
aS'fsy2'
p813
aS'fsu2'
p814
aS'esu2'
p815
aS'esv2'
p816
aS'Es2'
p817
aS'ka2'
p818
aS'kb2'
p819
aS'kc2'
p820
aS'as2'
p821
aS'dm2'
p822
aS'psi2'
p823
aS'stahl3'
p824
aS'zm3'
p825
aS'fsy3'
p826
aS'fsu3'
p827
aS'esu3'
p828
aS'esv3'
p829
aS'Es3'
p830
aS'ka3'
p831
aS'kb3'
p832
aS'kc3'
p833
aS'as3'
p834
aS'dm3'
p835
aS'psi3'
p836
aS'stahl4'
p837
aS'zm4'
p838
aS'fsy4'
p839
aS'fsu4'
p840
aS'esu4'
p841
aS'esv4'
p842
aS'Es4'
p843
aS'ka4'
p844
aS'kb4'
p845
aS'kc4'
p846
aS'as4'
p847
aS'dm4'
p848
aS'psi4'
p849
asS'E'
p850
(dp851
S'E'
p852
I200000
ssS'v'
p853
(dp854
S'v'
p855
F0.10000000000000001
ssS'G'
p856
(dp857
g758
F90909.090909090897
ssS'p'
p858
F2.5000000000000002e-06
sS'R_Rohr'
p859
(dp860
g777
I-1
ssS'rho'
p861
(dp862
g778
F2.5000000000000002e-06
ssS'oo'
p863
(dp864
g779
I30
ssS'uu'
p865
(dp866
g780
I30
ssS'beton'
p867
(dp868
g781
I2
ssS'fcc'
p869
(dp870
g782
I33
ssS'vc'
p871
(dp872
g783
I0
ssS'ecu'
p873
(dp874
g784
F-0.002
ssS'k_E'
p875
(dp876
g785
I10000
ssS'theta_b0'
p877
(dp878
g786
I2
ssS'theta_b1'
p879
(dp880
g787
I1
ssS'k_riss'
p881
(dp882
g788
I0
ssS'Entfestigung'
p883
(dp884
g789
I0
ssS'lambdaTS'
p885
(dp886
g790
F0.67000000000000004
ssS'srmx'
p887
(dp888
g791
I1
ssS'srmy'
p889
(dp890
g792
I1
ssS'Begrenzung'
p891
(dp892
g793
I2
ssS'KritQ'
p893
(dp894
g794
I0
ssS'winkelD'
p895
(dp896
g795
I45
ssS'k_vr'
p897
(dp898
g796
I1
ssS'fswy'
p899
(dp900
g797
I500
ssS'stahl1'
p901
(dp902
g798
I1
ssS'zm1'
p903
(dp904
g799
I2
ssS'fsy1'
p905
(dp906
g800
I331
ssS'fsu1'
p907
(dp908
g801
I358
ssS'esu1'
p909
(dp910
g802
F0.044999999999999998
ssS'esv1'
p911
(dp912
g803
F0.02
ssS'Es1'
p913
(dp914
g804
I200000
ssS'ka1'
p915
(dp916
g805
I-1
ssS'kb1'
p917
(dp918
g806
I-1
ssS'kc1'
p919
(dp920
g807
I-1
ssS'as1'
p921
(dp922
g808
F2.521584243004253
ssS'dm1'
p923
(dp924
g809
F23.855750754295045
ssS'psi1'
p925
(dp926
g810
I90
ssS'stahl2'
p927
(dp928
g811
I1
ssS'zm2'
p929
(dp930
g812
I2
ssS'fsy2'
p931
(dp932
g813
I331
ssS'fsu2'
p933
(dp934
g814
I358
ssS'esu2'
p935
(dp936
g815
F0.044999999999999998
ssS'esv2'
p937
(dp938
g816
F0.02
ssS'Es2'
p939
(dp940
g817
I200000
ssS'ka2'
p941
(dp942
g818
I-1
ssS'kb2'
p943
(dp944
g819
I-1
ssS'kc2'
p945
(dp946
g820
I-1
ssS'as2'
p947
(dp948
g821
F0.63804277740827053
ssS'dm2'
p949
(dp950
g822
F12.0
ssS'psi2'
p951
(dp952
g823
I0
ssS'stahl3'
p953
(dp954
g824
I1
ssS'zm3'
p955
(dp956
g825
I2
ssS'fsy3'
p957
(dp958
g826
I331
ssS'fsu3'
p959
(dp960
g827
I358
ssS'esu3'
p961
(dp962
g828
F0.044999999999999998
ssS'esv3'
p963
(dp964
g829
F0.02
ssS'Es3'
p965
(dp966
g830
I200000
ssS'ka3'
p967
(dp968
g831
I-1
ssS'kb3'
p969
(dp970
g832
I-1
ssS'kc3'
p971
(dp972
g833
I-1
ssS'as3'
p973
(dp974
g834
F0.63804277740827053
ssS'dm3'
p975
(dp976
g835
F12.0
ssS'psi3'
p977
(dp978
g836
I0
ssS'stahl4'
p979
(dp980
g837
I1
ssS'zm4'
p981
(dp982
g838
I2
ssS'fsy4'
p983
(dp984
g839
I331
ssS'fsu4'
p985
(dp986
g840
I358
ssS'esu4'
p987
(dp988
g841
F0.044999999999999998
ssS'esv4'
p989
(dp990
g842
F0.02
ssS'Es4'
p991
(dp992
g843
I200000
ssS'ka4'
p993
(dp994
g844
I-1
ssS'kb4'
p995
(dp996
g845
I-1
ssS'kc4'
p997
(dp998
g846
I-1
ssS'as4'
p999
(dp1000
g847
F0.75065468373985567
ssS'dm4'
p1001
(dp1002
g848
F13.015967244195974
ssS'psi4'
p1003
(dp1004
g849
I90
ssbsg560
g0
(g771
g2
Ntp1005
Rp1006
(dp1007
g15
I0
sg751
g775
sg753
g560
sg754
(lp1008
g679
ag756
ag757
ag758
ag759
ag777
ag778
ag779
ag780
ag781
ag782
ag783
ag784
ag785
ag786
ag787
ag788
ag789
ag790
ag791
ag792
ag793
ag794
ag795
ag796
ag797
ag798
ag799
ag800
ag801
ag802
ag803
ag804
ag805
ag806
ag807
ag808
ag809
ag810
ag811
ag812
ag813
ag814
ag815
ag816
ag817
ag818
ag819
ag820
ag821
ag822
ag823
ag824
ag825
ag826
ag827
ag828
ag829
ag830
ag831
ag832
ag833
ag834
ag835
ag836
ag837
ag838
ag839
ag840
ag841
ag842
ag843
ag844
ag845
ag846
ag847
ag848
ag849
asg850
(dp1009
g852
I200000
ssg853
(dp1010
g855
F0.10000000000000001
ssg856
(dp1011
g758
F90909.090909090897
ssg858
F2.5000000000000002e-06
sg859
(dp1012
g777
I-1
ssg861
(dp1013
g778
F2.5000000000000002e-06
ssg863
(dp1014
g779
I30
ssg865
(dp1015
g780
I30
ssg867
(dp1016
g781
I2
ssg869
(dp1017
g782
I33
ssg871
(dp1018
g783
I0
ssg873
(dp1019
g784
F-0.002
ssg875
(dp1020
g785
I10000
ssg877
(dp1021
g786
I2
ssg879
(dp1022
g787
I1
ssg881
(dp1023
g788
I0
ssg883
(dp1024
g789
I0
ssg885
(dp1025
g790
F0.67000000000000004
ssg887
(dp1026
g791
I1
ssg889
(dp1027
g792
I1
ssg891
(dp1028
g793
I2
ssg893
(dp1029
g794
I0
ssg895
(dp1030
g795
I45
ssg897
(dp1031
g796
I1
ssg899
(dp1032
g797
I500
ssg901
(dp1033
g798
I1
ssg903
(dp1034
g799
I2
ssg905
(dp1035
g800
I331
ssg907
(dp1036
g801
I358
ssg909
(dp1037
g802
F0.044999999999999998
ssg911
(dp1038
g803
F0.02
ssg913
(dp1039
g804
I200000
ssg915
(dp1040
g805
I-1
ssg917
(dp1041
g806
I-1
ssg919
(dp1042
g807
I-1
ssg921
(dp1043
g808
F2.0866583197753559
ssg923
(dp1044
g809
F25.15083150702602
ssg925
(dp1045
g810
I90
ssg927
(dp1046
g811
I1
ssg929
(dp1047
g812
I2
ssg931
(dp1048
g813
I331
ssg933
(dp1049
g814
I358
ssg935
(dp1050
g815
F0.044999999999999998
ssg937
(dp1051
g816
F0.02
ssg939
(dp1052
g817
I200000
ssg941
(dp1053
g818
I-1
ssg943
(dp1054
g819
I-1
ssg945
(dp1055
g820
I-1
ssg947
(dp1056
g821
F1.0413277907266729
ssg949
(dp1057
g822
F17.767257908277788
ssg951
(dp1058
g823
I0
ssg953
(dp1059
g824
I1
ssg955
(dp1060
g825
I2
ssg957
(dp1061
g826
I331
ssg959
(dp1062
g827
I358
ssg961
(dp1063
g828
F0.044999999999999998
ssg963
(dp1064
g829
F0.02
ssg965
(dp1065
g830
I200000
ssg967
(dp1066
g831
I-1
ssg969
(dp1067
g832
I-1
ssg971
(dp1068
g833
I-1
ssg973
(dp1069
g834
F0.47501698394484521
ssg975
(dp1070
g835
F12.0
ssg977
(dp1071
g836
I0
ssg979
(dp1072
g837
I1
ssg981
(dp1073
g838
I2
ssg983
(dp1074
g839
I331
ssg985
(dp1075
g840
I358
ssg987
(dp1076
g841
F0.044999999999999998
ssg989
(dp1077
g842
F0.02
ssg991
(dp1078
g843
I200000
ssg993
(dp1079
g844
I-1
ssg995
(dp1080
g845
I-1
ssg997
(dp1081
g846
I-1
ssg999
(dp1082
g847
F0.73423529145496835
ssg1001
(dp1083
g848
F14.919157705980377
ssg1003
(dp1084
g849
I90
ssbssS'misc'
p1085
(dp1086
sS'name'
p1087
S'NLFE_CFB7'
p1088
sS'nodes'
p1089
(dp1090
I0
g0
(ccompas_fea.structure.node
Node
p1091
g2
Ntp1092
Rp1093
(dp1094
S'__name__'
p1095
S'Node'
p1096
sS'key'
p1097
I0
sS'x'
p1098
F0.0
sS'y'
p1099
F0.0
sS'z'
p1100
F0.0
sS'ex'
p1101
(lp1102
I1
aI0
aI0
asS'ey'
p1103
(lp1104
I0
aI1
aI0
asS'ez'
p1105
(lp1106
I0
aI0
aI1
asS'mass'
p1107
NsbsI1
g0
(g1091
g2
Ntp1108
Rp1109
(dp1110
g1095
g1096
sg1097
I1
sg1098
F1012.0868558491944
sg1099
F0.0
sg1100
F0.0
sg1101
g1102
sg1103
g1104
sg1105
g1106
sg1107
NsbsI2
g0
(g1091
g2
Ntp1111
Rp1112
(dp1113
g1095
g1096
sg1097
I2
sg1098
F0.0
sg1099
F918.51929612165213
sg1100
F0.0
sg1101
g1102
sg1103
g1104
sg1105
g1106
sg1107
NsbsI3
g0
(g1091
g2
Ntp1114
Rp1115
(dp1116
g1095
g1096
sg1097
I3
sg1098
F1012.0868558491944
sg1099
F918.51929612165213
sg1100
F0.0
sg1101
g1102
sg1103
g1104
sg1105
g1106
sg1107
NsbsI4
g0
(g1091
g2
Ntp1117
Rp1118
(dp1119
g1095
g1096
sg1097
I4
sg1098
F0.0
sg1099
F1837.0385922433043
sg1100
F0.0
sg1101
g1102
sg1103
g1104
sg1105
g1106
sg1107
NsbsI5
g0
(g1091
g2
Ntp1120
Rp1121
(dp1122
g1095
g1096
sg1097
I5
sg1098
F1012.0868558491944
sg1099
F1837.0385922433043
sg1100
F0.0
sg1101
g1102
sg1103
g1104
sg1105
g1106
sg1107
NsbsI6
g0
(g1091
g2
Ntp1123
Rp1124
(dp1125
g1095
g1096
sg1097
I6
sg1098
F0.0
sg1099
F2755.5578883649564
sg1100
F0.0
sg1101
g1102
sg1103
g1104
sg1105
g1106
sg1107
NsbsI7
g0
(g1091
g2
Ntp1126
Rp1127
(dp1128
g1095
g1096
sg1097
I7
sg1098
F1012.0868558491944
sg1099
F2755.5578883649564
sg1100
F0.0
sg1101
g1102
sg1103
g1104
sg1105
g1106
sg1107
NsbsI8
g0
(g1091
g2
Ntp1129
Rp1130
(dp1131
g1095
g1096
sg1097
I8
sg1098
F0.0
sg1099
F3674.0771844866085
sg1100
F0.0
sg1101
g1102
sg1103
g1104
sg1105
g1106
sg1107
NsbsI9
g0
(g1091
g2
Ntp1132
Rp1133
(dp1134
g1095
g1096
sg1097
I9
sg1098
F1012.0868558491944
sg1099
F3674.0771844866085
sg1100
F0.0
sg1101
g1102
sg1103
g1104
sg1105
g1106
sg1107
NsbsI10
g0
(g1091
g2
Ntp1135
Rp1136
(dp1137
g1095
g1096
sg1097
I10
sg1098
F0.0
sg1099
F7459.4900412303869
sg1100
F0.0
sg1101
g1102
sg1103
g1104
sg1105
g1106
sg1107
NsbsI11
g0
(g1091
g2
Ntp1138
Rp1139
(dp1140
g1095
g1096
sg1097
I11
sg1098
F1012.0868558491944
sg1099
F7459.4900412303869
sg1100
F0.0
sg1101
g1102
sg1103
g1104
sg1105
g1106
sg1107
NsbsI12
g0
(g1091
g2
Ntp1141
Rp1142
(dp1143
g1095
g1096
sg1097
I12
sg1098
F0.0
sg1099
F8378.0093373520394
sg1100
F0.0
sg1101
g1102
sg1103
g1104
sg1105
g1106
sg1107
NsbsI13
g0
(g1091
g2
Ntp1144
Rp1145
(dp1146
g1095
g1096
sg1097
I13
sg1098
F1012.0868558491944
sg1099
F8378.0093373520394
sg1100
F0.0
sg1101
g1102
sg1103
g1104
sg1105
g1106
sg1107
NsbsI14
g0
(g1091
g2
Ntp1147
Rp1148
(dp1149
g1095
g1096
sg1097
I14
sg1098
F0.0
sg1099
F9296.528633473692
sg1100
F0.0
sg1101
g1102
sg1103
g1104
sg1105
g1106
sg1107
NsbsI15
g0
(g1091
g2
Ntp1150
Rp1151
(dp1152
g1095
g1096
sg1097
I15
sg1098
F1012.0868558491944
sg1099
F9296.528633473692
sg1100
F0.0
sg1101
g1102
sg1103
g1104
sg1105
g1106
sg1107
NsbsI16
g0
(g1091
g2
Ntp1153
Rp1154
(dp1155
g1095
g1096
sg1097
I16
sg1098
F0.0
sg1099
F10215.047929595345
sg1100
F0.0
sg1101
g1102
sg1103
g1104
sg1105
g1106
sg1107
NsbsI17
g0
(g1091
g2
Ntp1156
Rp1157
(dp1158
g1095
g1096
sg1097
I17
sg1098
F1012.0868558491944
sg1099
F10215.047929595345
sg1100
F0.0
sg1101
g1102
sg1103
g1104
sg1105
g1106
sg1107
NsbsI18
g0
(g1091
g2
Ntp1159
Rp1160
(dp1161
g1095
g1096
sg1097
I18
sg1098
F0.0
sg1099
F11133.567225716995
sg1100
F0.0
sg1101
g1102
sg1103
g1104
sg1105
g1106
sg1107
NsbsI19
g0
(g1091
g2
Ntp1162
Rp1163
(dp1164
g1095
g1096
sg1097
I19
sg1098
F1012.0868558491944
sg1099
F11133.567225716995
sg1100
F0.0
sg1101
g1102
sg1103
g1104
sg1105
g1106
sg1107
NsbsI20
g0
(g1091
g2
Ntp1165
Rp1166
(dp1167
g1095
g1096
sg1097
I20
sg1098
F2024.1737116983888
sg1099
F0.0
sg1100
F0.0
sg1101
g1102
sg1103
g1104
sg1105
g1106
sg1107
NsbsI21
g0
(g1091
g2
Ntp1168
Rp1169
(dp1170
g1095
g1096
sg1097
I21
sg1098
F2024.1737116983888
sg1099
F918.51929612165213
sg1100
F0.0
sg1101
g1102
sg1103
g1104
sg1105
g1106
sg1107
NsbsI22
g0
(g1091
g2
Ntp1171
Rp1172
(dp1173
g1095
g1096
sg1097
I22
sg1098
F2024.1737116983888
sg1099
F1837.0385922433043
sg1100
F0.0
sg1101
g1102
sg1103
g1104
sg1105
g1106
sg1107
NsbsI23
g0
(g1091
g2
Ntp1174
Rp1175
(dp1176
g1095
g1096
sg1097
I23
sg1098
F2024.1737116983888
sg1099
F2755.5578883649564
sg1100
F0.0
sg1101
g1102
sg1103
g1104
sg1105
g1106
sg1107
NsbsI24
g0
(g1091
g2
Ntp1177
Rp1178
(dp1179
g1095
g1096
sg1097
I24
sg1098
F2024.1737116983888
sg1099
F3674.0771844866085
sg1100
F0.0
sg1101
g1102
sg1103
g1104
sg1105
g1106
sg1107
NsbsI25
g0
(g1091
g2
Ntp1180
Rp1181
(dp1182
g1095
g1096
sg1097
I25
sg1098
F2024.1737116983888
sg1099
F7459.4900412303869
sg1100
F0.0
sg1101
g1102
sg1103
g1104
sg1105
g1106
sg1107
NsbsI26
g0
(g1091
g2
Ntp1183
Rp1184
(dp1185
g1095
g1096
sg1097
I26
sg1098
F2024.1737116983888
sg1099
F8378.0093373520394
sg1100
F0.0
sg1101
g1102
sg1103
g1104
sg1105
g1106
sg1107
NsbsI27
g0
(g1091
g2
Ntp1186
Rp1187
(dp1188
g1095
g1096
sg1097
I27
sg1098
F2024.1737116983888
sg1099
F9296.528633473692
sg1100
F0.0
sg1101
g1102
sg1103
g1104
sg1105
g1106
sg1107
NsbsI28
g0
(g1091
g2
Ntp1189
Rp1190
(dp1191
g1095
g1096
sg1097
I28
sg1098
F2024.1737116983888
sg1099
F10215.047929595345
sg1100
F0.0
sg1101
g1102
sg1103
g1104
sg1105
g1106
sg1107
NsbsI29
g0
(g1091
g2
Ntp1192
Rp1193
(dp1194
g1095
g1096
sg1097
I29
sg1098
F2024.1737116983888
sg1099
F11133.567225716995
sg1100
F0.0
sg1101
g1102
sg1103
g1104
sg1105
g1106
sg1107
NsbsI30
g0
(g1091
g2
Ntp1195
Rp1196
(dp1197
g1095
g1096
sg1097
I30
sg1098
F3066.9298662096799
sg1099
F0.0
sg1100
F0.0
sg1101
g1102
sg1103
g1104
sg1105
g1106
sg1107
NsbsI31
g0
(g1091
g2
Ntp1198
Rp1199
(dp1200
g1095
g1096
sg1097
I31
sg1098
F3066.9298662096799
sg1099
F918.51929612165213
sg1100
F0.0
sg1101
g1102
sg1103
g1104
sg1105
g1106
sg1107
NsbsI32
g0
(g1091
g2
Ntp1201
Rp1202
(dp1203
g1095
g1096
sg1097
I32
sg1098
F3066.9298662096799
sg1099
F1837.0385922433043
sg1100
F0.0
sg1101
g1102
sg1103
g1104
sg1105
g1106
sg1107
NsbsI33
g0
(g1091
g2
Ntp1204
Rp1205
(dp1206
g1095
g1096
sg1097
I33
sg1098
F3066.9298662096799
sg1099
F2755.5578883649564
sg1100
F0.0
sg1101
g1102
sg1103
g1104
sg1105
g1106
sg1107
NsbsI34
g0
(g1091
g2
Ntp1207
Rp1208
(dp1209
g1095
g1096
sg1097
I34
sg1098
F3066.9298662096799
sg1099
F3674.0771844866085
sg1100
F0.0
sg1101
g1102
sg1103
g1104
sg1105
g1106
sg1107
NsbsI35
g0
(g1091
g2
Ntp1210
Rp1211
(dp1212
g1095
g1096
sg1097
I35
sg1098
F3066.9298662096799
sg1099
F7459.4900412303869
sg1100
F0.0
sg1101
g1102
sg1103
g1104
sg1105
g1106
sg1107
NsbsI36
g0
(g1091
g2
Ntp1213
Rp1214
(dp1215
g1095
g1096
sg1097
I36
sg1098
F3066.9298662096799
sg1099
F8378.0093373520394
sg1100
F0.0
sg1101
g1102
sg1103
g1104
sg1105
g1106
sg1107
NsbsI37
g0
(g1091
g2
Ntp1216
Rp1217
(dp1218
g1095
g1096
sg1097
I37
sg1098
F3066.9298662096799
sg1099
F9296.528633473692
sg1100
F0.0
sg1101
g1102
sg1103
g1104
sg1105
g1106
sg1107
NsbsI38
g0
(g1091
g2
Ntp1219
Rp1220
(dp1221
g1095
g1096
sg1097
I38
sg1098
F3066.9298662096799
sg1099
F10215.047929595345
sg1100
F0.0
sg1101
g1102
sg1103
g1104
sg1105
g1106
sg1107
NsbsI39
g0
(g1091
g2
Ntp1222
Rp1223
(dp1224
g1095
g1096
sg1097
I39
sg1098
F3066.9298662096799
sg1099
F11133.567225716995
sg1100
F0.0
sg1101
g1102
sg1103
g1104
sg1105
g1106
sg1107
NsbsI40
g0
(g1091
g2
Ntp1225
Rp1226
(dp1227
g1095
g1096
sg1097
I40
sg1098
F0.0
sg1099
F4620.4303986725536
sg1100
F0.0
sg1101
g1102
sg1103
g1104
sg1105
g1106
sg1107
NsbsI41
g0
(g1091
g2
Ntp1228
Rp1229
(dp1230
g1095
g1096
sg1097
I41
sg1098
F1012.0868558491944
sg1099
F4620.4303986725536
sg1100
F0.0
sg1101
g1102
sg1103
g1104
sg1105
g1106
sg1107
NsbsI42
g0
(g1091
g2
Ntp1231
Rp1232
(dp1233
g1095
g1096
sg1097
I42
sg1098
F0.0
sg1099
F5566.7836128584977
sg1100
F0.0
sg1101
g1102
sg1103
g1104
sg1105
g1106
sg1107
NsbsI43
g0
(g1091
g2
Ntp1234
Rp1235
(dp1236
g1095
g1096
sg1097
I43
sg1098
F1012.0868558491944
sg1099
F5566.7836128584977
sg1100
F0.0
sg1101
g1102
sg1103
g1104
sg1105
g1106
sg1107
NsbsI44
g0
(g1091
g2
Ntp1237
Rp1238
(dp1239
g1095
g1096
sg1097
I44
sg1098
F0.0
sg1099
F6513.1368270444418
sg1100
F0.0
sg1101
g1102
sg1103
g1104
sg1105
g1106
sg1107
NsbsI45
g0
(g1091
g2
Ntp1240
Rp1241
(dp1242
g1095
g1096
sg1097
I45
sg1098
F1012.0868558491944
sg1099
F6513.1368270444418
sg1100
F0.0
sg1101
g1102
sg1103
g1104
sg1105
g1106
sg1107
NsbsI46
g0
(g1091
g2
Ntp1243
Rp1244
(dp1245
g1095
g1096
sg1097
I46
sg1098
F2024.1737116983888
sg1099
F4620.4303986725536
sg1100
F0.0
sg1101
g1102
sg1103
g1104
sg1105
g1106
sg1107
NsbsI47
g0
(g1091
g2
Ntp1246
Rp1247
(dp1248
g1095
g1096
sg1097
I47
sg1098
F2024.1737116983888
sg1099
F5566.7836128584977
sg1100
F0.0
sg1101
g1102
sg1103
g1104
sg1105
g1106
sg1107
NsbsI48
g0
(g1091
g2
Ntp1249
Rp1250
(dp1251
g1095
g1096
sg1097
I48
sg1098
F2024.1737116983888
sg1099
F6513.1368270444418
sg1100
F0.0
sg1101
g1102
sg1103
g1104
sg1105
g1106
sg1107
NsbsI49
g0
(g1091
g2
Ntp1252
Rp1253
(dp1254
g1095
g1096
sg1097
I49
sg1098
F3066.9298662096799
sg1099
F4620.4303986725536
sg1100
F0.0
sg1101
g1102
sg1103
g1104
sg1105
g1106
sg1107
NsbsI50
g0
(g1091
g2
Ntp1255
Rp1256
(dp1257
g1095
g1096
sg1097
I50
sg1098
F3066.9298662096799
sg1099
F5566.7836128584977
sg1100
F0.0
sg1101
g1102
sg1103
g1104
sg1105
g1106
sg1107
NsbsI51
g0
(g1091
g2
Ntp1258
Rp1259
(dp1260
g1095
g1096
sg1097
I51
sg1098
F3066.9298662096799
sg1099
F6513.1368270444418
sg1100
F0.0
sg1101
g1102
sg1103
g1104
sg1105
g1106
sg1107
NsbsI52
g0
(g1091
g2
Ntp1261
Rp1262
(dp1263
g1095
g1096
sg1097
I52
sg1098
F0.0
sg1099
F0.0
sg1100
F-1795.6707430036663
sg1101
g1102
sg1103
g1104
sg1105
g1106
sg1107
NsbsI53
g0
(g1091
g2
Ntp1264
Rp1265
(dp1266
g1095
g1096
sg1097
I53
sg1098
F1012.08685584919
sg1099
F0.0
sg1100
F-1795.6707430036663
sg1101
g1102
sg1103
g1104
sg1105
g1106
sg1107
NsbsI54
g0
(g1091
g2
Ntp1267
Rp1268
(dp1269
g1095
g1096
sg1097
I54
sg1098
F0.0
sg1099
F0.0
sg1100
F-1220.4073989953006
sg1101
g1102
sg1103
g1104
sg1105
g1106
sg1107
NsbsI55
g0
(g1091
g2
Ntp1270
Rp1271
(dp1272
g1095
g1096
sg1097
I55
sg1098
F1012.08685584919
sg1099
F0.0
sg1100
F-1220.4073989953006
sg1101
g1102
sg1103
g1104
sg1105
g1106
sg1107
NsbsI56
g0
(g1091
g2
Ntp1273
Rp1274
(dp1275
g1095
g1096
sg1097
I56
sg1098
F0.0
sg1099
F0.0
sg1100
F-645.14405498693486
sg1101
g1102
sg1103
g1104
sg1105
g1106
sg1107
NsbsI57
g0
(g1091
g2
Ntp1276
Rp1277
(dp1278
g1095
g1096
sg1097
I57
sg1098
F1012.08685584919
sg1099
F0.0
sg1100
F-645.14405498693486
sg1101
g1102
sg1103
g1104
sg1105
g1106
sg1107
NsbsI58
g0
(g1091
g2
Ntp1279
Rp1280
(dp1281
g1095
g1096
sg1097
I58
sg1098
F2024.17371169839
sg1099
F0.0
sg1100
F-1795.6707430036663
sg1101
g1102
sg1103
g1104
sg1105
g1106
sg1107
NsbsI59
g0
(g1091
g2
Ntp1282
Rp1283
(dp1284
g1095
g1096
sg1097
I59
sg1098
F2024.17371169839
sg1099
F0.0
sg1100
F-1220.4073989953006
sg1101
g1102
sg1103
g1104
sg1105
g1106
sg1107
NsbsI60
g0
(g1091
g2
Ntp1285
Rp1286
(dp1287
g1095
g1096
sg1097
I60
sg1098
F2024.17371169839
sg1099
F0.0
sg1100
F-645.14405498693486
sg1101
g1102
sg1103
g1104
sg1105
g1106
sg1107
NsbsI61
g0
(g1091
g2
Ntp1288
Rp1289
(dp1290
g1095
g1096
sg1097
I61
sg1098
F3066.9298662096799
sg1099
F0.0
sg1100
F-1795.6707430036663
sg1101
g1102
sg1103
g1104
sg1105
g1106
sg1107
NsbsI62
g0
(g1091
g2
Ntp1291
Rp1292
(dp1293
g1095
g1096
sg1097
I62
sg1098
F3066.9298662096799
sg1099
F0.0
sg1100
F-1220.4073989953006
sg1101
g1102
sg1103
g1104
sg1105
g1106
sg1107
NsbsI63
g0
(g1091
g2
Ntp1294
Rp1295
(dp1296
g1095
g1096
sg1097
I63
sg1098
F3066.9298662096799
sg1099
F0.0
sg1100
F-645.14405498693486
sg1101
g1102
sg1103
g1104
sg1105
g1106
sg1107
NsbsI64
g0
(g1091
g2
Ntp1297
Rp1298
(dp1299
g1095
g1096
sg1097
I64
sg1098
F0.0
sg1099
F0.0
sg1100
F-2981.0618761118135
sg1101
g1102
sg1103
g1104
sg1105
g1106
sg1107
NsbsI65
g0
(g1091
g2
Ntp1300
Rp1301
(dp1302
g1095
g1096
sg1097
I65
sg1098
F1012.08685584919
sg1099
F0.0
sg1100
F-2981.0618761118135
sg1101
g1102
sg1103
g1104
sg1105
g1106
sg1107
NsbsI66
g0
(g1091
g2
Ntp1303
Rp1304
(dp1305
g1095
g1096
sg1097
I66
sg1098
F0.0
sg1099
F0.0
sg1100
F-2388.3663095577399
sg1101
g1102
sg1103
g1104
sg1105
g1106
sg1107
NsbsI67
g0
(g1091
g2
Ntp1306
Rp1307
(dp1308
g1095
g1096
sg1097
I67
sg1098
F1012.08685584919
sg1099
F0.0
sg1100
F-2388.3663095577399
sg1101
g1102
sg1103
g1104
sg1105
g1106
sg1107
NsbsI68
g0
(g1091
g2
Ntp1309
Rp1310
(dp1311
g1095
g1096
sg1097
I68
sg1098
F2024.17371169839
sg1099
F0.0
sg1100
F-2981.0618761118135
sg1101
g1102
sg1103
g1104
sg1105
g1106
sg1107
NsbsI69
g0
(g1091
g2
Ntp1312
Rp1313
(dp1314
g1095
g1096
sg1097
I69
sg1098
F2024.17371169839
sg1099
F0.0
sg1100
F-2388.3663095577399
sg1101
g1102
sg1103
g1104
sg1105
g1106
sg1107
NsbsI70
g0
(g1091
g2
Ntp1315
Rp1316
(dp1317
g1095
g1096
sg1097
I70
sg1098
F3066.9298662096799
sg1099
F0.0
sg1100
F-2981.0618761118135
sg1101
g1102
sg1103
g1104
sg1105
g1106
sg1107
NsbsI71
g0
(g1091
g2
Ntp1318
Rp1319
(dp1320
g1095
g1096
sg1097
I71
sg1098
F3066.9298662096799
sg1099
F0.0
sg1100
F-2388.3663095577399
sg1101
g1102
sg1103
g1104
sg1105
g1106
sg1107
NsbsI72
g0
(g1091
g2
Ntp1321
Rp1322
(dp1323
g1095
g1096
sg1097
I72
sg1098
F0.0
sg1099
F0.0
sg1100
F-4131.5885641285449
sg1101
g1102
sg1103
g1104
sg1105
g1106
sg1107
NsbsI73
g0
(g1091
g2
Ntp1324
Rp1325
(dp1326
g1095
g1096
sg1097
I73
sg1098
F1012.08685584919
sg1099
F0.0
sg1100
F-4131.5885641285449
sg1101
g1102
sg1103
g1104
sg1105
g1106
sg1107
NsbsI74
g0
(g1091
g2
Ntp1327
Rp1328
(dp1329
g1095
g1096
sg1097
I74
sg1098
F0.0
sg1099
F0.0
sg1100
F-3556.3252201201794
sg1101
g1102
sg1103
g1104
sg1105
g1106
sg1107
NsbsI75
g0
(g1091
g2
Ntp1330
Rp1331
(dp1332
g1095
g1096
sg1097
I75
sg1098
F1012.08685584919
sg1099
F0.0
sg1100
F-3556.3252201201794
sg1101
g1102
sg1103
g1104
sg1105
g1106
sg1107
NsbsI76
g0
(g1091
g2
Ntp1333
Rp1334
(dp1335
g1095
g1096
sg1097
I76
sg1098
F2024.17371169839
sg1099
F0.0
sg1100
F-4131.5885641285449
sg1101
g1102
sg1103
g1104
sg1105
g1106
sg1107
NsbsI77
g0
(g1091
g2
Ntp1336
Rp1337
(dp1338
g1095
g1096
sg1097
I77
sg1098
F2024.17371169839
sg1099
F0.0
sg1100
F-3556.3252201201794
sg1101
g1102
sg1103
g1104
sg1105
g1106
sg1107
NsbsI78
g0
(g1091
g2
Ntp1339
Rp1340
(dp1341
g1095
g1096
sg1097
I78
sg1098
F3066.9298662096799
sg1099
F0.0
sg1100
F-4131.5885641285449
sg1101
g1102
sg1103
g1104
sg1105
g1106
sg1107
NsbsI79
g0
(g1091
g2
Ntp1342
Rp1343
(dp1344
g1095
g1096
sg1097
I79
sg1098
F3066.9298662096799
sg1099
F0.0
sg1100
F-3556.3252201201794
sg1101
g1102
sg1103
g1104
sg1105
g1106
sg1107
NsbsI80
g0
(g1091
g2
Ntp1345
Rp1346
(dp1347
g1095
g1096
sg1097
I80
sg1098
F0.0
sg1099
F11133.567225716995
sg1100
F-1795.6707430036663
sg1101
g1102
sg1103
g1104
sg1105
g1106
sg1107
NsbsI81
g0
(g1091
g2
Ntp1348
Rp1349
(dp1350
g1095
g1096
sg1097
I81
sg1098
F1012.08685584919
sg1099
F11133.567225716995
sg1100
F-1795.6707430036663
sg1101
g1102
sg1103
g1104
sg1105
g1106
sg1107
NsbsI82
g0
(g1091
g2
Ntp1351
Rp1352
(dp1353
g1095
g1096
sg1097
I82
sg1098
F0.0
sg1099
F11133.567225716995
sg1100
F-1220.4073989953006
sg1101
g1102
sg1103
g1104
sg1105
g1106
sg1107
NsbsI83
g0
(g1091
g2
Ntp1354
Rp1355
(dp1356
g1095
g1096
sg1097
I83
sg1098
F1012.08685584919
sg1099
F11133.567225716995
sg1100
F-1220.4073989953006
sg1101
g1102
sg1103
g1104
sg1105
g1106
sg1107
NsbsI84
g0
(g1091
g2
Ntp1357
Rp1358
(dp1359
g1095
g1096
sg1097
I84
sg1098
F0.0
sg1099
F11133.567225716995
sg1100
F-645.14405498693486
sg1101
g1102
sg1103
g1104
sg1105
g1106
sg1107
NsbsI85
g0
(g1091
g2
Ntp1360
Rp1361
(dp1362
g1095
g1096
sg1097
I85
sg1098
F1012.08685584919
sg1099
F11133.567225716995
sg1100
F-645.14405498693486
sg1101
g1102
sg1103
g1104
sg1105
g1106
sg1107
NsbsI86
g0
(g1091
g2
Ntp1363
Rp1364
(dp1365
g1095
g1096
sg1097
I86
sg1098
F2024.17371169839
sg1099
F11133.567225716995
sg1100
F-1795.6707430036663
sg1101
g1102
sg1103
g1104
sg1105
g1106
sg1107
NsbsI87
g0
(g1091
g2
Ntp1366
Rp1367
(dp1368
g1095
g1096
sg1097
I87
sg1098
F2024.17371169839
sg1099
F11133.567225716995
sg1100
F-1220.4073989953006
sg1101
g1102
sg1103
g1104
sg1105
g1106
sg1107
NsbsI88
g0
(g1091
g2
Ntp1369
Rp1370
(dp1371
g1095
g1096
sg1097
I88
sg1098
F2024.17371169839
sg1099
F11133.567225716995
sg1100
F-645.14405498693486
sg1101
g1102
sg1103
g1104
sg1105
g1106
sg1107
NsbsI89
g0
(g1091
g2
Ntp1372
Rp1373
(dp1374
g1095
g1096
sg1097
I89
sg1098
F3066.9298662096799
sg1099
F11133.567225716995
sg1100
F-1795.6707430036663
sg1101
g1102
sg1103
g1104
sg1105
g1106
sg1107
NsbsI90
g0
(g1091
g2
Ntp1375
Rp1376
(dp1377
g1095
g1096
sg1097
I90
sg1098
F3066.9298662096799
sg1099
F11133.567225716995
sg1100
F-1220.4073989953006
sg1101
g1102
sg1103
g1104
sg1105
g1106
sg1107
NsbsI91
g0
(g1091
g2
Ntp1378
Rp1379
(dp1380
g1095
g1096
sg1097
I91
sg1098
F3066.9298662096799
sg1099
F11133.567225716995
sg1100
F-645.14405498693486
sg1101
g1102
sg1103
g1104
sg1105
g1106
sg1107
NsbsI92
g0
(g1091
g2
Ntp1381
Rp1382
(dp1383
g1095
g1096
sg1097
I92
sg1098
F0.0
sg1099
F11133.567225716995
sg1100
F-2981.0618761118135
sg1101
g1102
sg1103
g1104
sg1105
g1106
sg1107
NsbsI93
g0
(g1091
g2
Ntp1384
Rp1385
(dp1386
g1095
g1096
sg1097
I93
sg1098
F1012.08685584919
sg1099
F11133.567225716995
sg1100
F-2981.0618761118135
sg1101
g1102
sg1103
g1104
sg1105
g1106
sg1107
NsbsI94
g0
(g1091
g2
Ntp1387
Rp1388
(dp1389
g1095
g1096
sg1097
I94
sg1098
F0.0
sg1099
F11133.567225716995
sg1100
F-2388.3663095577399
sg1101
g1102
sg1103
g1104
sg1105
g1106
sg1107
NsbsI95
g0
(g1091
g2
Ntp1390
Rp1391
(dp1392
g1095
g1096
sg1097
I95
sg1098
F1012.08685584919
sg1099
F11133.567225716995
sg1100
F-2388.3663095577399
sg1101
g1102
sg1103
g1104
sg1105
g1106
sg1107
NsbsI96
g0
(g1091
g2
Ntp1393
Rp1394
(dp1395
g1095
g1096
sg1097
I96
sg1098
F2024.17371169839
sg1099
F11133.567225716995
sg1100
F-2981.0618761118135
sg1101
g1102
sg1103
g1104
sg1105
g1106
sg1107
NsbsI97
g0
(g1091
g2
Ntp1396
Rp1397
(dp1398
g1095
g1096
sg1097
I97
sg1098
F2024.17371169839
sg1099
F11133.567225716995
sg1100
F-2388.3663095577399
sg1101
g1102
sg1103
g1104
sg1105
g1106
sg1107
NsbsI98
g0
(g1091
g2
Ntp1399
Rp1400
(dp1401
g1095
g1096
sg1097
I98
sg1098
F3066.9298662096799
sg1099
F11133.567225716995
sg1100
F-2981.0618761118135
sg1101
g1102
sg1103
g1104
sg1105
g1106
sg1107
NsbsI99
g0
(g1091
g2
Ntp1402
Rp1403
(dp1404
g1095
g1096
sg1097
I99
sg1098
F3066.9298662096799
sg1099
F11133.567225716995
sg1100
F-2388.3663095577399
sg1101
g1102
sg1103
g1104
sg1105
g1106
sg1107
NsbsI100
g0
(g1091
g2
Ntp1405
Rp1406
(dp1407
g1095
g1096
sg1097
I100
sg1098
F0.0
sg1099
F11133.567225716995
sg1100
F-4131.5885641285449
sg1101
g1102
sg1103
g1104
sg1105
g1106
sg1107
NsbsI101
g0
(g1091
g2
Ntp1408
Rp1409
(dp1410
g1095
g1096
sg1097
I101
sg1098
F1012.08685584919
sg1099
F11133.567225716995
sg1100
F-4131.5885641285449
sg1101
g1102
sg1103
g1104
sg1105
g1106
sg1107
NsbsI102
g0
(g1091
g2
Ntp1411
Rp1412
(dp1413
g1095
g1096
sg1097
I102
sg1098
F0.0
sg1099
F11133.567225716995
sg1100
F-3556.3252201201794
sg1101
g1102
sg1103
g1104
sg1105
g1106
sg1107
NsbsI103
g0
(g1091
g2
Ntp1414
Rp1415
(dp1416
g1095
g1096
sg1097
I103
sg1098
F1012.08685584919
sg1099
F11133.567225716995
sg1100
F-3556.3252201201794
sg1101
g1102
sg1103
g1104
sg1105
g1106
sg1107
NsbsI104
g0
(g1091
g2
Ntp1417
Rp1418
(dp1419
g1095
g1096
sg1097
I104
sg1098
F2024.17371169839
sg1099
F11133.567225716995
sg1100
F-4131.5885641285449
sg1101
g1102
sg1103
g1104
sg1105
g1106
sg1107
NsbsI105
g0
(g1091
g2
Ntp1420
Rp1421
(dp1422
g1095
g1096
sg1097
I105
sg1098
F2024.17371169839
sg1099
F11133.567225716995
sg1100
F-3556.3252201201794
sg1101
g1102
sg1103
g1104
sg1105
g1106
sg1107
NsbsI106
g0
(g1091
g2
Ntp1423
Rp1424
(dp1425
g1095
g1096
sg1097
I106
sg1098
F3066.9298662096799
sg1099
F11133.567225716995
sg1100
F-4131.5885641285449
sg1101
g1102
sg1103
g1104
sg1105
g1106
sg1107
NsbsI107
g0
(g1091
g2
Ntp1426
Rp1427
(dp1428
g1095
g1096
sg1097
I107
sg1098
F3066.9298662096799
sg1099
F11133.567225716995
sg1100
F-3556.3252201201794
sg1101
g1102
sg1103
g1104
sg1105
g1106
sg1107
NsbssS'node_index'
p1429
(dp1430
S'0.000,0.000,-3556.325'
p1431
I74
sS'2024.174,5566.784,0.000'
p1432
I47
sS'0.000,2755.558,0.000'
p1433
I6
sS'2024.174,0.000,-4131.589'
p1434
I76
sS'0.000,0.000,-1220.407'
p1435
I54
sS'0.000,1837.039,0.000'
p1436
I4
sS'1012.087,3674.077,0.000'
p1437
I9
sS'1012.087,11133.567,0.000'
p1438
I19
sS'1012.087,2755.558,0.000'
p1439
I7
sS'2024.174,7459.490,0.000'
p1440
I25
sS'3066.930,6513.137,0.000'
p1441
I51
sS'2024.174,3674.077,0.000'
p1442
I24
sS'0.000,11133.567,-1220.407'
p1443
I82
sS'1012.087,5566.784,0.000'
p1444
I43
sS'0.000,7459.490,0.000'
p1445
I10
sS'2024.174,0.000,0.000'
p1446
I20
sS'1012.087,8378.009,0.000'
p1447
I13
sS'3066.930,11133.567,-1795.671'
p1448
I89
sS'3066.930,0.000,-645.144'
p1449
I63
sS'0.000,0.000,0.000'
p1450
I0
sS'0.000,11133.567,-2388.366'
p1451
I94
sS'1012.087,11133.567,-1220.407'
p1452
I83
sS'2024.174,1837.039,0.000'
p1453
I22
sS'3066.930,11133.567,-1220.407'
p1454
I90
sS'3066.930,11133.567,0.000'
p1455
I39
sS'3066.930,3674.077,0.000'
p1456
I34
sS'2024.174,2755.558,0.000'
p1457
I23
sS'0.000,10215.048,0.000'
p1458
I16
sS'1012.087,11133.567,-3556.325'
p1459
I103
sS'1012.087,0.000,-2388.366'
p1460
I67
sS'3066.930,2755.558,0.000'
p1461
I33
sS'1012.087,6513.137,0.000'
p1462
I45
sS'2024.174,11133.567,-645.144'
p1463
I88
sS'3066.930,4620.430,0.000'
p1464
I49
sS'1012.087,10215.048,0.000'
p1465
I17
sS'2024.174,8378.009,0.000'
p1466
I26
sS'1012.087,11133.567,-4131.589'
p1467
I101
sS'2024.174,0.000,-1220.407'
p1468
I59
sS'1012.087,918.519,0.000'
p1469
I3
sS'2024.174,4620.430,0.000'
p1470
I46
sS'3066.930,7459.490,0.000'
p1471
I35
sS'2024.174,10215.048,0.000'
p1472
I28
sS'1012.087,0.000,-2981.062'
p1473
I65
sS'0.000,11133.567,0.000'
p1474
I18
sS'1012.087,11133.567,-2388.366'
p1475
I95
sS'3066.930,8378.009,0.000'
p1476
I36
sS'3066.930,1837.039,0.000'
p1477
I32
sS'2024.174,11133.567,-2388.366'
p1478
I97
sS'2024.174,11133.567,0.000'
p1479
I29
sS'2024.174,918.519,0.000'
p1480
I21
sS'2024.174,0.000,-1795.671'
p1481
I58
sS'1012.087,0.000,-645.144'
p1482
I57
sS'1012.087,0.000,-1795.671'
p1483
I53
sS'2024.174,0.000,-2388.366'
p1484
I69
sS'2024.174,11133.567,-1795.671'
p1485
I86
sS'1012.087,9296.529,0.000'
p1486
I15
sS'3066.930,11133.567,-3556.325'
p1487
I107
sS'3066.930,0.000,-4131.589'
p1488
I78
sS'1012.087,0.000,-3556.325'
p1489
I75
sS'2024.174,0.000,-2981.062'
p1490
I68
sS'3066.930,0.000,-1795.671'
p1491
I61
sS'0.000,918.519,0.000'
p1492
I2
sS'3066.930,918.519,0.000'
p1493
I31
sS'0.000,11133.567,-1795.671'
p1494
I80
sS'3066.930,0.000,0.000'
p1495
I30
sS'1012.087,7459.490,0.000'
p1496
I11
sS'1012.087,4620.430,0.000'
p1497
I41
sS'3066.930,0.000,-2388.366'
p1498
I71
sS'1012.087,1837.039,0.000'
p1499
I5
sS'0.000,11133.567,-645.144'
p1500
I84
sS'3066.930,9296.529,0.000'
p1501
I37
sS'0.000,11133.567,-3556.325'
p1502
I102
sS'1012.087,0.000,0.000'
p1503
I1
sS'0.000,3674.077,0.000'
p1504
I8
sS'3066.930,11133.567,-4131.589'
p1505
I106
sS'0.000,9296.529,0.000'
p1506
I14
sS'0.000,0.000,-645.144'
p1507
I56
sS'1012.087,0.000,-1220.407'
p1508
I55
sS'3066.930,5566.784,0.000'
p1509
I50
sS'0.000,0.000,-4131.589'
p1510
I72
sS'2024.174,11133.567,-2981.062'
p1511
I96
sS'3066.930,10215.048,0.000'
p1512
I38
sS'1012.087,11133.567,-1795.671'
p1513
I81
sS'1012.087,11133.567,-2981.062'
p1514
I93
sS'0.000,8378.009,0.000'
p1515
I12
sS'0.000,11133.567,-2981.062'
p1516
I92
sS'1012.087,0.000,-4131.589'
p1517
I73
sS'3066.930,0.000,-2981.062'
p1518
I70
sS'3066.930,0.000,-3556.325'
p1519
I79
sS'1012.087,11133.567,-645.144'
p1520
I85
sS'3066.930,11133.567,-2388.366'
p1521
I99
sS'0.000,4620.430,0.000'
p1522
I40
sS'2024.174,11133.567,-1220.407'
p1523
I87
sS'3066.930,11133.567,-645.144'
p1524
I91
sS'2024.174,11133.567,-3556.325'
p1525
I105
sS'0.000,0.000,-1795.671'
p1526
I52
sS'2024.174,0.000,-3556.325'
p1527
I77
sS'2024.174,11133.567,-4131.589'
p1528
I104
sS'2024.174,0.000,-645.144'
p1529
I60
sS'0.000,11133.567,-4131.589'
p1530
I100
sS'0.000,6513.137,0.000'
p1531
I44
sS'2024.174,9296.529,0.000'
p1532
I27
sS'0.000,0.000,-2981.062'
p1533
I64
sS'0.000,5566.784,0.000'
p1534
I42
sS'0.000,0.000,-2388.366'
p1535
I66
sS'2024.174,6513.137,0.000'
p1536
I48
sS'3066.930,0.000,-1220.407'
p1537
I62
sS'3066.930,11133.567,-2981.062'
p1538
I98
ssS'path'
p1539
S'C:\\Temp\\'
p1540
sS'results'
p1541
(dp1542
S'step_2'
p1543
S'ERROR'
p1544
sS'step_3'
p1545
g1544
sS'step_4'
p1546
g1544
sS'step_1'
p1547
g1544
ssS'sections'
p1548
(dp1549
g547
g0
(ccompas_fea.structure.section
ShellSection
p1550
g2
Ntp1551
Rp1552
(dp1553
g15
I1
sS'__name__'
p1554
S'ShellSection'
p1555
sS'name'
p1556
g547
sS'geometry'
p1557
(dp1558
S't'
p1559
F357.54690377699558
ssS'loc_coords_OR'
p1560
(dp1561
S'ORxyz'
p1562
(lp1563
I0
aI0
aF-3486.4445091399998
assS'loc_coords_XA'
p1564
(dp1565
S'XAxyz'
p1566
(lp1567
I1
aI0
aF-3486.4445091399998
assS'loc_coords_YA'
p1568
(dp1569
S'YAxyz'
p1570
(lp1571
F3486.4445091399998
aF-3486.4445091399998
aF-3485.4445091399998
assS'loc_coords_EV_XA'
p1572
(dp1573
S'EV_XA'
p1574
(lp1575
F1.0
aF0.0
aF0.0
assS'loc_coords_EV_YA'
p1576
(dp1577
S'EV_YA'
p1578
(lp1579
F0.70710676664336403
aF-0.70710676664336403
aF0.00020281601063479592
assS'loc_coords_EV_ZA'
p1580
(dp1581
S'EV_ZA'
p1582
(lp1583
F0.0
aF-1.0
aF0.0
assS'nr_layers'
p1584
(dp1585
S'nn'
p1586
F30.0
ssS'offset'
p1587
(dp1588
S'mode'
p1589
S'mid'
p1590
ssbsg561
g0
(g1550
g2
Ntp1591
Rp1592
(dp1593
g15
I0
sg1554
g1555
sg1556
g561
sg1557
(dp1594
g1559
F645.14405498693486
ssg1560
(dp1595
g1562
(lp1596
I0
aI0
aI0
assg1564
(dp1597
g1566
(lp1598
I1
aI0
aI0
assg1568
(dp1599
g1570
(lp1600
F0.0
aF1.0
aF0.0
assg1572
(dp1601
g1574
(lp1602
F1.0
aF0.0
aF0.0
assg1576
(dp1603
g1578
(lp1604
F0.0
aF1.0
aF0.0
assg1580
(dp1605
g1582
(lp1606
F0.0
aF0.0
aF1.0
assg1584
(dp1607
g1586
F30.0
ssg1587
(dp1608
g1589
S'top'
p1609
ssbsg538
g0
(g1550
g2
Ntp1610
Rp1611
(dp1612
g15
I2
sg1554
g1555
sg1556
g538
sg1557
(dp1613
g1559
F357.54690377699558
ssg1560
(dp1614
g1562
(lp1615
I0
aF11133.567225700001
aF-3486.4445091399998
assg1564
(dp1616
g1566
(lp1617
I1
aF11133.567225700001
aF-3486.4445091399998
assg1568
(dp1618
g1570
(lp1619
F-3486.4445091411471
aF7647.1227165600012
aF-14621.01173484
assg1572
(dp1620
g1574
(lp1621
F1.0
aF0.0
aF0.0
assg1576
(dp1622
g1578
(lp1623
F-0.28630440399818224
aF-0.28630440399808799
aF-0.9143629347816683
assg1580
(dp1624
g1582
(lp1625
F0.0
aF1.0
aF0.0
assg1584
(dp1626
g1586
F30.0
ssg1587
(dp1627
g1589
g1590
ssbsg631
g0
(ccompas_fea.structure.section
MPCSection
p1628
g2
Ntp1629
Rp1630
(dp1631
g15
I3
sg1554
S'MPCSection'
p1632
sg1556
g631
sg1557
NsS'nr_layers'
p1633
NsbssS'sets'
p1634
(dp1635
g656
g0
(ccompas_fea.structure.set
Set
p1636
g2
Ntp1637
Rp1638
(dp1639
S'__name__'
p1640
S'Set'
p1641
sS'name'
p1642
g656
sS'type'
p1643
S'element'
p1644
sS'selection'
p1645
(lp1646
I44
aI45
asS'index'
p1647
I13
sbsg632
g0
(g1636
g2
Ntp1648
Rp1649
(dp1650
g1640
g1641
sg1642
g632
sg1643
g1644
sg1645
(lp1651
I72
aI73
aI74
aI75
aI76
aI77
aI78
aI79
asg1647
I27
sbsg540
g0
(g1636
g2
Ntp1652
Rp1653
(dp1654
g1640
g1641
sg1642
g540
sg1643
g1644
sg1645
(lp1655
I60
aI61
asg1647
I21
sbsg586
g0
(g1636
g2
Ntp1656
Rp1657
(dp1658
g1640
g1641
sg1642
g586
sg1643
g1644
sg1645
(lp1659
I8
aI9
aI10
aI11
asg1647
I2
sbsg552
g0
(g1636
g2
Ntp1660
Rp1661
(dp1662
g1640
g1641
sg1642
g552
sg1643
g1644
sg1645
(lp1663
I50
aI51
asg1647
I16
sbsg648
g0
(g1636
g2
Ntp1664
Rp1665
(dp1666
g1640
g1641
sg1642
g648
sg1643
g1644
sg1645
(lp1667
I54
aI55
asg1647
I18
sbsg626
g0
(g1636
g2
Ntp1668
Rp1669
(dp1670
g1640
g1641
sg1642
g626
sg1643
g1644
sg1645
(lp1671
I4
aI5
aI6
aI7
asg1647
I1
sbsg562
g0
(g1636
g2
Ntp1672
Rp1673
(dp1674
g1640
g1641
sg1642
g562
sg1643
g1644
sg1645
(lp1675
I0
aI1
aI2
aI3
asg1647
I0
sbsg614
g0
(g1636
g2
Ntp1676
Rp1677
(dp1678
g1640
g1641
sg1642
g614
sg1643
g1644
sg1645
(lp1679
I24
aI25
aI26
aI27
asg1647
I6
sbsg652
g0
(g1636
g2
Ntp1680
Rp1681
(dp1682
g1640
g1641
sg1642
g652
sg1643
g1644
sg1645
(lp1683
I20
aI21
aI22
aI23
asg1647
I5
sbsg578
g0
(g1636
g2
Ntp1684
Rp1685
(dp1686
g1640
g1641
sg1642
g578
sg1643
g1644
sg1645
(lp1687
I16
aI17
aI18
aI19
asg1647
I4
sbsg622
g0
(g1636
g2
Ntp1688
Rp1689
(dp1690
g1640
g1641
sg1642
g622
sg1643
g1644
sg1645
(lp1691
I12
aI13
aI14
aI15
asg1647
I3
sbsg570
g0
(g1636
g2
Ntp1692
Rp1693
(dp1694
g1640
g1641
sg1642
g570
sg1643
g1644
sg1645
(lp1695
I32
aI33
aI34
aI35
asg1647
I8
sbsg606
g0
(g1636
g2
Ntp1696
Rp1697
(dp1698
g1640
g1641
sg1642
g606
sg1643
g1644
sg1645
(lp1699
I28
aI29
aI30
aI31
asg1647
I7
sbsg582
g0
(g1636
g2
Ntp1700
Rp1701
(dp1702
g1640
g1641
sg1642
g582
sg1643
g1644
sg1645
(lp1703
I40
aI41
asg1647
I11
sbsg644
g0
(g1636
g2
Ntp1704
Rp1705
(dp1706
g1640
g1641
sg1642
g644
sg1643
g1644
sg1645
(lp1707
I70
aI71
asg1647
I26
sbsg594
g0
(g1636
g2
Ntp1708
Rp1709
(dp1710
g1640
g1641
sg1642
g594
sg1643
g1644
sg1645
(lp1711
I64
aI65
asg1647
I23
sbsg574
g0
(g1636
g2
Ntp1712
Rp1713
(dp1714
g1640
g1641
sg1642
g574
sg1643
g1644
sg1645
(lp1715
I46
aI47
asg1647
I14
sbsg590
g0
(g1636
g2
Ntp1716
Rp1717
(dp1718
g1640
g1641
sg1642
g590
sg1643
g1644
sg1645
(lp1719
I58
aI59
asg1647
I20
sbsg610
g0
(g1636
g2
Ntp1720
Rp1721
(dp1722
g1640
g1641
sg1642
g610
sg1643
g1644
sg1645
(lp1723
I36
aI37
asg1647
I9
sbsg602
g0
(g1636
g2
Ntp1724
Rp1725
(dp1726
g1640
g1641
sg1642
g602
sg1643
g1644
sg1645
(lp1727
I52
aI53
asg1647
I17
sbsg35
g0
(g1636
g2
Ntp1728
Rp1729
(dp1730
g1640
g1641
sg1642
g35
sg1643
S'node'
p1731
sg1645
(lp1732
I106
aI104
aI101
aI100
asg1647
I29
sbsg598
g0
(g1636
g2
Ntp1733
Rp1734
(dp1735
g1640
g1641
sg1642
g598
sg1643
g1644
sg1645
(lp1736
I42
aI43
asg1647
I12
sbsg618
g0
(g1636
g2
Ntp1737
Rp1738
(dp1739
g1640
g1641
sg1642
g618
sg1643
g1644
sg1645
(lp1740
I68
aI69
asg1647
I25
sbsg566
g0
(g1636
g2
Ntp1741
Rp1742
(dp1743
g1640
g1641
sg1642
g566
sg1643
g1644
sg1645
(lp1744
I62
aI63
asg1647
I22
sbsg20
g0
(g1636
g2
Ntp1745
Rp1746
(dp1747
g1640
g1641
sg1642
g20
sg1643
g1731
sg1645
(lp1748
I78
aI76
aI73
aI72
asg1647
I28
sbsg636
g0
(g1636
g2
Ntp1749
Rp1750
(dp1751
g1640
g1641
sg1642
g636
sg1643
g1644
sg1645
(lp1752
I48
aI49
asg1647
I15
sbsg556
g0
(g1636
g2
Ntp1753
Rp1754
(dp1755
g1640
g1641
sg1642
g556
sg1643
g1644
sg1645
(lp1756
I56
aI57
asg1647
I19
sbsg548
g0
(g1636
g2
Ntp1757
Rp1758
(dp1759
g1640
g1641
sg1642
g548
sg1643
g1644
sg1645
(lp1760
I38
aI39
asg1647
I10
sbsg640
g0
(g1636
g2
Ntp1761
Rp1762
(dp1763
g1640
g1641
sg1642
g640
sg1643
g1644
sg1645
(lp1764
I66
aI67
asg1647
I24
sbssS'steps'
p1765
(dp1766
g1543
g0
(ccompas_fea.structure.step
GeneralStep
p1767
g2
Ntp1768
Rp1769
(dp1770
g15
I1
sS'__name__'
p1771
S'GeneralStep'
p1772
sS'name'
p1773
g1543
sS'attr_list'
p1774
(lp1775
g679
aS'increments'
p1776
aS'iterations'
p1777
aS'factor'
p1778
aS'nlgeom'
p1779
aS'nlmat'
p1780
aS'displacements'
p1781
aS'loads'
p1782
aS'type'
p1783
aS'tolerance'
p1784
aS'modify'
p1785
asS'increments'
p1786
I1
sS'iterations'
p1787
I100
sS'tolerance'
p1788
F0.01
sS'factor'
p1789
F1.0
sS'nlgeom'
p1790
I00
sS'nlmat'
p1791
I01
sS'displacements'
p1792
(lp1793
sS'loads'
p1794
(lp1795
g727
asS'modify'
p1796
I01
sS'type'
p1797
S'static'
p1798
sbsg1545
g0
(g1767
g2
Ntp1799
Rp1800
(dp1801
g15
I2
sg1771
g1772
sg1773
g1545
sg1774
(lp1802
g679
ag1776
ag1777
ag1778
ag1779
ag1780
ag1781
ag1782
ag1783
ag1784
ag1785
asg1786
I1
sg1787
I100
sg1788
F0.01
sg1789
F1.0
sg1790
I00
sg1791
I01
sg1792
(lp1803
sg1794
(lp1804
g706
ag692
ag684
asg1796
I01
sg1797
g1798
sbsg1546
g0
(g1767
g2
Ntp1805
Rp1806
(dp1807
g15
I3
sg1771
g1772
sg1773
g1546
sg1774
(lp1808
g679
ag1776
ag1777
ag1778
ag1779
ag1780
ag1781
ag1782
ag1783
ag1784
ag1785
asg1786
I1
sg1787
I100
sg1788
F0.01
sg1789
F1.0
sg1790
I00
sg1791
I01
sg1792
(lp1809
sg1794
(lp1810
g720
ag699
ag713
ag738
ag661
asg1796
I01
sg1797
g1798
sbsg1547
g0
(g1767
g2
Ntp1811
Rp1812
(dp1813
g15
I0
sg1771
g1772
sg1773
g1547
sg1774
(lp1814
g679
ag1776
ag1777
ag1778
ag1779
ag1780
ag1781
ag1782
ag1783
ag1784
ag1785
asg1786
I1
sg1787
I100
sg1788
F0.01
sg1789
F1.0
sg1790
I00
sg1791
I01
sg1792
(lp1815
g10
ag31
asg1794
(lp1816
sg1796
I01
sg1797
g1798
sbssS'loc_coor'
p1817
(dp1818
sS'steps_order'
p1819
(lp1820
g1547
ag1543
ag1545
ag1546
asS'tol'
p1821
S'3'
p1822
sS'virtual_nodes'
p1823
(dp1824
sS'virtual_node_index'
p1825
(dp1826
sS'virtual_elements'
p1827
(dp1828
sS'virtual_element_index'
p1829
(dp1830
sb.